CCS PCH C Compiler, Version 4.104, 5967               27-jun.-19 09:01

               Filename: H:\JP\JP\Laboratorio\Cabina de Flujo Laminar Horizontal\2019\CFLH 60 Avantika #004587967 OP201991\Firmware V2.0\Maestro_v2.lst

               ROM used: 33334 bytes (34%)
                         Largest free fragment is 32768
               RAM used: 1605 (48%) at main() level
                         1663 (50%) worst case
               Stack:    6 worst case (5 in main + 1 for interrupts)

*
00000:  GOTO   4590
*
00008:  MOVWF  04
0000A:  MOVFF  FD8,05
0000E:  MOVFF  FE0,06
00012:  MOVLB  0
00014:  MOVFF  FE9,0C
00018:  MOVFF  FEA,07
0001C:  MOVFF  FE1,08
00020:  MOVFF  FE2,09
00024:  MOVFF  FD9,0A
00028:  MOVFF  FDA,0B
0002C:  MOVFF  FF3,12
00030:  MOVFF  FF4,13
00034:  MOVFF  FFA,14
00038:  MOVFF  FFB,15
0003C:  MOVFF  00,0E
00040:  MOVFF  01,0F
00044:  MOVFF  02,10
00048:  MOVFF  03,11
0004C:  BTFSS  F9D.0
0004E:  GOTO   0058
00052:  BTFSC  F9E.0
00054:  GOTO   1264
00058:  MOVFF  0E,00
0005C:  MOVFF  0F,01
00060:  MOVFF  10,02
00064:  MOVFF  11,03
00068:  MOVFF  0C,FE9
0006C:  MOVFF  07,FEA
00070:  BSF    07.7
00072:  MOVFF  08,FE1
00076:  MOVFF  09,FE2
0007A:  MOVFF  0A,FD9
0007E:  MOVFF  0B,FDA
00082:  MOVFF  12,FF3
00086:  MOVFF  13,FF4
0008A:  MOVFF  14,FFA
0008E:  MOVFF  15,FFB
00092:  MOVF   04,W
00094:  MOVFF  06,FE0
00098:  MOVFF  05,FD8
0009C:  RETFIE 0
.................... //Programa para Cabina de Bioseguridad 
....................  
.................... #include <18F4685.h> 
.................... //////// Standard Header file for the PIC18F4685 device //////////////// 
.................... #device PIC18F4685 
.................... #list 
....................  
.................... #device adc=10 
.................... #fuses HS,NOWDT,NOPROTECT,NOLVP,NODEBUG,NOSTVREN,NOPUT,NOCPD,NOWRT,NOIESO,NOFCMEN,NOPBADEN,NOWRTC,NOWRTB,NOEBTR,NOEBTRB,NOCPB,NOXINST,NOLPT1OSC,NOMCLR 
.................... #use delay(clock=20000000) 
*
0139A:  MOVLW  06
0139C:  MOVWF  FEA
0139E:  MOVLW  4A
013A0:  MOVWF  FE9
013A2:  MOVF   FEF,W
013A4:  BZ    13C0
013A6:  MOVLW  06
013A8:  MOVWF  01
013AA:  CLRF   00
013AC:  DECFSZ 00,F
013AE:  BRA    13AC
013B0:  DECFSZ 01,F
013B2:  BRA    13AA
013B4:  MOVLW  7B
013B6:  MOVWF  00
013B8:  DECFSZ 00,F
013BA:  BRA    13B8
013BC:  DECFSZ FEF,F
013BE:  BRA    13A6
013C0:  RETLW  00
.................... #include "HDM64GS12.c" 
.................... ///////////////////////////////////////////////////////////////////////// 
.................... ////                           HDM64GS12.c                           //// 
.................... ////                                                                 //// 
.................... //// This file contains drivers for using a Hantronix HDM64GS12 with //// 
.................... //// a KS0108 display controller. The HDM64GS12 is 128 by 64 pixels. //// 
.................... //// The driver treats the upper left pixel as (0,0).                //// 
.................... ////                                                                 //// 
.................... //// Use #define FAST_GLCD if the target chip has at least 1k of RAM //// 
.................... //// to decrease the time it takes to update the display.            //// 
.................... //// glcd_update() must then be called to update the display after   //// 
.................... //// changing the pixel information.                                 //// 
.................... //// See ex_glcd.c for suggested usage.                              //// 
.................... //// See KS0108.c for controlling a single 64 by 64 display          //// 
.................... ///////////////////////////////////////////////////////////////////////// 
.................... ////                                                                 //// 
.................... //// LCD Pin connections:                                            //// 
.................... //// (These can be changed as needed in the following defines).      //// 
.................... ////  * 1: VSS is connected to GND                                   //// 
.................... ////  * 2: VDD is connected to +5V                                   //// 
.................... ////  * 3: V0  - LCD operating voltage (Constrast adjustment)        //// 
.................... ////  * 4: D/I - Data or Instruction is connected to B2              //// 
.................... ////  * 5: R/W - Read or Write is connected to B4                    //// 
.................... ////  * 6: Enable is connected to B5                                 //// 
.................... ////  *7-14: Data Bus 0 to 7 is connected to port d                  //// 
.................... ////  *15: Chip Select 1 is connected to B0                          //// 
.................... ////  *16: Chip Select 2 is connected to B1                          //// 
.................... ////  *17: Reset is connected to C0                                  //// 
.................... ////  *18: Negative voltage is also connected to the 20k Ohm POT     //// 
.................... ////  *19: Positive voltage for LED backlight is connected to +5V    //// 
.................... ////  *20: Negavtive voltage for LED backlight is connected to GND   //// 
.................... ////                                                                 //// 
.................... ///////////////////////////////////////////////////////////////////////// 
.................... ////                                                                 //// 
.................... ////  glcd_init(mode)                                                //// 
.................... ////     * Must be called before any other function.                 //// 
.................... ////       - mode can be ON or OFF to turn the LCD on or off         //// 
.................... ////                                                                 //// 
.................... ////  glcd_pixel(x,y,color)                                          //// 
.................... ////     * Sets the pixel to the given color.                        //// 
.................... ////       - color can be ON or OFF                                  //// 
.................... ////                                                                 //// 
.................... ////  glcd_fillScreen(color)                                         //// 
.................... ////     * Fills the entire LCD with the given color.                //// 
.................... ////       - color can be ON or OFF                                  //// 
.................... ////                                                                 //// 
.................... ////  glcd_update()                                                  //// 
.................... ////     * Write the display data stored in RAM to the LCD           //// 
.................... ////     * Only available if FAST_GLCD is defined                    //// 
.................... ////                                                                 //// 
.................... ///////////////////////////////////////////////////////////////////////// 
.................... ////        (C) Copyright 1996, 2004 Custom Computer Services        //// 
.................... //// This source code may only be used by licensed users of the CCS  //// 
.................... //// C compiler.  This source code may only be distributed to other  //// 
.................... //// licensed users of the CCS C compiler.  No other use,            //// 
.................... //// reproduction or distribution is permitted without written       //// 
.................... //// permission.  Derivative programs created using this software    //// 
.................... //// in object code form are not restricted in any way.              //// 
.................... ///////////////////////////////////////////////////////////////////////// 
....................  
....................  
....................  
.................... #ifndef HDM64GS12 
.................... #define HDM64GS12 
....................  
.................... #ifndef FAST_GLCD 
.................... #define FAST_GLCD 
....................  
.................... #ifndef GLCD_WIDTH 
.................... #define GLCD_WIDTH   128 
.................... #endif 
....................  
.................... #ifndef GLCD_CS1 
.................... #define GLCD_CS1     PIN_B2   // Chip Selection 1 
.................... #endif 
....................  
.................... #ifndef GLCD_CS2 
.................... #define GLCD_CS2     PIN_B3   // Chip Selection 2 
.................... #endif 
....................  
.................... #ifndef GLCD_DI 
.................... #define GLCD_DI      PIN_B5   // Data or Instruction input 
.................... #endif 
....................  
.................... #ifndef GLCD_RW 
.................... #define GLCD_RW      PIN_B6   // Read/Write 
.................... #endif 
....................  
.................... #ifndef GLCD_E 
.................... #define GLCD_E       PIN_B7   // Enable 
.................... #endif 
....................  
.................... #ifndef GLCD_RST 
.................... #define GLCD_RST     PIN_B4   // Reset 
.................... #endif 
....................  
.................... #define GLCD_LEFT    0 
.................... #define GLCD_RIGHT   1 
....................  
.................... #ifndef ON 
.................... #define ON           1 
.................... #endif 
....................  
.................... #ifndef OFF 
.................... #define OFF          0 
.................... #endif 
....................  
.................... ///////////////////////////////////////////////////////////////////////// 
.................... // Function Prototypes 
.................... ///////////////////////////////////////////////////////////////////////// 
.................... void glcd_init(int1 mode); 
.................... void glcd_pixel(int8 x, int8 y, int1 color); 
.................... void glcd_fillScreen(int1 color); 
.................... void glcd_writeByte(int1 side, BYTE data); 
.................... BYTE glcd_readByte(int1 side); 
.................... void glcd_update(); 
.................... ///////////////////////////////////////////////////////////////////////// 
....................  
.................... #ifdef FAST_GLCD 
.................... struct 
.................... { 
....................    int8 left[512]; 
....................    int8 right[512]; 
.................... } displayData; 
.................... #endif 
....................  
....................  
.................... // Purpose:       Initialize the LCD. 
.................... //                Call before using any other LCD function. 
.................... // Inputs:        OFF - Turns the LCD off 
.................... //                ON  - Turns the LCD on 
.................... void glcd_init(int1 mode) 
.................... { 
....................    // Initialze some pins 
....................    output_high(GLCD_RST); 
*
04494:  BCF    F93.4
04496:  BSF    F8A.4
....................    output_low(GLCD_E); 
04498:  BCF    F93.7
0449A:  BCF    F8A.7
....................    output_low(GLCD_CS1); 
0449C:  BCF    F93.2
0449E:  BCF    F8A.2
....................    output_low(GLCD_CS2); 
044A0:  BCF    F93.3
044A2:  BCF    F8A.3
....................  
....................    output_low(GLCD_DI);                 // Set for instruction 
044A4:  BCF    F93.5
044A6:  BCF    F8A.5
....................    glcd_writeByte(GLCD_LEFT,  0xC0);    // Specify first RAM line at the top 
044A8:  MOVLB  6
044AA:  CLRF   x50
044AC:  MOVLW  C0
044AE:  MOVWF  x51
044B0:  MOVLB  0
044B2:  CALL   2AB2
....................    glcd_writeByte(GLCD_RIGHT, 0xC0);    //   of the screen 
044B6:  MOVLW  01
044B8:  MOVLB  6
044BA:  MOVWF  x50
044BC:  MOVLW  C0
044BE:  MOVWF  x51
044C0:  MOVLB  0
044C2:  CALL   2AB2
....................    glcd_writeByte(GLCD_LEFT,  0x40);    // Set the column address to 0 
044C6:  MOVLB  6
044C8:  CLRF   x50
044CA:  MOVLW  40
044CC:  MOVWF  x51
044CE:  MOVLB  0
044D0:  CALL   2AB2
....................    glcd_writeByte(GLCD_RIGHT, 0x40); 
044D4:  MOVLW  01
044D6:  MOVLB  6
044D8:  MOVWF  x50
044DA:  MOVLW  40
044DC:  MOVWF  x51
044DE:  MOVLB  0
044E0:  CALL   2AB2
....................    glcd_writeByte(GLCD_LEFT,  0xB8);    // Set the page address to 0 
044E4:  MOVLB  6
044E6:  CLRF   x50
044E8:  MOVLW  B8
044EA:  MOVWF  x51
044EC:  MOVLB  0
044EE:  CALL   2AB2
....................    glcd_writeByte(GLCD_RIGHT, 0xB8); 
044F2:  MOVLW  01
044F4:  MOVLB  6
044F6:  MOVWF  x50
044F8:  MOVLW  B8
044FA:  MOVWF  x51
044FC:  MOVLB  0
044FE:  CALL   2AB2
....................  
....................    if(mode == ON) 
04502:  MOVLB  6
04504:  DECFSZ x41,W
04506:  BRA    4528
....................    { 
....................       glcd_writeByte(GLCD_LEFT,  0x3F); // Turn the display on 
04508:  CLRF   x50
0450A:  MOVLW  3F
0450C:  MOVWF  x51
0450E:  MOVLB  0
04510:  CALL   2AB2
....................       glcd_writeByte(GLCD_RIGHT, 0x3F); 
04514:  MOVLW  01
04516:  MOVLB  6
04518:  MOVWF  x50
0451A:  MOVLW  3F
0451C:  MOVWF  x51
0451E:  MOVLB  0
04520:  CALL   2AB2
....................    } 
....................    else 
04524:  BRA    4544
04526:  MOVLB  6
....................    { 
....................       glcd_writeByte(GLCD_LEFT,  0x3E); // Turn the display off 
04528:  CLRF   x50
0452A:  MOVLW  3E
0452C:  MOVWF  x51
0452E:  MOVLB  0
04530:  CALL   2AB2
....................       glcd_writeByte(GLCD_RIGHT, 0x3E); 
04534:  MOVLW  01
04536:  MOVLB  6
04538:  MOVWF  x50
0453A:  MOVLW  3E
0453C:  MOVWF  x51
0453E:  MOVLB  0
04540:  CALL   2AB2
....................    } 
....................  
....................    glcd_fillScreen(OFF);                // Clear the display 
04544:  MOVLB  6
04546:  CLRF   x49
04548:  MOVLB  0
0454A:  CALL   35EE
....................  
....................    #ifdef FAST_GLCD 
....................    glcd_update(); 
0454E:  CALL   2AE8
....................    #endif 
.................... } 
04552:  RETLW  00
....................  
....................  
.................... // Purpose:    Update the LCD with data from the display arrays 
.................... #ifdef FAST_GLCD 
.................... void glcd_update() 
.................... { 
....................    int8 i, j; 
....................    int8 *p1, *p2; 
....................  
....................    p1 = displayData.left; 
*
02AE8:  MOVLB  6
02AEA:  CLRF   x4C
02AEC:  MOVLW  17
02AEE:  MOVWF  x4B
....................    p2 = displayData.right; 
02AF0:  MOVLW  02
02AF2:  MOVWF  x4E
02AF4:  MOVLW  17
02AF6:  MOVWF  x4D
....................  
....................    // Loop through the vertical pages 
....................    for(i = 0; i < 8; ++i) 
02AF8:  CLRF   x49
02AFA:  MOVF   x49,W
02AFC:  SUBLW  07
02AFE:  BNC   2B9C
....................    { 
....................       output_low(GLCD_DI);                      // Set for instruction 
02B00:  BCF    F93.5
02B02:  BCF    F8A.5
....................       glcd_writeByte(GLCD_LEFT, 0x40);          // Set horizontal address to 0 
02B04:  CLRF   x50
02B06:  MOVLW  40
02B08:  MOVWF  x51
02B0A:  MOVLB  0
02B0C:  RCALL  2AB2
....................       glcd_writeByte(GLCD_RIGHT, 0x40); 
02B0E:  MOVLW  01
02B10:  MOVLB  6
02B12:  MOVWF  x50
02B14:  MOVLW  40
02B16:  MOVWF  x51
02B18:  MOVLB  0
02B1A:  RCALL  2AB2
....................       glcd_writeByte(GLCD_LEFT, i | 0xB8);      // Set page address 
02B1C:  MOVLB  6
02B1E:  MOVF   x49,W
02B20:  IORLW  B8
02B22:  MOVWF  x4F
02B24:  CLRF   x50
02B26:  MOVWF  x51
02B28:  MOVLB  0
02B2A:  RCALL  2AB2
....................       glcd_writeByte(GLCD_RIGHT, i | 0xB8); 
02B2C:  MOVLB  6
02B2E:  MOVF   x49,W
02B30:  IORLW  B8
02B32:  MOVWF  x4F
02B34:  MOVLW  01
02B36:  MOVWF  x50
02B38:  MOVFF  64F,651
02B3C:  MOVLB  0
02B3E:  RCALL  2AB2
....................       output_high(GLCD_DI);                     // Set for data 
02B40:  BCF    F93.5
02B42:  BSF    F8A.5
....................  
....................       // Loop through the horizontal sections 
....................       for(j = 0; j < 64; ++j) 
02B44:  MOVLB  6
02B46:  CLRF   x4A
02B48:  MOVF   x4A,W
02B4A:  SUBLW  3F
02B4C:  BNC   2B98
....................       { 
....................          glcd_writeByte(GLCD_LEFT, *p1++);      // Turn pixels on or off 
02B4E:  MOVFF  64C,03
02B52:  MOVF   x4B,W
02B54:  INCF   x4B,F
02B56:  BTFSC  FD8.2
02B58:  INCF   x4C,F
02B5A:  MOVWF  FE9
02B5C:  MOVFF  03,FEA
02B60:  MOVFF  FEF,64F
02B64:  CLRF   x50
02B66:  MOVFF  64F,651
02B6A:  MOVLB  0
02B6C:  RCALL  2AB2
....................          glcd_writeByte(GLCD_RIGHT, *p2++);     // Turn pixels on or off 
02B6E:  MOVLB  6
02B70:  MOVFF  64E,03
02B74:  MOVF   x4D,W
02B76:  INCF   x4D,F
02B78:  BTFSC  FD8.2
02B7A:  INCF   x4E,F
02B7C:  MOVWF  FE9
02B7E:  MOVFF  03,FEA
02B82:  MOVFF  FEF,64F
02B86:  MOVLW  01
02B88:  MOVWF  x50
02B8A:  MOVFF  64F,651
02B8E:  MOVLB  0
02B90:  RCALL  2AB2
....................       } 
02B92:  MOVLB  6
02B94:  INCF   x4A,F
02B96:  BRA    2B48
....................    } 
02B98:  INCF   x49,F
02B9A:  BRA    2AFA
.................... } 
02B9C:  MOVLB  0
02B9E:  RETLW  00
.................... #endif 
....................  
....................  
.................... // Purpose:    Turn a pixel on a graphic LCD on or off 
.................... // Inputs:     1) x - the x coordinate of the pixel 
.................... //             2) y - the y coordinate of the pixel 
.................... //             3) color - ON or OFF 
.................... void glcd_pixel(int8 x, int8 y, int1 color) 
.................... #ifdef FAST_GLCD 
.................... { 
....................    int8* p; 
....................    int16 temp; 
....................    temp =  y/8; 
*
02FF8:  MOVLB  6
02FFA:  CLRF   x7B
02FFC:  RRCF   x76,W
02FFE:  MOVWF  x7A
03000:  RRCF   x7A,F
03002:  RRCF   x7A,F
03004:  MOVLW  1F
03006:  ANDWF  x7A,F
....................    temp *= 64; 
03008:  RLCF   x7A,F
0300A:  RLCF   x7B,F
0300C:  RLCF   x7A,F
0300E:  RLCF   x7B,F
03010:  RLCF   x7A,F
03012:  RLCF   x7B,F
03014:  RLCF   x7A,F
03016:  RLCF   x7B,F
03018:  RLCF   x7A,F
0301A:  RLCF   x7B,F
0301C:  RLCF   x7A,F
0301E:  RLCF   x7B,F
03020:  MOVLW  C0
03022:  ANDWF  x7A,F
....................    temp += x; 
03024:  MOVF   x75,W
03026:  ADDWF  x7A,F
03028:  MOVLW  00
0302A:  ADDWFC x7B,F
....................  
....................    if(x > 63) 
0302C:  MOVF   x75,W
0302E:  SUBLW  3F
03030:  BC    304C
....................    { 
....................       p = displayData.right + temp - 64; 
03032:  MOVLW  17
03034:  ADDWF  x7A,W
03036:  MOVWF  x7C
03038:  MOVLW  02
0303A:  ADDWFC x7B,W
0303C:  MOVWF  x7D
0303E:  MOVLW  40
03040:  SUBWF  x7C,W
03042:  MOVWF  x78
03044:  MOVLW  00
03046:  SUBWFB x7D,W
03048:  MOVWF  x79
....................    } 
....................    else 
0304A:  BRA    3058
....................    { 
....................       p = displayData.left + temp; 
0304C:  MOVLW  17
0304E:  ADDWF  x7A,W
03050:  MOVWF  x78
03052:  MOVLW  00
03054:  ADDWFC x7B,W
03056:  MOVWF  x79
....................    } 
....................  
....................    if(color) 
03058:  MOVF   x77,F
0305A:  BZ    3086
....................    { 
....................       bit_set(*p, y%8); 
0305C:  MOVFF  679,03
03060:  MOVFF  678,FE9
03064:  MOVFF  679,FEA
03068:  MOVF   x76,W
0306A:  ANDLW  07
0306C:  MOVWF  x7C
0306E:  MOVLW  01
03070:  MOVWF  00
03072:  MOVF   x7C,W
03074:  MOVWF  01
03076:  BZ    3080
03078:  BCF    FD8.0
0307A:  RLCF   00,F
0307C:  DECFSZ 01,F
0307E:  BRA    3078
03080:  MOVF   00,W
03082:  IORWF  FEF,F
....................    } 
....................    else 
03084:  BRA    30B0
....................    { 
....................       bit_clear(*p, y%8); 
03086:  MOVFF  679,03
0308A:  MOVFF  678,FE9
0308E:  MOVFF  679,FEA
03092:  MOVF   x76,W
03094:  ANDLW  07
03096:  MOVWF  x7C
03098:  MOVLW  01
0309A:  MOVWF  00
0309C:  MOVF   x7C,W
0309E:  MOVWF  01
030A0:  BZ    30AA
030A2:  BCF    FD8.0
030A4:  RLCF   00,F
030A6:  DECFSZ 01,F
030A8:  BRA    30A2
030AA:  MOVF   00,W
030AC:  XORLW  FF
030AE:  ANDWF  FEF,F
....................    } 
.................... } 
030B0:  MOVLB  0
030B2:  RETLW  00
.................... #else 
.................... { 
....................    BYTE data; 
....................    int1 side = GLCD_LEFT;  // Stores which chip to use on the LCD 
....................  
....................    if(x > 63)              // Check for first or second display area 
....................    { 
....................       x -= 64; 
....................       side = GLCD_RIGHT; 
....................    } 
....................  
....................    output_low(GLCD_DI);                         // Set for instruction 
....................    bit_clear(x,7);                              // Clear the MSB. Part of an instruction code 
....................    bit_set(x,6);                                // Set bit 6. Also part of an instruction code 
....................    glcd_writeByte(side, x);                     // Set the horizontal address 
....................    glcd_writeByte(side, (y/8 & 0xBF) | 0xB8);   // Set the vertical page address 
....................    output_high(GLCD_DI);                        // Set for data 
....................    glcd_readByte(side);                         // Need two reads to get data 
....................    data = glcd_readByte(side);                  //  at new address 
....................  
....................    if(color == ON) 
....................       bit_set(data, y%8);        // Turn the pixel on 
....................    else                          // or 
....................       bit_clear(data, y%8);      // turn the pixel off 
....................  
....................    output_low(GLCD_DI);          // Set for instruction 
....................    glcd_writeByte(side, x);      // Set the horizontal address 
....................    output_high(GLCD_DI);         // Set for data 
....................    glcd_writeByte(side, data);   // Write the pixel data 
.................... } 
.................... #endif 
....................  
....................  
.................... // Purpose:    Fill the LCD screen with the passed in color 
.................... // Inputs:     ON  - turn all the pixels on 
.................... //             OFF - turn all the pixels off 
.................... void glcd_fillScreen(int1 color) 
.................... #ifdef FAST_GLCD 
.................... { 
....................    int8  data; 
....................    int8  *p1, *p2; 
....................    int16 i; 
....................  
....................    p1 = displayData.left; 
*
035EE:  MOVLB  6
035F0:  CLRF   x4C
035F2:  MOVLW  17
035F4:  MOVWF  x4B
....................    p2 = displayData.right; 
035F6:  MOVLW  02
035F8:  MOVWF  x4E
035FA:  MOVLW  17
035FC:  MOVWF  x4D
....................    data = 0xFF * color; 
035FE:  MOVF   x49,W
03600:  MULLW  FF
03602:  MOVFF  FF3,64A
....................  
....................    for(i=0; i<512; ++i) 
03606:  CLRF   x50
03608:  CLRF   x4F
0360A:  MOVF   x50,W
0360C:  SUBLW  01
0360E:  BNC   3644
....................    { 
....................       *p1++ = data; 
03610:  MOVFF  64C,03
03614:  MOVF   x4B,W
03616:  INCF   x4B,F
03618:  BTFSC  FD8.2
0361A:  INCF   x4C,F
0361C:  MOVWF  FE9
0361E:  MOVFF  03,FEA
03622:  MOVFF  64A,FEF
....................       *p2++ = data; 
03626:  MOVFF  64E,03
0362A:  MOVF   x4D,W
0362C:  INCF   x4D,F
0362E:  BTFSC  FD8.2
03630:  INCF   x4E,F
03632:  MOVWF  FE9
03634:  MOVFF  03,FEA
03638:  MOVFF  64A,FEF
....................    } 
0363C:  INCF   x4F,F
0363E:  BTFSC  FD8.2
03640:  INCF   x50,F
03642:  BRA    360A
.................... } 
03644:  MOVLB  0
03646:  RETLW  00
.................... #else 
.................... { 
....................    int8 i, j; 
....................  
....................    // Loop through the vertical pages 
....................    for(i = 0; i < 8; ++i) 
....................    { 
....................       output_low(GLCD_DI);                      // Set for instruction 
....................       glcd_writeByte(GLCD_LEFT, 0b01000000);    // Set horizontal address to 0 
....................       glcd_writeByte(GLCD_RIGHT, 0b01000000); 
....................       glcd_writeByte(GLCD_LEFT, i | 0b10111000);// Set page address 
....................       glcd_writeByte(GLCD_RIGHT, i | 0b10111000); 
....................       output_high(GLCD_DI);                     // Set for data 
....................  
....................       // Loop through the horizontal sections 
....................       for(j = 0; j < 64; ++j) 
....................       { 
....................          glcd_writeByte(GLCD_LEFT, 0xFF*color);  // Turn pixels on or off 
....................          glcd_writeByte(GLCD_RIGHT, 0xFF*color); // Turn pixels on or off 
....................       } 
....................    } 
.................... } 
.................... #endif 
....................  
....................  
.................... // Purpose:    Write a byte of data to the specified chip 
.................... // Inputs:     1) chipSelect - which chip to write the data to 
.................... //             2) data - the byte of data to write 
.................... void glcd_writeByte(int1 side, BYTE data) 
.................... { 
....................    if(side)                   // Choose which side to write to 
*
02AB2:  MOVLB  6
02AB4:  MOVF   x50,F
02AB6:  BZ    2ABE
....................       output_high(GLCD_CS2); 
02AB8:  BCF    F93.3
02ABA:  BSF    F8A.3
....................    else 
02ABC:  BRA    2AC2
....................       output_high(GLCD_CS1); 
02ABE:  BCF    F93.2
02AC0:  BSF    F8A.2
....................  
....................    output_low(GLCD_RW);       // Set for writing 
02AC2:  BCF    F93.6
02AC4:  BCF    F8A.6
....................    output_d(data);            // Put the data on the port 
02AC6:  CLRF   F95
02AC8:  MOVFF  651,F8C
....................    delay_cycles(1); 
02ACC:  NOP   
....................    output_high(GLCD_E);       // Pulse the enable pin 
02ACE:  BCF    F93.7
02AD0:  BSF    F8A.7
....................    delay_cycles(5); 
02AD2:  BRA    2AD4
02AD4:  BRA    2AD6
02AD6:  NOP   
....................    output_low(GLCD_E); 
02AD8:  BCF    F93.7
02ADA:  BCF    F8A.7
....................  
....................    output_low(GLCD_CS1);      // Reset the chip select lines 
02ADC:  BCF    F93.2
02ADE:  BCF    F8A.2
....................    output_low(GLCD_CS2); 
02AE0:  BCF    F93.3
02AE2:  BCF    F8A.3
.................... } 
02AE4:  MOVLB  0
02AE6:  RETLW  00
....................  
....................  
.................... // Purpose:    Reads a byte of data from the specified chip 
.................... // Ouputs:     A byte of data read from the chip 
.................... BYTE glcd_readByte(int1 side) 
.................... { 
....................    BYTE data;                 // Stores the data read from the LCD 
....................  
....................    set_tris_d(0xFF);          // Set port d to input 
....................    output_high(GLCD_RW);      // Set for reading 
....................  
....................    if(side)                   // Choose which side to write to 
....................       output_high(GLCD_CS2); 
....................    else 
....................       output_high(GLCD_CS1); 
....................  
....................    delay_cycles(1); 
....................    output_high(GLCD_E);       // Pulse the enable pin 
....................    delay_cycles(4); 
....................    data = input_d();          // Get the data from the display's output register 
....................    output_low(GLCD_E); 
....................  
....................    output_low(GLCD_CS1);      // Reset the chip select lines 
....................    output_low(GLCD_CS2); 
....................    return data;               // Return the read data 
.................... } 
....................  
.................... #endif 
....................  
.................... #include "GRAPHICS.c" 
.................... ///////////////////////////////////////////////////////////////////////// 
.................... ////                          graphics.c                             //// 
.................... ////                                                                 //// 
.................... ////   This file contains functions to draw lines, rectangles, bars, //// 
.................... ////   circles and text to a display. A function which draws a       //// 
.................... ////   single pixel must be defined before calling the functions in  //// 
.................... ////   this file. Call it glcd_pixel(x, y, color) where x is the     //// 
.................... ////   horizontal coordinate, y is the vertical coordinate, and      //// 
.................... ////   color is 1 bit to turn the pixel on or off.                   //// 
.................... ////                                                                 //// 
.................... ////   * Note: (0, 0) is treated as the upper left corner            //// 
.................... ////                                                                 //// 
.................... ///////////////////////////////////////////////////////////////////////// 
.................... ////                                                                 //// 
.................... ////  glcd_line(x1, y1, x2, y2, color)                               //// 
.................... ////     * Draws a line from the first point to the second point     //// 
.................... ////       with the given color                                      //// 
.................... ////       - color can be ON or OFF                                  //// 
.................... ////                                                                 //// 
.................... ////  glcd_rect(x1, y1, x2, y2, fill, color)                         //// 
.................... ////     * Draws a rectangle with one corner at point (x1,y1) and    //// 
.................... ////       the other corner at point (x2,y2)                         //// 
.................... ////       - fill can be YES or NO                                   //// 
.................... ////       - color can be ON or OFF                                  //// 
.................... ////                                                                 //// 
.................... ////  glcd_bar(x1, y1, x2, y2, width, color)                         //// 
.................... ////     * Draws a bar (wide line) from the first point to the       //// 
.................... ////       second point                                              //// 
.................... ////       - width is the number of pixels wide                      //// 
.................... ////       - color is ON or OFF                                      //// 
.................... ////                                                                 //// 
.................... ////  glcd_circle(x, y, radius, fill, color)                         //// 
.................... ////     * Draws a circle with center at (x,y)                       //// 
.................... ////       - fill can be YES or NO                                   //// 
.................... ////       - color can be ON or OFF                                  //// 
.................... ////                                                                 //// 
.................... ////  glcd_text57(x, y, textptr, size, color)                        //// 
.................... ////     * Write the null terminated text pointed to by textptr with //// 
.................... ////       the upper left coordinate of the first character at (x,y) //// 
.................... ////       Characters are 5 pixels wide and 7 pixels tall            //// 
.................... ////       - size is an integer that scales the size of the text     //// 
.................... ////       - color is ON or OFF                                      //// 
.................... ////     * Note - This function wraps characters to the next line    //// 
.................... ////              use #define GLCD_WIDTH to specify a display width  //// 
.................... ////                                                                 //// 
.................... ///////////////////////////////////////////////////////////////////////// 
.................... ////        (C) Copyright 1996, 2004 Custom Computer Services        //// 
.................... //// This source code may only be used by licensed users of the CCS  //// 
.................... //// C compiler.  This source code may only be distributed to other  //// 
.................... //// licensed users of the CCS C compiler.  No other use,            //// 
.................... //// reproduction or distribution is permitted without written       //// 
.................... //// permission.  Derivative programs created using this software    //// 
.................... //// in object code form are not restricted in any way.              //// 
.................... ///////////////////////////////////////////////////////////////////////// 
....................  
....................  
.................... ///////////////////////////////////////////////////////////////////////// 
.................... #ifndef GRAPHICS_DRAWING_FUNCTIONS 
.................... #define GRAPHICS_DRAWING_FUNCTIONS 
.................... ///////////////////////////////////////////////////////////////////////// 
....................  
....................  
.................... ///////////////////////////////////////////////////////////////////////// 
.................... #ifndef ON 
.................... #define ON  1 
.................... #endif 
....................  
.................... #ifndef OFF 
.................... #define OFF 0 
.................... #endif 
....................  
.................... #ifndef YES 
.................... #define YES 1 
.................... #endif 
....................  
.................... #ifndef NO 
.................... #define NO  0 
.................... #endif 
.................... ///////////////////////////////////////////////////////////////////////// 
....................  
....................  
.................... ///////////////////////////////////////////////////////////////////////// 
.................... //// Defines a 5x7 font 
.................... ///////////////////////////////////////////////////////////////////////// 
.................... const int8 FONT[51][5] ={0x00, 0x00, 0x00, 0x00, 0x00, // SPACE 
....................                          0x00, 0x00, 0x5F, 0x00, 0x00, // ! 
....................                          0x00, 0x03, 0x00, 0x03, 0x00, // " 
....................                          0x14, 0x3E, 0x14, 0x3E, 0x14, // # 
....................                          0x24, 0x2A, 0x7F, 0x2A, 0x12, // $ 
....................                          0x43, 0x33, 0x08, 0x66, 0x61, // % 
....................                          0x36, 0x49, 0x55, 0x22, 0x50, // & 
....................                          0x00, 0x05, 0x03, 0x00, 0x00, // ' 
....................                          0x00, 0x1C, 0x22, 0x41, 0x00, // ( 
....................                          0x00, 0x41, 0x22, 0x1C, 0x00, // ) 
....................                          0x14, 0x08, 0x3E, 0x08, 0x14, // * 
....................                          0x08, 0x08, 0x3E, 0x08, 0x08, // + 
....................                          0x00, 0x50, 0x30, 0x00, 0x00, // , 
....................                          0x08, 0x08, 0x08, 0x08, 0x08, // - 
....................                          0x00, 0x60, 0x60, 0x00, 0x00, // . 
....................                          0x20, 0x10, 0x08, 0x04, 0x02, // / 
....................                          0x3E, 0x51, 0x49, 0x45, 0x3E, // 0 
....................                          0x00, 0x04, 0x02, 0x7F, 0x00, // 1 
....................                          0x42, 0x61, 0x51, 0x49, 0x46, // 2 
....................                          0x22, 0x41, 0x49, 0x49, 0x36, // 3 
....................                          0x18, 0x14, 0x12, 0x7F, 0x10, // 4 
....................                          0x27, 0x45, 0x45, 0x45, 0x39, // 5 
....................                          0x3E, 0x49, 0x49, 0x49, 0x32, // 6 
....................                          0x01, 0x01, 0x71, 0x09, 0x07, // 7 
....................                          0x36, 0x49, 0x49, 0x49, 0x36, // 8 
....................                          0x26, 0x49, 0x49, 0x49, 0x3E, // 9 
....................                          0x00, 0x36, 0x36, 0x00, 0x00, // : 
....................                          0x00, 0x56, 0x36, 0x00, 0x00, // ; 
....................                          0x08, 0x14, 0x22, 0x41, 0x00, // < 
....................                          0x14, 0x14, 0x14, 0x14, 0x14, // = 
....................                          0x00, 0x41, 0x22, 0x14, 0x08, // > 
....................                          0x02, 0x01, 0x51, 0x09, 0x06, // ? 
....................                          0x3E, 0x41, 0x59, 0x55, 0x5E, // @ 
....................                          0x7E, 0x09, 0x09, 0x09, 0x7E, // A 
....................                          0x7F, 0x49, 0x49, 0x49, 0x36, // B 
....................                          0x3E, 0x41, 0x41, 0x41, 0x22, // C 
....................                          0x7F, 0x41, 0x41, 0x41, 0x3E, // D 
....................                          0x7F, 0x49, 0x49, 0x49, 0x41, // E 
....................                          0x7F, 0x09, 0x09, 0x09, 0x01, // F 
....................                          0x3E, 0x41, 0x41, 0x49, 0x3A, // G 
....................                          0x7F, 0x08, 0x08, 0x08, 0x7F, // H 
....................                          0x00, 0x41, 0x7F, 0x41, 0x00, // I 
....................                          0x30, 0x40, 0x40, 0x40, 0x3F, // J 
....................                          0x7F, 0x08, 0x14, 0x22, 0x41, // K 
....................                          0x7F, 0x40, 0x40, 0x40, 0x40, // L 
....................                          0x7F, 0x02, 0x0C, 0x02, 0x7F, // M 
....................                          0x7F, 0x02, 0x04, 0x08, 0x7F, // N 
....................                          0x3E, 0x41, 0x41, 0x41, 0x3E, // O 
....................                          0x7F, 0x09, 0x09, 0x09, 0x06, // P 
....................                          0x1E, 0x21, 0x21, 0x21, 0x5E, // Q 
....................                          0x7F, 0x09, 0x09, 0x09, 0x76};// R 
....................  
.................... const int8 FONT2[44][5]={0x26, 0x49, 0x49, 0x49, 0x32, // S 
....................                          0x01, 0x01, 0x7F, 0x01, 0x01, // T 
....................                          0x3F, 0x40, 0x40, 0x40, 0x3F, // U 
....................                          0x1F, 0x20, 0x40, 0x20, 0x1F, // V 
....................                          0x7F, 0x20, 0x10, 0x20, 0x7F, // W 
....................                          0x41, 0x22, 0x1C, 0x22, 0x41, // X 
....................                          0x07, 0x08, 0x70, 0x08, 0x07, // Y 
....................                          0x61, 0x51, 0x49, 0x45, 0x43, // Z 
....................                          0x00, 0x7F, 0x41, 0x00, 0x00, // [ 
....................                          0x02, 0x04, 0x08, 0x10, 0x20, // \ 
....................                          0x00, 0x00, 0x41, 0x7F, 0x00, // ] 
....................                          0x04, 0x02, 0x01, 0x02, 0x04, // ^ 
....................                          0x40, 0x40, 0x40, 0x40, 0x40, // _ 
....................                          0x00, 0x01, 0x02, 0x04, 0x00, // ` 
....................                          0x20, 0x54, 0x54, 0x54, 0x78, // a 
....................                          0x7F, 0x44, 0x44, 0x44, 0x38, // b 
....................                          0x38, 0x44, 0x44, 0x44, 0x44, // c 
....................                          0x38, 0x44, 0x44, 0x44, 0x7F, // d 
....................                          0x38, 0x54, 0x54, 0x54, 0x18, // e 
....................                          0x04, 0x04, 0x7E, 0x05, 0x05, // f 
....................                          0x08, 0x54, 0x54, 0x54, 0x3C, // g 
....................                          0x7F, 0x08, 0x04, 0x04, 0x78, // h 
....................                          0x00, 0x44, 0x7D, 0x40, 0x00, // i 
....................                          0x20, 0x40, 0x44, 0x3D, 0x00, // j 
....................                          0x7F, 0x10, 0x28, 0x44, 0x00, // k 
....................                          0x00, 0x41, 0x7F, 0x40, 0x00, // l 
....................                          0x7C, 0x04, 0x78, 0x04, 0x78, // m 
....................                          0x7C, 0x08, 0x04, 0x04, 0x78, // n 
....................                          0x38, 0x44, 0x44, 0x44, 0x38, // o 
....................                          0x7C, 0x14, 0x14, 0x14, 0x08, // p 
....................                          0x08, 0x14, 0x14, 0x14, 0x7C, // q 
....................                          0x00, 0x7C, 0x08, 0x04, 0x04, // r 
....................                          0x48, 0x54, 0x54, 0x54, 0x20, // s 
....................                          0x04, 0x04, 0x3F, 0x44, 0x44, // t 
....................                          0x3C, 0x40, 0x40, 0x20, 0x7C, // u 
....................                          0x1C, 0x20, 0x40, 0x20, 0x1C, // v 
....................                          0x3C, 0x40, 0x30, 0x40, 0x3C, // w 
....................                          0x44, 0x28, 0x10, 0x28, 0x44, // x 
....................                          0x0C, 0x50, 0x50, 0x50, 0x3C, // y 
....................                          0x44, 0x64, 0x54, 0x4C, 0x44, // z 
....................                          0x00, 0x08, 0x36, 0x41, 0x41, // { 
....................                          0x00, 0x00, 0x7F, 0x00, 0x00, // | 
....................                          0x41, 0x41, 0x36, 0x08, 0x00, // } 
....................                          0x02, 0x01, 0x02, 0x04, 0x02};// ~ 
.................... ///////////////////////////////////////////////////////////////////////// 
....................  
....................  
.................... ///////////////////////////////////////////////////////////////////////// 
.................... // Purpose:       Draw a line on a graphic LCD using Bresenham's 
.................... //                line drawing algorithm 
.................... // Inputs:        (x1, y1) - the start coordinate 
.................... //                (x2, y2) - the end coordinate 
.................... //                color - ON or OFF 
.................... // Dependencies:  glcd_pixel() 
.................... ///////////////////////////////////////////////////////////////////////// 
.................... #ifdef LARGE_LCD 
.................... void glcd_line(int16 x1, int16 y1, int16 x2, int16 y2, int1 color) 
.................... #else 
.................... void glcd_line(int8 x1, int8 y1, int8 x2, int8 y2, int1 color) 
.................... #endif 
.................... { 
*
030B4:  MOVLW  01
030B6:  MOVLB  6
030B8:  MOVWF  x6E
030BA:  MOVWF  x6F
030BC:  CLRF   x74
....................    int16        dy, dx; 
....................    signed int8  addx=1, addy=1; 
....................    signed int16 P, diff; 
....................  
....................    #ifdef LARGE_LCD 
....................    int16 i=0; 
....................    dx = abs((signed int16)(x2 - x1)); 
....................    dy = abs((signed int16)(y2 - y1)); 
....................    #else 
....................    int8 i=0; 
....................    dx = abs((signed int8)(x2 - x1)); 
030BE:  MOVF   x65,W
030C0:  SUBWF  x67,W
030C2:  MOVWF  x75
030C4:  MOVF   x75,W
030C6:  BTFSS  x75.7
030C8:  BRA    30D0
030CA:  MOVLW  00
030CC:  BSF    FD8.0
030CE:  SUBFWB x75,W
030D0:  CLRF   03
030D2:  MOVWF  x6C
030D4:  MOVFF  03,66D
....................    dy = abs((signed int8)(y2 - y1)); 
030D8:  MOVF   x66,W
030DA:  SUBWF  x68,W
030DC:  MOVWF  x75
030DE:  MOVF   x75,W
030E0:  BTFSS  x75.7
030E2:  BRA    30EA
030E4:  MOVLW  00
030E6:  BSF    FD8.0
030E8:  SUBFWB x75,W
030EA:  CLRF   03
030EC:  MOVWF  x6A
030EE:  MOVFF  03,66B
....................    #endif 
....................  
....................    if(x1 > x2) 
030F2:  MOVF   x65,W
030F4:  SUBWF  x67,W
030F6:  BC    30FC
....................       addx = -1; 
030F8:  MOVLW  FF
030FA:  MOVWF  x6E
....................    if(y1 > y2) 
030FC:  MOVF   x66,W
030FE:  SUBWF  x68,W
03100:  BC    3106
....................       addy = -1; 
03102:  MOVLW  FF
03104:  MOVWF  x6F
....................  
....................    if(dx >= dy) 
03106:  MOVF   x6B,W
03108:  SUBWF  x6D,W
0310A:  BNC   3182
0310C:  BNZ   3114
0310E:  MOVF   x6A,W
03110:  SUBWF  x6C,W
03112:  BNC   3182
....................    { 
....................       dy *= 2; 
03114:  BCF    FD8.0
03116:  RLCF   x6A,F
03118:  RLCF   x6B,F
....................       P = dy - dx; 
0311A:  MOVF   x6C,W
0311C:  SUBWF  x6A,W
0311E:  MOVWF  00
03120:  MOVF   x6D,W
03122:  SUBWFB x6B,W
03124:  MOVFF  00,670
03128:  MOVWF  x71
....................       diff = P - dx; 
0312A:  MOVF   x6C,W
0312C:  SUBWF  x70,W
0312E:  MOVWF  x72
03130:  MOVF   x6D,W
03132:  SUBWFB x71,W
03134:  MOVWF  x73
....................  
....................       for(; i<=dx; ++i) 
03136:  MOVF   x6D,F
03138:  BNZ   3140
0313A:  MOVF   x74,W
0313C:  SUBWF  x6C,W
0313E:  BNC   3180
....................       { 
....................          glcd_pixel(x1, y1, color); 
03140:  MOVFF  665,675
03144:  MOVFF  666,676
03148:  MOVFF  669,677
0314C:  MOVLB  0
0314E:  RCALL  2FF8
....................  
....................          if(P < 0) 
03150:  MOVLB  6
03152:  BTFSC  x71.7
03154:  BRA    3158
03156:  BRA    3168
....................          { 
....................             P  += dy; 
03158:  MOVF   x6A,W
0315A:  ADDWF  x70,F
0315C:  MOVF   x6B,W
0315E:  ADDWFC x71,F
....................             x1 += addx; 
03160:  MOVF   x6E,W
03162:  ADDWF  x65,W
03164:  MOVWF  x65
....................          } 
....................          else 
03166:  BRA    317C
....................          { 
....................             P  += diff; 
03168:  MOVF   x72,W
0316A:  ADDWF  x70,F
0316C:  MOVF   x73,W
0316E:  ADDWFC x71,F
....................             x1 += addx; 
03170:  MOVF   x6E,W
03172:  ADDWF  x65,W
03174:  MOVWF  x65
....................             y1 += addy; 
03176:  MOVF   x6F,W
03178:  ADDWF  x66,W
0317A:  MOVWF  x66
....................          } 
....................       } 
0317C:  INCF   x74,F
0317E:  BRA    3136
....................    } 
....................    else 
03180:  BRA    31EE
....................    { 
....................       dx *= 2; 
03182:  BCF    FD8.0
03184:  RLCF   x6C,F
03186:  RLCF   x6D,F
....................       P = dx - dy; 
03188:  MOVF   x6A,W
0318A:  SUBWF  x6C,W
0318C:  MOVWF  00
0318E:  MOVF   x6B,W
03190:  SUBWFB x6D,W
03192:  MOVFF  00,670
03196:  MOVWF  x71
....................       diff = P - dy; 
03198:  MOVF   x6A,W
0319A:  SUBWF  x70,W
0319C:  MOVWF  x72
0319E:  MOVF   x6B,W
031A0:  SUBWFB x71,W
031A2:  MOVWF  x73
....................  
....................       for(; i<=dy; ++i) 
031A4:  MOVF   x6B,F
031A6:  BNZ   31AE
031A8:  MOVF   x74,W
031AA:  SUBWF  x6A,W
031AC:  BNC   31EE
....................       { 
....................          glcd_pixel(x1, y1, color); 
031AE:  MOVFF  665,675
031B2:  MOVFF  666,676
031B6:  MOVFF  669,677
031BA:  MOVLB  0
031BC:  RCALL  2FF8
....................  
....................          if(P < 0) 
031BE:  MOVLB  6
031C0:  BTFSC  x71.7
031C2:  BRA    31C6
031C4:  BRA    31D6
....................          { 
....................             P  += dx; 
031C6:  MOVF   x6C,W
031C8:  ADDWF  x70,F
031CA:  MOVF   x6D,W
031CC:  ADDWFC x71,F
....................             y1 += addy; 
031CE:  MOVF   x6F,W
031D0:  ADDWF  x66,W
031D2:  MOVWF  x66
....................          } 
....................          else 
031D4:  BRA    31EA
....................          { 
....................             P  += diff; 
031D6:  MOVF   x72,W
031D8:  ADDWF  x70,F
031DA:  MOVF   x73,W
031DC:  ADDWFC x71,F
....................             x1 += addx; 
031DE:  MOVF   x6E,W
031E0:  ADDWF  x65,W
031E2:  MOVWF  x65
....................             y1 += addy; 
031E4:  MOVF   x6F,W
031E6:  ADDWF  x66,W
031E8:  MOVWF  x66
....................          } 
....................       } 
031EA:  INCF   x74,F
031EC:  BRA    31A4
....................    } 
.................... } 
031EE:  MOVLB  0
031F0:  RETLW  00
....................  
....................  
.................... ///////////////////////////////////////////////////////////////////////// 
.................... // Purpose:       Draw a rectangle on a graphic LCD 
.................... // Inputs:        (x1, y1) - the start coordinate 
.................... //                (x2, y2) - the end coordinate 
.................... //                fill  - YES or NO 
.................... //                color - ON or OFF 
.................... // Dependencies:  glcd_pixel(), glcd_line() 
.................... ///////////////////////////////////////////////////////////////////////// 
.................... #ifdef LARGE_LCD 
.................... void glcd_rect(int16 x1, int16 y1, int16 x2, int16 y2, int1 fill, int1 color) 
.................... #else 
.................... void glcd_rect(int8 x1, int8 y1, int8 x2, int8 y2, int1 fill, int1 color) 
.................... #endif 
.................... { 
....................    if(fill) 
031F2:  MOVLB  6
031F4:  MOVF   x5E,F
031F6:  BZ    3254
....................    { 
....................       #ifdef LARGE_LCD 
....................       int16 i, xmin, xmax, ymin, ymax; 
....................       #else 
....................       int8  i, xmin, xmax, ymin, ymax; 
....................       #endif 
....................  
....................       if(x1 < x2)                            //  Find x min and max 
031F8:  MOVF   x5C,W
031FA:  SUBWF  x5A,W
031FC:  BC    3208
....................       { 
....................          xmin = x1; 
031FE:  MOVFF  65A,661
....................          xmax = x2; 
03202:  MOVFF  65C,662
....................       } 
....................       else 
03206:  BRA    3210
....................       { 
....................          xmin = x2; 
03208:  MOVFF  65C,661
....................          xmax = x1; 
0320C:  MOVFF  65A,662
....................       } 
....................  
....................       if(y1 < y2)                            // Find the y min and max 
03210:  MOVF   x5D,W
03212:  SUBWF  x5B,W
03214:  BC    3220
....................       { 
....................          ymin = y1; 
03216:  MOVFF  65B,663
....................          ymax = y2; 
0321A:  MOVFF  65D,664
....................       } 
....................       else 
0321E:  BRA    3228
....................       { 
....................          ymin = y2; 
03220:  MOVFF  65D,663
....................          ymax = y1; 
03224:  MOVFF  65B,664
....................       } 
....................  
....................       for(; xmin <= xmax; ++xmin) 
03228:  MOVF   x61,W
0322A:  SUBWF  x62,W
0322C:  BNC   3252
....................       { 
....................          for(i=ymin; i<=ymax; ++i) 
0322E:  MOVFF  663,660
03232:  MOVF   x60,W
03234:  SUBWF  x64,W
03236:  BNC   324E
....................          { 
....................             glcd_pixel(xmin, i, color); 
03238:  MOVFF  661,675
0323C:  MOVFF  660,676
03240:  MOVFF  65F,677
03244:  MOVLB  0
03246:  RCALL  2FF8
....................          } 
03248:  MOVLB  6
0324A:  INCF   x60,F
0324C:  BRA    3232
....................       } 
0324E:  INCF   x61,F
03250:  BRA    3228
....................    } 
....................    else 
03252:  BRA    32B0
....................    { 
....................       glcd_line(x1, y1, x2, y1, color);      // Draw the 4 sides 
03254:  MOVFF  65A,665
03258:  MOVFF  65B,666
0325C:  MOVFF  65C,667
03260:  MOVFF  65B,668
03264:  MOVFF  65F,669
03268:  MOVLB  0
0326A:  RCALL  30B4
....................       glcd_line(x1, y2, x2, y2, color); 
0326C:  MOVFF  65A,665
03270:  MOVFF  65D,666
03274:  MOVFF  65C,667
03278:  MOVFF  65D,668
0327C:  MOVFF  65F,669
03280:  RCALL  30B4
....................       glcd_line(x1, y1, x1, y2, color); 
03282:  MOVFF  65A,665
03286:  MOVFF  65B,666
0328A:  MOVFF  65A,667
0328E:  MOVFF  65D,668
03292:  MOVFF  65F,669
03296:  RCALL  30B4
....................       glcd_line(x2, y1, x2, y2, color); 
03298:  MOVFF  65C,665
0329C:  MOVFF  65B,666
032A0:  MOVFF  65C,667
032A4:  MOVFF  65D,668
032A8:  MOVFF  65F,669
032AC:  RCALL  30B4
032AE:  MOVLB  6
....................    } 
.................... } 
032B0:  MOVLB  0
032B2:  RETLW  00
....................  
.................... ///////////////////////////////////////////////////////////////////////// 
.................... // Purpose:       Draw a bar (wide line) on a graphic LCD 
.................... // Inputs:        (x1, y1) - the start coordinate 
.................... //                (x2, y2) - the end coordinate 
.................... //                width  - The number of pixels wide 
.................... //                color - ON or OFF 
.................... ///////////////////////////////////////////////////////////////////////// 
.................... #ifdef LARGE_LCD 
.................... void glcd_bar(int16 x1, int16 y1, int16 x2, int16 y2, int8 width, int1 color) 
.................... #else 
.................... void glcd_bar(int8 x1, int8 y1, int8 x2, int8 y2, int8 width, int1 color) 
.................... #endif 
.................... { 
....................    int8         half_width; 
....................    signed int16 dy, dx; 
....................    signed int8  addx=1, addy=1, j; 
....................    signed int16 P, diff, c1, c2; 
....................  
....................    #ifdef LARGE_LCD 
....................    int16 i=0; 
....................    dx = abs((signed int16)(x2 - x1)); 
....................    dy = abs((signed int16)(y2 - y1)); 
....................    #else 
....................    int8 i=0; 
....................    dx = abs((signed int8)(x2 - x1)); 
....................    dy = abs((signed int8)(y2 - y1)); 
....................    #endif 
....................  
....................    half_width = width/2; 
....................    c1 = -(dx*x1 + dy*y1); 
....................    c2 = -(dx*x2 + dy*y2); 
....................  
....................    if(x1 > x2) 
....................    { 
....................       signed int16 temp; 
....................       temp = c1; 
....................       c1 = c2; 
....................       c2 = temp; 
....................       addx = -1; 
....................    } 
....................    if(y1 > y2) 
....................    { 
....................       signed int16 temp; 
....................       temp = c1; 
....................       c1 = c2; 
....................       c2 = temp; 
....................       addy = -1; 
....................    } 
....................  
....................    if(dx >= dy) 
....................    { 
....................       P = 2*dy - dx; 
....................       diff = P - dx; 
....................  
....................       for(i=0; i<=dx; ++i) 
....................       { 
....................          for(j=-half_width; j<half_width+width%2; ++j) 
....................          { 
....................             #ifdef LARGE_LCD 
....................             int16 temp; 
....................             #else 
....................             int8 temp; 
....................             #endif 
....................  
....................             temp = dx*x1+dy*(y1+j);    // Use more RAM to increase speed 
....................             if(temp+c1 >= 0 && temp+c2 <=0) 
....................                glcd_pixel(x1, y1+j, color); 
....................          } 
....................          if(P < 0) 
....................          { 
....................             P  += 2*dy; 
....................             x1 += addx; 
....................          } 
....................          else 
....................          { 
....................             P  += diff; 
....................             x1 += addx; 
....................             y1 += addy; 
....................          } 
....................       } 
....................    } 
....................    else 
....................    { 
....................       P = 2*dx - dy; 
....................       diff = P - dy; 
....................  
....................       for(i=0; i<=dy; ++i) 
....................       { 
....................          if(P < 0) 
....................          { 
....................             P  += 2*dx; 
....................             y1 += addy; 
....................          } 
....................          else 
....................          { 
....................             P  += diff; 
....................             x1 += addx; 
....................             y1 += addy; 
....................          } 
....................          for(j=-half_width; j<half_width+width%2; ++j) 
....................          { 
....................             #ifdef LARGE_LCD 
....................             int16 temp; 
....................             #else 
....................             int8 temp; 
....................             #endif 
....................  
....................             temp = dx*x1+dy*(y1+j);    // Use more RAM to increase speed 
....................             if(temp+c1 >= 0 && temp+c2 <=0) 
....................                glcd_pixel(x1+j, y1, color); 
....................          } 
....................       } 
....................    } 
.................... } 
....................  
....................  
.................... ///////////////////////////////////////////////////////////////////////// 
.................... // Purpose:       Draw a circle on a graphic LCD 
.................... // Inputs:        (x,y) - the center of the circle 
.................... //                radius - the radius of the circle 
.................... //                fill - YES or NO 
.................... //                color - ON or OFF 
.................... ///////////////////////////////////////////////////////////////////////// 
.................... #ifdef LARGE_LCD 
.................... void glcd_circle(int16 x, int16 y, int16 radius, int1 fill, int1 color) 
.................... #else 
.................... void glcd_circle(int8 x, int8 y, int8 radius, int1 fill, int1 color) 
.................... #endif 
.................... { 
....................    #ifdef LARGE_LCD 
....................    signed int16 a, b, P; 
....................    #else 
....................    signed int8  a, b, P; 
....................    #endif 
....................  
....................    a = 0; 
....................    b = radius; 
....................    P = 1 - radius; 
....................  
....................    do 
....................    { 
....................       if(fill) 
....................       { 
....................          glcd_line(x-a, y+b, x+a, y+b, color); 
....................          glcd_line(x-a, y-b, x+a, y-b, color); 
....................          glcd_line(x-b, y+a, x+b, y+a, color); 
....................          glcd_line(x-b, y-a, x+b, y-a, color); 
....................       } 
....................       else 
....................       { 
....................          glcd_pixel(a+x, b+y, color); 
....................          glcd_pixel(b+x, a+y, color); 
....................          glcd_pixel(x-a, b+y, color); 
....................          glcd_pixel(x-b, a+y, color); 
....................          glcd_pixel(b+x, y-a, color); 
....................          glcd_pixel(a+x, y-b, color); 
....................          glcd_pixel(x-a, y-b, color); 
....................          glcd_pixel(x-b, y-a, color); 
....................       } 
....................  
....................       if(P < 0) 
....................          P += 3 + 2 * a++; 
....................       else 
....................          P += 5 + 2 * (a++ - b--); 
....................     } while(a <= b); 
.................... } 
....................  
....................  
.................... ///////////////////////////////////////////////////////////////////////// 
.................... // Purpose:       Write text on a graphic LCD 
.................... // Inputs:        (x,y) - The upper left coordinate of the first letter 
.................... //                textptr - A pointer to an array of text to display 
.................... //                size - The size of the text: 1 = 5x7, 2 = 10x14, ... 
.................... //                color - ON or OFF 
.................... ///////////////////////////////////////////////////////////////////////// 
.................... #ifdef LARGE_LCD 
.................... void glcd_text57(int16 x, int16 y, char* textptr, int8 size, int1 color) 
.................... #else 
.................... void glcd_text57(int8 x, int8 y, char* textptr, int8 size, int1 color) 
.................... #endif 
.................... { 
....................    int8 j, k, l, m;                       // Loop counters 
....................    int8 pixelData[5];                     // Stores character data 
....................  
....................    for(; *textptr != '\0'; ++textptr, ++x)// Loop through the passed string 
032B4:  MOVFF  65D,03
032B8:  MOVLB  6
032BA:  MOVFF  65C,FE9
032BE:  MOVFF  65D,FEA
032C2:  MOVF   FEF,F
032C4:  BTFSC  FD8.2
032C6:  BRA    3468
....................    { 
....................       if(*textptr < 'S') // Checks if the letter is in the first font array 
032C8:  MOVFF  65D,03
032CC:  MOVFF  65C,FE9
032D0:  MOVFF  65D,FEA
032D4:  MOVF   FEF,W
032D6:  SUBLW  52
032D8:  BNC   3328
....................          memcpy(pixelData, FONT[*textptr - ' '], 5); 
032DA:  MOVFF  65D,03
032DE:  MOVFF  65C,FE9
032E2:  MOVFF  65D,FEA
032E6:  MOVLW  20
032E8:  SUBWF  FEF,W
032EA:  MULLW  05
032EC:  MOVF   FF3,W
032EE:  CLRF   03
032F0:  MOVWF  x69
032F2:  MOVLW  06
032F4:  MOVWF  FEA
032F6:  MOVLW  64
032F8:  MOVWF  FE9
032FA:  CLRF   x6D
032FC:  MOVFF  669,66C
03300:  MOVFF  FF2,66A
03304:  BCF    FF2.7
03306:  MOVLW  05
03308:  MOVWF  01
0330A:  CLRF   FF7
0330C:  MOVF   x69,W
0330E:  MOVLB  0
03310:  CALL   009E
03314:  TBLRD*-
03316:  TBLRD*+
03318:  MOVFF  FF5,FEE
0331C:  DECFSZ 01,F
0331E:  BRA    3316
03320:  MOVLB  6
03322:  BTFSC  x6A.7
03324:  BSF    FF2.7
....................       else if(*textptr <= '~') // Check if the letter is in the second font array 
03326:  BRA    3392
03328:  MOVFF  65D,03
0332C:  MOVFF  65C,FE9
03330:  MOVFF  65D,FEA
03334:  MOVF   FEF,W
03336:  SUBLW  7E
03338:  BNC   3388
....................          memcpy(pixelData, FONT2[*textptr - 'S'], 5); 
0333A:  MOVFF  65D,03
0333E:  MOVFF  65C,FE9
03342:  MOVFF  65D,FEA
03346:  MOVLW  53
03348:  SUBWF  FEF,W
0334A:  MULLW  05
0334C:  MOVF   FF3,W
0334E:  CLRF   03
03350:  MOVWF  x69
03352:  MOVLW  06
03354:  MOVWF  FEA
03356:  MOVLW  64
03358:  MOVWF  FE9
0335A:  CLRF   x6D
0335C:  MOVFF  669,66C
03360:  MOVFF  FF2,66A
03364:  BCF    FF2.7
03366:  MOVLW  05
03368:  MOVWF  01
0336A:  CLRF   FF7
0336C:  MOVF   x69,W
0336E:  MOVLB  0
03370:  CALL   01BC
03374:  TBLRD*-
03376:  TBLRD*+
03378:  MOVFF  FF5,FEE
0337C:  DECFSZ 01,F
0337E:  BRA    3376
03380:  MOVLB  6
03382:  BTFSC  x6A.7
03384:  BSF    FF2.7
....................       else 
03386:  BRA    3392
....................          memcpy(pixelData, FONT[0], 5);   // Default to space 
03388:  CLRF   x64
0338A:  CLRF   x65
0338C:  CLRF   x66
0338E:  CLRF   x67
03390:  CLRF   x68
....................  
....................       // Handles newline and carriage returns 
....................       switch(*textptr) 
....................       { 
03392:  MOVFF  65D,03
03396:  MOVF   x5C,W
03398:  MOVWF  FE9
0339A:  MOVFF  03,FEA
0339E:  MOVF   FEF,W
033A0:  XORLW  0A
033A2:  MOVLB  0
033A4:  BZ    33AC
033A6:  XORLW  07
033A8:  BZ    33BC
033AA:  BRA    33C2
....................          case '\n': 
....................             y += 7*size + 1; 
033AC:  MOVLB  6
033AE:  MOVF   x5E,W
033B0:  MULLW  07
033B2:  MOVF   FF3,W
033B4:  ADDLW  01
033B6:  ADDWF  x5B,F
....................             continue; 
033B8:  BRA    345A
033BA:  MOVLB  0
....................          case '\r': 
....................             x = 0; 
033BC:  MOVLB  6
033BE:  CLRF   x5A
....................             continue; 
033C0:  BRA    345A
....................       } 
....................  
....................       if(x+5*size >= GLCD_WIDTH)          // Performs character wrapping 
033C2:  MOVLB  6
033C4:  MOVF   x5E,W
033C6:  MULLW  05
033C8:  MOVF   FF3,W
033CA:  ADDWF  x5A,W
033CC:  SUBLW  7F
033CE:  BC    33DC
....................       { 
....................          x = 0;                           // Set x at far left position 
033D0:  CLRF   x5A
....................          y += 7*size + 1;                 // Set y at next position down 
033D2:  MOVF   x5E,W
033D4:  MULLW  07
033D6:  MOVF   FF3,W
033D8:  ADDLW  01
033DA:  ADDWF  x5B,F
....................       } 
....................       for(j=0; j<5; ++j, x+=size)         // Loop through character byte data 
033DC:  CLRF   x60
033DE:  MOVF   x60,W
033E0:  SUBLW  04
033E2:  BNC   345A
....................       { 
....................          for(k=0; k < 7; ++k)             // Loop through the vertical pixels 
033E4:  CLRF   x61
033E6:  MOVF   x61,W
033E8:  SUBLW  06
033EA:  BNC   3452
....................          { 
....................             if(bit_test(pixelData[j], k)) // Check if the pixel should be set 
033EC:  CLRF   03
033EE:  MOVF   x60,W
033F0:  ADDLW  64
033F2:  MOVWF  FE9
033F4:  MOVLW  06
033F6:  ADDWFC 03,W
033F8:  MOVWF  FEA
033FA:  MOVFF  FEF,669
033FE:  MOVFF  669,00
03402:  MOVF   x61,W
03404:  MOVWF  01
03406:  BZ    3410
03408:  BCF    FD8.0
0340A:  RRCF   00,F
0340C:  DECFSZ 01,F
0340E:  BRA    3408
03410:  BTFSS  00.0
03412:  BRA    344E
....................             { 
....................                for(l=0; l < size; ++l)    // These two loops change the 
03414:  CLRF   x62
03416:  MOVF   x5E,W
03418:  SUBWF  x62,W
0341A:  BC    344E
....................                {                          // character's size 
....................                   for(m=0; m < size; ++m) 
0341C:  CLRF   x63
0341E:  MOVF   x5E,W
03420:  SUBWF  x63,W
03422:  BC    344A
....................                   { 
....................                      glcd_pixel(x+m, y+k*size+l, color); // Draws the pixel 
03424:  MOVF   x63,W
03426:  ADDWF  x5A,W
03428:  MOVWF  x69
0342A:  MOVF   x61,W
0342C:  MULWF  x5E
0342E:  MOVF   FF3,W
03430:  ADDWF  x5B,W
03432:  ADDWF  x62,W
03434:  MOVWF  x6A
03436:  MOVFF  669,675
0343A:  MOVWF  x76
0343C:  MOVFF  65F,677
03440:  MOVLB  0
03442:  RCALL  2FF8
....................                   } 
03444:  MOVLB  6
03446:  INCF   x63,F
03448:  BRA    341E
....................                } 
0344A:  INCF   x62,F
0344C:  BRA    3416
....................             } 
....................          } 
0344E:  INCF   x61,F
03450:  BRA    33E6
....................       } 
03452:  INCF   x60,F
03454:  MOVF   x5E,W
03456:  ADDWF  x5A,F
03458:  BRA    33DE
....................    } 
0345A:  INCF   x5C,F
0345C:  BTFSC  FD8.2
0345E:  INCF   x5D,F
03460:  INCF   x5A,F
03462:  MOVLB  0
03464:  BRA    32B4
03466:  MOVLB  6
.................... } 
03468:  MOVLB  0
0346A:  RETLW  00
....................  
.................... #endif 
....................  
.................... #include "imagen.h" 
.................... const int8 Bombillo [64][16] = { 
.................... 0x00, 0x00, 0x00, 0x00, 0x00, 0x00, 0x00, 0x00, 0x00, 0x00, 0x00, 0x00, 0x00, 0x00, 0x00, 0x00, 
.................... 0x00, 0x00, 0x00, 0x00, 0x00, 0x00, 0x00, 0x00, 0x00, 0x00, 0x00, 0x00, 0x00, 0x00, 0x00, 0x00, 
.................... 0x00, 0x00, 0x00, 0x00, 0x00, 0x00, 0x00, 0x00, 0x00, 0x00, 0x00, 0x00, 0x00, 0x00, 0x00, 0x00, 
.................... 0x00, 0x00, 0x00, 0x00, 0x00, 0x00, 0x00, 0x00, 0x00, 0x00, 0x00, 0x00, 0x00, 0x00, 0x00, 0x00, 
.................... 0x00, 0x00, 0x00, 0x00, 0x00, 0x00, 0x00, 0x00, 0x00, 0x00, 0x00, 0x00, 0x00, 0x00, 0x00, 0x00, 
.................... 0x00, 0x00, 0x00, 0x00, 0x00, 0x00, 0x00, 0x00, 0x00, 0x00, 0x00, 0x00, 0x00, 0x00, 0x00, 0x00, 
.................... 0x00, 0x00, 0x00, 0x00, 0x00, 0x00, 0x00, 0x00, 0x00, 0x00, 0x00, 0x00, 0x00, 0x00, 0x00, 0x00, 
.................... 0x00, 0x00, 0x00, 0x00, 0x00, 0x00, 0x00, 0x00, 0x00, 0x00, 0x00, 0x00, 0x00, 0x00, 0x00, 0x00, 
.................... 0x00, 0x00, 0x00, 0x00, 0x00, 0x00, 0x00, 0x00, 0x00, 0x00, 0x00, 0x00, 0x00, 0x00, 0x00, 0x00, 
.................... 0x00, 0x00, 0x00, 0x00, 0x00, 0x00, 0x00, 0x00, 0x00, 0x00, 0x00, 0x00, 0x00, 0x00, 0x00, 0x00, 
.................... 0x00, 0x00, 0x00, 0x00, 0x00, 0x00, 0x00, 0x00, 0x00, 0x00, 0x00, 0x00, 0x00, 0x00, 0x00, 0x00, 
.................... 0x00, 0x00, 0x00, 0x00, 0x00, 0x00, 0x00, 0x00, 0x00, 0x00, 0x00, 0x00, 0x00, 0x00, 0x00, 0x00, 
.................... 0x00, 0x00, 0x00, 0x00, 0x00, 0x00, 0x00, 0x00, 0x00, 0x00, 0x00, 0x00, 0x00, 0x00, 0x00, 0x00, 
.................... 0x00, 0x00, 0x00, 0x00, 0x00, 0x00, 0x00, 0x00, 0x00, 0x00, 0x00, 0x00, 0x00, 0x00, 0x00, 0x00, 
.................... 0x00, 0x00, 0x00, 0x00, 0x00, 0x00, 0x00, 0x00, 0x00, 0x00, 0x00, 0x00, 0x00, 0x00, 0x00, 0x00, 
.................... 0x00, 0x00, 0x00, 0x00, 0x00, 0x00, 0x00, 0x00, 0x00, 0x00, 0x00, 0x00, 0x00, 0x08, 0x00, 0x80, 
.................... 0x00, 0x00, 0x00, 0x00, 0x00, 0x00, 0x00, 0x00, 0x00, 0x00, 0x00, 0x00, 0x00, 0x04, 0x01, 0x00, 
.................... 0x00, 0x00, 0x00, 0x00, 0x00, 0x00, 0x00, 0x00, 0x00, 0x00, 0x00, 0x00, 0x00, 0x02, 0x02, 0x00, 
.................... 0x00, 0x00, 0x00, 0x00, 0x00, 0x00, 0x00, 0x00, 0x00, 0x00, 0x00, 0x00, 0x00, 0x00, 0x78, 0x00, 
.................... 0x00, 0x00, 0x00, 0x00, 0x00, 0x00, 0x00, 0x00, 0x00, 0x00, 0x00, 0x00, 0x00, 0x00, 0x84, 0x00, 
.................... 0x00, 0x00, 0x00, 0x00, 0x00, 0x00, 0x00, 0x00, 0x00, 0x00, 0x00, 0x00, 0x00, 0x01, 0x02, 0x00, 
.................... 0x00, 0x00, 0x00, 0x00, 0x00, 0x00, 0x00, 0x00, 0x00, 0x00, 0x00, 0x00, 0x00, 0xF9, 0x02, 0xF8, 
.................... 0x00, 0x00, 0x00, 0x00, 0x00, 0x00, 0x00, 0x00, 0x00, 0x00, 0x00, 0x00, 0x00, 0x01, 0x02, 0x00, 
.................... 0x00, 0x00, 0x00, 0x00, 0x00, 0x00, 0x00, 0x00, 0x00, 0x00, 0x00, 0x00, 0x00, 0x01, 0x02, 0x00, 
.................... 0x00, 0x00, 0x00, 0x00, 0x00, 0x00, 0x00, 0x00, 0x00, 0x00, 0x00, 0x00, 0x00, 0x04, 0x84, 0x80, 
.................... 0x00, 0x00, 0x00, 0x00, 0x00, 0x00, 0x00, 0x00, 0x00, 0x00, 0x00, 0x00, 0x00, 0x08, 0x78, 0x40, 
.................... 0x00, 0x00, 0x00, 0x00, 0x00, 0x00, 0x00, 0x00, 0x00, 0x00, 0x00, 0x00, 0x00, 0x10, 0x48, 0x20, 
.................... 0x00, 0x00, 0x00, 0x00, 0x00, 0x00, 0x00, 0x00, 0x00, 0x00, 0x00, 0x00, 0x00, 0x20, 0x48, 0x10, 
.................... 0x00, 0x00, 0x00, 0x00, 0x00, 0x00, 0x00, 0x00, 0x00, 0x00, 0x00, 0x00, 0x00, 0x00, 0x78, 0x00, 
.................... 0x00, 0x00, 0x00, 0x00, 0x00, 0x00, 0x00, 0x00, 0x00, 0x00, 0x00, 0x00, 0x00, 0x00, 0x00, 0x00, 
.................... 0x00, 0x00, 0x00, 0x00, 0x00, 0x00, 0x00, 0x00, 0x00, 0x00, 0x00, 0x00, 0x00, 0x00, 0x00, 0x00, 
.................... 0x00, 0x00, 0x00, 0x00, 0x00, 0x00, 0x00, 0x00, 0x00, 0x00, 0x00, 0x00, 0x00, 0x00, 0x00, 0x00, 
.................... 0x00, 0x00, 0x00, 0x00, 0x00, 0x00, 0x00, 0x00, 0x00, 0x00, 0x00, 0x00, 0x00, 0x00, 0x00, 0x00, 
.................... 0x00, 0x00, 0x00, 0x00, 0x00, 0x00, 0x00, 0x00, 0x00, 0x00, 0x00, 0x00, 0x00, 0x00, 0x00, 0x00, 
.................... 0x00, 0x00, 0x00, 0x00, 0x00, 0x00, 0x00, 0x00, 0x00, 0x00, 0x00, 0x00, 0x00, 0x00, 0x00, 0x00, 
.................... 0x00, 0x00, 0x00, 0x00, 0x00, 0x00, 0x00, 0x00, 0x00, 0x00, 0x00, 0x00, 0x00, 0x00, 0x00, 0x00, 
.................... 0x00, 0x00, 0x00, 0x00, 0x00, 0x00, 0x00, 0x00, 0x00, 0x00, 0x00, 0x00, 0x00, 0x00, 0x00, 0x00, 
.................... 0x00, 0x00, 0x00, 0x00, 0x00, 0x00, 0x00, 0x00, 0x00, 0x00, 0x00, 0x00, 0x00, 0x00, 0x00, 0x00, 
.................... 0x00, 0x00, 0x00, 0x00, 0x00, 0x00, 0x00, 0x00, 0x00, 0x00, 0x00, 0x00, 0x00, 0x00, 0x00, 0x00, 
.................... 0x00, 0x00, 0x00, 0x00, 0x00, 0x00, 0x00, 0x00, 0x00, 0x00, 0x00, 0x00, 0x00, 0x00, 0x00, 0x00, 
.................... 0x00, 0x00, 0x00, 0x00, 0x00, 0x00, 0x00, 0x00, 0x00, 0x00, 0x00, 0x00, 0x00, 0x00, 0x00, 0x00, 
.................... 0x00, 0x00, 0x00, 0x00, 0x00, 0x00, 0x00, 0x00, 0x00, 0x00, 0x00, 0x00, 0x00, 0x00, 0x00, 0x00, 
.................... 0x00, 0x00, 0x00, 0x00, 0x00, 0x00, 0x00, 0x00, 0x00, 0x00, 0x00, 0x00, 0x00, 0x00, 0x00, 0x00, 
.................... 0x00, 0x00, 0x00, 0x00, 0x00, 0x00, 0x00, 0x00, 0x00, 0x00, 0x00, 0x00, 0x00, 0x00, 0x00, 0x00, 
.................... 0x00, 0x00, 0x00, 0x00, 0x00, 0x00, 0x00, 0x00, 0x00, 0x00, 0x00, 0x00, 0x00, 0x00, 0x00, 0x00, 
.................... 0x00, 0x00, 0x00, 0x00, 0x00, 0x00, 0x00, 0x00, 0x00, 0x00, 0x00, 0x00, 0x00, 0x00, 0x00, 0x00, 
.................... 0x00, 0x00, 0x00, 0x00, 0x00, 0x00, 0x00, 0x00, 0x00, 0x00, 0x00, 0x00, 0x00, 0x00, 0x00, 0x00, 
.................... 0x00, 0x00, 0x00, 0x00, 0x00, 0x00, 0x00, 0x00, 0x00, 0x00, 0x00, 0x00, 0x00, 0x00, 0x00, 0x00, 
.................... 0x00, 0x00, 0x00, 0x00, 0x00, 0x00, 0x00, 0x00, 0x00, 0x00, 0x00, 0x00, 0x00, 0x00, 0x00, 0x00, 
.................... 0x00, 0x00, 0x00, 0x00, 0x00, 0x00, 0x00, 0x00, 0x00, 0x00, 0x00, 0x00, 0x00, 0x00, 0x00, 0x00, 
.................... 0x00, 0x00, 0x00, 0x00, 0x00, 0x00, 0x00, 0x00, 0x00, 0x00, 0x00, 0x00, 0x00, 0x00, 0x00, 0x00, 
.................... 0x00, 0x00, 0x00, 0x00, 0x00, 0x00, 0x00, 0x00, 0x00, 0x00, 0x00, 0x00, 0x00, 0x00, 0x00, 0x00, 
.................... 0x00, 0x00, 0x00, 0x00, 0x00, 0x00, 0x00, 0x00, 0x00, 0x00, 0x00, 0x00, 0x00, 0x00, 0x00, 0x00, 
.................... 0x00, 0x00, 0x00, 0x00, 0x00, 0x00, 0x00, 0x00, 0x00, 0x00, 0x00, 0x00, 0x00, 0x00, 0x00, 0x00, 
.................... 0x00, 0x00, 0x00, 0x00, 0x00, 0x00, 0x00, 0x00, 0x00, 0x00, 0x00, 0x00, 0x00, 0x00, 0x00, 0x00, 
.................... 0x00, 0x00, 0x00, 0x00, 0x00, 0x00, 0x00, 0x00, 0x00, 0x00, 0x00, 0x00, 0x00, 0x00, 0x00, 0x00, 
.................... 0x00, 0x00, 0x00, 0x00, 0x00, 0x00, 0x00, 0x00, 0x00, 0x00, 0x00, 0x00, 0x00, 0x00, 0x00, 0x00, 
.................... 0x00, 0x00, 0x00, 0x00, 0x00, 0x00, 0x00, 0x00, 0x00, 0x00, 0x00, 0x00, 0x00, 0x00, 0x00, 0x00, 
.................... 0x00, 0x00, 0x00, 0x00, 0x00, 0x00, 0x00, 0x00, 0x00, 0x00, 0x00, 0x00, 0x00, 0x00, 0x00, 0x00, 
.................... 0x00, 0x00, 0x00, 0x00, 0x00, 0x00, 0x00, 0x00, 0x00, 0x00, 0x00, 0x00, 0x00, 0x00, 0x00, 0x00, 
.................... 0x00, 0x00, 0x00, 0x00, 0x00, 0x00, 0x00, 0x00, 0x00, 0x00, 0x00, 0x00, 0x00, 0x00, 0x00, 0x00, 
.................... 0x00, 0x00, 0x00, 0x00, 0x00, 0x00, 0x00, 0x00, 0x00, 0x00, 0x00, 0x00, 0x00, 0x00, 0x00, 0x00, 
.................... 0x00, 0x00, 0x00, 0x00, 0x00, 0x00, 0x00, 0x00, 0x00, 0x00, 0x00, 0x00, 0x00, 0x00, 0x00, 0x00, 
.................... 0x00, 0x00, 0x00, 0x00, 0x00, 0x00, 0x00, 0x00, 0x00, 0x00, 0x00, 0x00, 0x00, 0x00, 0x00, 0x00 
.................... }; 
....................  
.................... const int8 Tomai [64][16] = { 
.................... 0x00, 0x00, 0x00, 0x00, 0x00, 0x00, 0x00, 0x00, 0x00, 0x00, 0x00, 0x00, 0x00, 0x00, 0x00, 0x00, 
.................... 0x00, 0x00, 0x00, 0x00, 0x00, 0x00, 0x00, 0x00, 0x00, 0x00, 0x00, 0x00, 0x00, 0x00, 0x00, 0x00, 
.................... 0x00, 0x00, 0x00, 0x00, 0x00, 0x00, 0x00, 0x00, 0x00, 0x00, 0x00, 0x00, 0x00, 0x00, 0x00, 0x00, 
.................... 0x00, 0x00, 0x00, 0x00, 0x00, 0x00, 0x00, 0x00, 0x00, 0x00, 0x00, 0x00, 0x00, 0x00, 0x00, 0x00, 
.................... 0x00, 0x00, 0x00, 0x00, 0x00, 0x00, 0x00, 0x00, 0x00, 0x00, 0x00, 0x00, 0x00, 0x00, 0x00, 0x00, 
.................... 0x00, 0x00, 0x00, 0x00, 0x00, 0x00, 0x00, 0x00, 0x00, 0x00, 0x00, 0x00, 0x00, 0x00, 0x00, 0x00, 
.................... 0x00, 0x00, 0x00, 0x00, 0x00, 0x00, 0x00, 0x00, 0x00, 0x00, 0x00, 0x00, 0x00, 0x00, 0x00, 0x00, 
.................... 0x00, 0x00, 0x00, 0x00, 0x00, 0x00, 0x00, 0x00, 0x00, 0x00, 0x00, 0x00, 0x00, 0x00, 0x00, 0x00, 
.................... 0x00, 0x00, 0x00, 0x00, 0x00, 0x00, 0x00, 0x00, 0x00, 0x00, 0x00, 0x00, 0x00, 0x00, 0x00, 0x00, 
.................... 0x00, 0x00, 0x00, 0x00, 0x00, 0x00, 0x00, 0x00, 0x00, 0x00, 0x00, 0x00, 0x00, 0x00, 0x00, 0x00, 
.................... 0x00, 0x00, 0x00, 0x00, 0x00, 0x00, 0x00, 0x00, 0x00, 0x00, 0x00, 0x00, 0x00, 0x00, 0x00, 0x00, 
.................... 0x00, 0x00, 0x00, 0x00, 0x00, 0x00, 0x00, 0x00, 0x00, 0x00, 0x00, 0x00, 0x00, 0x00, 0x00, 0x00, 
.................... 0x00, 0x00, 0x00, 0x00, 0x00, 0x00, 0x00, 0x00, 0x00, 0x00, 0x00, 0x00, 0x00, 0x00, 0x00, 0x00, 
.................... 0x00, 0x00, 0x00, 0x00, 0x00, 0x00, 0x00, 0x00, 0x00, 0x00, 0x00, 0x00, 0x00, 0x00, 0x00, 0x00, 
.................... 0x00, 0x00, 0x00, 0x00, 0x00, 0x00, 0x00, 0x00, 0x00, 0x00, 0x00, 0x00, 0x00, 0x00, 0x00, 0x00, 
.................... 0x00, 0x00, 0x00, 0x00, 0x00, 0x00, 0x00, 0x00, 0x00, 0x00, 0x00, 0x00, 0x00, 0x00, 0x00, 0x00, 
.................... 0x00, 0x00, 0x00, 0x00, 0x00, 0x00, 0x00, 0x00, 0x00, 0x00, 0x00, 0x00, 0x00, 0x00, 0x00, 0x00, 
.................... 0x00, 0x00, 0x00, 0x00, 0x00, 0x00, 0x00, 0x00, 0x00, 0x00, 0x00, 0x00, 0x00, 0x00, 0x00, 0x00, 
.................... 0x00, 0x00, 0x00, 0x00, 0x00, 0x00, 0x00, 0x00, 0x00, 0x00, 0x00, 0x00, 0x00, 0x00, 0x00, 0x00, 
.................... 0x00, 0x00, 0x00, 0x00, 0x00, 0x00, 0x00, 0x00, 0x00, 0x00, 0x00, 0x00, 0x00, 0x00, 0x00, 0x00, 
.................... 0x00, 0x00, 0x00, 0x00, 0x00, 0x00, 0x00, 0x00, 0x00, 0x00, 0x00, 0x00, 0x00, 0x00, 0x00, 0x00, 
.................... 0x00, 0x00, 0x00, 0x00, 0x00, 0x00, 0x00, 0x00, 0x00, 0x00, 0x00, 0x00, 0x00, 0x00, 0x00, 0x00, 
.................... 0x00, 0x00, 0x00, 0x00, 0x00, 0x00, 0x00, 0x00, 0x00, 0x00, 0x00, 0x00, 0x00, 0x00, 0x00, 0x00, 
.................... 0x00, 0x00, 0x00, 0x00, 0x00, 0x00, 0x00, 0x00, 0x00, 0x00, 0x00, 0x00, 0x00, 0x00, 0x00, 0x00, 
.................... 0x00, 0x00, 0x00, 0x00, 0x00, 0x00, 0x00, 0x00, 0x00, 0x00, 0x00, 0x00, 0x00, 0x00, 0x00, 0x00, 
.................... 0x00, 0x00, 0x00, 0x00, 0x00, 0x00, 0x00, 0x00, 0x00, 0x00, 0x00, 0x00, 0x00, 0x00, 0x00, 0x00, 
.................... 0x00, 0x00, 0x00, 0x00, 0x00, 0x00, 0x00, 0x00, 0x00, 0x00, 0x00, 0x00, 0x00, 0x00, 0x00, 0x00, 
.................... 0x00, 0x00, 0x00, 0x00, 0x00, 0x00, 0x00, 0x00, 0x00, 0x00, 0x00, 0x00, 0x00, 0x00, 0x00, 0x00, 
.................... 0x00, 0x00, 0x00, 0x00, 0x00, 0x00, 0x00, 0x00, 0x00, 0x00, 0x00, 0x00, 0x00, 0x00, 0x00, 0x00, 
.................... 0x00, 0x00, 0x00, 0x00, 0x00, 0x00, 0x00, 0x00, 0x00, 0x00, 0x00, 0x00, 0x00, 0x00, 0x00, 0x00, 
.................... 0x00, 0x00, 0x00, 0x00, 0x00, 0x00, 0x00, 0x00, 0x00, 0x00, 0x00, 0x00, 0x00, 0x7F, 0xFF, 0xF8, 
.................... 0x00, 0x00, 0x00, 0x00, 0x00, 0x00, 0x00, 0x00, 0x00, 0x00, 0x00, 0x00, 0x00, 0x40, 0x00, 0x08, 
.................... 0x00, 0x00, 0x00, 0x00, 0x00, 0x00, 0x00, 0x00, 0x00, 0x00, 0x00, 0x00, 0x00, 0x47, 0x03, 0x88, 
.................... 0x00, 0x00, 0x00, 0x00, 0x00, 0x00, 0x00, 0x00, 0x00, 0x00, 0x00, 0x00, 0x00, 0x45, 0x02, 0x88, 
.................... 0x00, 0x00, 0x00, 0x00, 0x00, 0x00, 0x00, 0x00, 0x00, 0x00, 0x00, 0x00, 0x00, 0x45, 0x02, 0x88, 
.................... 0x00, 0x00, 0x00, 0x00, 0x00, 0x00, 0x00, 0x00, 0x00, 0x00, 0x00, 0x00, 0x00, 0x45, 0x02, 0x88, 
.................... 0x00, 0x00, 0x00, 0x00, 0x00, 0x00, 0x00, 0x00, 0x00, 0x00, 0x00, 0x00, 0x00, 0x45, 0x02, 0x88, 
.................... 0x00, 0x00, 0x00, 0x00, 0x00, 0x00, 0x00, 0x00, 0x00, 0x00, 0x00, 0x00, 0x00, 0x47, 0x03, 0x88, 
.................... 0x00, 0x00, 0x00, 0x00, 0x00, 0x00, 0x00, 0x00, 0x00, 0x00, 0x00, 0x00, 0x00, 0x40, 0x00, 0x08, 
.................... 0x00, 0x00, 0x00, 0x00, 0x00, 0x00, 0x00, 0x00, 0x00, 0x00, 0x00, 0x00, 0x00, 0x40, 0xFC, 0x08, 
.................... 0x00, 0x00, 0x00, 0x00, 0x00, 0x00, 0x00, 0x00, 0x00, 0x00, 0x00, 0x00, 0x00, 0x40, 0x84, 0x08, 
.................... 0x00, 0x00, 0x00, 0x00, 0x00, 0x00, 0x00, 0x00, 0x00, 0x00, 0x00, 0x00, 0x00, 0x40, 0x84, 0x08, 
.................... 0x00, 0x00, 0x00, 0x00, 0x00, 0x00, 0x00, 0x00, 0x00, 0x00, 0x00, 0x00, 0x00, 0x40, 0xFC, 0x08, 
.................... 0x00, 0x00, 0x00, 0x00, 0x00, 0x00, 0x00, 0x00, 0x00, 0x00, 0x00, 0x00, 0x00, 0x40, 0x00, 0x08, 
.................... 0x00, 0x00, 0x00, 0x00, 0x00, 0x00, 0x00, 0x00, 0x00, 0x00, 0x00, 0x00, 0x00, 0x7F, 0xFF, 0xF8, 
.................... 0x00, 0x00, 0x00, 0x00, 0x00, 0x00, 0x00, 0x00, 0x00, 0x00, 0x00, 0x00, 0x00, 0x00, 0x00, 0x00, 
.................... 0x00, 0x00, 0x00, 0x00, 0x00, 0x00, 0x00, 0x00, 0x00, 0x00, 0x00, 0x00, 0x00, 0x00, 0x00, 0x00, 
.................... 0x00, 0x00, 0x00, 0x00, 0x00, 0x00, 0x00, 0x00, 0x00, 0x00, 0x00, 0x00, 0x00, 0x00, 0x00, 0x00, 
.................... 0x00, 0x00, 0x00, 0x00, 0x00, 0x00, 0x00, 0x00, 0x00, 0x00, 0x00, 0x00, 0x00, 0x00, 0x00, 0x00, 
.................... 0x00, 0x00, 0x00, 0x00, 0x00, 0x00, 0x00, 0x00, 0x00, 0x00, 0x00, 0x00, 0x00, 0x00, 0x00, 0x00, 
.................... 0x00, 0x00, 0x00, 0x00, 0x00, 0x00, 0x00, 0x00, 0x00, 0x00, 0x00, 0x00, 0x00, 0x00, 0x00, 0x00, 
.................... 0x00, 0x00, 0x00, 0x00, 0x00, 0x00, 0x00, 0x00, 0x00, 0x00, 0x00, 0x00, 0x00, 0x00, 0x00, 0x00, 
.................... 0x00, 0x00, 0x00, 0x00, 0x00, 0x00, 0x00, 0x00, 0x00, 0x00, 0x00, 0x00, 0x00, 0x00, 0x00, 0x00, 
.................... 0x00, 0x00, 0x00, 0x00, 0x00, 0x00, 0x00, 0x00, 0x00, 0x00, 0x00, 0x00, 0x00, 0x00, 0x00, 0x00, 
.................... 0x00, 0x00, 0x00, 0x00, 0x00, 0x00, 0x00, 0x00, 0x00, 0x00, 0x00, 0x00, 0x00, 0x00, 0x00, 0x00, 
.................... 0x00, 0x00, 0x00, 0x00, 0x00, 0x00, 0x00, 0x00, 0x00, 0x00, 0x00, 0x00, 0x00, 0x00, 0x00, 0x00, 
.................... 0x00, 0x00, 0x00, 0x00, 0x00, 0x00, 0x00, 0x00, 0x00, 0x00, 0x00, 0x00, 0x00, 0x00, 0x00, 0x00, 
.................... 0x00, 0x00, 0x00, 0x00, 0x00, 0x00, 0x00, 0x00, 0x00, 0x00, 0x00, 0x00, 0x00, 0x00, 0x00, 0x00, 
.................... 0x00, 0x00, 0x00, 0x00, 0x00, 0x00, 0x00, 0x00, 0x00, 0x00, 0x00, 0x00, 0x00, 0x00, 0x00, 0x00, 
.................... 0x00, 0x00, 0x00, 0x00, 0x00, 0x00, 0x00, 0x00, 0x00, 0x00, 0x00, 0x00, 0x00, 0x00, 0x00, 0x00, 
.................... 0x00, 0x00, 0x00, 0x00, 0x00, 0x00, 0x00, 0x00, 0x00, 0x00, 0x00, 0x00, 0x00, 0x00, 0x00, 0x00, 
.................... 0x00, 0x00, 0x00, 0x00, 0x00, 0x00, 0x00, 0x00, 0x00, 0x00, 0x00, 0x00, 0x00, 0x00, 0x00, 0x00, 
.................... 0x00, 0x00, 0x00, 0x00, 0x00, 0x00, 0x00, 0x00, 0x00, 0x00, 0x00, 0x00, 0x00, 0x00, 0x00, 0x00, 
.................... 0x00, 0x00, 0x00, 0x00, 0x00, 0x00, 0x00, 0x00, 0x00, 0x00, 0x00, 0x00, 0x00, 0x00, 0x00, 0x00 
.................... }; 
....................  
.................... const int8 Ventilador [64][16] = { 
.................... 0x00, 0x00, 0x00, 0x00, 0x00, 0x00, 0x00, 0x00, 0x00, 0x00, 0x00, 0x00, 0x00, 0x00, 0x00, 0x00, 
.................... 0x00, 0x00, 0x00, 0x00, 0x00, 0x00, 0x00, 0x00, 0x00, 0x00, 0x00, 0x00, 0x00, 0x00, 0x00, 0x00, 
.................... 0x00, 0x00, 0x00, 0x00, 0x00, 0x00, 0x00, 0x00, 0x00, 0x00, 0x00, 0x00, 0x00, 0x00, 0x00, 0x00, 
.................... 0x00, 0x00, 0x00, 0x00, 0x00, 0x00, 0x00, 0x00, 0x00, 0x00, 0x00, 0x00, 0x00, 0x00, 0x00, 0x00, 
.................... 0x00, 0x00, 0x00, 0x00, 0x00, 0x00, 0x00, 0x00, 0x00, 0x00, 0x00, 0x00, 0x00, 0x00, 0x00, 0x00, 
.................... 0x00, 0x00, 0x00, 0x00, 0x00, 0x00, 0x00, 0x00, 0x00, 0x00, 0x00, 0x00, 0x00, 0x00, 0x00, 0x00, 
.................... 0x00, 0x00, 0x00, 0x00, 0x00, 0x00, 0x00, 0x00, 0x00, 0x00, 0x00, 0x00, 0x00, 0x00, 0x00, 0x00, 
.................... 0x00, 0x00, 0x00, 0x00, 0x00, 0x00, 0x00, 0x00, 0x00, 0x00, 0x00, 0x00, 0x00, 0x00, 0x00, 0x00, 
.................... 0x00, 0x00, 0x00, 0x00, 0x00, 0x00, 0x00, 0x00, 0x00, 0x00, 0x00, 0x00, 0x00, 0x00, 0x00, 0x00, 
.................... 0x00, 0x00, 0x00, 0x00, 0x00, 0x00, 0x00, 0x00, 0x00, 0x00, 0x00, 0x00, 0x00, 0x00, 0x00, 0x00, 
.................... 0x00, 0x00, 0x00, 0x00, 0x00, 0x00, 0x00, 0x00, 0x00, 0x00, 0x00, 0x00, 0x00, 0x00, 0x00, 0x00, 
.................... 0x00, 0x00, 0x00, 0x00, 0x00, 0x00, 0x00, 0x00, 0x00, 0x00, 0x00, 0x00, 0x00, 0x00, 0x00, 0x00, 
.................... 0x00, 0x00, 0x00, 0x00, 0x00, 0x00, 0x00, 0x00, 0x00, 0x00, 0x00, 0x00, 0x00, 0x00, 0x00, 0x00, 
.................... 0x00, 0x00, 0x00, 0x00, 0x00, 0x00, 0x00, 0x00, 0x00, 0x00, 0x00, 0x00, 0x00, 0x00, 0x00, 0x00, 
.................... 0x00, 0x00, 0x00, 0x00, 0x00, 0x00, 0x00, 0x00, 0x00, 0x00, 0x00, 0x00, 0x00, 0x00, 0x00, 0x00, 
.................... 0x00, 0x00, 0x00, 0x00, 0x00, 0x00, 0x00, 0x00, 0x00, 0x00, 0x00, 0x00, 0x00, 0x00, 0x00, 0x00, 
.................... 0x00, 0x00, 0x00, 0x00, 0x00, 0x00, 0x00, 0x00, 0x00, 0x00, 0x00, 0x00, 0x00, 0x00, 0x00, 0x00, 
.................... 0x00, 0x00, 0x00, 0x00, 0x00, 0x00, 0x00, 0x00, 0x00, 0x00, 0x00, 0x00, 0x00, 0x00, 0x00, 0x00, 
.................... 0x00, 0x00, 0x00, 0x00, 0x00, 0x00, 0x00, 0x00, 0x00, 0x00, 0x00, 0x00, 0x00, 0x00, 0x00, 0x00, 
.................... 0x00, 0x00, 0x00, 0x00, 0x00, 0x00, 0x00, 0x00, 0x00, 0x00, 0x00, 0x00, 0x00, 0x00, 0x00, 0x00, 
.................... 0x00, 0x00, 0x00, 0x00, 0x00, 0x00, 0x00, 0x00, 0x00, 0x00, 0x00, 0x00, 0x00, 0x00, 0x00, 0x00, 
.................... 0x00, 0x00, 0x00, 0x00, 0x00, 0x00, 0x00, 0x00, 0x00, 0x00, 0x00, 0x00, 0x00, 0x00, 0x00, 0x00, 
.................... 0x00, 0x00, 0x00, 0x00, 0x00, 0x00, 0x00, 0x00, 0x00, 0x00, 0x00, 0x00, 0x00, 0x00, 0x00, 0x00, 
.................... 0x00, 0x00, 0x00, 0x00, 0x00, 0x00, 0x00, 0x00, 0x00, 0x00, 0x00, 0x00, 0x00, 0x00, 0x00, 0x00, 
.................... 0x00, 0x00, 0x00, 0x00, 0x00, 0x00, 0x00, 0x00, 0x00, 0x00, 0x00, 0x00, 0x00, 0x00, 0x00, 0x00, 
.................... 0x00, 0x00, 0x00, 0x00, 0x00, 0x00, 0x00, 0x00, 0x00, 0x00, 0x00, 0x00, 0x00, 0x00, 0x00, 0x00, 
.................... 0x00, 0x00, 0x00, 0x00, 0x00, 0x00, 0x00, 0x00, 0x00, 0x00, 0x00, 0x00, 0x00, 0x00, 0x00, 0x00, 
.................... 0x00, 0x00, 0x00, 0x00, 0x00, 0x00, 0x00, 0x00, 0x00, 0x00, 0x00, 0x00, 0x00, 0x00, 0x00, 0x00, 
.................... 0x00, 0x00, 0x00, 0x00, 0x00, 0x00, 0x00, 0x00, 0x00, 0x00, 0x00, 0x00, 0x00, 0x00, 0x00, 0x00, 
.................... 0x00, 0x00, 0x00, 0x00, 0x00, 0x00, 0x00, 0x00, 0x00, 0x00, 0x00, 0x00, 0x00, 0x00, 0x00, 0x00, 
.................... 0x00, 0x00, 0x00, 0x00, 0x00, 0x00, 0x00, 0x00, 0x00, 0x00, 0x00, 0x00, 0x00, 0x00, 0x00, 0x00, 
.................... 0x00, 0x00, 0x00, 0x00, 0x00, 0x00, 0x00, 0x00, 0x00, 0x00, 0x00, 0x00, 0x00, 0x00, 0x00, 0x00, 
.................... 0x00, 0x00, 0x00, 0x00, 0x00, 0x00, 0x00, 0x00, 0x00, 0x00, 0x00, 0x00, 0x00, 0x00, 0x00, 0x00, 
.................... 0x00, 0x00, 0x00, 0x00, 0x00, 0x00, 0x00, 0x00, 0x00, 0x00, 0x00, 0x00, 0x00, 0x00, 0x00, 0x00, 
.................... 0x00, 0x00, 0x00, 0x00, 0x00, 0x00, 0x00, 0x00, 0x00, 0x00, 0x00, 0x00, 0x00, 0x00, 0x00, 0x00, 
.................... 0x00, 0x00, 0x00, 0x00, 0x00, 0x00, 0x00, 0x00, 0x00, 0x00, 0x00, 0x00, 0x00, 0x00, 0x00, 0x00, 
.................... 0x00, 0x00, 0x00, 0x00, 0x00, 0x00, 0x00, 0x00, 0x00, 0x00, 0x00, 0x00, 0x00, 0x00, 0x00, 0x00, 
.................... 0x00, 0x00, 0x00, 0x00, 0x00, 0x00, 0x00, 0x00, 0x00, 0x00, 0x00, 0x00, 0x00, 0x00, 0x00, 0x00, 
.................... 0x00, 0x00, 0x00, 0x00, 0x00, 0x00, 0x00, 0x00, 0x00, 0x00, 0x00, 0x00, 0x00, 0x00, 0x00, 0x00, 
.................... 0x00, 0x00, 0x00, 0x00, 0x00, 0x00, 0x00, 0x00, 0x00, 0x00, 0x00, 0x00, 0x00, 0x00, 0x00, 0x00, 
.................... 0x00, 0x00, 0x00, 0x00, 0x00, 0x00, 0x00, 0x00, 0x00, 0x00, 0x00, 0x00, 0x00, 0x00, 0x00, 0x00, 
.................... 0x00, 0x00, 0x00, 0x00, 0x00, 0x00, 0x00, 0x00, 0x00, 0x00, 0x00, 0x00, 0x00, 0x00, 0x00, 0x00, 
.................... 0x00, 0x00, 0x00, 0x00, 0x00, 0x00, 0x00, 0x00, 0x00, 0x00, 0x00, 0x00, 0x00, 0x00, 0x00, 0x00, 
.................... 0x00, 0x00, 0x00, 0x00, 0x00, 0x00, 0x00, 0x00, 0x00, 0x00, 0x00, 0x00, 0x00, 0x00, 0x00, 0x00, 
.................... 0x00, 0x00, 0x00, 0x00, 0x00, 0x00, 0x00, 0x00, 0x00, 0x00, 0x00, 0x00, 0x00, 0x00, 0x00, 0x00, 
.................... 0x00, 0x00, 0x00, 0x00, 0x00, 0x00, 0x00, 0x00, 0x00, 0x00, 0x00, 0x00, 0x00, 0x00, 0x00, 0x00, 
.................... 0x00, 0x00, 0x00, 0x00, 0x00, 0x00, 0x00, 0x00, 0x00, 0x00, 0x00, 0x00, 0x00, 0x00, 0x60, 0x00, 
.................... 0x00, 0x00, 0x00, 0x00, 0x00, 0x00, 0x00, 0x00, 0x00, 0x00, 0x00, 0x00, 0x00, 0x00, 0xF0, 0x00, 
.................... 0x00, 0x00, 0x00, 0x00, 0x00, 0x00, 0x00, 0x00, 0x00, 0x00, 0x00, 0x00, 0x00, 0x01, 0xF8, 0x00, 
.................... 0x00, 0x00, 0x00, 0x00, 0x00, 0x00, 0x00, 0x00, 0x00, 0x00, 0x00, 0x00, 0x00, 0x01, 0xF8, 0x00, 
.................... 0x00, 0x00, 0x00, 0x00, 0x00, 0x00, 0x00, 0x00, 0x00, 0x00, 0x00, 0x00, 0x00, 0x01, 0xF8, 0x00, 
.................... 0x00, 0x00, 0x00, 0x00, 0x00, 0x00, 0x00, 0x00, 0x00, 0x00, 0x00, 0x00, 0x00, 0x00, 0xF0, 0x00, 
.................... 0x00, 0x00, 0x00, 0x00, 0x00, 0x00, 0x00, 0x00, 0x00, 0x00, 0x00, 0x00, 0x00, 0x38, 0x71, 0xC0, 
.................... 0x00, 0x00, 0x00, 0x00, 0x00, 0x00, 0x00, 0x00, 0x00, 0x00, 0x00, 0x00, 0x00, 0x7C, 0x93, 0xE0, 
.................... 0x00, 0x00, 0x00, 0x00, 0x00, 0x00, 0x00, 0x00, 0x00, 0x00, 0x00, 0x00, 0x00, 0xFF, 0x0F, 0xF0, 
.................... 0x00, 0x00, 0x00, 0x00, 0x00, 0x00, 0x00, 0x00, 0x00, 0x00, 0x00, 0x00, 0x00, 0xFF, 0x0F, 0xF0, 
.................... 0x00, 0x00, 0x00, 0x00, 0x00, 0x00, 0x00, 0x00, 0x00, 0x00, 0x00, 0x00, 0x00, 0x7D, 0x93, 0xE0, 
.................... 0x00, 0x00, 0x00, 0x00, 0x00, 0x00, 0x00, 0x00, 0x00, 0x00, 0x00, 0x00, 0x00, 0x38, 0x61, 0xC0, 
.................... 0x00, 0x00, 0x00, 0x00, 0x00, 0x00, 0x00, 0x00, 0x00, 0x00, 0x00, 0x00, 0x00, 0x00, 0xF0, 0x00, 
.................... 0x00, 0x00, 0x00, 0x00, 0x00, 0x00, 0x00, 0x00, 0x00, 0x00, 0x00, 0x00, 0x00, 0x01, 0xF8, 0x00, 
.................... 0x00, 0x00, 0x00, 0x00, 0x00, 0x00, 0x00, 0x00, 0x00, 0x00, 0x00, 0x00, 0x00, 0x01, 0xF8, 0x00, 
.................... 0x00, 0x00, 0x00, 0x00, 0x00, 0x00, 0x00, 0x00, 0x00, 0x00, 0x00, 0x00, 0x00, 0x01, 0xF8, 0x00, 
.................... 0x00, 0x00, 0x00, 0x00, 0x00, 0x00, 0x00, 0x00, 0x00, 0x00, 0x00, 0x00, 0x00, 0x00, 0xF0, 0x00, 
.................... 0x00, 0x00, 0x00, 0x00, 0x00, 0x00, 0x00, 0x00, 0x00, 0x00, 0x00, 0x00, 0x00, 0x00, 0x60, 0x00 
.................... }; 
....................  
....................  
.................... #define   UP               input(PIN_E1) 
.................... #define   DOWN             input(PIN_E2) 
.................... #define   RIGHT            input(PIN_C0) 
.................... #define   LEFT             input(PIN_C1) 
.................... #define   VIDRIOUP         input(PIN_A5) 
.................... #define   VIDRIODN         input(PIN_A4) 
....................  
.................... #define   Alarma_on           output_bit(PIN_C2,1) 
.................... #define   Alarma_off          output_bit(PIN_C2,0) 
.................... #define   LuzBlanca_on        output_bit(PIN_C4,1) 
.................... #define   LuzBlanca_off       output_bit(PIN_C4,0) 
.................... #define   LuzUV_on            output_bit(PIN_C5,1) 
.................... #define   LuzUV_off           output_bit(PIN_C5,0) 
.................... #define   Motor_on            output_bit(PIN_C6,1) 
.................... #define   Motor_off           output_bit(PIN_C6,0) 
.................... #define   Toma_on             output_bit(PIN_C7,1) 
.................... #define   Toma_off            output_bit(PIN_C7,0) 
.................... #define   Display_on          output_bit(PIN_B1,1) 
.................... #define   Display_off         output_bit(PIN_B1,0) 
....................  
.................... #define   ExFlow       0 
.................... #define   PresDownFlow 2      
....................  
....................  
.................... //**Variables----------------------------------------------// 
.................... int16 tiempos=0; 
.................... int8 i=0; 
.................... short Flanco=0,Flanco1=0,Flanco2=0,Flanco3=0,Flanco4=0,Flanco5=0,Flanco6=0,imprimir=0,flag_uv=0,flag_blower=0,flag_toma=0,flag_luz=0,flag_alarma=0,w=0,flag_activo=0; 
.................... short tiempo_purga=0,tiempo_uv=0,tiempo_trabajo=0,tiempo_postpurga=0,Latencia=0,flag_latencia=0; 
.................... short guardauv=0,guardatrabajo=0,Lectura=0,n=0,flag_alarma2=0; 
.................... char  JP[] = "JP Inglobal", Cabina[] = "Cabina Flujo Laminar",tiempo_est[]="T est=", Dos_puntos[]=":"; 
.................... char  Clase[] = "Horizontal", Tiempo[] = "Tiempo de Purga", UV[]="UV"; 
.................... char  Baje_Vidrio[] = "!!Ubique Vidrio!!",Inflowt[] = "Presion:",Downflowt[] = "JPCFLH", ZF[] = "Fabrica:203.0", ZA[] = "Actual:",AJ[]="Ajuste:"; 
.................... char  Vida_UV[] = "UVLife:",Vida_Filtro[] = "Filter:",ZFP[] = "Fabrica:235.0", Perdida[]="!Perdida Flujo!",TimeUV[]="TimeUV"; 
.................... int8 Menu=200, unidad=1, Opcion=1,inicie=0,negativo=10,G_l=0,G_h=0,tiemporeset=0,minutos_uv=0; 
.................... int8 q=0,r=0,l=0,h=0,Entero=0,Decimal1=0,LuzUV=10,Motor=10,Alarma=10,UV2=0,e=0,m=0,VelMotor=0; 
.................... unsigned int16 Inflow_adc=0,Filtro_Downflow_adc=0,Temporal1=0; 
.................... int16 t_latencia=0,segundos_uv=0,minutos_trabajo=0,G16=0; 
.................... signed int  Tpurga[4]={0,0,0,0};       // Tiempo de Purga transcurrido 
.................... signed int  Tpurgap[4]={9,0,0,0};      // Tiempo de Purga programado 
.................... signed int  Tppurga[4]={0,0,0,0};      // Tiempo de Post-Purga transcurrido 
.................... signed int  Tppurgap[4]={9,0,0,0};     // Tiempo de Post-Purga programado 
.................... signed int  Tuv[4]={0,0,0,0};          // Tiempo de UV transcurrido(en Horas) 
.................... signed int  Tempouv[4]={0,0,0,0};         // Tiempo de UV transcurrido 
.................... signed int  Tempouvp[4]={0,0,0,0};        // Tiempo de UV transcurrido 
.................... signed int  Ttrabajo[4]={0,0,0,0};        // Tiempo de trabajo transcurrido (en Horas) 
.................... signed int  Contrasena[4]={0,0,0,0};      // Contrasena de 4 digitos 
.................... signed int  Password[4]={0,0,0,0};        // Contrasena Almacenada de 4 digitos 
.................... float Inflow=0.0,Downflow=0.0,Filtro_Downflow=0.0,Diferencia=0.0,barra=0.0,barra_old=0.0,barra2=0.0,barra_old2=0.0; 
.................... float Velocidad=0.0,x_uno=0.0,x_cuadrado=0.0,x_cubo=0.0,Ajuste1=0.0,Ajuste2=0.0; 
.................... float ADC=0,Temporal=0.0,Temporal2=0.0; 
.................... float a=0.0000001418633343546420,b=-0.00009476749001431169,c= 0.040182822903506,d= -5.354852229527197;//Sensor 2 Posible bueno 
.................... float promedio[8]={0.0,0.0,0.0,0.0,0.0,0.0,0.0,0.0}; 
.................... float PromPresion[8]={0.0,0.0,0.0,0.0,0.0,0.0,0.0,0.0}; 
.................... float Flujo=0.0,zero_fabrica=203.0,zero_actual=0.0; 
.................... float V1=0.0,Presion=0.0,G=2.0,UVTime=0.0,Relacion=0.57; 
.................... int16 Vector[40]; 
.................... //**---------------------------------------------------------// 
.................... #include "Funciones.h" 
.................... typedef struct{ 
....................    char Letra[20]; 
.................... }MENUU; 
....................  
.................... MENUU Menus; 
....................  
.................... // Funcion para conversor analogo-digital 
.................... unsigned int16 sensores(int x){ 
.................... unsigned int16 y;set_adc_channel(x);delay_ms(1);y=read_adc();return (y); 
*
02BA0:  MOVLB  6
02BA2:  RLCF   x46,W
02BA4:  MOVWF  00
02BA6:  RLCF   00,F
02BA8:  MOVLW  FC
02BAA:  ANDWF  00,F
02BAC:  MOVFF  00,01
02BB0:  MOVF   FC2,W
02BB2:  ANDLW  C3
02BB4:  IORWF  00,W
02BB6:  MOVWF  FC2
02BB8:  MOVLW  01
02BBA:  MOVWF  x4A
02BBC:  MOVLB  0
02BBE:  CALL   139A
02BC2:  BSF    FC2.1
02BC4:  BTFSC  FC2.1
02BC6:  BRA    2BC4
02BC8:  MOVFF  FC4,648
02BCC:  MOVLB  6
02BCE:  MOVFF  FC3,647
02BD2:  MOVFF  647,01
02BD6:  MOVFF  648,02
.................... } 
02BDA:  MOVLB  0
02BDC:  GOTO   2CE8 (RETURN)
....................  
.................... void glcd_imagen(int8 x) 
.................... { 
....................    char i,j; 
....................    signed char k;  
....................       
....................    if(x==3){ 
*
04296:  MOVLB  6
04298:  MOVF   x41,W
0429A:  SUBLW  03
0429C:  BNZ   4340
....................    for( i = 0 ; i < 64 ; i ++ ) 
0429E:  CLRF   x42
042A0:  MOVF   x42,W
042A2:  SUBLW  3F
042A4:  BNC   4340
....................    {  for( j = 0 ; j < 16 ; j ++) 
042A6:  CLRF   x43
042A8:  MOVF   x43,W
042AA:  SUBLW  0F
042AC:  BNC   433C
....................       {  for(k=7;k>-1;k--) 
042AE:  MOVLW  07
042B0:  MOVWF  x44
042B2:  MOVF   x44,W
042B4:  XORLW  80
042B6:  SUBLW  7F
042B8:  BC    4338
....................          {       
....................             if( bit_test(Bombillo[i][j] ,7-k ))  
042BA:  CLRF   x46
042BC:  MOVFF  642,645
042C0:  CLRF   x48
042C2:  MOVLW  10
042C4:  MOVWF  x47
042C6:  MOVLB  0
042C8:  RCALL  4274
042CA:  MOVFF  02,646
042CE:  MOVFF  01,645
042D2:  MOVLB  6
042D4:  MOVF   x43,W
042D6:  ADDWF  01,W
042D8:  MOVWF  01
042DA:  MOVLW  00
042DC:  ADDWFC 02,W
042DE:  MOVWF  03
042E0:  MOVF   01,W
042E2:  MOVFF  FF2,645
042E6:  BCF    FF2.7
042E8:  MOVFF  03,FF7
042EC:  MOVLB  0
042EE:  CALL   02B6
042F2:  MOVLB  6
042F4:  BTFSC  x45.7
042F6:  BSF    FF2.7
042F8:  MOVWF  x45
042FA:  MOVLW  07
042FC:  BSF    FD8.0
042FE:  SUBFWB x44,W
04300:  MOVWF  x46
04302:  MOVFF  645,00
04306:  MOVF   x46,W
04308:  MOVWF  01
0430A:  BZ    4314
0430C:  BCF    FD8.0
0430E:  RRCF   00,F
04310:  DECFSZ 01,F
04312:  BRA    430C
04314:  BTFSS  00.0
04316:  BRA    4334
....................                glcd_pixel( j*8+k,i, ON ); 
04318:  MOVF   x43,W
0431A:  MULLW  08
0431C:  MOVF   FF3,W
0431E:  ADDWF  x44,W
04320:  MOVWF  x45
04322:  MOVWF  x75
04324:  MOVFF  642,676
04328:  MOVLW  01
0432A:  MOVWF  x77
0432C:  MOVLB  0
0432E:  CALL   2FF8
04332:  MOVLB  6
....................          }   
04334:  DECF   x44,F
04336:  BRA    42B2
....................       } 
04338:  INCF   x43,F
0433A:  BRA    42A8
....................    } 
0433C:  INCF   x42,F
0433E:  BRA    42A0
....................    } 
....................     
....................    if(x==4){ 
04340:  MOVF   x41,W
04342:  SUBLW  04
04344:  BNZ   43E8
....................    for( i = 0 ; i < 64 ; i ++ ) 
04346:  CLRF   x42
04348:  MOVF   x42,W
0434A:  SUBLW  3F
0434C:  BNC   43E8
....................    {  for( j = 0 ; j < 16 ; j ++) 
0434E:  CLRF   x43
04350:  MOVF   x43,W
04352:  SUBLW  0F
04354:  BNC   43E4
....................       {  for(k=7;k>-1;k--) 
04356:  MOVLW  07
04358:  MOVWF  x44
0435A:  MOVF   x44,W
0435C:  XORLW  80
0435E:  SUBLW  7F
04360:  BC    43E0
....................          {       
....................             if( bit_test(Tomai[i][j] ,7-k ))  
04362:  CLRF   x46
04364:  MOVFF  642,645
04368:  CLRF   x48
0436A:  MOVLW  10
0436C:  MOVWF  x47
0436E:  MOVLB  0
04370:  RCALL  4274
04372:  MOVFF  02,646
04376:  MOVFF  01,645
0437A:  MOVLB  6
0437C:  MOVF   x43,W
0437E:  ADDWF  01,W
04380:  MOVWF  01
04382:  MOVLW  00
04384:  ADDWFC 02,W
04386:  MOVWF  03
04388:  MOVF   01,W
0438A:  MOVFF  FF2,645
0438E:  BCF    FF2.7
04390:  MOVFF  03,FF7
04394:  MOVLB  0
04396:  CALL   06D2
0439A:  MOVLB  6
0439C:  BTFSC  x45.7
0439E:  BSF    FF2.7
043A0:  MOVWF  x45
043A2:  MOVLW  07
043A4:  BSF    FD8.0
043A6:  SUBFWB x44,W
043A8:  MOVWF  x46
043AA:  MOVFF  645,00
043AE:  MOVF   x46,W
043B0:  MOVWF  01
043B2:  BZ    43BC
043B4:  BCF    FD8.0
043B6:  RRCF   00,F
043B8:  DECFSZ 01,F
043BA:  BRA    43B4
043BC:  BTFSS  00.0
043BE:  BRA    43DC
....................                glcd_pixel( j*8+k,i, ON ); 
043C0:  MOVF   x43,W
043C2:  MULLW  08
043C4:  MOVF   FF3,W
043C6:  ADDWF  x44,W
043C8:  MOVWF  x45
043CA:  MOVWF  x75
043CC:  MOVFF  642,676
043D0:  MOVLW  01
043D2:  MOVWF  x77
043D4:  MOVLB  0
043D6:  CALL   2FF8
043DA:  MOVLB  6
....................          }   
043DC:  DECF   x44,F
043DE:  BRA    435A
....................       } 
043E0:  INCF   x43,F
043E2:  BRA    4350
....................    } 
043E4:  INCF   x42,F
043E6:  BRA    4348
....................    } 
....................     
....................    if(x==5){ 
043E8:  MOVF   x41,W
043EA:  SUBLW  05
043EC:  BNZ   4490
....................    for( i = 0 ; i < 64 ; i ++ ) 
043EE:  CLRF   x42
043F0:  MOVF   x42,W
043F2:  SUBLW  3F
043F4:  BNC   4490
....................    {  for( j = 0 ; j < 16 ; j ++) 
043F6:  CLRF   x43
043F8:  MOVF   x43,W
043FA:  SUBLW  0F
043FC:  BNC   448C
....................       {  for(k=7;k>-1;k--) 
043FE:  MOVLW  07
04400:  MOVWF  x44
04402:  MOVF   x44,W
04404:  XORLW  80
04406:  SUBLW  7F
04408:  BC    4488
....................          {       
....................             if( bit_test(Ventilador[i][j] ,7-k ))  
0440A:  CLRF   x46
0440C:  MOVFF  642,645
04410:  CLRF   x48
04412:  MOVLW  10
04414:  MOVWF  x47
04416:  MOVLB  0
04418:  RCALL  4274
0441A:  MOVFF  02,646
0441E:  MOVFF  01,645
04422:  MOVLB  6
04424:  MOVF   x43,W
04426:  ADDWF  01,W
04428:  MOVWF  01
0442A:  MOVLW  00
0442C:  ADDWFC 02,W
0442E:  MOVWF  03
04430:  MOVF   01,W
04432:  MOVFF  FF2,645
04436:  BCF    FF2.7
04438:  MOVFF  03,FF7
0443C:  MOVLB  0
0443E:  CALL   0AEE
04442:  MOVLB  6
04444:  BTFSC  x45.7
04446:  BSF    FF2.7
04448:  MOVWF  x45
0444A:  MOVLW  07
0444C:  BSF    FD8.0
0444E:  SUBFWB x44,W
04450:  MOVWF  x46
04452:  MOVFF  645,00
04456:  MOVF   x46,W
04458:  MOVWF  01
0445A:  BZ    4464
0445C:  BCF    FD8.0
0445E:  RRCF   00,F
04460:  DECFSZ 01,F
04462:  BRA    445C
04464:  BTFSS  00.0
04466:  BRA    4484
....................                glcd_pixel( j*8+k,i, ON ); 
04468:  MOVF   x43,W
0446A:  MULLW  08
0446C:  MOVF   FF3,W
0446E:  ADDWF  x44,W
04470:  MOVWF  x45
04472:  MOVWF  x75
04474:  MOVFF  642,676
04478:  MOVLW  01
0447A:  MOVWF  x77
0447C:  MOVLB  0
0447E:  CALL   2FF8
04482:  MOVLB  6
....................          }   
04484:  DECF   x44,F
04486:  BRA    4402
....................       } 
04488:  INCF   x43,F
0448A:  BRA    43F8
....................    } 
0448C:  INCF   x42,F
0448E:  BRA    43F0
....................    } 
.................... } 
04490:  MOVLB  0
04492:  RETLW  00
....................  
....................  
.................... void mensajes(int8 x,y){// Funcion para imprimir mensajes de Menu Principal. 
....................   if(x==1) 
....................    {glcd_text57(7, y, tiempo_est, 1, ON);} 
.................... } 
....................   
.................... void displayContrasena(int digito, int x, int y, int sombreado) 
.................... { 
....................    char voltage[9]; 
....................    sprintf(voltage, "%i", digito); 
*
0346C:  MOVLW  06
0346E:  MOVLB  6
03470:  MOVWF  x40
03472:  MOVLW  4F
03474:  MOVWF  x3F
03476:  MOVFF  64B,658
0347A:  MOVLW  1F
0347C:  MOVWF  x59
0347E:  MOVLB  0
03480:  RCALL  2F1A
....................     
....................    if(sombreado==1) 
03482:  MOVLB  6
03484:  DECFSZ x4E,W
03486:  BRA    34D6
....................       {glcd_rect(x, y, x+18, y+24, YES, ON);glcd_text57(x+2, y+1, voltage, 2, OFF);} 
03488:  MOVLW  12
0348A:  ADDWF  x4C,W
0348C:  MOVWF  x58
0348E:  MOVLW  18
03490:  ADDWF  x4D,W
03492:  MOVWF  x59
03494:  MOVFF  64C,65A
03498:  MOVFF  64D,65B
0349C:  MOVFF  658,65C
034A0:  MOVWF  x5D
034A2:  MOVLW  01
034A4:  MOVWF  x5E
034A6:  MOVWF  x5F
034A8:  MOVLB  0
034AA:  RCALL  31F2
034AC:  MOVLW  02
034AE:  MOVLB  6
034B0:  ADDWF  x4C,W
034B2:  MOVWF  x58
034B4:  MOVLW  01
034B6:  ADDWF  x4D,W
034B8:  MOVWF  x59
034BA:  MOVFF  658,65A
034BE:  MOVWF  x5B
034C0:  MOVLW  06
034C2:  MOVWF  x5D
034C4:  MOVLW  4F
034C6:  MOVWF  x5C
034C8:  MOVLW  02
034CA:  MOVWF  x5E
034CC:  CLRF   x5F
034CE:  MOVLB  0
034D0:  RCALL  32B4
....................    else    
034D2:  BRA    3520
034D4:  MOVLB  6
....................       {glcd_rect(x, y, x+18, y+24, NO, OFF);glcd_text57(x+2, y+1, voltage, 2, ON);} 
034D6:  MOVLW  12
034D8:  ADDWF  x4C,W
034DA:  MOVWF  x58
034DC:  MOVLW  18
034DE:  ADDWF  x4D,W
034E0:  MOVWF  x59
034E2:  MOVFF  64C,65A
034E6:  MOVFF  64D,65B
034EA:  MOVFF  658,65C
034EE:  MOVWF  x5D
034F0:  CLRF   x5E
034F2:  CLRF   x5F
034F4:  MOVLB  0
034F6:  RCALL  31F2
034F8:  MOVLW  02
034FA:  MOVLB  6
034FC:  ADDWF  x4C,W
034FE:  MOVWF  x58
03500:  MOVLW  01
03502:  ADDWF  x4D,W
03504:  MOVWF  x59
03506:  MOVFF  658,65A
0350A:  MOVWF  x5B
0350C:  MOVLW  06
0350E:  MOVWF  x5D
03510:  MOVLW  4F
03512:  MOVWF  x5C
03514:  MOVLW  02
03516:  MOVWF  x5E
03518:  MOVLW  01
0351A:  MOVWF  x5F
0351C:  MOVLB  0
0351E:  RCALL  32B4
....................  
.................... } 
03520:  RETLW  00
....................  
.................... void displayTiempo(int digito, int x, int y, int sombreado, int tamano) 
.................... { 
....................    char voltage[9]; 
....................    sprintf(voltage, "%i", digito); 
*
03D46:  MOVLW  06
03D48:  MOVLB  6
03D4A:  MOVWF  x40
03D4C:  MOVLW  46
03D4E:  MOVWF  x3F
03D50:  MOVFF  641,658
03D54:  MOVLW  1F
03D56:  MOVWF  x59
03D58:  MOVLB  0
03D5A:  CALL   2F1A
....................     
....................    if(sombreado==1) 
03D5E:  MOVLB  6
03D60:  DECFSZ x44,W
03D62:  BRA    3DBC
....................       {glcd_rect(x, y, x+(tamano*6), y+(tamano*8), YES, ON);glcd_text57(x+2, y+1, voltage, tamano, OFF);} 
03D64:  MOVF   x45,W
03D66:  MULLW  06
03D68:  MOVF   FF3,W
03D6A:  ADDWF  x42,W
03D6C:  MOVWF  x4F
03D6E:  MOVF   x45,W
03D70:  MULLW  08
03D72:  MOVF   FF3,W
03D74:  ADDWF  x43,W
03D76:  MOVWF  x50
03D78:  MOVFF  642,65A
03D7C:  MOVFF  643,65B
03D80:  MOVFF  64F,65C
03D84:  MOVWF  x5D
03D86:  MOVLW  01
03D88:  MOVWF  x5E
03D8A:  MOVWF  x5F
03D8C:  MOVLB  0
03D8E:  CALL   31F2
03D92:  MOVLW  02
03D94:  MOVLB  6
03D96:  ADDWF  x42,W
03D98:  MOVWF  x4F
03D9A:  MOVLW  01
03D9C:  ADDWF  x43,W
03D9E:  MOVWF  x50
03DA0:  MOVFF  64F,65A
03DA4:  MOVWF  x5B
03DA6:  MOVLW  06
03DA8:  MOVWF  x5D
03DAA:  MOVLW  46
03DAC:  MOVWF  x5C
03DAE:  MOVFF  645,65E
03DB2:  CLRF   x5F
03DB4:  MOVLB  0
03DB6:  CALL   32B4
03DBA:  MOVLB  6
....................    if(sombreado==0) 
03DBC:  MOVF   x44,F
03DBE:  BNZ   3E1A
....................       {glcd_rect(x, y, x+(tamano*6), y+(tamano*8), YES, OFF);glcd_text57(x+2, y+1, voltage, tamano, ON);} 
03DC0:  MOVF   x45,W
03DC2:  MULLW  06
03DC4:  MOVF   FF3,W
03DC6:  ADDWF  x42,W
03DC8:  MOVWF  x4F
03DCA:  MOVF   x45,W
03DCC:  MULLW  08
03DCE:  MOVF   FF3,W
03DD0:  ADDWF  x43,W
03DD2:  MOVWF  x50
03DD4:  MOVFF  642,65A
03DD8:  MOVFF  643,65B
03DDC:  MOVFF  64F,65C
03DE0:  MOVWF  x5D
03DE2:  MOVLW  01
03DE4:  MOVWF  x5E
03DE6:  CLRF   x5F
03DE8:  MOVLB  0
03DEA:  CALL   31F2
03DEE:  MOVLW  02
03DF0:  MOVLB  6
03DF2:  ADDWF  x42,W
03DF4:  MOVWF  x4F
03DF6:  MOVLW  01
03DF8:  ADDWF  x43,W
03DFA:  MOVWF  x50
03DFC:  MOVFF  64F,65A
03E00:  MOVWF  x5B
03E02:  MOVLW  06
03E04:  MOVWF  x5D
03E06:  MOVLW  46
03E08:  MOVWF  x5C
03E0A:  MOVFF  645,65E
03E0E:  MOVLW  01
03E10:  MOVWF  x5F
03E12:  MOVLB  0
03E14:  CALL   32B4
03E18:  MOVLB  6
....................  
.................... } 
03E1A:  MOVLB  0
03E1C:  RETLW  00
....................  
.................... void displayMenu(char palabra[100], int x, int y, int sombreado, int tamano) 
.................... { 
....................    strcpy(Menus.Letra,palabra); 
*
03522:  MOVLB  6
03524:  MOVFF  649,01
03528:  MOVFF  64A,03
0352C:  MOVFF  649,64F
03530:  MOVFF  64A,650
03534:  MOVLW  06
03536:  MOVWF  FEA
03538:  MOVLW  2B
0353A:  MOVWF  FE9
0353C:  MOVFF  64A,FE2
03540:  MOVFF  649,FE1
03544:  MOVF   FE7,F
03546:  MOVFF  FE6,FEE
0354A:  BNZ   3544
....................    if(sombreado==1) 
0354C:  DECFSZ x4D,W
0354E:  BRA    359A
....................       {glcd_rect(0, y, 127, y+(tamano*8), YES, ON);glcd_text57(x+1, y+1, Menus.Letra, tamano, OFF);} 
03550:  MOVF   x4E,W
03552:  MULLW  08
03554:  MOVF   FF3,W
03556:  ADDWF  x4C,W
03558:  MOVWF  x4F
0355A:  CLRF   x5A
0355C:  MOVFF  64C,65B
03560:  MOVLW  7F
03562:  MOVWF  x5C
03564:  MOVFF  64F,65D
03568:  MOVLW  01
0356A:  MOVWF  x5E
0356C:  MOVWF  x5F
0356E:  MOVLB  0
03570:  RCALL  31F2
03572:  MOVLW  01
03574:  MOVLB  6
03576:  ADDWF  x4B,W
03578:  MOVWF  x4F
0357A:  MOVLW  01
0357C:  ADDWF  x4C,W
0357E:  MOVWF  x50
03580:  MOVFF  64F,65A
03584:  MOVWF  x5B
03586:  MOVLW  06
03588:  MOVWF  x5D
0358A:  MOVLW  2B
0358C:  MOVWF  x5C
0358E:  MOVFF  64E,65E
03592:  CLRF   x5F
03594:  MOVLB  0
03596:  RCALL  32B4
03598:  MOVLB  6
....................    if(sombreado==0) 
0359A:  MOVF   x4D,F
0359C:  BNZ   35EA
....................       {glcd_rect(0, y, 127, y+(tamano*8), YES, OFF);glcd_text57(x+1, y+1, Menus.Letra, tamano, ON);} 
0359E:  MOVF   x4E,W
035A0:  MULLW  08
035A2:  MOVF   FF3,W
035A4:  ADDWF  x4C,W
035A6:  MOVWF  x4F
035A8:  CLRF   x5A
035AA:  MOVFF  64C,65B
035AE:  MOVLW  7F
035B0:  MOVWF  x5C
035B2:  MOVFF  64F,65D
035B6:  MOVLW  01
035B8:  MOVWF  x5E
035BA:  CLRF   x5F
035BC:  MOVLB  0
035BE:  RCALL  31F2
035C0:  MOVLW  01
035C2:  MOVLB  6
035C4:  ADDWF  x4B,W
035C6:  MOVWF  x4F
035C8:  MOVLW  01
035CA:  ADDWF  x4C,W
035CC:  MOVWF  x50
035CE:  MOVFF  64F,65A
035D2:  MOVWF  x5B
035D4:  MOVLW  06
035D6:  MOVWF  x5D
035D8:  MOVLW  2B
035DA:  MOVWF  x5C
035DC:  MOVFF  64E,65E
035E0:  MOVLW  01
035E2:  MOVWF  x5F
035E4:  MOVLB  0
035E6:  RCALL  32B4
035E8:  MOVLB  6
....................  
.................... } 
035EA:  MOVLB  0
035EC:  RETLW  00
....................  
.................... void displayfloat(float adc,int x,int y,int sombreado, int tamano) { 
....................    char voltage[9];     
....................       sprintf(voltage, "%1.2f",adc); // Converts adc to text 
*
0418E:  MOVLW  06
04190:  MOVLB  6
04192:  MOVWF  x40
04194:  MOVLW  4D
04196:  MOVWF  x3F
04198:  MOVLW  89
0419A:  MOVWF  FE9
0419C:  MOVFF  648,659
041A0:  MOVFF  647,658
041A4:  MOVFF  646,657
041A8:  MOVFF  645,656
041AC:  MOVLW  02
041AE:  MOVWF  x5A
041B0:  MOVLB  0
041B2:  BRA    3FD8
....................        
....................    if(sombreado==1) 
041B4:  MOVLB  6
041B6:  DECFSZ x4B,W
041B8:  BRA    4212
....................       {glcd_rect(x, y, x+(tamano*48), y+(tamano*8), YES, ON);glcd_text57(x+2, y+1, voltage, tamano, OFF);} 
041BA:  MOVF   x4C,W
041BC:  MULLW  30
041BE:  MOVF   FF3,W
041C0:  ADDWF  x49,W
041C2:  MOVWF  x56
041C4:  MOVF   x4C,W
041C6:  MULLW  08
041C8:  MOVF   FF3,W
041CA:  ADDWF  x4A,W
041CC:  MOVWF  x57
041CE:  MOVFF  649,65A
041D2:  MOVFF  64A,65B
041D6:  MOVFF  656,65C
041DA:  MOVWF  x5D
041DC:  MOVLW  01
041DE:  MOVWF  x5E
041E0:  MOVWF  x5F
041E2:  MOVLB  0
041E4:  CALL   31F2
041E8:  MOVLW  02
041EA:  MOVLB  6
041EC:  ADDWF  x49,W
041EE:  MOVWF  x56
041F0:  MOVLW  01
041F2:  ADDWF  x4A,W
041F4:  MOVWF  x57
041F6:  MOVFF  656,65A
041FA:  MOVWF  x5B
041FC:  MOVLW  06
041FE:  MOVWF  x5D
04200:  MOVLW  4D
04202:  MOVWF  x5C
04204:  MOVFF  64C,65E
04208:  CLRF   x5F
0420A:  MOVLB  0
0420C:  CALL   32B4
04210:  MOVLB  6
....................    if(sombreado==0) 
04212:  MOVF   x4B,F
04214:  BNZ   4270
....................       {glcd_rect(x, y, x+(tamano*48), y+(tamano*8), YES, OFF);glcd_text57(x+2, y+1, voltage, tamano, ON);} 
04216:  MOVF   x4C,W
04218:  MULLW  30
0421A:  MOVF   FF3,W
0421C:  ADDWF  x49,W
0421E:  MOVWF  x56
04220:  MOVF   x4C,W
04222:  MULLW  08
04224:  MOVF   FF3,W
04226:  ADDWF  x4A,W
04228:  MOVWF  x57
0422A:  MOVFF  649,65A
0422E:  MOVFF  64A,65B
04232:  MOVFF  656,65C
04236:  MOVWF  x5D
04238:  MOVLW  01
0423A:  MOVWF  x5E
0423C:  CLRF   x5F
0423E:  MOVLB  0
04240:  CALL   31F2
04244:  MOVLW  02
04246:  MOVLB  6
04248:  ADDWF  x49,W
0424A:  MOVWF  x56
0424C:  MOVLW  01
0424E:  ADDWF  x4A,W
04250:  MOVWF  x57
04252:  MOVFF  656,65A
04256:  MOVWF  x5B
04258:  MOVLW  06
0425A:  MOVWF  x5D
0425C:  MOVLW  4D
0425E:  MOVWF  x5C
04260:  MOVFF  64C,65E
04264:  MOVLW  01
04266:  MOVWF  x5F
04268:  MOVLB  0
0426A:  CALL   32B4
0426E:  MOVLB  6
....................        
.................... } 
04270:  MOVLB  0
04272:  RETLW  00
....................  
.................... Float LeerFlujoInFlow(int media) 
.................... { 
....................     InFlow_adc=sensores(ExFlow); 
....................        
....................     if(negativo==10) 
....................     { 
....................       x_uno=Inflow_adc+Diferencia; 
....................     } 
....................     if(negativo==20) 
....................     { 
....................       x_uno=Inflow_adc-Diferencia; 
....................     } 
....................     x_cuadrado=x_uno*x_uno; 
....................     x_cubo=x_uno*x_cuadrado; 
....................     Velocidad=(x_cubo*a)+(x_cuadrado*b)+(x_uno*c)+d;  
....................     //Velocidad=Velocidad*correccion;//Ajuste de Temperatura 
....................     Velocidad=Velocidad-0.08; 
....................     if(Velocidad<0.0) 
....................      {Velocidad=0.0;} 
....................       
....................      if(l>=media) 
....................        {l=0;} 
....................       
....................      promedio[l]=Velocidad;l++; 
....................      Flujo=0; 
....................         for(h=0;h<=(media-1);h++) 
....................         { 
....................            Flujo+=promedio[h]; 
....................         }  
....................            Flujo=(Flujo/media)*Ajuste1;  
....................            return Flujo; 
.................... } 
....................  
.................... float Leer_Sensor_Presion(int media){ 
*
02CD6:  MOVLB  6
02CD8:  CLRF   x45
02CDA:  CLRF   x44
02CDC:  CLRF   x43
02CDE:  CLRF   x42
....................    float promediopresion=0.0; 
....................     
....................    Filtro_Downflow_adc=sensores(PresDownFlow); 
02CE0:  MOVLW  02
02CE2:  MOVWF  x46
02CE4:  MOVLB  0
02CE6:  BRA    2BA0
02CE8:  MOVFF  02,4F4
02CEC:  MOVFF  01,4F3
....................    V1=Filtro_Downflow_adc;  
02CF0:  MOVFF  4F4,647
02CF4:  MOVFF  4F3,646
02CF8:  CALL   13C2
02CFC:  MOVFF  03,5CA
02D00:  MOVFF  02,5C9
02D04:  MOVFF  01,5C8
02D08:  MOVFF  00,5C7
....................    //V1 = (x_uno*5.0)/1023.0;   //Lectura de Divisor de Voltaje de PT100 con resistencia de 1k (+-10%) 
....................    Presion=(V1/G)-1.0;// Presion=(Voltaje/Ganancia)-1 
02D0C:  MOVFF  5CA,649
02D10:  MOVFF  5C9,648
02D14:  MOVFF  5C8,647
02D18:  MOVFF  5C7,646
02D1C:  MOVFF  5D2,64D
02D20:  MOVFF  5D1,64C
02D24:  MOVFF  5D0,64B
02D28:  MOVFF  5CF,64A
02D2C:  CALL   13F8
02D30:  MOVFF  00,646
02D34:  MOVFF  01,647
02D38:  MOVFF  02,648
02D3C:  MOVFF  03,649
02D40:  BSF    FD8.1
02D42:  MOVFF  03,64D
02D46:  MOVFF  02,64C
02D4A:  MOVFF  01,64B
02D4E:  MOVFF  00,64A
02D52:  MOVLB  6
02D54:  CLRF   x51
02D56:  CLRF   x50
02D58:  CLRF   x4F
02D5A:  MOVLW  7F
02D5C:  MOVWF  x4E
02D5E:  MOVLB  0
02D60:  CALL   1556
02D64:  MOVFF  03,5CE
02D68:  MOVFF  02,5CD
02D6C:  MOVFF  01,5CC
02D70:  MOVFF  00,5CB
....................     
....................    if(Presion<0.0) 
02D74:  MOVFF  5CE,649
02D78:  MOVFF  5CD,648
02D7C:  MOVFF  5CC,647
02D80:  MOVFF  5CB,646
02D84:  MOVLB  6
02D86:  CLRF   x4D
02D88:  CLRF   x4C
02D8A:  CLRF   x4B
02D8C:  CLRF   x4A
02D8E:  MOVLB  0
02D90:  CALL   2024
02D94:  BNC   2DA0
....................    { 
....................       Presion=0.0; 
02D96:  MOVLB  5
02D98:  CLRF   xCE
02D9A:  CLRF   xCD
02D9C:  CLRF   xCC
02D9E:  CLRF   xCB
....................    } 
....................  
....................    if(r>media-1) 
02DA0:  MOVLW  01
02DA2:  MOVLB  6
02DA4:  SUBWF  x41,W
02DA6:  MOVLB  4
02DA8:  SUBWF  xE5,W
02DAA:  BZ    2DB0
02DAC:  BNC   2DB0
....................    {r=0;} 
02DAE:  CLRF   xE5
....................    PromPresion[r]=Presion*4.02;r++; 
02DB0:  MOVF   xE5,W
02DB2:  MULLW  04
02DB4:  MOVF   FF3,W
02DB6:  CLRF   03
02DB8:  ADDLW  9B
02DBA:  MOVWF  FE9
02DBC:  MOVLW  05
02DBE:  ADDWFC 03,W
02DC0:  MOVWF  FEA
02DC2:  MOVFF  5CE,666
02DC6:  MOVFF  5CD,665
02DCA:  MOVFF  5CC,664
02DCE:  MOVFF  5CB,663
02DD2:  MOVLW  D7
02DD4:  MOVLB  6
02DD6:  MOVWF  x6A
02DD8:  MOVLW  A3
02DDA:  MOVWF  x69
02DDC:  CLRF   x68
02DDE:  MOVLW  81
02DE0:  MOVWF  x67
02DE2:  MOVLB  0
02DE4:  RCALL  2BE0
02DE6:  MOVFF  00,FEF
02DEA:  MOVFF  01,FEC
02DEE:  MOVFF  02,FEC
02DF2:  MOVFF  03,FEC
02DF6:  MOVLB  4
02DF8:  INCF   xE5,F
....................           
....................    for(q=0;q<=(media-1);q++) 
02DFA:  CLRF   xE4
02DFC:  MOVLW  01
02DFE:  MOVLB  6
02E00:  SUBWF  x41,W
02E02:  MOVLB  4
02E04:  SUBWF  xE4,W
02E06:  BZ    2E0A
02E08:  BC    2E7A
....................    { 
....................       promediopresion+=PromPresion[q]; 
02E0A:  MOVF   xE4,W
02E0C:  MULLW  04
02E0E:  MOVF   FF3,W
02E10:  CLRF   03
02E12:  ADDLW  9B
02E14:  MOVWF  FE9
02E16:  MOVLW  05
02E18:  ADDWFC 03,W
02E1A:  MOVWF  FEA
02E1C:  MOVFF  FEF,00
02E20:  MOVFF  FEC,01
02E24:  MOVFF  FEC,02
02E28:  MOVFF  FEC,03
02E2C:  MOVFF  FEA,647
02E30:  MOVFF  FE9,646
02E34:  BCF    FD8.1
02E36:  MOVFF  645,64D
02E3A:  MOVFF  644,64C
02E3E:  MOVFF  643,64B
02E42:  MOVFF  642,64A
02E46:  MOVFF  03,651
02E4A:  MOVFF  02,650
02E4E:  MOVFF  01,64F
02E52:  MOVFF  00,64E
02E56:  MOVLB  0
02E58:  CALL   1556
02E5C:  MOVFF  647,FEA
02E60:  MOVFF  646,FE9
02E64:  MOVFF  03,645
02E68:  MOVFF  02,644
02E6C:  MOVFF  01,643
02E70:  MOVFF  00,642
....................    }  
02E74:  MOVLB  4
02E76:  INCF   xE4,F
02E78:  BRA    2DFC
....................    promediopresion=promediopresion/media;    
02E7A:  MOVLB  6
02E7C:  CLRF   x47
02E7E:  MOVFF  641,646
02E82:  MOVLB  0
02E84:  CALL   13C2
02E88:  MOVFF  645,649
02E8C:  MOVFF  644,648
02E90:  MOVFF  643,647
02E94:  MOVFF  642,646
02E98:  MOVFF  03,64D
02E9C:  MOVFF  02,64C
02EA0:  MOVFF  01,64B
02EA4:  MOVFF  00,64A
02EA8:  CALL   13F8
02EAC:  MOVFF  03,645
02EB0:  MOVFF  02,644
02EB4:  MOVFF  01,643
02EB8:  MOVFF  00,642
....................     
....................    return promediopresion; 
02EBC:  MOVFF  642,00
02EC0:  MOVFF  643,01
02EC4:  MOVFF  644,02
02EC8:  MOVFF  645,03
.................... } 
02ECC:  RETLW  00
....................  
.................... void LeeEEPROM(void){ 
....................    Password[0]=read_eeprom(0); 
*
017CE:  MOVFF  FF2,641
017D2:  BCF    FF2.7
017D4:  CLRF   FAA
017D6:  CLRF   FA9
017D8:  BCF    FA6.6
017DA:  BCF    FA6.7
017DC:  BSF    FA6.0
017DE:  MOVF   FA8,W
017E0:  MOVLB  6
017E2:  BTFSC  x41.7
017E4:  BSF    FF2.7
017E6:  MOVLB  5
017E8:  MOVWF  x23
....................    delay_ms(10); 
017EA:  MOVLW  0A
017EC:  MOVLB  6
017EE:  MOVWF  x4A
017F0:  MOVLB  0
017F2:  RCALL  139A
....................    Password[1]=read_eeprom(1); 
017F4:  MOVFF  FF2,641
017F8:  BCF    FF2.7
017FA:  CLRF   FAA
017FC:  MOVLW  01
017FE:  MOVWF  FA9
01800:  BCF    FA6.6
01802:  BCF    FA6.7
01804:  BSF    FA6.0
01806:  MOVF   FA8,W
01808:  MOVLB  6
0180A:  BTFSC  x41.7
0180C:  BSF    FF2.7
0180E:  MOVLB  5
01810:  MOVWF  x24
....................    delay_ms(10); 
01812:  MOVLW  0A
01814:  MOVLB  6
01816:  MOVWF  x4A
01818:  MOVLB  0
0181A:  RCALL  139A
....................    Password[2]=read_eeprom(2); 
0181C:  MOVFF  FF2,641
01820:  BCF    FF2.7
01822:  CLRF   FAA
01824:  MOVLW  02
01826:  MOVWF  FA9
01828:  BCF    FA6.6
0182A:  BCF    FA6.7
0182C:  BSF    FA6.0
0182E:  MOVF   FA8,W
01830:  MOVLB  6
01832:  BTFSC  x41.7
01834:  BSF    FF2.7
01836:  MOVLB  5
01838:  MOVWF  x25
....................    delay_ms(10); 
0183A:  MOVLW  0A
0183C:  MOVLB  6
0183E:  MOVWF  x4A
01840:  MOVLB  0
01842:  RCALL  139A
....................    Password[3]=read_eeprom(3); 
01844:  MOVFF  FF2,641
01848:  BCF    FF2.7
0184A:  CLRF   FAA
0184C:  MOVLW  03
0184E:  MOVWF  FA9
01850:  BCF    FA6.6
01852:  BCF    FA6.7
01854:  BSF    FA6.0
01856:  MOVF   FA8,W
01858:  MOVLB  6
0185A:  BTFSC  x41.7
0185C:  BSF    FF2.7
0185E:  MOVLB  5
01860:  MOVWF  x26
....................    delay_ms(10); 
01862:  MOVLW  0A
01864:  MOVLB  6
01866:  MOVWF  x4A
01868:  MOVLB  0
0186A:  RCALL  139A
....................    Tpurgap[0]=read_eeprom(4); 
0186C:  MOVFF  FF2,641
01870:  BCF    FF2.7
01872:  CLRF   FAA
01874:  MOVLW  04
01876:  MOVWF  FA9
01878:  BCF    FA6.6
0187A:  BCF    FA6.7
0187C:  BSF    FA6.0
0187E:  MOVF   FA8,W
01880:  MOVLB  6
01882:  BTFSC  x41.7
01884:  BSF    FF2.7
01886:  MOVLB  5
01888:  MOVWF  x03
....................    delay_ms(10); 
0188A:  MOVLW  0A
0188C:  MOVLB  6
0188E:  MOVWF  x4A
01890:  MOVLB  0
01892:  RCALL  139A
....................    Tpurgap[1]=read_eeprom(5); 
01894:  MOVFF  FF2,641
01898:  BCF    FF2.7
0189A:  CLRF   FAA
0189C:  MOVLW  05
0189E:  MOVWF  FA9
018A0:  BCF    FA6.6
018A2:  BCF    FA6.7
018A4:  BSF    FA6.0
018A6:  MOVF   FA8,W
018A8:  MOVLB  6
018AA:  BTFSC  x41.7
018AC:  BSF    FF2.7
018AE:  MOVLB  5
018B0:  MOVWF  x04
....................    delay_ms(10); 
018B2:  MOVLW  0A
018B4:  MOVLB  6
018B6:  MOVWF  x4A
018B8:  MOVLB  0
018BA:  RCALL  139A
....................    Tpurgap[2]=read_eeprom(6); 
018BC:  MOVFF  FF2,641
018C0:  BCF    FF2.7
018C2:  CLRF   FAA
018C4:  MOVLW  06
018C6:  MOVWF  FA9
018C8:  BCF    FA6.6
018CA:  BCF    FA6.7
018CC:  BSF    FA6.0
018CE:  MOVF   FA8,W
018D0:  MOVLB  6
018D2:  BTFSC  x41.7
018D4:  BSF    FF2.7
018D6:  MOVLB  5
018D8:  MOVWF  x05
....................    delay_ms(10); 
018DA:  MOVLW  0A
018DC:  MOVLB  6
018DE:  MOVWF  x4A
018E0:  MOVLB  0
018E2:  RCALL  139A
....................    Tpurgap[3]=read_eeprom(7); 
018E4:  MOVFF  FF2,641
018E8:  BCF    FF2.7
018EA:  CLRF   FAA
018EC:  MOVLW  07
018EE:  MOVWF  FA9
018F0:  BCF    FA6.6
018F2:  BCF    FA6.7
018F4:  BSF    FA6.0
018F6:  MOVF   FA8,W
018F8:  MOVLB  6
018FA:  BTFSC  x41.7
018FC:  BSF    FF2.7
018FE:  MOVLB  5
01900:  MOVWF  x06
....................    delay_ms(10); 
01902:  MOVLW  0A
01904:  MOVLB  6
01906:  MOVWF  x4A
01908:  MOVLB  0
0190A:  RCALL  139A
....................    Tppurgap[0]=read_eeprom(8); 
0190C:  MOVFF  FF2,641
01910:  BCF    FF2.7
01912:  CLRF   FAA
01914:  MOVLW  08
01916:  MOVWF  FA9
01918:  BCF    FA6.6
0191A:  BCF    FA6.7
0191C:  BSF    FA6.0
0191E:  MOVF   FA8,W
01920:  MOVLB  6
01922:  BTFSC  x41.7
01924:  BSF    FF2.7
01926:  MOVLB  5
01928:  MOVWF  x0B
....................    delay_ms(10); 
0192A:  MOVLW  0A
0192C:  MOVLB  6
0192E:  MOVWF  x4A
01930:  MOVLB  0
01932:  RCALL  139A
....................    Tppurgap[1]=read_eeprom(9); 
01934:  MOVFF  FF2,641
01938:  BCF    FF2.7
0193A:  CLRF   FAA
0193C:  MOVLW  09
0193E:  MOVWF  FA9
01940:  BCF    FA6.6
01942:  BCF    FA6.7
01944:  BSF    FA6.0
01946:  MOVF   FA8,W
01948:  MOVLB  6
0194A:  BTFSC  x41.7
0194C:  BSF    FF2.7
0194E:  MOVLB  5
01950:  MOVWF  x0C
....................    delay_ms(10); 
01952:  MOVLW  0A
01954:  MOVLB  6
01956:  MOVWF  x4A
01958:  MOVLB  0
0195A:  RCALL  139A
....................    Tppurgap[2]=read_eeprom(10); 
0195C:  MOVFF  FF2,641
01960:  BCF    FF2.7
01962:  CLRF   FAA
01964:  MOVLW  0A
01966:  MOVWF  FA9
01968:  BCF    FA6.6
0196A:  BCF    FA6.7
0196C:  BSF    FA6.0
0196E:  MOVF   FA8,W
01970:  MOVLB  6
01972:  BTFSC  x41.7
01974:  BSF    FF2.7
01976:  MOVLB  5
01978:  MOVWF  x0D
....................    delay_ms(10); 
0197A:  MOVLW  0A
0197C:  MOVLB  6
0197E:  MOVWF  x4A
01980:  MOVLB  0
01982:  RCALL  139A
....................    Tppurgap[3]=read_eeprom(11); 
01984:  MOVFF  FF2,641
01988:  BCF    FF2.7
0198A:  CLRF   FAA
0198C:  MOVLW  0B
0198E:  MOVWF  FA9
01990:  BCF    FA6.6
01992:  BCF    FA6.7
01994:  BSF    FA6.0
01996:  MOVF   FA8,W
01998:  MOVLB  6
0199A:  BTFSC  x41.7
0199C:  BSF    FF2.7
0199E:  MOVLB  5
019A0:  MOVWF  x0E
....................    delay_ms(10); 
019A2:  MOVLW  0A
019A4:  MOVLB  6
019A6:  MOVWF  x4A
019A8:  MOVLB  0
019AA:  RCALL  139A
....................    Tuv[0]=read_eeprom(12); 
019AC:  MOVFF  FF2,641
019B0:  BCF    FF2.7
019B2:  CLRF   FAA
019B4:  MOVLW  0C
019B6:  MOVWF  FA9
019B8:  BCF    FA6.6
019BA:  BCF    FA6.7
019BC:  BSF    FA6.0
019BE:  MOVF   FA8,W
019C0:  MOVLB  6
019C2:  BTFSC  x41.7
019C4:  BSF    FF2.7
019C6:  MOVLB  5
019C8:  MOVWF  x0F
....................    delay_ms(10); 
019CA:  MOVLW  0A
019CC:  MOVLB  6
019CE:  MOVWF  x4A
019D0:  MOVLB  0
019D2:  RCALL  139A
....................    Tuv[1]=read_eeprom(13); 
019D4:  MOVFF  FF2,641
019D8:  BCF    FF2.7
019DA:  CLRF   FAA
019DC:  MOVLW  0D
019DE:  MOVWF  FA9
019E0:  BCF    FA6.6
019E2:  BCF    FA6.7
019E4:  BSF    FA6.0
019E6:  MOVF   FA8,W
019E8:  MOVLB  6
019EA:  BTFSC  x41.7
019EC:  BSF    FF2.7
019EE:  MOVLB  5
019F0:  MOVWF  x10
....................    delay_ms(10); 
019F2:  MOVLW  0A
019F4:  MOVLB  6
019F6:  MOVWF  x4A
019F8:  MOVLB  0
019FA:  RCALL  139A
....................    Tuv[2]=read_eeprom(14); 
019FC:  MOVFF  FF2,641
01A00:  BCF    FF2.7
01A02:  CLRF   FAA
01A04:  MOVLW  0E
01A06:  MOVWF  FA9
01A08:  BCF    FA6.6
01A0A:  BCF    FA6.7
01A0C:  BSF    FA6.0
01A0E:  MOVF   FA8,W
01A10:  MOVLB  6
01A12:  BTFSC  x41.7
01A14:  BSF    FF2.7
01A16:  MOVLB  5
01A18:  MOVWF  x11
....................    delay_ms(10); 
01A1A:  MOVLW  0A
01A1C:  MOVLB  6
01A1E:  MOVWF  x4A
01A20:  MOVLB  0
01A22:  RCALL  139A
....................    Tuv[3]=read_eeprom(15); 
01A24:  MOVFF  FF2,641
01A28:  BCF    FF2.7
01A2A:  CLRF   FAA
01A2C:  MOVLW  0F
01A2E:  MOVWF  FA9
01A30:  BCF    FA6.6
01A32:  BCF    FA6.7
01A34:  BSF    FA6.0
01A36:  MOVF   FA8,W
01A38:  MOVLB  6
01A3A:  BTFSC  x41.7
01A3C:  BSF    FF2.7
01A3E:  MOVLB  5
01A40:  MOVWF  x12
....................    delay_ms(10); 
01A42:  MOVLW  0A
01A44:  MOVLB  6
01A46:  MOVWF  x4A
01A48:  MOVLB  0
01A4A:  RCALL  139A
....................    Ttrabajo[0]=read_eeprom(16); 
01A4C:  MOVFF  FF2,641
01A50:  BCF    FF2.7
01A52:  CLRF   FAA
01A54:  MOVLW  10
01A56:  MOVWF  FA9
01A58:  BCF    FA6.6
01A5A:  BCF    FA6.7
01A5C:  BSF    FA6.0
01A5E:  MOVF   FA8,W
01A60:  MOVLB  6
01A62:  BTFSC  x41.7
01A64:  BSF    FF2.7
01A66:  MOVLB  5
01A68:  MOVWF  x1B
....................    delay_ms(10); 
01A6A:  MOVLW  0A
01A6C:  MOVLB  6
01A6E:  MOVWF  x4A
01A70:  MOVLB  0
01A72:  RCALL  139A
....................    Ttrabajo[1]=read_eeprom(17); 
01A74:  MOVFF  FF2,641
01A78:  BCF    FF2.7
01A7A:  CLRF   FAA
01A7C:  MOVLW  11
01A7E:  MOVWF  FA9
01A80:  BCF    FA6.6
01A82:  BCF    FA6.7
01A84:  BSF    FA6.0
01A86:  MOVF   FA8,W
01A88:  MOVLB  6
01A8A:  BTFSC  x41.7
01A8C:  BSF    FF2.7
01A8E:  MOVLB  5
01A90:  MOVWF  x1C
....................    delay_ms(10); 
01A92:  MOVLW  0A
01A94:  MOVLB  6
01A96:  MOVWF  x4A
01A98:  MOVLB  0
01A9A:  RCALL  139A
....................    Ttrabajo[2]=read_eeprom(18); 
01A9C:  MOVFF  FF2,641
01AA0:  BCF    FF2.7
01AA2:  CLRF   FAA
01AA4:  MOVLW  12
01AA6:  MOVWF  FA9
01AA8:  BCF    FA6.6
01AAA:  BCF    FA6.7
01AAC:  BSF    FA6.0
01AAE:  MOVF   FA8,W
01AB0:  MOVLB  6
01AB2:  BTFSC  x41.7
01AB4:  BSF    FF2.7
01AB6:  MOVLB  5
01AB8:  MOVWF  x1D
....................    delay_ms(10); 
01ABA:  MOVLW  0A
01ABC:  MOVLB  6
01ABE:  MOVWF  x4A
01AC0:  MOVLB  0
01AC2:  RCALL  139A
....................    Ttrabajo[3]=read_eeprom(19); 
01AC4:  MOVFF  FF2,641
01AC8:  BCF    FF2.7
01ACA:  CLRF   FAA
01ACC:  MOVLW  13
01ACE:  MOVWF  FA9
01AD0:  BCF    FA6.6
01AD2:  BCF    FA6.7
01AD4:  BSF    FA6.0
01AD6:  MOVF   FA8,W
01AD8:  MOVLB  6
01ADA:  BTFSC  x41.7
01ADC:  BSF    FF2.7
01ADE:  MOVLB  5
01AE0:  MOVWF  x1E
....................    delay_ms(10); 
01AE2:  MOVLW  0A
01AE4:  MOVLB  6
01AE6:  MOVWF  x4A
01AE8:  MOVLB  0
01AEA:  RCALL  139A
....................    //flag_alarma=read_eeprom(20); 
....................    //delay_ms(10); 
....................    Tempouvp[0]=read_eeprom(21); 
01AEC:  MOVFF  FF2,641
01AF0:  BCF    FF2.7
01AF2:  CLRF   FAA
01AF4:  MOVLW  15
01AF6:  MOVWF  FA9
01AF8:  BCF    FA6.6
01AFA:  BCF    FA6.7
01AFC:  BSF    FA6.0
01AFE:  MOVF   FA8,W
01B00:  MOVLB  6
01B02:  BTFSC  x41.7
01B04:  BSF    FF2.7
01B06:  MOVLB  5
01B08:  MOVWF  x17
....................    delay_ms(10); 
01B0A:  MOVLW  0A
01B0C:  MOVLB  6
01B0E:  MOVWF  x4A
01B10:  MOVLB  0
01B12:  RCALL  139A
....................    Tempouvp[1]=read_eeprom(22); 
01B14:  MOVFF  FF2,641
01B18:  BCF    FF2.7
01B1A:  CLRF   FAA
01B1C:  MOVLW  16
01B1E:  MOVWF  FA9
01B20:  BCF    FA6.6
01B22:  BCF    FA6.7
01B24:  BSF    FA6.0
01B26:  MOVF   FA8,W
01B28:  MOVLB  6
01B2A:  BTFSC  x41.7
01B2C:  BSF    FF2.7
01B2E:  MOVLB  5
01B30:  MOVWF  x18
....................    delay_ms(10); 
01B32:  MOVLW  0A
01B34:  MOVLB  6
01B36:  MOVWF  x4A
01B38:  MOVLB  0
01B3A:  RCALL  139A
....................    Tempouvp[2]=read_eeprom(23); 
01B3C:  MOVFF  FF2,641
01B40:  BCF    FF2.7
01B42:  CLRF   FAA
01B44:  MOVLW  17
01B46:  MOVWF  FA9
01B48:  BCF    FA6.6
01B4A:  BCF    FA6.7
01B4C:  BSF    FA6.0
01B4E:  MOVF   FA8,W
01B50:  MOVLB  6
01B52:  BTFSC  x41.7
01B54:  BSF    FF2.7
01B56:  MOVLB  5
01B58:  MOVWF  x19
....................    delay_ms(10); 
01B5A:  MOVLW  0A
01B5C:  MOVLB  6
01B5E:  MOVWF  x4A
01B60:  MOVLB  0
01B62:  RCALL  139A
....................    Tempouvp[3]=read_eeprom(24); 
01B64:  MOVFF  FF2,641
01B68:  BCF    FF2.7
01B6A:  CLRF   FAA
01B6C:  MOVLW  18
01B6E:  MOVWF  FA9
01B70:  BCF    FA6.6
01B72:  BCF    FA6.7
01B74:  BSF    FA6.0
01B76:  MOVF   FA8,W
01B78:  MOVLB  6
01B7A:  BTFSC  x41.7
01B7C:  BSF    FF2.7
01B7E:  MOVLB  5
01B80:  MOVWF  x1A
....................     
....................    delay_ms(10); 
01B82:  MOVLW  0A
01B84:  MOVLB  6
01B86:  MOVWF  x4A
01B88:  MOVLB  0
01B8A:  RCALL  139A
....................    Entero=read_eeprom(25);//Decimal1=read_eeprom(26); 
01B8C:  MOVFF  FF2,641
01B90:  BCF    FF2.7
01B92:  CLRF   FAA
01B94:  MOVLW  19
01B96:  MOVWF  FA9
01B98:  BCF    FA6.6
01B9A:  BCF    FA6.7
01B9C:  BSF    FA6.0
01B9E:  MOVF   FA8,W
01BA0:  MOVLB  6
01BA2:  BTFSC  x41.7
01BA4:  BSF    FF2.7
01BA6:  MOVLB  4
01BA8:  MOVWF  xE8
....................    delay_ms(10); 
01BAA:  MOVLW  0A
01BAC:  MOVLB  6
01BAE:  MOVWF  x4A
01BB0:  MOVLB  0
01BB2:  CALL   139A
....................    Temporal=read_eeprom(26); 
01BB6:  MOVFF  FF2,641
01BBA:  BCF    FF2.7
01BBC:  CLRF   FAA
01BBE:  MOVLW  1A
01BC0:  MOVWF  FA9
01BC2:  BCF    FA6.6
01BC4:  BCF    FA6.7
01BC6:  BSF    FA6.0
01BC8:  MOVF   FA8,W
01BCA:  MOVLB  6
01BCC:  BTFSC  x41.7
01BCE:  BSF    FF2.7
01BD0:  CLRF   x47
01BD2:  MOVWF  x46
01BD4:  MOVLB  0
01BD6:  CALL   13C2
01BDA:  MOVFF  03,566
01BDE:  MOVFF  02,565
01BE2:  MOVFF  01,564
01BE6:  MOVFF  00,563
....................    delay_ms(10); 
01BEA:  MOVLW  0A
01BEC:  MOVLB  6
01BEE:  MOVWF  x4A
01BF0:  MOVLB  0
01BF2:  CALL   139A
....................    Temporal=Temporal/10.0; 
01BF6:  MOVFF  566,649
01BFA:  MOVFF  565,648
01BFE:  MOVFF  564,647
01C02:  MOVFF  563,646
01C06:  MOVLB  6
01C08:  CLRF   x4D
01C0A:  CLRF   x4C
01C0C:  MOVLW  20
01C0E:  MOVWF  x4B
01C10:  MOVLW  82
01C12:  MOVWF  x4A
01C14:  MOVLB  0
01C16:  CALL   13F8
01C1A:  MOVFF  03,566
01C1E:  MOVFF  02,565
01C22:  MOVFF  01,564
01C26:  MOVFF  00,563
....................    Ajuste1=Entero+Temporal; 
01C2A:  MOVLB  6
01C2C:  CLRF   x47
01C2E:  MOVFF  4E8,646
01C32:  MOVLB  0
01C34:  CALL   13C2
01C38:  BCF    FD8.1
01C3A:  MOVFF  03,64D
01C3E:  MOVFF  02,64C
01C42:  MOVFF  01,64B
01C46:  MOVFF  00,64A
01C4A:  MOVFF  566,651
01C4E:  MOVFF  565,650
01C52:  MOVFF  564,64F
01C56:  MOVFF  563,64E
01C5A:  RCALL  1556
01C5C:  MOVFF  03,55A
01C60:  MOVFF  02,559
01C64:  MOVFF  01,558
01C68:  MOVFF  00,557
....................     
....................     
....................    Entero=read_eeprom(27);//Decimal1=read_eeprom(26); 
01C6C:  MOVFF  FF2,641
01C70:  BCF    FF2.7
01C72:  CLRF   FAA
01C74:  MOVLW  1B
01C76:  MOVWF  FA9
01C78:  BCF    FA6.6
01C7A:  BCF    FA6.7
01C7C:  BSF    FA6.0
01C7E:  MOVF   FA8,W
01C80:  MOVLB  6
01C82:  BTFSC  x41.7
01C84:  BSF    FF2.7
01C86:  MOVLB  4
01C88:  MOVWF  xE8
....................    delay_ms(10); 
01C8A:  MOVLW  0A
01C8C:  MOVLB  6
01C8E:  MOVWF  x4A
01C90:  MOVLB  0
01C92:  CALL   139A
....................    Temporal=read_eeprom(28); 
01C96:  MOVFF  FF2,641
01C9A:  BCF    FF2.7
01C9C:  CLRF   FAA
01C9E:  MOVLW  1C
01CA0:  MOVWF  FA9
01CA2:  BCF    FA6.6
01CA4:  BCF    FA6.7
01CA6:  BSF    FA6.0
01CA8:  MOVF   FA8,W
01CAA:  MOVLB  6
01CAC:  BTFSC  x41.7
01CAE:  BSF    FF2.7
01CB0:  CLRF   x47
01CB2:  MOVWF  x46
01CB4:  MOVLB  0
01CB6:  CALL   13C2
01CBA:  MOVFF  03,566
01CBE:  MOVFF  02,565
01CC2:  MOVFF  01,564
01CC6:  MOVFF  00,563
....................    delay_ms(10); 
01CCA:  MOVLW  0A
01CCC:  MOVLB  6
01CCE:  MOVWF  x4A
01CD0:  MOVLB  0
01CD2:  CALL   139A
....................    Temporal=Temporal/10.0; 
01CD6:  MOVFF  566,649
01CDA:  MOVFF  565,648
01CDE:  MOVFF  564,647
01CE2:  MOVFF  563,646
01CE6:  MOVLB  6
01CE8:  CLRF   x4D
01CEA:  CLRF   x4C
01CEC:  MOVLW  20
01CEE:  MOVWF  x4B
01CF0:  MOVLW  82
01CF2:  MOVWF  x4A
01CF4:  MOVLB  0
01CF6:  CALL   13F8
01CFA:  MOVFF  03,566
01CFE:  MOVFF  02,565
01D02:  MOVFF  01,564
01D06:  MOVFF  00,563
....................    Ajuste2=Entero+Temporal; 
01D0A:  MOVLB  6
01D0C:  CLRF   x47
01D0E:  MOVFF  4E8,646
01D12:  MOVLB  0
01D14:  CALL   13C2
01D18:  BCF    FD8.1
01D1A:  MOVFF  03,64D
01D1E:  MOVFF  02,64C
01D22:  MOVFF  01,64B
01D26:  MOVFF  00,64A
01D2A:  MOVFF  566,651
01D2E:  MOVFF  565,650
01D32:  MOVFF  564,64F
01D36:  MOVFF  563,64E
01D3A:  RCALL  1556
01D3C:  MOVFF  03,55E
01D40:  MOVFF  02,55D
01D44:  MOVFF  01,55C
01D48:  MOVFF  00,55B
....................     
....................    zero_actual=make16(read_eeprom(30),read_eeprom(29)); 
01D4C:  MOVFF  FF2,641
01D50:  BCF    FF2.7
01D52:  CLRF   FAA
01D54:  MOVLW  1E
01D56:  MOVWF  FA9
01D58:  BCF    FA6.6
01D5A:  BCF    FA6.7
01D5C:  BSF    FA6.0
01D5E:  MOVF   FA8,W
01D60:  MOVLB  6
01D62:  BTFSC  x41.7
01D64:  BSF    FF2.7
01D66:  MOVWF  x42
01D68:  MOVFF  FF2,643
01D6C:  BCF    FF2.7
01D6E:  CLRF   FAA
01D70:  MOVLW  1D
01D72:  MOVWF  FA9
01D74:  BCF    FA6.6
01D76:  BCF    FA6.7
01D78:  BSF    FA6.0
01D7A:  MOVF   FA8,W
01D7C:  BTFSC  x43.7
01D7E:  BSF    FF2.7
01D80:  MOVWF  x44
01D82:  MOVFF  642,03
01D86:  MOVF   x44,W
01D88:  MOVWF  x46
01D8A:  MOVFF  03,647
01D8E:  MOVLB  0
01D90:  CALL   13C2
01D94:  MOVFF  03,5C6
01D98:  MOVFF  02,5C5
01D9C:  MOVFF  01,5C4
01DA0:  MOVFF  00,5C3
....................    delay_ms(10); 
01DA4:  MOVLW  0A
01DA6:  MOVLB  6
01DA8:  MOVWF  x4A
01DAA:  MOVLB  0
01DAC:  CALL   139A
....................    minutos_trabajo=make16(read_eeprom(34),read_eeprom(33)); 
01DB0:  MOVFF  FF2,641
01DB4:  BCF    FF2.7
01DB6:  CLRF   FAA
01DB8:  MOVLW  22
01DBA:  MOVWF  FA9
01DBC:  BCF    FA6.6
01DBE:  BCF    FA6.7
01DC0:  BSF    FA6.0
01DC2:  MOVF   FA8,W
01DC4:  MOVLB  6
01DC6:  BTFSC  x41.7
01DC8:  BSF    FF2.7
01DCA:  MOVWF  x42
01DCC:  MOVFF  FF2,643
01DD0:  BCF    FF2.7
01DD2:  CLRF   FAA
01DD4:  MOVLW  21
01DD6:  MOVWF  FA9
01DD8:  BCF    FA6.6
01DDA:  BCF    FA6.7
01DDC:  BSF    FA6.0
01DDE:  MOVF   FA8,W
01DE0:  BTFSC  x43.7
01DE2:  BSF    FF2.7
01DE4:  MOVWF  x44
01DE6:  MOVFF  642,4FC
01DEA:  MOVFF  644,4FB
....................    delay_ms(10); 
01DEE:  MOVLW  0A
01DF0:  MOVWF  x4A
01DF2:  MOVLB  0
01DF4:  CALL   139A
....................    minutos_uv=read_eeprom(31); 
01DF8:  MOVFF  FF2,641
01DFC:  BCF    FF2.7
01DFE:  CLRF   FAA
01E00:  MOVLW  1F
01E02:  MOVWF  FA9
01E04:  BCF    FA6.6
01E06:  BCF    FA6.7
01E08:  BSF    FA6.0
01E0A:  MOVF   FA8,W
01E0C:  MOVLB  6
01E0E:  BTFSC  x41.7
01E10:  BSF    FF2.7
01E12:  MOVLB  4
01E14:  MOVWF  xE3
....................    delay_ms(10); 
01E16:  MOVLW  0A
01E18:  MOVLB  6
01E1A:  MOVWF  x4A
01E1C:  MOVLB  0
01E1E:  CALL   139A
....................    VelMotor=read_eeprom(32); 
01E22:  MOVFF  FF2,641
01E26:  BCF    FF2.7
01E28:  CLRF   FAA
01E2A:  MOVLW  20
01E2C:  MOVWF  FA9
01E2E:  BCF    FA6.6
01E30:  BCF    FA6.7
01E32:  BSF    FA6.0
01E34:  MOVF   FA8,W
01E36:  MOVLB  6
01E38:  BTFSC  x41.7
01E3A:  BSF    FF2.7
01E3C:  MOVLB  4
01E3E:  MOVWF  xF0
....................    delay_ms(10); 
01E40:  MOVLW  0A
01E42:  MOVLB  6
01E44:  MOVWF  x4A
01E46:  MOVLB  0
01E48:  CALL   139A
....................     
....................    Entero=read_eeprom(35); 
01E4C:  MOVFF  FF2,641
01E50:  BCF    FF2.7
01E52:  CLRF   FAA
01E54:  MOVLW  23
01E56:  MOVWF  FA9
01E58:  BCF    FA6.6
01E5A:  BCF    FA6.7
01E5C:  BSF    FA6.0
01E5E:  MOVF   FA8,W
01E60:  MOVLB  6
01E62:  BTFSC  x41.7
01E64:  BSF    FF2.7
01E66:  MOVLB  4
01E68:  MOVWF  xE8
....................    delay_ms(10); 
01E6A:  MOVLW  0A
01E6C:  MOVLB  6
01E6E:  MOVWF  x4A
01E70:  MOVLB  0
01E72:  CALL   139A
....................    Temporal=read_eeprom(36); 
01E76:  MOVFF  FF2,641
01E7A:  BCF    FF2.7
01E7C:  CLRF   FAA
01E7E:  MOVLW  24
01E80:  MOVWF  FA9
01E82:  BCF    FA6.6
01E84:  BCF    FA6.7
01E86:  BSF    FA6.0
01E88:  MOVF   FA8,W
01E8A:  MOVLB  6
01E8C:  BTFSC  x41.7
01E8E:  BSF    FF2.7
01E90:  CLRF   x47
01E92:  MOVWF  x46
01E94:  MOVLB  0
01E96:  CALL   13C2
01E9A:  MOVFF  03,566
01E9E:  MOVFF  02,565
01EA2:  MOVFF  01,564
01EA6:  MOVFF  00,563
....................    delay_ms(10); 
01EAA:  MOVLW  0A
01EAC:  MOVLB  6
01EAE:  MOVWF  x4A
01EB0:  MOVLB  0
01EB2:  CALL   139A
....................    Temporal=Temporal/100.0; 
01EB6:  MOVFF  566,649
01EBA:  MOVFF  565,648
01EBE:  MOVFF  564,647
01EC2:  MOVFF  563,646
01EC6:  MOVLB  6
01EC8:  CLRF   x4D
01ECA:  CLRF   x4C
01ECC:  MOVLW  48
01ECE:  MOVWF  x4B
01ED0:  MOVLW  85
01ED2:  MOVWF  x4A
01ED4:  MOVLB  0
01ED6:  CALL   13F8
01EDA:  MOVFF  03,566
01EDE:  MOVFF  02,565
01EE2:  MOVFF  01,564
01EE6:  MOVFF  00,563
....................    Relacion=Entero+Temporal; 
01EEA:  MOVLB  6
01EEC:  CLRF   x47
01EEE:  MOVFF  4E8,646
01EF2:  MOVLB  0
01EF4:  CALL   13C2
01EF8:  BCF    FD8.1
01EFA:  MOVFF  03,64D
01EFE:  MOVFF  02,64C
01F02:  MOVFF  01,64B
01F06:  MOVFF  00,64A
01F0A:  MOVFF  566,651
01F0E:  MOVFF  565,650
01F12:  MOVFF  564,64F
01F16:  MOVFF  563,64E
01F1A:  CALL   1556
01F1E:  MOVFF  03,5DA
01F22:  MOVFF  02,5D9
01F26:  MOVFF  01,5D8
01F2A:  MOVFF  00,5D7
....................     
....................    Diferencia=make16(read_eeprom(61),read_eeprom(60)); 
01F2E:  MOVFF  FF2,641
01F32:  BCF    FF2.7
01F34:  CLRF   FAA
01F36:  MOVLW  3D
01F38:  MOVWF  FA9
01F3A:  BCF    FA6.6
01F3C:  BCF    FA6.7
01F3E:  BSF    FA6.0
01F40:  MOVF   FA8,W
01F42:  MOVLB  6
01F44:  BTFSC  x41.7
01F46:  BSF    FF2.7
01F48:  MOVWF  x42
01F4A:  MOVFF  FF2,643
01F4E:  BCF    FF2.7
01F50:  CLRF   FAA
01F52:  MOVLW  3C
01F54:  MOVWF  FA9
01F56:  BCF    FA6.6
01F58:  BCF    FA6.7
01F5A:  BSF    FA6.0
01F5C:  MOVF   FA8,W
01F5E:  BTFSC  x43.7
01F60:  BSF    FF2.7
01F62:  MOVWF  x44
01F64:  MOVFF  642,03
01F68:  MOVF   x44,W
01F6A:  MOVWF  x46
01F6C:  MOVFF  03,647
01F70:  MOVLB  0
01F72:  CALL   13C2
01F76:  MOVFF  03,536
01F7A:  MOVFF  02,535
01F7E:  MOVFF  01,534
01F82:  MOVFF  00,533
....................    delay_ms(10); 
01F86:  MOVLW  0A
01F88:  MOVLB  6
01F8A:  MOVWF  x4A
01F8C:  MOVLB  0
01F8E:  CALL   139A
....................    G=make16(read_eeprom(63),read_eeprom(62)); 
01F92:  MOVFF  FF2,641
01F96:  BCF    FF2.7
01F98:  CLRF   FAA
01F9A:  MOVLW  3F
01F9C:  MOVWF  FA9
01F9E:  BCF    FA6.6
01FA0:  BCF    FA6.7
01FA2:  BSF    FA6.0
01FA4:  MOVF   FA8,W
01FA6:  MOVLB  6
01FA8:  BTFSC  x41.7
01FAA:  BSF    FF2.7
01FAC:  MOVWF  x42
01FAE:  MOVFF  FF2,643
01FB2:  BCF    FF2.7
01FB4:  CLRF   FAA
01FB6:  MOVLW  3E
01FB8:  MOVWF  FA9
01FBA:  BCF    FA6.6
01FBC:  BCF    FA6.7
01FBE:  BSF    FA6.0
01FC0:  MOVF   FA8,W
01FC2:  BTFSC  x43.7
01FC4:  BSF    FF2.7
01FC6:  MOVWF  x44
01FC8:  MOVFF  642,03
01FCC:  MOVF   x44,W
01FCE:  MOVWF  x46
01FD0:  MOVFF  03,647
01FD4:  MOVLB  0
01FD6:  CALL   13C2
01FDA:  MOVFF  03,5D2
01FDE:  MOVFF  02,5D1
01FE2:  MOVFF  01,5D0
01FE6:  MOVFF  00,5CF
....................    delay_ms(10); 
01FEA:  MOVLW  0A
01FEC:  MOVLB  6
01FEE:  MOVWF  x4A
01FF0:  MOVLB  0
01FF2:  CALL   139A
....................    negativo=read_eeprom(50); 
01FF6:  MOVFF  FF2,641
01FFA:  BCF    FF2.7
01FFC:  CLRF   FAA
01FFE:  MOVLW  32
02000:  MOVWF  FA9
02002:  BCF    FA6.6
02004:  BCF    FA6.7
02006:  BSF    FA6.0
02008:  MOVF   FA8,W
0200A:  MOVLB  6
0200C:  BTFSC  x41.7
0200E:  BSF    FF2.7
02010:  MOVLB  4
02012:  MOVWF  xDF
....................    delay_ms(10); 
02014:  MOVLW  0A
02016:  MOVLB  6
02018:  MOVWF  x4A
0201A:  MOVLB  0
0201C:  CALL   139A
....................  
.................... } 
02020:  GOTO   4B14 (RETURN)
....................  
.................... void LimitaValores(void){ 
....................    if(Password[0]>9 || Password[0]<0){ 
*
0209E:  MOVLB  5
020A0:  BTFSC  x23.7
020A2:  BRA    20AA
020A4:  MOVF   x23,W
020A6:  SUBLW  09
020A8:  BNC   20B0
020AA:  BTFSC  x23.7
020AC:  BRA    20B0
020AE:  BRA    20DC
....................       Password[0]=0;write_eeprom(0,0); 
020B0:  CLRF   x23
020B2:  CLRF   FAA
020B4:  CLRF   FA9
020B6:  CLRF   FA8
020B8:  BCF    FA6.6
020BA:  BCF    FA6.7
020BC:  BSF    FA6.2
020BE:  MOVF   FF2,W
020C0:  MOVWF  00
020C2:  BCF    FF2.7
020C4:  MOVLB  F
020C6:  MOVLW  55
020C8:  MOVWF  FA7
020CA:  MOVLW  AA
020CC:  MOVWF  FA7
020CE:  BSF    FA6.1
020D0:  BTFSC  FA6.1
020D2:  BRA    20D0
020D4:  BCF    FA6.2
020D6:  MOVF   00,W
020D8:  IORWF  FF2,F
020DA:  MOVLB  5
....................    } 
....................    if(Password[1]>9 || Password[1]<0){ 
020DC:  BTFSC  x24.7
020DE:  BRA    20E6
020E0:  MOVF   x24,W
020E2:  SUBLW  09
020E4:  BNC   20EC
020E6:  BTFSC  x24.7
020E8:  BRA    20EC
020EA:  BRA    211A
....................       Password[1]=0;write_eeprom(1,0); 
020EC:  CLRF   x24
020EE:  CLRF   FAA
020F0:  MOVLW  01
020F2:  MOVWF  FA9
020F4:  CLRF   FA8
020F6:  BCF    FA6.6
020F8:  BCF    FA6.7
020FA:  BSF    FA6.2
020FC:  MOVF   FF2,W
020FE:  MOVWF  00
02100:  BCF    FF2.7
02102:  MOVLB  F
02104:  MOVLW  55
02106:  MOVWF  FA7
02108:  MOVLW  AA
0210A:  MOVWF  FA7
0210C:  BSF    FA6.1
0210E:  BTFSC  FA6.1
02110:  BRA    210E
02112:  BCF    FA6.2
02114:  MOVF   00,W
02116:  IORWF  FF2,F
02118:  MOVLB  5
....................    } 
....................    if(Password[2]>9 || Password[2]<0){ 
0211A:  BTFSC  x25.7
0211C:  BRA    2124
0211E:  MOVF   x25,W
02120:  SUBLW  09
02122:  BNC   212A
02124:  BTFSC  x25.7
02126:  BRA    212A
02128:  BRA    2158
....................       Password[2]=0;write_eeprom(2,0); 
0212A:  CLRF   x25
0212C:  CLRF   FAA
0212E:  MOVLW  02
02130:  MOVWF  FA9
02132:  CLRF   FA8
02134:  BCF    FA6.6
02136:  BCF    FA6.7
02138:  BSF    FA6.2
0213A:  MOVF   FF2,W
0213C:  MOVWF  00
0213E:  BCF    FF2.7
02140:  MOVLB  F
02142:  MOVLW  55
02144:  MOVWF  FA7
02146:  MOVLW  AA
02148:  MOVWF  FA7
0214A:  BSF    FA6.1
0214C:  BTFSC  FA6.1
0214E:  BRA    214C
02150:  BCF    FA6.2
02152:  MOVF   00,W
02154:  IORWF  FF2,F
02156:  MOVLB  5
....................    } 
....................    if(Password[3]>9 || Password[3]<0){ 
02158:  BTFSC  x26.7
0215A:  BRA    2162
0215C:  MOVF   x26,W
0215E:  SUBLW  09
02160:  BNC   2168
02162:  BTFSC  x26.7
02164:  BRA    2168
02166:  BRA    2196
....................       Password[3]=0;write_eeprom(3,0); 
02168:  CLRF   x26
0216A:  CLRF   FAA
0216C:  MOVLW  03
0216E:  MOVWF  FA9
02170:  CLRF   FA8
02172:  BCF    FA6.6
02174:  BCF    FA6.7
02176:  BSF    FA6.2
02178:  MOVF   FF2,W
0217A:  MOVWF  00
0217C:  BCF    FF2.7
0217E:  MOVLB  F
02180:  MOVLW  55
02182:  MOVWF  FA7
02184:  MOVLW  AA
02186:  MOVWF  FA7
02188:  BSF    FA6.1
0218A:  BTFSC  FA6.1
0218C:  BRA    218A
0218E:  BCF    FA6.2
02190:  MOVF   00,W
02192:  IORWF  FF2,F
02194:  MOVLB  5
....................    } 
....................    if(Tpurgap[0]>9 || Tpurgap[0]<0){ 
02196:  BTFSC  x03.7
02198:  BRA    21A0
0219A:  MOVF   x03,W
0219C:  SUBLW  09
0219E:  BNC   21A6
021A0:  BTFSC  x03.7
021A2:  BRA    21A6
021A4:  BRA    21D4
....................       Tpurgap[0]=0;write_eeprom(4,0); 
021A6:  CLRF   x03
021A8:  CLRF   FAA
021AA:  MOVLW  04
021AC:  MOVWF  FA9
021AE:  CLRF   FA8
021B0:  BCF    FA6.6
021B2:  BCF    FA6.7
021B4:  BSF    FA6.2
021B6:  MOVF   FF2,W
021B8:  MOVWF  00
021BA:  BCF    FF2.7
021BC:  MOVLB  F
021BE:  MOVLW  55
021C0:  MOVWF  FA7
021C2:  MOVLW  AA
021C4:  MOVWF  FA7
021C6:  BSF    FA6.1
021C8:  BTFSC  FA6.1
021CA:  BRA    21C8
021CC:  BCF    FA6.2
021CE:  MOVF   00,W
021D0:  IORWF  FF2,F
021D2:  MOVLB  5
....................    } 
....................    if(Tpurgap[1]>9 || Tpurgap[1]<0){ 
021D4:  BTFSC  x04.7
021D6:  BRA    21DE
021D8:  MOVF   x04,W
021DA:  SUBLW  09
021DC:  BNC   21E4
021DE:  BTFSC  x04.7
021E0:  BRA    21E4
021E2:  BRA    2212
....................       Tpurgap[1]=0;write_eeprom(5,0); 
021E4:  CLRF   x04
021E6:  CLRF   FAA
021E8:  MOVLW  05
021EA:  MOVWF  FA9
021EC:  CLRF   FA8
021EE:  BCF    FA6.6
021F0:  BCF    FA6.7
021F2:  BSF    FA6.2
021F4:  MOVF   FF2,W
021F6:  MOVWF  00
021F8:  BCF    FF2.7
021FA:  MOVLB  F
021FC:  MOVLW  55
021FE:  MOVWF  FA7
02200:  MOVLW  AA
02202:  MOVWF  FA7
02204:  BSF    FA6.1
02206:  BTFSC  FA6.1
02208:  BRA    2206
0220A:  BCF    FA6.2
0220C:  MOVF   00,W
0220E:  IORWF  FF2,F
02210:  MOVLB  5
....................    } 
....................    if(Tpurgap[2]>9 || Tpurgap[2]<0){ 
02212:  BTFSC  x05.7
02214:  BRA    221C
02216:  MOVF   x05,W
02218:  SUBLW  09
0221A:  BNC   2222
0221C:  BTFSC  x05.7
0221E:  BRA    2222
02220:  BRA    2254
....................       Tpurgap[2]=2;write_eeprom(6,2); 
02222:  MOVLW  02
02224:  MOVWF  x05
02226:  CLRF   FAA
02228:  MOVLW  06
0222A:  MOVWF  FA9
0222C:  MOVLW  02
0222E:  MOVWF  FA8
02230:  BCF    FA6.6
02232:  BCF    FA6.7
02234:  BSF    FA6.2
02236:  MOVF   FF2,W
02238:  MOVWF  00
0223A:  BCF    FF2.7
0223C:  MOVLB  F
0223E:  MOVLW  55
02240:  MOVWF  FA7
02242:  MOVLW  AA
02244:  MOVWF  FA7
02246:  BSF    FA6.1
02248:  BTFSC  FA6.1
0224A:  BRA    2248
0224C:  BCF    FA6.2
0224E:  MOVF   00,W
02250:  IORWF  FF2,F
02252:  MOVLB  5
....................    } 
....................    if(Tpurgap[3]>9 || Tpurgap[3]<0){ 
02254:  BTFSC  x06.7
02256:  BRA    225E
02258:  MOVF   x06,W
0225A:  SUBLW  09
0225C:  BNC   2264
0225E:  BTFSC  x06.7
02260:  BRA    2264
02262:  BRA    2292
....................       Tpurgap[3]=0;write_eeprom(7,0); 
02264:  CLRF   x06
02266:  CLRF   FAA
02268:  MOVLW  07
0226A:  MOVWF  FA9
0226C:  CLRF   FA8
0226E:  BCF    FA6.6
02270:  BCF    FA6.7
02272:  BSF    FA6.2
02274:  MOVF   FF2,W
02276:  MOVWF  00
02278:  BCF    FF2.7
0227A:  MOVLB  F
0227C:  MOVLW  55
0227E:  MOVWF  FA7
02280:  MOVLW  AA
02282:  MOVWF  FA7
02284:  BSF    FA6.1
02286:  BTFSC  FA6.1
02288:  BRA    2286
0228A:  BCF    FA6.2
0228C:  MOVF   00,W
0228E:  IORWF  FF2,F
02290:  MOVLB  5
....................    } 
....................    if(Tppurgap[0]>9 || Tppurgap[0]<0){ 
02292:  BTFSC  x0B.7
02294:  BRA    229C
02296:  MOVF   x0B,W
02298:  SUBLW  09
0229A:  BNC   22A2
0229C:  BTFSC  x0B.7
0229E:  BRA    22A2
022A0:  BRA    22D0
....................       Tppurgap[0]=0;write_eeprom(8,0); 
022A2:  CLRF   x0B
022A4:  CLRF   FAA
022A6:  MOVLW  08
022A8:  MOVWF  FA9
022AA:  CLRF   FA8
022AC:  BCF    FA6.6
022AE:  BCF    FA6.7
022B0:  BSF    FA6.2
022B2:  MOVF   FF2,W
022B4:  MOVWF  00
022B6:  BCF    FF2.7
022B8:  MOVLB  F
022BA:  MOVLW  55
022BC:  MOVWF  FA7
022BE:  MOVLW  AA
022C0:  MOVWF  FA7
022C2:  BSF    FA6.1
022C4:  BTFSC  FA6.1
022C6:  BRA    22C4
022C8:  BCF    FA6.2
022CA:  MOVF   00,W
022CC:  IORWF  FF2,F
022CE:  MOVLB  5
....................    } 
....................    if(Tppurgap[1]>9 || Tppurgap[1]<0){ 
022D0:  BTFSC  x0C.7
022D2:  BRA    22DA
022D4:  MOVF   x0C,W
022D6:  SUBLW  09
022D8:  BNC   22E0
022DA:  BTFSC  x0C.7
022DC:  BRA    22E0
022DE:  BRA    230E
....................       Tppurgap[1]=0;write_eeprom(9,0); 
022E0:  CLRF   x0C
022E2:  CLRF   FAA
022E4:  MOVLW  09
022E6:  MOVWF  FA9
022E8:  CLRF   FA8
022EA:  BCF    FA6.6
022EC:  BCF    FA6.7
022EE:  BSF    FA6.2
022F0:  MOVF   FF2,W
022F2:  MOVWF  00
022F4:  BCF    FF2.7
022F6:  MOVLB  F
022F8:  MOVLW  55
022FA:  MOVWF  FA7
022FC:  MOVLW  AA
022FE:  MOVWF  FA7
02300:  BSF    FA6.1
02302:  BTFSC  FA6.1
02304:  BRA    2302
02306:  BCF    FA6.2
02308:  MOVF   00,W
0230A:  IORWF  FF2,F
0230C:  MOVLB  5
....................    } 
....................    if(Tppurgap[2]>9 || Tppurgap[2]<0){ 
0230E:  BTFSC  x0D.7
02310:  BRA    2318
02312:  MOVF   x0D,W
02314:  SUBLW  09
02316:  BNC   231E
02318:  BTFSC  x0D.7
0231A:  BRA    231E
0231C:  BRA    2350
....................       Tppurgap[2]=2;write_eeprom(10,2); 
0231E:  MOVLW  02
02320:  MOVWF  x0D
02322:  CLRF   FAA
02324:  MOVLW  0A
02326:  MOVWF  FA9
02328:  MOVLW  02
0232A:  MOVWF  FA8
0232C:  BCF    FA6.6
0232E:  BCF    FA6.7
02330:  BSF    FA6.2
02332:  MOVF   FF2,W
02334:  MOVWF  00
02336:  BCF    FF2.7
02338:  MOVLB  F
0233A:  MOVLW  55
0233C:  MOVWF  FA7
0233E:  MOVLW  AA
02340:  MOVWF  FA7
02342:  BSF    FA6.1
02344:  BTFSC  FA6.1
02346:  BRA    2344
02348:  BCF    FA6.2
0234A:  MOVF   00,W
0234C:  IORWF  FF2,F
0234E:  MOVLB  5
....................    } 
....................    if(Tppurgap[3]>9 || Tppurgap[3]<0){ 
02350:  BTFSC  x0E.7
02352:  BRA    235A
02354:  MOVF   x0E,W
02356:  SUBLW  09
02358:  BNC   2360
0235A:  BTFSC  x0E.7
0235C:  BRA    2360
0235E:  BRA    238E
....................       Tppurgap[3]=0;write_eeprom(11,0); 
02360:  CLRF   x0E
02362:  CLRF   FAA
02364:  MOVLW  0B
02366:  MOVWF  FA9
02368:  CLRF   FA8
0236A:  BCF    FA6.6
0236C:  BCF    FA6.7
0236E:  BSF    FA6.2
02370:  MOVF   FF2,W
02372:  MOVWF  00
02374:  BCF    FF2.7
02376:  MOVLB  F
02378:  MOVLW  55
0237A:  MOVWF  FA7
0237C:  MOVLW  AA
0237E:  MOVWF  FA7
02380:  BSF    FA6.1
02382:  BTFSC  FA6.1
02384:  BRA    2382
02386:  BCF    FA6.2
02388:  MOVF   00,W
0238A:  IORWF  FF2,F
0238C:  MOVLB  5
....................    } 
....................    if(Tuv[0]>9 || Tuv[0]<0){ 
0238E:  BTFSC  x0F.7
02390:  BRA    2398
02392:  MOVF   x0F,W
02394:  SUBLW  09
02396:  BNC   239E
02398:  BTFSC  x0F.7
0239A:  BRA    239E
0239C:  BRA    23CC
....................       Tuv[0]=0;write_eeprom(12,0); 
0239E:  CLRF   x0F
023A0:  CLRF   FAA
023A2:  MOVLW  0C
023A4:  MOVWF  FA9
023A6:  CLRF   FA8
023A8:  BCF    FA6.6
023AA:  BCF    FA6.7
023AC:  BSF    FA6.2
023AE:  MOVF   FF2,W
023B0:  MOVWF  00
023B2:  BCF    FF2.7
023B4:  MOVLB  F
023B6:  MOVLW  55
023B8:  MOVWF  FA7
023BA:  MOVLW  AA
023BC:  MOVWF  FA7
023BE:  BSF    FA6.1
023C0:  BTFSC  FA6.1
023C2:  BRA    23C0
023C4:  BCF    FA6.2
023C6:  MOVF   00,W
023C8:  IORWF  FF2,F
023CA:  MOVLB  5
....................    } 
....................    if(Tuv[1]>9 || Tuv[1]<0){ 
023CC:  BTFSC  x10.7
023CE:  BRA    23D6
023D0:  MOVF   x10,W
023D2:  SUBLW  09
023D4:  BNC   23DC
023D6:  BTFSC  x10.7
023D8:  BRA    23DC
023DA:  BRA    240A
....................       Tuv[1]=0;write_eeprom(13,0); 
023DC:  CLRF   x10
023DE:  CLRF   FAA
023E0:  MOVLW  0D
023E2:  MOVWF  FA9
023E4:  CLRF   FA8
023E6:  BCF    FA6.6
023E8:  BCF    FA6.7
023EA:  BSF    FA6.2
023EC:  MOVF   FF2,W
023EE:  MOVWF  00
023F0:  BCF    FF2.7
023F2:  MOVLB  F
023F4:  MOVLW  55
023F6:  MOVWF  FA7
023F8:  MOVLW  AA
023FA:  MOVWF  FA7
023FC:  BSF    FA6.1
023FE:  BTFSC  FA6.1
02400:  BRA    23FE
02402:  BCF    FA6.2
02404:  MOVF   00,W
02406:  IORWF  FF2,F
02408:  MOVLB  5
....................    } 
....................    if(Tuv[2]>9 || Tuv[2]<0){ 
0240A:  BTFSC  x11.7
0240C:  BRA    2414
0240E:  MOVF   x11,W
02410:  SUBLW  09
02412:  BNC   241A
02414:  BTFSC  x11.7
02416:  BRA    241A
02418:  BRA    2448
....................       Tuv[2]=0;write_eeprom(14,0); 
0241A:  CLRF   x11
0241C:  CLRF   FAA
0241E:  MOVLW  0E
02420:  MOVWF  FA9
02422:  CLRF   FA8
02424:  BCF    FA6.6
02426:  BCF    FA6.7
02428:  BSF    FA6.2
0242A:  MOVF   FF2,W
0242C:  MOVWF  00
0242E:  BCF    FF2.7
02430:  MOVLB  F
02432:  MOVLW  55
02434:  MOVWF  FA7
02436:  MOVLW  AA
02438:  MOVWF  FA7
0243A:  BSF    FA6.1
0243C:  BTFSC  FA6.1
0243E:  BRA    243C
02440:  BCF    FA6.2
02442:  MOVF   00,W
02444:  IORWF  FF2,F
02446:  MOVLB  5
....................    } 
....................    if(Tuv[3]>9 || Tuv[3]<0){ 
02448:  BTFSC  x12.7
0244A:  BRA    2452
0244C:  MOVF   x12,W
0244E:  SUBLW  09
02450:  BNC   2458
02452:  BTFSC  x12.7
02454:  BRA    2458
02456:  BRA    2486
....................       Tuv[3]=0;write_eeprom(15,0); 
02458:  CLRF   x12
0245A:  CLRF   FAA
0245C:  MOVLW  0F
0245E:  MOVWF  FA9
02460:  CLRF   FA8
02462:  BCF    FA6.6
02464:  BCF    FA6.7
02466:  BSF    FA6.2
02468:  MOVF   FF2,W
0246A:  MOVWF  00
0246C:  BCF    FF2.7
0246E:  MOVLB  F
02470:  MOVLW  55
02472:  MOVWF  FA7
02474:  MOVLW  AA
02476:  MOVWF  FA7
02478:  BSF    FA6.1
0247A:  BTFSC  FA6.1
0247C:  BRA    247A
0247E:  BCF    FA6.2
02480:  MOVF   00,W
02482:  IORWF  FF2,F
02484:  MOVLB  5
....................    } 
....................    if(Ttrabajo[0]>9 || Ttrabajo[0]<0){ 
02486:  BTFSC  x1B.7
02488:  BRA    2490
0248A:  MOVF   x1B,W
0248C:  SUBLW  09
0248E:  BNC   2496
02490:  BTFSC  x1B.7
02492:  BRA    2496
02494:  BRA    24C4
....................       Ttrabajo[0]=0;write_eeprom(16,0); 
02496:  CLRF   x1B
02498:  CLRF   FAA
0249A:  MOVLW  10
0249C:  MOVWF  FA9
0249E:  CLRF   FA8
024A0:  BCF    FA6.6
024A2:  BCF    FA6.7
024A4:  BSF    FA6.2
024A6:  MOVF   FF2,W
024A8:  MOVWF  00
024AA:  BCF    FF2.7
024AC:  MOVLB  F
024AE:  MOVLW  55
024B0:  MOVWF  FA7
024B2:  MOVLW  AA
024B4:  MOVWF  FA7
024B6:  BSF    FA6.1
024B8:  BTFSC  FA6.1
024BA:  BRA    24B8
024BC:  BCF    FA6.2
024BE:  MOVF   00,W
024C0:  IORWF  FF2,F
024C2:  MOVLB  5
....................    } 
....................    if(Ttrabajo[1]>9 || Ttrabajo[1]<0){ 
024C4:  BTFSC  x1C.7
024C6:  BRA    24CE
024C8:  MOVF   x1C,W
024CA:  SUBLW  09
024CC:  BNC   24D4
024CE:  BTFSC  x1C.7
024D0:  BRA    24D4
024D2:  BRA    2502
....................       Ttrabajo[1]=0;write_eeprom(17,0); 
024D4:  CLRF   x1C
024D6:  CLRF   FAA
024D8:  MOVLW  11
024DA:  MOVWF  FA9
024DC:  CLRF   FA8
024DE:  BCF    FA6.6
024E0:  BCF    FA6.7
024E2:  BSF    FA6.2
024E4:  MOVF   FF2,W
024E6:  MOVWF  00
024E8:  BCF    FF2.7
024EA:  MOVLB  F
024EC:  MOVLW  55
024EE:  MOVWF  FA7
024F0:  MOVLW  AA
024F2:  MOVWF  FA7
024F4:  BSF    FA6.1
024F6:  BTFSC  FA6.1
024F8:  BRA    24F6
024FA:  BCF    FA6.2
024FC:  MOVF   00,W
024FE:  IORWF  FF2,F
02500:  MOVLB  5
....................    } 
....................    if(Ttrabajo[2]>9 || Ttrabajo[2]<0){ 
02502:  BTFSC  x1D.7
02504:  BRA    250C
02506:  MOVF   x1D,W
02508:  SUBLW  09
0250A:  BNC   2512
0250C:  BTFSC  x1D.7
0250E:  BRA    2512
02510:  BRA    2540
....................       Ttrabajo[2]=0;write_eeprom(18,0); 
02512:  CLRF   x1D
02514:  CLRF   FAA
02516:  MOVLW  12
02518:  MOVWF  FA9
0251A:  CLRF   FA8
0251C:  BCF    FA6.6
0251E:  BCF    FA6.7
02520:  BSF    FA6.2
02522:  MOVF   FF2,W
02524:  MOVWF  00
02526:  BCF    FF2.7
02528:  MOVLB  F
0252A:  MOVLW  55
0252C:  MOVWF  FA7
0252E:  MOVLW  AA
02530:  MOVWF  FA7
02532:  BSF    FA6.1
02534:  BTFSC  FA6.1
02536:  BRA    2534
02538:  BCF    FA6.2
0253A:  MOVF   00,W
0253C:  IORWF  FF2,F
0253E:  MOVLB  5
....................    } 
....................    if(Ttrabajo[3]>9 || Ttrabajo[3]<0){ 
02540:  BTFSC  x1E.7
02542:  BRA    254A
02544:  MOVF   x1E,W
02546:  SUBLW  09
02548:  BNC   2550
0254A:  BTFSC  x1E.7
0254C:  BRA    2550
0254E:  BRA    257E
....................       Ttrabajo[3]=0;write_eeprom(19,0); 
02550:  CLRF   x1E
02552:  CLRF   FAA
02554:  MOVLW  13
02556:  MOVWF  FA9
02558:  CLRF   FA8
0255A:  BCF    FA6.6
0255C:  BCF    FA6.7
0255E:  BSF    FA6.2
02560:  MOVF   FF2,W
02562:  MOVWF  00
02564:  BCF    FF2.7
02566:  MOVLB  F
02568:  MOVLW  55
0256A:  MOVWF  FA7
0256C:  MOVLW  AA
0256E:  MOVWF  FA7
02570:  BSF    FA6.1
02572:  BTFSC  FA6.1
02574:  BRA    2572
02576:  BCF    FA6.2
02578:  MOVF   00,W
0257A:  IORWF  FF2,F
0257C:  MOVLB  5
....................    } 
....................    if(Tempouvp[0]>9 || Tempouvp[0]<0){ 
0257E:  BTFSC  x17.7
02580:  BRA    2588
02582:  MOVF   x17,W
02584:  SUBLW  09
02586:  BNC   258E
02588:  BTFSC  x17.7
0258A:  BRA    258E
0258C:  BRA    25BC
....................       Tempouvp[0]=0;write_eeprom(21,0); 
0258E:  CLRF   x17
02590:  CLRF   FAA
02592:  MOVLW  15
02594:  MOVWF  FA9
02596:  CLRF   FA8
02598:  BCF    FA6.6
0259A:  BCF    FA6.7
0259C:  BSF    FA6.2
0259E:  MOVF   FF2,W
025A0:  MOVWF  00
025A2:  BCF    FF2.7
025A4:  MOVLB  F
025A6:  MOVLW  55
025A8:  MOVWF  FA7
025AA:  MOVLW  AA
025AC:  MOVWF  FA7
025AE:  BSF    FA6.1
025B0:  BTFSC  FA6.1
025B2:  BRA    25B0
025B4:  BCF    FA6.2
025B6:  MOVF   00,W
025B8:  IORWF  FF2,F
025BA:  MOVLB  5
....................    } 
....................    if(Tempouvp[1]>9 || Tempouvp[1]<0){ 
025BC:  BTFSC  x18.7
025BE:  BRA    25C6
025C0:  MOVF   x18,W
025C2:  SUBLW  09
025C4:  BNC   25CC
025C6:  BTFSC  x18.7
025C8:  BRA    25CC
025CA:  BRA    25FA
....................       Tempouvp[1]=0;write_eeprom(22,0); 
025CC:  CLRF   x18
025CE:  CLRF   FAA
025D0:  MOVLW  16
025D2:  MOVWF  FA9
025D4:  CLRF   FA8
025D6:  BCF    FA6.6
025D8:  BCF    FA6.7
025DA:  BSF    FA6.2
025DC:  MOVF   FF2,W
025DE:  MOVWF  00
025E0:  BCF    FF2.7
025E2:  MOVLB  F
025E4:  MOVLW  55
025E6:  MOVWF  FA7
025E8:  MOVLW  AA
025EA:  MOVWF  FA7
025EC:  BSF    FA6.1
025EE:  BTFSC  FA6.1
025F0:  BRA    25EE
025F2:  BCF    FA6.2
025F4:  MOVF   00,W
025F6:  IORWF  FF2,F
025F8:  MOVLB  5
....................    } 
....................    if(Tempouvp[2]>9 || Tempouvp[2]<0){ 
025FA:  BTFSC  x19.7
025FC:  BRA    2604
025FE:  MOVF   x19,W
02600:  SUBLW  09
02602:  BNC   260A
02604:  BTFSC  x19.7
02606:  BRA    260A
02608:  BRA    2638
....................       Tempouvp[2]=0;write_eeprom(23,0); 
0260A:  CLRF   x19
0260C:  CLRF   FAA
0260E:  MOVLW  17
02610:  MOVWF  FA9
02612:  CLRF   FA8
02614:  BCF    FA6.6
02616:  BCF    FA6.7
02618:  BSF    FA6.2
0261A:  MOVF   FF2,W
0261C:  MOVWF  00
0261E:  BCF    FF2.7
02620:  MOVLB  F
02622:  MOVLW  55
02624:  MOVWF  FA7
02626:  MOVLW  AA
02628:  MOVWF  FA7
0262A:  BSF    FA6.1
0262C:  BTFSC  FA6.1
0262E:  BRA    262C
02630:  BCF    FA6.2
02632:  MOVF   00,W
02634:  IORWF  FF2,F
02636:  MOVLB  5
....................    } 
....................    if(Tempouvp[3]>9 || Tempouvp[3]<0){ 
02638:  BTFSC  x1A.7
0263A:  BRA    2642
0263C:  MOVF   x1A,W
0263E:  SUBLW  09
02640:  BNC   2648
02642:  BTFSC  x1A.7
02644:  BRA    2648
02646:  BRA    2678
....................       Tempouvp[3]=1;write_eeprom(24,1); 
02648:  MOVLW  01
0264A:  MOVWF  x1A
0264C:  CLRF   FAA
0264E:  MOVLW  18
02650:  MOVWF  FA9
02652:  MOVLW  01
02654:  MOVWF  FA8
02656:  BCF    FA6.6
02658:  BCF    FA6.7
0265A:  BSF    FA6.2
0265C:  MOVF   FF2,W
0265E:  MOVWF  00
02660:  BCF    FF2.7
02662:  MOVLB  F
02664:  MOVLW  55
02666:  MOVWF  FA7
02668:  MOVLW  AA
0266A:  MOVWF  FA7
0266C:  BSF    FA6.1
0266E:  BTFSC  FA6.1
02670:  BRA    266E
02672:  BCF    FA6.2
02674:  MOVF   00,W
02676:  IORWF  FF2,F
....................    } 
....................    if(Ajuste1>25.0){ 
02678:  MOVLB  6
0267A:  CLRF   x49
0267C:  CLRF   x48
0267E:  MOVLW  48
02680:  MOVWF  x47
02682:  MOVLW  83
02684:  MOVWF  x46
02686:  MOVFF  55A,64D
0268A:  MOVFF  559,64C
0268E:  MOVFF  558,64B
02692:  MOVFF  557,64A
02696:  MOVLB  0
02698:  RCALL  2024
0269A:  BNC   2700
....................       Ajuste1=1.5;write_eeprom(25,1);write_eeprom(26,5); 
0269C:  MOVLB  5
0269E:  CLRF   x5A
026A0:  CLRF   x59
026A2:  MOVLW  40
026A4:  MOVWF  x58
026A6:  MOVLW  7F
026A8:  MOVWF  x57
026AA:  CLRF   FAA
026AC:  MOVLW  19
026AE:  MOVWF  FA9
026B0:  MOVLW  01
026B2:  MOVWF  FA8
026B4:  BCF    FA6.6
026B6:  BCF    FA6.7
026B8:  BSF    FA6.2
026BA:  MOVF   FF2,W
026BC:  MOVWF  00
026BE:  BCF    FF2.7
026C0:  MOVLB  F
026C2:  MOVLW  55
026C4:  MOVWF  FA7
026C6:  MOVLW  AA
026C8:  MOVWF  FA7
026CA:  BSF    FA6.1
026CC:  BTFSC  FA6.1
026CE:  BRA    26CC
026D0:  BCF    FA6.2
026D2:  MOVF   00,W
026D4:  IORWF  FF2,F
026D6:  CLRF   FAA
026D8:  MOVLW  1A
026DA:  MOVWF  FA9
026DC:  MOVLW  05
026DE:  MOVWF  FA8
026E0:  BCF    FA6.6
026E2:  BCF    FA6.7
026E4:  BSF    FA6.2
026E6:  MOVF   FF2,W
026E8:  MOVWF  00
026EA:  BCF    FF2.7
026EC:  MOVLW  55
026EE:  MOVWF  FA7
026F0:  MOVLW  AA
026F2:  MOVWF  FA7
026F4:  BSF    FA6.1
026F6:  BTFSC  FA6.1
026F8:  BRA    26F6
026FA:  BCF    FA6.2
026FC:  MOVF   00,W
026FE:  IORWF  FF2,F
....................    } 
....................    if(Ajuste2>25.0){ 
02700:  MOVLB  6
02702:  CLRF   x49
02704:  CLRF   x48
02706:  MOVLW  48
02708:  MOVWF  x47
0270A:  MOVLW  83
0270C:  MOVWF  x46
0270E:  MOVFF  55E,64D
02712:  MOVFF  55D,64C
02716:  MOVFF  55C,64B
0271A:  MOVFF  55B,64A
0271E:  MOVLB  0
02720:  RCALL  2024
02722:  BNC   2784
....................       Ajuste2=1.0;write_eeprom(27,1);write_eeprom(28,0); 
02724:  MOVLB  5
02726:  CLRF   x5E
02728:  CLRF   x5D
0272A:  CLRF   x5C
0272C:  MOVLW  7F
0272E:  MOVWF  x5B
02730:  CLRF   FAA
02732:  MOVLW  1B
02734:  MOVWF  FA9
02736:  MOVLW  01
02738:  MOVWF  FA8
0273A:  BCF    FA6.6
0273C:  BCF    FA6.7
0273E:  BSF    FA6.2
02740:  MOVF   FF2,W
02742:  MOVWF  00
02744:  BCF    FF2.7
02746:  MOVLB  F
02748:  MOVLW  55
0274A:  MOVWF  FA7
0274C:  MOVLW  AA
0274E:  MOVWF  FA7
02750:  BSF    FA6.1
02752:  BTFSC  FA6.1
02754:  BRA    2752
02756:  BCF    FA6.2
02758:  MOVF   00,W
0275A:  IORWF  FF2,F
0275C:  CLRF   FAA
0275E:  MOVLW  1C
02760:  MOVWF  FA9
02762:  CLRF   FA8
02764:  BCF    FA6.6
02766:  BCF    FA6.7
02768:  BSF    FA6.2
0276A:  MOVF   FF2,W
0276C:  MOVWF  00
0276E:  BCF    FF2.7
02770:  MOVLW  55
02772:  MOVWF  FA7
02774:  MOVLW  AA
02776:  MOVWF  FA7
02778:  BSF    FA6.1
0277A:  BTFSC  FA6.1
0277C:  BRA    277A
0277E:  BCF    FA6.2
02780:  MOVF   00,W
02782:  IORWF  FF2,F
....................    } 
....................    if(zero_actual>300){ 
02784:  MOVLB  6
02786:  CLRF   x49
02788:  CLRF   x48
0278A:  MOVLW  16
0278C:  MOVWF  x47
0278E:  MOVLW  87
02790:  MOVWF  x46
02792:  MOVFF  5C6,64D
02796:  MOVFF  5C5,64C
0279A:  MOVFF  5C4,64B
0279E:  MOVFF  5C3,64A
027A2:  MOVLB  0
027A4:  RCALL  2024
027A6:  BNC   280A
....................       zero_actual=203;write_eeprom(29,203);write_eeprom(30,0); 
027A8:  MOVLB  5
027AA:  CLRF   xC6
027AC:  CLRF   xC5
027AE:  MOVLW  4B
027B0:  MOVWF  xC4
027B2:  MOVLW  86
027B4:  MOVWF  xC3
027B6:  CLRF   FAA
027B8:  MOVLW  1D
027BA:  MOVWF  FA9
027BC:  MOVLW  CB
027BE:  MOVWF  FA8
027C0:  BCF    FA6.6
027C2:  BCF    FA6.7
027C4:  BSF    FA6.2
027C6:  MOVF   FF2,W
027C8:  MOVWF  00
027CA:  BCF    FF2.7
027CC:  MOVLB  F
027CE:  MOVLW  55
027D0:  MOVWF  FA7
027D2:  MOVLW  AA
027D4:  MOVWF  FA7
027D6:  BSF    FA6.1
027D8:  BTFSC  FA6.1
027DA:  BRA    27D8
027DC:  BCF    FA6.2
027DE:  MOVF   00,W
027E0:  IORWF  FF2,F
027E2:  CLRF   FAA
027E4:  MOVLW  1E
027E6:  MOVWF  FA9
027E8:  CLRF   FA8
027EA:  BCF    FA6.6
027EC:  BCF    FA6.7
027EE:  BSF    FA6.2
027F0:  MOVF   FF2,W
027F2:  MOVWF  00
027F4:  BCF    FF2.7
027F6:  MOVLW  55
027F8:  MOVWF  FA7
027FA:  MOVLW  AA
027FC:  MOVWF  FA7
027FE:  BSF    FA6.1
02800:  BTFSC  FA6.1
02802:  BRA    2800
02804:  BCF    FA6.2
02806:  MOVF   00,W
02808:  IORWF  FF2,F
....................    } 
....................    if(minutos_uv>60){ 
0280A:  MOVLB  4
0280C:  MOVF   xE3,W
0280E:  SUBLW  3C
02810:  BC    2840
....................       minutos_uv=0;write_eeprom(31,0); 
02812:  CLRF   xE3
02814:  CLRF   FAA
02816:  MOVLW  1F
02818:  MOVWF  FA9
0281A:  CLRF   FA8
0281C:  BCF    FA6.6
0281E:  BCF    FA6.7
02820:  BSF    FA6.2
02822:  MOVF   FF2,W
02824:  MOVWF  00
02826:  BCF    FF2.7
02828:  MOVLB  F
0282A:  MOVLW  55
0282C:  MOVWF  FA7
0282E:  MOVLW  AA
02830:  MOVWF  FA7
02832:  BSF    FA6.1
02834:  BTFSC  FA6.1
02836:  BRA    2834
02838:  BCF    FA6.2
0283A:  MOVF   00,W
0283C:  IORWF  FF2,F
0283E:  MOVLB  4
....................    } 
....................    if(VelMotor>6){ 
02840:  MOVF   xF0,W
02842:  SUBLW  06
02844:  BC    2878
....................       VelMotor=2;write_eeprom(32,2); 
02846:  MOVLW  02
02848:  MOVWF  xF0
0284A:  CLRF   FAA
0284C:  MOVLW  20
0284E:  MOVWF  FA9
02850:  MOVLW  02
02852:  MOVWF  FA8
02854:  BCF    FA6.6
02856:  BCF    FA6.7
02858:  BSF    FA6.2
0285A:  MOVF   FF2,W
0285C:  MOVWF  00
0285E:  BCF    FF2.7
02860:  MOVLB  F
02862:  MOVLW  55
02864:  MOVWF  FA7
02866:  MOVLW  AA
02868:  MOVWF  FA7
0286A:  BSF    FA6.1
0286C:  BTFSC  FA6.1
0286E:  BRA    286C
02870:  BCF    FA6.2
02872:  MOVF   00,W
02874:  IORWF  FF2,F
02876:  MOVLB  4
....................    }    
....................    if(minutos_trabajo>3600){ 
02878:  MOVF   xFC,W
0287A:  SUBLW  0D
0287C:  BC    28DE
0287E:  XORLW  FF
02880:  BNZ   2888
02882:  MOVF   xFB,W
02884:  SUBLW  10
02886:  BC    28DE
....................       minutos_trabajo=0;write_eeprom(33,0);write_eeprom(34,0); 
02888:  CLRF   xFC
0288A:  CLRF   xFB
0288C:  CLRF   FAA
0288E:  MOVLW  21
02890:  MOVWF  FA9
02892:  CLRF   FA8
02894:  BCF    FA6.6
02896:  BCF    FA6.7
02898:  BSF    FA6.2
0289A:  MOVF   FF2,W
0289C:  MOVWF  00
0289E:  BCF    FF2.7
028A0:  MOVLB  F
028A2:  MOVLW  55
028A4:  MOVWF  FA7
028A6:  MOVLW  AA
028A8:  MOVWF  FA7
028AA:  BSF    FA6.1
028AC:  BTFSC  FA6.1
028AE:  BRA    28AC
028B0:  BCF    FA6.2
028B2:  MOVF   00,W
028B4:  IORWF  FF2,F
028B6:  CLRF   FAA
028B8:  MOVLW  22
028BA:  MOVWF  FA9
028BC:  CLRF   FA8
028BE:  BCF    FA6.6
028C0:  BCF    FA6.7
028C2:  BSF    FA6.2
028C4:  MOVF   FF2,W
028C6:  MOVWF  00
028C8:  BCF    FF2.7
028CA:  MOVLW  55
028CC:  MOVWF  FA7
028CE:  MOVLW  AA
028D0:  MOVWF  FA7
028D2:  BSF    FA6.1
028D4:  BTFSC  FA6.1
028D6:  BRA    28D4
028D8:  BCF    FA6.2
028DA:  MOVF   00,W
028DC:  IORWF  FF2,F
....................    } 
....................    if(Relacion>2.0){ 
028DE:  MOVLB  6
028E0:  CLRF   x49
028E2:  CLRF   x48
028E4:  CLRF   x47
028E6:  MOVLW  80
028E8:  MOVWF  x46
028EA:  MOVFF  5DA,64D
028EE:  MOVFF  5D9,64C
028F2:  MOVFF  5D8,64B
028F6:  MOVFF  5D7,64A
028FA:  MOVLB  0
028FC:  CALL   2024
02900:  BNC   2968
....................       Relacion=0.57;write_eeprom(35,0);write_eeprom(36,57); 
02902:  MOVLW  85
02904:  MOVLB  5
02906:  MOVWF  xDA
02908:  MOVLW  EB
0290A:  MOVWF  xD9
0290C:  MOVLW  11
0290E:  MOVWF  xD8
02910:  MOVLW  7E
02912:  MOVWF  xD7
02914:  CLRF   FAA
02916:  MOVLW  23
02918:  MOVWF  FA9
0291A:  CLRF   FA8
0291C:  BCF    FA6.6
0291E:  BCF    FA6.7
02920:  BSF    FA6.2
02922:  MOVF   FF2,W
02924:  MOVWF  00
02926:  BCF    FF2.7
02928:  MOVLB  F
0292A:  MOVLW  55
0292C:  MOVWF  FA7
0292E:  MOVLW  AA
02930:  MOVWF  FA7
02932:  BSF    FA6.1
02934:  BTFSC  FA6.1
02936:  BRA    2934
02938:  BCF    FA6.2
0293A:  MOVF   00,W
0293C:  IORWF  FF2,F
0293E:  CLRF   FAA
02940:  MOVLW  24
02942:  MOVWF  FA9
02944:  MOVLW  39
02946:  MOVWF  FA8
02948:  BCF    FA6.6
0294A:  BCF    FA6.7
0294C:  BSF    FA6.2
0294E:  MOVF   FF2,W
02950:  MOVWF  00
02952:  BCF    FF2.7
02954:  MOVLW  55
02956:  MOVWF  FA7
02958:  MOVLW  AA
0295A:  MOVWF  FA7
0295C:  BSF    FA6.1
0295E:  BTFSC  FA6.1
02960:  BRA    295E
02962:  BCF    FA6.2
02964:  MOVF   00,W
02966:  IORWF  FF2,F
....................    } 
....................    if(Diferencia>200){ 
02968:  MOVLB  6
0296A:  CLRF   x49
0296C:  CLRF   x48
0296E:  MOVLW  48
02970:  MOVWF  x47
02972:  MOVLW  86
02974:  MOVWF  x46
02976:  MOVFF  536,64D
0297A:  MOVFF  535,64C
0297E:  MOVFF  534,64B
02982:  MOVFF  533,64A
02986:  MOVLB  0
02988:  CALL   2024
0298C:  BNC   29EA
....................       Diferencia=0;write_eeprom(60,0);write_eeprom(61,0); 
0298E:  MOVLB  5
02990:  CLRF   x36
02992:  CLRF   x35
02994:  CLRF   x34
02996:  CLRF   x33
02998:  CLRF   FAA
0299A:  MOVLW  3C
0299C:  MOVWF  FA9
0299E:  CLRF   FA8
029A0:  BCF    FA6.6
029A2:  BCF    FA6.7
029A4:  BSF    FA6.2
029A6:  MOVF   FF2,W
029A8:  MOVWF  00
029AA:  BCF    FF2.7
029AC:  MOVLB  F
029AE:  MOVLW  55
029B0:  MOVWF  FA7
029B2:  MOVLW  AA
029B4:  MOVWF  FA7
029B6:  BSF    FA6.1
029B8:  BTFSC  FA6.1
029BA:  BRA    29B8
029BC:  BCF    FA6.2
029BE:  MOVF   00,W
029C0:  IORWF  FF2,F
029C2:  CLRF   FAA
029C4:  MOVLW  3D
029C6:  MOVWF  FA9
029C8:  CLRF   FA8
029CA:  BCF    FA6.6
029CC:  BCF    FA6.7
029CE:  BSF    FA6.2
029D0:  MOVF   FF2,W
029D2:  MOVWF  00
029D4:  BCF    FF2.7
029D6:  MOVLW  55
029D8:  MOVWF  FA7
029DA:  MOVLW  AA
029DC:  MOVWF  FA7
029DE:  BSF    FA6.1
029E0:  BTFSC  FA6.1
029E2:  BRA    29E0
029E4:  BCF    FA6.2
029E6:  MOVF   00,W
029E8:  IORWF  FF2,F
....................    } 
....................    if(G>900){ 
029EA:  MOVLB  6
029EC:  CLRF   x49
029EE:  CLRF   x48
029F0:  MOVLW  61
029F2:  MOVWF  x47
029F4:  MOVLW  88
029F6:  MOVWF  x46
029F8:  MOVFF  5D2,64D
029FC:  MOVFF  5D1,64C
02A00:  MOVFF  5D0,64B
02A04:  MOVFF  5CF,64A
02A08:  MOVLB  0
02A0A:  CALL   2024
02A0E:  BNC   2A72
....................       G=240;write_eeprom(62,240);write_eeprom(63,0); 
02A10:  MOVLB  5
02A12:  CLRF   xD2
02A14:  CLRF   xD1
02A16:  MOVLW  70
02A18:  MOVWF  xD0
02A1A:  MOVLW  86
02A1C:  MOVWF  xCF
02A1E:  CLRF   FAA
02A20:  MOVLW  3E
02A22:  MOVWF  FA9
02A24:  MOVLW  F0
02A26:  MOVWF  FA8
02A28:  BCF    FA6.6
02A2A:  BCF    FA6.7
02A2C:  BSF    FA6.2
02A2E:  MOVF   FF2,W
02A30:  MOVWF  00
02A32:  BCF    FF2.7
02A34:  MOVLB  F
02A36:  MOVLW  55
02A38:  MOVWF  FA7
02A3A:  MOVLW  AA
02A3C:  MOVWF  FA7
02A3E:  BSF    FA6.1
02A40:  BTFSC  FA6.1
02A42:  BRA    2A40
02A44:  BCF    FA6.2
02A46:  MOVF   00,W
02A48:  IORWF  FF2,F
02A4A:  CLRF   FAA
02A4C:  MOVLW  3F
02A4E:  MOVWF  FA9
02A50:  CLRF   FA8
02A52:  BCF    FA6.6
02A54:  BCF    FA6.7
02A56:  BSF    FA6.2
02A58:  MOVF   FF2,W
02A5A:  MOVWF  00
02A5C:  BCF    FF2.7
02A5E:  MOVLW  55
02A60:  MOVWF  FA7
02A62:  MOVLW  AA
02A64:  MOVWF  FA7
02A66:  BSF    FA6.1
02A68:  BTFSC  FA6.1
02A6A:  BRA    2A68
02A6C:  BCF    FA6.2
02A6E:  MOVF   00,W
02A70:  IORWF  FF2,F
....................    } 
....................    if(negativo>20){ 
02A72:  MOVLB  4
02A74:  MOVF   xDF,W
02A76:  SUBLW  14
02A78:  BC    2AAC
....................       negativo=10;write_eeprom(50,10); 
02A7A:  MOVLW  0A
02A7C:  MOVWF  xDF
02A7E:  CLRF   FAA
02A80:  MOVLW  32
02A82:  MOVWF  FA9
02A84:  MOVLW  0A
02A86:  MOVWF  FA8
02A88:  BCF    FA6.6
02A8A:  BCF    FA6.7
02A8C:  BSF    FA6.2
02A8E:  MOVF   FF2,W
02A90:  MOVWF  00
02A92:  BCF    FF2.7
02A94:  MOVLB  F
02A96:  MOVLW  55
02A98:  MOVWF  FA7
02A9A:  MOVLW  AA
02A9C:  MOVWF  FA7
02A9E:  BSF    FA6.1
02AA0:  BTFSC  FA6.1
02AA2:  BRA    2AA0
02AA4:  BCF    FA6.2
02AA6:  MOVF   00,W
02AA8:  IORWF  FF2,F
02AAA:  MOVLB  4
....................    } 
.................... } 
02AAC:  MOVLB  0
02AAE:  GOTO   4B18 (RETURN)
....................  
.................... void VelocidadMotor(int8 Vel){ 
....................    if(Vel==0){ 
*
03D2E:  MOVLB  6
03D30:  MOVF   x41,F
03D32:  BNZ   3D3A
....................       Motor_off; 
03D34:  BCF    F8B.6
03D36:  BCF    F94.6
....................    }else if(Vel>0){ 
03D38:  BRA    3D42
03D3A:  MOVF   x41,F
03D3C:  BZ    3D42
....................       Motor_on; 
03D3E:  BSF    F8B.6
03D40:  BCF    F94.6
....................    } 
.................... } 
03D42:  MOVLB  0
03D44:  RETLW  00
....................  
.................... short PidePassword(int8 MenuAnt, int8 MenuActual, int8 MenuPost, int8 clave0,int8 clave1, int8 clave2,int8 clave3){ 
....................       if(n==0) 
*
03648:  MOVLB  4
0364A:  BTFSC  x1D.0
0364C:  BRA    36E4
....................       { 
....................          displayContrasena(Contrasena[0],20,30,1);displayContrasena(Contrasena[1],40,30,0); 
0364E:  MOVFF  51F,64B
03652:  MOVLW  14
03654:  MOVLB  6
03656:  MOVWF  x4C
03658:  MOVLW  1E
0365A:  MOVWF  x4D
0365C:  MOVLW  01
0365E:  MOVWF  x4E
03660:  MOVLB  0
03662:  RCALL  346C
03664:  MOVFF  520,64B
03668:  MOVLW  28
0366A:  MOVLB  6
0366C:  MOVWF  x4C
0366E:  MOVLW  1E
03670:  MOVWF  x4D
03672:  CLRF   x4E
03674:  MOVLB  0
03676:  RCALL  346C
....................          displayContrasena(Contrasena[2],60,30,0);displayContrasena(Contrasena[0],80,30,0); 
03678:  MOVFF  521,64B
0367C:  MOVLW  3C
0367E:  MOVLB  6
03680:  MOVWF  x4C
03682:  MOVLW  1E
03684:  MOVWF  x4D
03686:  CLRF   x4E
03688:  MOVLB  0
0368A:  RCALL  346C
0368C:  MOVFF  51F,64B
03690:  MOVLW  50
03692:  MOVLB  6
03694:  MOVWF  x4C
03696:  MOVLW  1E
03698:  MOVWF  x4D
0369A:  CLRF   x4E
0369C:  MOVLB  0
0369E:  RCALL  346C
....................          strcpy(Menus.Letra,"Clave"); 
036A0:  MOVLW  06
036A2:  MOVWF  FEA
036A4:  MOVLW  2B
036A6:  MOVWF  FE9
036A8:  MOVFF  FF2,649
036AC:  BCF    FF2.7
036AE:  MOVLW  00
036B0:  CALL   0F0A
036B4:  TBLRD*-
036B6:  TBLRD*+
036B8:  MOVF   FF5,W
036BA:  MOVWF  FEE
036BC:  IORLW  00
036BE:  BNZ   36B6
036C0:  MOVLB  6
036C2:  BTFSC  x49.7
036C4:  BSF    FF2.7
....................          displayMenu(Menus.Letra,20,0,1,3); 
036C6:  MOVLW  06
036C8:  MOVWF  x4A
036CA:  MOVLW  2B
036CC:  MOVWF  x49
036CE:  MOVLW  14
036D0:  MOVWF  x4B
036D2:  CLRF   x4C
036D4:  MOVLW  01
036D6:  MOVWF  x4D
036D8:  MOVLW  03
036DA:  MOVWF  x4E
036DC:  MOVLB  0
036DE:  RCALL  3522
....................          n=1; 
036E0:  MOVLB  4
036E2:  BSF    x1D.0
....................       } 
....................        
....................       if(UP){ 
036E4:  BSF    F96.1
036E6:  BTFSS  F84.1
036E8:  BRA    37C0
....................          flag_latencia=0;t_latencia=0; 
036EA:  BCF    x1C.4
036EC:  CLRF   xF8
036EE:  CLRF   xF7
....................          if(Flanco == 0){ 
036F0:  BTFSC  x1A.0
036F2:  BRA    37BE
....................             Flanco = 1;delay_ms(5); 
036F4:  BSF    x1A.0
036F6:  MOVLW  05
036F8:  MOVLB  6
036FA:  MOVWF  x4A
036FC:  MOVLB  0
036FE:  CALL   139A
....................             for(i=1;i<=4;i++){ 
03702:  MOVLW  01
03704:  MOVLB  4
03706:  MOVWF  x19
03708:  MOVF   x19,W
0370A:  SUBLW  04
0370C:  BNC   37BE
....................                if(unidad==i){ 
0370E:  MOVF   x19,W
03710:  SUBWF  xDC,W
03712:  BNZ   3788
....................                   Contrasena[i-1]++; 
03714:  MOVLW  01
03716:  SUBWF  x19,W
03718:  CLRF   03
0371A:  ADDLW  1F
0371C:  MOVWF  FE9
0371E:  MOVLW  05
03720:  ADDWFC 03,W
03722:  MOVWF  FEA
03724:  INCF   FEF,F
....................                   if(Contrasena[i-1]>9){ 
03726:  MOVLW  01
03728:  SUBWF  x19,W
0372A:  CLRF   03
0372C:  ADDLW  1F
0372E:  MOVWF  FE9
03730:  MOVLW  05
03732:  ADDWFC 03,W
03734:  MOVWF  FEA
03736:  BTFSC  FEF.7
03738:  BRA    3752
0373A:  MOVF   FEF,W
0373C:  SUBLW  09
0373E:  BC    3752
....................                      Contrasena[i-1]=0; 
03740:  MOVLW  01
03742:  SUBWF  x19,W
03744:  CLRF   03
03746:  ADDLW  1F
03748:  MOVWF  FE9
0374A:  MOVLW  05
0374C:  ADDWFC 03,W
0374E:  MOVWF  FEA
03750:  CLRF   FEF
....................                   } 
....................                   displayContrasena(Contrasena[i-1],i*20,30,1); 
03752:  MOVLW  01
03754:  SUBWF  x19,W
03756:  CLRF   03
03758:  ADDLW  1F
0375A:  MOVWF  FE9
0375C:  MOVLW  05
0375E:  ADDWFC 03,W
03760:  MOVWF  FEA
03762:  MOVFF  FEF,649
03766:  MOVF   x19,W
03768:  MULLW  14
0376A:  MOVFF  FF3,64A
0376E:  MOVLB  6
03770:  MOVFF  649,64B
03774:  MOVFF  64A,64C
03778:  MOVLW  1E
0377A:  MOVWF  x4D
0377C:  MOVLW  01
0377E:  MOVWF  x4E
03780:  MOVLB  0
03782:  RCALL  346C
....................                }else{ 
03784:  BRA    37B8
03786:  MOVLB  4
....................                   displayContrasena(Contrasena[i-1],i*20,30,0); 
03788:  MOVLW  01
0378A:  SUBWF  x19,W
0378C:  CLRF   03
0378E:  ADDLW  1F
03790:  MOVWF  FE9
03792:  MOVLW  05
03794:  ADDWFC 03,W
03796:  MOVWF  FEA
03798:  MOVFF  FEF,649
0379C:  MOVF   x19,W
0379E:  MULLW  14
037A0:  MOVFF  FF3,64A
037A4:  MOVLB  6
037A6:  MOVFF  649,64B
037AA:  MOVFF  64A,64C
037AE:  MOVLW  1E
037B0:  MOVWF  x4D
037B2:  CLRF   x4E
037B4:  MOVLB  0
037B6:  RCALL  346C
....................                } 
....................             } 
037B8:  MOVLB  4
037BA:  INCF   x19,F
037BC:  BRA    3708
....................          } 
....................       }else{ 
037BE:  BRA    37C2
....................          Flanco = 0; 
037C0:  BCF    x1A.0
....................       } 
....................              
....................       if(DOWN){ 
037C2:  BSF    F96.2
037C4:  BTFSS  F84.2
037C6:  BRA    389A
....................          flag_latencia=0;t_latencia=0; 
037C8:  BCF    x1C.4
037CA:  CLRF   xF8
037CC:  CLRF   xF7
....................          if(Flanco2 == 0){ 
037CE:  BTFSC  x1A.2
037D0:  BRA    3898
....................             Flanco2 = 1;delay_ms(5); 
037D2:  BSF    x1A.2
037D4:  MOVLW  05
037D6:  MOVLB  6
037D8:  MOVWF  x4A
037DA:  MOVLB  0
037DC:  CALL   139A
....................             for(i=1;i<=4;i++){ 
037E0:  MOVLW  01
037E2:  MOVLB  4
037E4:  MOVWF  x19
037E6:  MOVF   x19,W
037E8:  SUBLW  04
037EA:  BNC   3898
....................                if(unidad==i){ 
037EC:  MOVF   x19,W
037EE:  SUBWF  xDC,W
037F0:  BNZ   3862
....................                   Contrasena[i-1]--; 
037F2:  MOVLW  01
037F4:  SUBWF  x19,W
037F6:  CLRF   03
037F8:  ADDLW  1F
037FA:  MOVWF  FE9
037FC:  MOVLW  05
037FE:  ADDWFC 03,W
03800:  MOVWF  FEA
03802:  DECF   FEF,F
....................                   if(Contrasena[i-1]<0){ 
03804:  MOVLW  01
03806:  SUBWF  x19,W
03808:  CLRF   03
0380A:  ADDLW  1F
0380C:  MOVWF  FE9
0380E:  MOVLW  05
03810:  ADDWFC 03,W
03812:  MOVWF  FEA
03814:  BTFSS  FEF.7
03816:  BRA    382C
....................                      Contrasena[i-1]=9; 
03818:  MOVLW  01
0381A:  SUBWF  x19,W
0381C:  CLRF   03
0381E:  ADDLW  1F
03820:  MOVWF  FE9
03822:  MOVLW  05
03824:  ADDWFC 03,W
03826:  MOVWF  FEA
03828:  MOVLW  09
0382A:  MOVWF  FEF
....................                   } 
....................                   displayContrasena(Contrasena[i-1],i*20,30,1); 
0382C:  MOVLW  01
0382E:  SUBWF  x19,W
03830:  CLRF   03
03832:  ADDLW  1F
03834:  MOVWF  FE9
03836:  MOVLW  05
03838:  ADDWFC 03,W
0383A:  MOVWF  FEA
0383C:  MOVFF  FEF,649
03840:  MOVF   x19,W
03842:  MULLW  14
03844:  MOVFF  FF3,64A
03848:  MOVLB  6
0384A:  MOVFF  649,64B
0384E:  MOVFF  64A,64C
03852:  MOVLW  1E
03854:  MOVWF  x4D
03856:  MOVLW  01
03858:  MOVWF  x4E
0385A:  MOVLB  0
0385C:  RCALL  346C
....................                }else{ 
0385E:  BRA    3892
03860:  MOVLB  4
....................                   displayContrasena(Contrasena[i-1],i*20,30,0); 
03862:  MOVLW  01
03864:  SUBWF  x19,W
03866:  CLRF   03
03868:  ADDLW  1F
0386A:  MOVWF  FE9
0386C:  MOVLW  05
0386E:  ADDWFC 03,W
03870:  MOVWF  FEA
03872:  MOVFF  FEF,649
03876:  MOVF   x19,W
03878:  MULLW  14
0387A:  MOVFF  FF3,64A
0387E:  MOVLB  6
03880:  MOVFF  649,64B
03884:  MOVFF  64A,64C
03888:  MOVLW  1E
0388A:  MOVWF  x4D
0388C:  CLRF   x4E
0388E:  MOVLB  0
03890:  RCALL  346C
....................                } 
....................             }       
03892:  MOVLB  4
03894:  INCF   x19,F
03896:  BRA    37E6
....................          }      
....................       }else{ 
03898:  BRA    389C
....................          Flanco2 = 0; 
0389A:  BCF    x1A.2
....................       } 
....................              
....................       if(RIGHT){ 
0389C:  BSF    F94.0
0389E:  BTFSS  F82.0
038A0:  BRA    393C
....................          flag_latencia=0;t_latencia=0; 
038A2:  BCF    x1C.4
038A4:  CLRF   xF8
038A6:  CLRF   xF7
....................          if(Flanco1 == 0){ 
038A8:  BTFSC  x1A.1
038AA:  BRA    393A
....................             Flanco1 = 1;delay_ms(5);unidad++; 
038AC:  BSF    x1A.1
038AE:  MOVLW  05
038B0:  MOVLB  6
038B2:  MOVWF  x4A
038B4:  MOVLB  0
038B6:  CALL   139A
038BA:  MOVLB  4
038BC:  INCF   xDC,F
....................             for(i=1;i<=4;i++){ 
038BE:  MOVLW  01
038C0:  MOVWF  x19
038C2:  MOVF   x19,W
038C4:  SUBLW  04
038C6:  BNC   393A
....................                if(unidad==i){ 
038C8:  MOVF   x19,W
038CA:  SUBWF  xDC,W
038CC:  BNZ   3904
....................                   displayContrasena(Contrasena[i-1],i*20,30,1); 
038CE:  MOVLW  01
038D0:  SUBWF  x19,W
038D2:  CLRF   03
038D4:  ADDLW  1F
038D6:  MOVWF  FE9
038D8:  MOVLW  05
038DA:  ADDWFC 03,W
038DC:  MOVWF  FEA
038DE:  MOVFF  FEF,649
038E2:  MOVF   x19,W
038E4:  MULLW  14
038E6:  MOVFF  FF3,64A
038EA:  MOVLB  6
038EC:  MOVFF  649,64B
038F0:  MOVFF  64A,64C
038F4:  MOVLW  1E
038F6:  MOVWF  x4D
038F8:  MOVLW  01
038FA:  MOVWF  x4E
038FC:  MOVLB  0
038FE:  RCALL  346C
....................                }else{ 
03900:  BRA    3934
03902:  MOVLB  4
....................                   displayContrasena(Contrasena[i-1],i*20,30,0); 
03904:  MOVLW  01
03906:  SUBWF  x19,W
03908:  CLRF   03
0390A:  ADDLW  1F
0390C:  MOVWF  FE9
0390E:  MOVLW  05
03910:  ADDWFC 03,W
03912:  MOVWF  FEA
03914:  MOVFF  FEF,649
03918:  MOVF   x19,W
0391A:  MULLW  14
0391C:  MOVFF  FF3,64A
03920:  MOVLB  6
03922:  MOVFF  649,64B
03926:  MOVFF  64A,64C
0392A:  MOVLW  1E
0392C:  MOVWF  x4D
0392E:  CLRF   x4E
03930:  MOVLB  0
03932:  RCALL  346C
....................                } 
....................             } 
03934:  MOVLB  4
03936:  INCF   x19,F
03938:  BRA    38C2
....................          } 
....................       }else{ 
0393A:  BRA    393E
....................          Flanco1 = 0; 
0393C:  BCF    x1A.1
....................       } 
....................        
....................       if(LEFT){ 
0393E:  BSF    F94.1
03940:  BTFSS  F82.1
03942:  BRA    398A
....................          delay_ms(100); 
03944:  MOVLW  64
03946:  MOVLB  6
03948:  MOVWF  x4A
0394A:  MOVLB  0
0394C:  CALL   139A
....................          if(LEFT){ 
03950:  BSF    F94.1
03952:  BTFSS  F82.1
03954:  BRA    3988
....................             Menu=MenuAnt;glcd_fillScreen(OFF);n=0;Opcion=1;unidad=1; 
03956:  MOVFF  642,4DB
0395A:  MOVLB  6
0395C:  CLRF   x49
0395E:  MOVLB  0
03960:  RCALL  35EE
03962:  MOVLB  4
03964:  BCF    x1D.0
03966:  MOVLW  01
03968:  MOVWF  xDD
0396A:  MOVWF  xDC
....................             Contrasena[0]=0;Contrasena[1]=0;Contrasena[2]=0;Contrasena[3]=0; 
0396C:  MOVLB  5
0396E:  CLRF   x1F
03970:  CLRF   x20
03972:  CLRF   x21
03974:  CLRF   x22
....................             glcd_fillScreen(OFF);glcd_update(); 
03976:  MOVLB  6
03978:  CLRF   x49
0397A:  MOVLB  0
0397C:  RCALL  35EE
0397E:  CALL   2AE8
....................             return 1; 
03982:  MOVLW  01
03984:  MOVWF  01
03986:  BRA    3D28
03988:  MOVLB  4
....................          } 
....................       } 
....................      
....................       if(unidad>4){ 
0398A:  MOVF   xDC,W
0398C:  SUBLW  04
0398E:  BTFSC  FD8.0
03990:  BRA    3D2A
....................          glcd_fillScreen(OFF);unidad=1;flag_latencia=0;t_latencia=0; 
03992:  MOVLB  6
03994:  CLRF   x49
03996:  MOVLB  0
03998:  RCALL  35EE
0399A:  MOVLW  01
0399C:  MOVLB  4
0399E:  MOVWF  xDC
039A0:  BCF    x1C.4
039A2:  CLRF   xF8
039A4:  CLRF   xF7
....................           
....................          if(Contrasena[0]==3&&Contrasena[1]==8&&Contrasena[2]==9&&Contrasena[3]==2 && MenuActual==0){ // Si Ingresa clave para reset general del sistema. 
039A6:  MOVLB  5
039A8:  MOVF   x1F,W
039AA:  SUBLW  03
039AC:  BTFSS  FD8.2
039AE:  BRA    3AA8
039B0:  MOVF   x20,W
039B2:  SUBLW  08
039B4:  BTFSS  FD8.2
039B6:  BRA    3AA8
039B8:  MOVF   x21,W
039BA:  SUBLW  09
039BC:  BNZ   3AA8
039BE:  MOVF   x22,W
039C0:  SUBLW  02
039C2:  BNZ   3AA8
039C4:  MOVLB  6
039C6:  MOVF   x43,F
039C8:  BTFSC  FD8.2
039CA:  BRA    39D0
039CC:  MOVLB  5
039CE:  BRA    3AA8
....................             write_eeprom(0,0);delay_ms(20);write_eeprom(1,0);delay_ms(20);// Reestablece a contrasea de Fabrica y reinicia Programa. 
039D0:  CLRF   FAA
039D2:  CLRF   FA9
039D4:  CLRF   FA8
039D6:  BCF    FA6.6
039D8:  BCF    FA6.7
039DA:  BSF    FA6.2
039DC:  MOVF   FF2,W
039DE:  MOVWF  00
039E0:  BCF    FF2.7
039E2:  MOVLB  F
039E4:  MOVLW  55
039E6:  MOVWF  FA7
039E8:  MOVLW  AA
039EA:  MOVWF  FA7
039EC:  BSF    FA6.1
039EE:  BTFSC  FA6.1
039F0:  BRA    39EE
039F2:  BCF    FA6.2
039F4:  MOVF   00,W
039F6:  IORWF  FF2,F
039F8:  MOVLW  14
039FA:  MOVLB  6
039FC:  MOVWF  x4A
039FE:  MOVLB  0
03A00:  CALL   139A
03A04:  CLRF   FAA
03A06:  MOVLW  01
03A08:  MOVWF  FA9
03A0A:  CLRF   FA8
03A0C:  BCF    FA6.6
03A0E:  BCF    FA6.7
03A10:  BSF    FA6.2
03A12:  MOVF   FF2,W
03A14:  MOVWF  00
03A16:  BCF    FF2.7
03A18:  MOVLB  F
03A1A:  MOVLW  55
03A1C:  MOVWF  FA7
03A1E:  MOVLW  AA
03A20:  MOVWF  FA7
03A22:  BSF    FA6.1
03A24:  BTFSC  FA6.1
03A26:  BRA    3A24
03A28:  BCF    FA6.2
03A2A:  MOVF   00,W
03A2C:  IORWF  FF2,F
03A2E:  MOVLW  14
03A30:  MOVLB  6
03A32:  MOVWF  x4A
03A34:  MOVLB  0
03A36:  CALL   139A
....................             write_eeprom(2,0);delay_ms(20);write_eeprom(3,0);delay_ms(20); 
03A3A:  CLRF   FAA
03A3C:  MOVLW  02
03A3E:  MOVWF  FA9
03A40:  CLRF   FA8
03A42:  BCF    FA6.6
03A44:  BCF    FA6.7
03A46:  BSF    FA6.2
03A48:  MOVF   FF2,W
03A4A:  MOVWF  00
03A4C:  BCF    FF2.7
03A4E:  MOVLB  F
03A50:  MOVLW  55
03A52:  MOVWF  FA7
03A54:  MOVLW  AA
03A56:  MOVWF  FA7
03A58:  BSF    FA6.1
03A5A:  BTFSC  FA6.1
03A5C:  BRA    3A5A
03A5E:  BCF    FA6.2
03A60:  MOVF   00,W
03A62:  IORWF  FF2,F
03A64:  MOVLW  14
03A66:  MOVLB  6
03A68:  MOVWF  x4A
03A6A:  MOVLB  0
03A6C:  CALL   139A
03A70:  CLRF   FAA
03A72:  MOVLW  03
03A74:  MOVWF  FA9
03A76:  CLRF   FA8
03A78:  BCF    FA6.6
03A7A:  BCF    FA6.7
03A7C:  BSF    FA6.2
03A7E:  MOVF   FF2,W
03A80:  MOVWF  00
03A82:  BCF    FF2.7
03A84:  MOVLB  F
03A86:  MOVLW  55
03A88:  MOVWF  FA7
03A8A:  MOVLW  AA
03A8C:  MOVWF  FA7
03A8E:  BSF    FA6.1
03A90:  BTFSC  FA6.1
03A92:  BRA    3A90
03A94:  BCF    FA6.2
03A96:  MOVF   00,W
03A98:  IORWF  FF2,F
03A9A:  MOVLW  14
03A9C:  MOVLB  6
03A9E:  MOVWF  x4A
03AA0:  MOVLB  0
03AA2:  CALL   139A
....................             reset_cpu(); 
03AA6:  RESET
....................          } 
....................        
....................          if((Contrasena[0]==clave0)&&(Contrasena[1]==clave1)&&(Contrasena[2]==clave2)&&(Contrasena[3]==clave3)){ 
03AA8:  MOVLB  6
03AAA:  MOVF   x45,W
03AAC:  MOVLB  5
03AAE:  SUBWF  x1F,W
03AB0:  BTFSS  FD8.2
03AB2:  BRA    3BA2
03AB4:  MOVLB  6
03AB6:  MOVF   x46,W
03AB8:  MOVLB  5
03ABA:  SUBWF  x20,W
03ABC:  BTFSS  FD8.2
03ABE:  BRA    3BA2
03AC0:  MOVLB  6
03AC2:  MOVF   x47,W
03AC4:  MOVLB  5
03AC6:  SUBWF  x21,W
03AC8:  BNZ   3BA2
03ACA:  MOVLB  6
03ACC:  MOVF   x48,W
03ACE:  MOVLB  5
03AD0:  SUBWF  x22,W
03AD2:  BNZ   3BA2
....................             glcd_fillScreen(OFF); 
03AD4:  MOVLB  6
03AD6:  CLRF   x49
03AD8:  MOVLB  0
03ADA:  RCALL  35EE
....................             strcpy(Menus.Letra,"Clave"); 
03ADC:  MOVLW  06
03ADE:  MOVWF  FEA
03AE0:  MOVLW  2B
03AE2:  MOVWF  FE9
03AE4:  MOVFF  FF2,649
03AE8:  BCF    FF2.7
03AEA:  MOVLW  00
03AEC:  CALL   0F0A
03AF0:  TBLRD*-
03AF2:  TBLRD*+
03AF4:  MOVF   FF5,W
03AF6:  MOVWF  FEE
03AF8:  IORLW  00
03AFA:  BNZ   3AF2
03AFC:  MOVLB  6
03AFE:  BTFSC  x49.7
03B00:  BSF    FF2.7
....................             displayMenu(Menus.Letra,30,0,0,2); 
03B02:  MOVLW  06
03B04:  MOVWF  x4A
03B06:  MOVLW  2B
03B08:  MOVWF  x49
03B0A:  MOVLW  1E
03B0C:  MOVWF  x4B
03B0E:  CLRF   x4C
03B10:  CLRF   x4D
03B12:  MOVLW  02
03B14:  MOVWF  x4E
03B16:  MOVLB  0
03B18:  RCALL  3522
....................             strcpy(Menus.Letra,"Correcta"); 
03B1A:  MOVLW  06
03B1C:  MOVWF  FEA
03B1E:  MOVLW  2B
03B20:  MOVWF  FE9
03B22:  MOVFF  FF2,649
03B26:  BCF    FF2.7
03B28:  MOVLW  00
03B2A:  CALL   0F2E
03B2E:  TBLRD*-
03B30:  TBLRD*+
03B32:  MOVF   FF5,W
03B34:  MOVWF  FEE
03B36:  IORLW  00
03B38:  BNZ   3B30
03B3A:  MOVLB  6
03B3C:  BTFSC  x49.7
03B3E:  BSF    FF2.7
....................             displayMenu(Menus.Letra,15,30,0,2); 
03B40:  MOVLW  06
03B42:  MOVWF  x4A
03B44:  MOVLW  2B
03B46:  MOVWF  x49
03B48:  MOVLW  0F
03B4A:  MOVWF  x4B
03B4C:  MOVLW  1E
03B4E:  MOVWF  x4C
03B50:  CLRF   x4D
03B52:  MOVLW  02
03B54:  MOVWF  x4E
03B56:  MOVLB  0
03B58:  RCALL  3522
....................             Menu=MenuPost;glcd_update();delay_ms(1000);glcd_fillScreen(OFF); 
03B5A:  MOVFF  644,4DB
03B5E:  CALL   2AE8
03B62:  MOVLW  04
03B64:  MOVLB  6
03B66:  MOVWF  x49
03B68:  MOVLW  FA
03B6A:  MOVWF  x4A
03B6C:  MOVLB  0
03B6E:  CALL   139A
03B72:  MOVLB  6
03B74:  DECFSZ x49,F
03B76:  BRA    3B68
03B78:  CLRF   x49
03B7A:  MOVLB  0
03B7C:  RCALL  35EE
....................             Contrasena[0]=0;Contrasena[1]=0;Contrasena[2]=0;Contrasena[3]=0; 
03B7E:  MOVLB  5
03B80:  CLRF   x1F
03B82:  CLRF   x20
03B84:  CLRF   x21
03B86:  CLRF   x22
....................             if(MenuActual==0)tiempo_purga=1;n=0; 
03B88:  MOVLB  6
03B8A:  MOVF   x43,F
03B8C:  BNZ   3B92
03B8E:  MOVLB  4
03B90:  BSF    x1B.7
03B92:  MOVLB  4
03B94:  BCF    x1D.0
....................             return 1; 
03B96:  MOVLW  01
03B98:  MOVWF  01
03B9A:  MOVLB  0
03B9C:  BRA    3D28
....................          }else{ 
03B9E:  BRA    3D28
03BA0:  MOVLB  5
....................             glcd_fillScreen(OFF); 
03BA2:  MOVLB  6
03BA4:  CLRF   x49
03BA6:  MOVLB  0
03BA8:  RCALL  35EE
....................             strcpy(Menus.Letra,"Clave"); 
03BAA:  MOVLW  06
03BAC:  MOVWF  FEA
03BAE:  MOVLW  2B
03BB0:  MOVWF  FE9
03BB2:  MOVFF  FF2,649
03BB6:  BCF    FF2.7
03BB8:  MOVLW  00
03BBA:  CALL   0F0A
03BBE:  TBLRD*-
03BC0:  TBLRD*+
03BC2:  MOVF   FF5,W
03BC4:  MOVWF  FEE
03BC6:  IORLW  00
03BC8:  BNZ   3BC0
03BCA:  MOVLB  6
03BCC:  BTFSC  x49.7
03BCE:  BSF    FF2.7
....................             displayMenu(Menus.Letra,30,0,0,2); 
03BD0:  MOVLW  06
03BD2:  MOVWF  x4A
03BD4:  MOVLW  2B
03BD6:  MOVWF  x49
03BD8:  MOVLW  1E
03BDA:  MOVWF  x4B
03BDC:  CLRF   x4C
03BDE:  CLRF   x4D
03BE0:  MOVLW  02
03BE2:  MOVWF  x4E
03BE4:  MOVLB  0
03BE6:  RCALL  3522
....................             strcpy(Menus.Letra,"Incorrecta"); 
03BE8:  MOVLW  06
03BEA:  MOVWF  FEA
03BEC:  MOVLW  2B
03BEE:  MOVWF  FE9
03BF0:  MOVFF  FF2,649
03BF4:  BCF    FF2.7
03BF6:  MOVLW  00
03BF8:  CALL   0F56
03BFC:  TBLRD*-
03BFE:  TBLRD*+
03C00:  MOVF   FF5,W
03C02:  MOVWF  FEE
03C04:  IORLW  00
03C06:  BNZ   3BFE
03C08:  MOVLB  6
03C0A:  BTFSC  x49.7
03C0C:  BSF    FF2.7
....................             displayMenu(Menus.Letra,0,30,0,2); 
03C0E:  MOVLW  06
03C10:  MOVWF  x4A
03C12:  MOVLW  2B
03C14:  MOVWF  x49
03C16:  CLRF   x4B
03C18:  MOVLW  1E
03C1A:  MOVWF  x4C
03C1C:  CLRF   x4D
03C1E:  MOVLW  02
03C20:  MOVWF  x4E
03C22:  MOVLB  0
03C24:  RCALL  3522
....................             unidad=1;glcd_update();delay_ms(1000);Contrasena[0]=0;Contrasena[1]=0;Contrasena[2]=0;Contrasena[3]=0;glcd_fillScreen(OFF); 
03C26:  MOVLW  01
03C28:  MOVLB  4
03C2A:  MOVWF  xDC
03C2C:  MOVLB  0
03C2E:  CALL   2AE8
03C32:  MOVLW  04
03C34:  MOVLB  6
03C36:  MOVWF  x49
03C38:  MOVLW  FA
03C3A:  MOVWF  x4A
03C3C:  MOVLB  0
03C3E:  CALL   139A
03C42:  MOVLB  6
03C44:  DECFSZ x49,F
03C46:  BRA    3C38
03C48:  MOVLB  5
03C4A:  CLRF   x1F
03C4C:  CLRF   x20
03C4E:  CLRF   x21
03C50:  CLRF   x22
03C52:  MOVLB  6
03C54:  CLRF   x49
03C56:  MOVLB  0
03C58:  RCALL  35EE
....................             glcd_rect(0, 0, 127, 25, YES, ON);strcpy(Menus.Letra,"Clave");glcd_text57(25, 1, Menus.Letra, 3, OFF);displayContrasena(Contrasena[0],20,30,1); 
03C5A:  MOVLB  6
03C5C:  CLRF   x5A
03C5E:  CLRF   x5B
03C60:  MOVLW  7F
03C62:  MOVWF  x5C
03C64:  MOVLW  19
03C66:  MOVWF  x5D
03C68:  MOVLW  01
03C6A:  MOVWF  x5E
03C6C:  MOVWF  x5F
03C6E:  MOVLB  0
03C70:  CALL   31F2
03C74:  MOVLW  06
03C76:  MOVWF  FEA
03C78:  MOVLW  2B
03C7A:  MOVWF  FE9
03C7C:  MOVFF  FF2,649
03C80:  BCF    FF2.7
03C82:  MOVLW  00
03C84:  CALL   0F0A
03C88:  TBLRD*-
03C8A:  TBLRD*+
03C8C:  MOVF   FF5,W
03C8E:  MOVWF  FEE
03C90:  IORLW  00
03C92:  BNZ   3C8A
03C94:  MOVLB  6
03C96:  BTFSC  x49.7
03C98:  BSF    FF2.7
03C9A:  MOVLW  19
03C9C:  MOVWF  x5A
03C9E:  MOVLW  01
03CA0:  MOVWF  x5B
03CA2:  MOVLW  06
03CA4:  MOVWF  x5D
03CA6:  MOVLW  2B
03CA8:  MOVWF  x5C
03CAA:  MOVLW  03
03CAC:  MOVWF  x5E
03CAE:  CLRF   x5F
03CB0:  MOVLB  0
03CB2:  CALL   32B4
03CB6:  MOVFF  51F,64B
03CBA:  MOVLW  14
03CBC:  MOVLB  6
03CBE:  MOVWF  x4C
03CC0:  MOVLW  1E
03CC2:  MOVWF  x4D
03CC4:  MOVLW  01
03CC6:  MOVWF  x4E
03CC8:  MOVLB  0
03CCA:  CALL   346C
....................             displayContrasena(Contrasena[1],40,30,0);displayContrasena(Contrasena[2],60,30,0);displayContrasena(Contrasena[0],80,30,0); 
03CCE:  MOVFF  520,64B
03CD2:  MOVLW  28
03CD4:  MOVLB  6
03CD6:  MOVWF  x4C
03CD8:  MOVLW  1E
03CDA:  MOVWF  x4D
03CDC:  CLRF   x4E
03CDE:  MOVLB  0
03CE0:  CALL   346C
03CE4:  MOVFF  521,64B
03CE8:  MOVLW  3C
03CEA:  MOVLB  6
03CEC:  MOVWF  x4C
03CEE:  MOVLW  1E
03CF0:  MOVWF  x4D
03CF2:  CLRF   x4E
03CF4:  MOVLB  0
03CF6:  CALL   346C
03CFA:  MOVFF  51F,64B
03CFE:  MOVLW  50
03D00:  MOVLB  6
03D02:  MOVWF  x4C
03D04:  MOVLW  1E
03D06:  MOVWF  x4D
03D08:  CLRF   x4E
03D0A:  MOVLB  0
03D0C:  CALL   346C
....................             Menu=MenuAnt;glcd_fillScreen(OFF);n=0; 
03D10:  MOVFF  642,4DB
03D14:  MOVLB  6
03D16:  CLRF   x49
03D18:  MOVLB  0
03D1A:  RCALL  35EE
03D1C:  MOVLB  4
03D1E:  BCF    x1D.0
....................             return 0; 
03D20:  MOVLW  00
03D22:  MOVWF  01
03D24:  MOVLB  0
03D26:  BRA    3D28
03D28:  MOVLB  4
....................          } 
....................       } 
.................... } 
03D2A:  MOVLB  0
03D2C:  RETLW  00
....................  
....................  
.................... //---Interrupcin TIMER0---// 
.................... #int_TIMER1 
.................... void temp1s(void){ 
....................    set_timer1(40536); 
*
01264:  MOVLW  9E
01266:  MOVWF  FCF
01268:  MOVLW  58
0126A:  MOVWF  FCE
....................    tiempos++; 
0126C:  MOVLB  4
0126E:  INCF   x17,F
01270:  BTFSC  FD8.2
01272:  INCF   x18,F
....................     
....................    if(flag_latencia==1)    
01274:  BTFSS  x1C.4
01276:  BRA    127E
....................       t_latencia++;          
01278:  INCF   xF7,F
0127A:  BTFSC  FD8.2
0127C:  INCF   xF8,F
....................     
....................    if(t_latencia>=3000) 
0127E:  MOVF   xF8,W
01280:  SUBLW  0A
01282:  BC    1290
01284:  XORLW  FF
01286:  BNZ   128E
01288:  MOVF   xF7,W
0128A:  SUBLW  B7
0128C:  BC    1290
....................       Latencia=1; 
0128E:  BSF    x1C.3
....................                  
....................    if(tiempos>=200){ 
01290:  MOVF   x18,F
01292:  BNZ   129C
01294:  MOVF   x17,W
01296:  SUBLW  C7
01298:  BTFSC  FD8.0
0129A:  BRA    1392
....................       tiempos=0;imprimir=1;inicie++;Lectura=1;tiemporeset++; 
0129C:  CLRF   x18
0129E:  CLRF   x17
012A0:  BSF    x1A.7
012A2:  INCF   xDE,F
012A4:  BSF    x1C.7
012A6:  INCF   xE2,F
....................        
....................       if(Alarma==5){ 
012A8:  MOVF   xEC,W
012AA:  SUBLW  05
012AC:  BNZ   12C0
....................          if(flag_alarma2==0){ 
012AE:  BTFSC  x1D.1
012B0:  BRA    12BA
....................             Alarma_on; 
012B2:  BSF    F8B.2
012B4:  BCF    F94.2
....................             flag_alarma2=1; 
012B6:  BSF    x1D.1
....................          }else{ 
012B8:  BRA    12C0
....................             Alarma_off; 
012BA:  BCF    F8B.2
012BC:  BCF    F94.2
....................             flag_alarma2=0; 
012BE:  BCF    x1D.1
....................          } 
....................       } 
....................     
....................       if(tiempo_postpurga){ 
012C0:  BTFSS  x1C.2
012C2:  BRA    1300
....................          Tppurga[0]++; 
012C4:  MOVLB  5
012C6:  INCF   x07,F
....................          if(Tppurga[0]>9){ 
012C8:  BTFSC  x07.7
012CA:  BRA    12D6
012CC:  MOVF   x07,W
012CE:  SUBLW  09
012D0:  BC    12D6
....................             Tppurga[0]=0; 
012D2:  CLRF   x07
....................             Tppurga[1]++; 
012D4:  INCF   x08,F
....................          } 
....................          if(Tppurga[1]>5){   
012D6:  BTFSC  x08.7
012D8:  BRA    12E4
012DA:  MOVF   x08,W
012DC:  SUBLW  05
012DE:  BC    12E4
....................             Tppurga[1]=0; 
012E0:  CLRF   x08
....................             Tppurga[2]++; 
012E2:  INCF   x09,F
....................          } 
....................          if(Tppurga[2]>9){ 
012E4:  BTFSC  x09.7
012E6:  BRA    12F2
012E8:  MOVF   x09,W
012EA:  SUBLW  09
012EC:  BC    12F2
....................             Tppurga[2]=0; 
012EE:  CLRF   x09
....................             Tppurga[3]++; 
012F0:  INCF   x0A,F
....................          } 
....................          if(Tppurga[3]>5){ 
012F2:  BTFSC  x0A.7
012F4:  BRA    12FE
012F6:  MOVF   x0A,W
012F8:  SUBLW  05
012FA:  BC    12FE
....................             Tppurga[3]=0; 
012FC:  CLRF   x0A
012FE:  MOVLB  4
....................          } 
....................       } 
....................     
....................       if(tiempo_uv==1){ 
01300:  BTFSS  x1C.0
01302:  BRA    1346
....................          segundos_uv++; 
01304:  INCF   xF9,F
01306:  BTFSC  FD8.2
01308:  INCF   xFA,F
....................        
....................          Tempouv[0]++; 
0130A:  MOVLB  5
0130C:  INCF   x13,F
....................          if(Tempouv[0]>9){ 
0130E:  BTFSC  x13.7
01310:  BRA    131C
01312:  MOVF   x13,W
01314:  SUBLW  09
01316:  BC    131C
....................             Tempouv[0]=0; 
01318:  CLRF   x13
....................             Tempouv[1]++; 
0131A:  INCF   x14,F
....................          } 
....................          if(Tempouv[1]>5){ 
0131C:  BTFSC  x14.7
0131E:  BRA    132A
01320:  MOVF   x14,W
01322:  SUBLW  05
01324:  BC    132A
....................             Tempouv[1]=0; 
01326:  CLRF   x14
....................             Tempouv[2]++; 
01328:  INCF   x15,F
....................          } 
....................          if(Tempouv[2]>9){ 
0132A:  BTFSC  x15.7
0132C:  BRA    1338
0132E:  MOVF   x15,W
01330:  SUBLW  09
01332:  BC    1338
....................             Tempouv[2]=0; 
01334:  CLRF   x15
....................             Tempouv[3]++; 
01336:  INCF   x16,F
....................          } 
....................          if(Tempouv[3]>5){ 
01338:  BTFSC  x16.7
0133A:  BRA    1344
0133C:  MOVF   x16,W
0133E:  SUBLW  05
01340:  BC    1344
....................             Tempouv[3]=0; 
01342:  CLRF   x16
01344:  MOVLB  4
....................          }      
....................       } 
....................     
....................       if(flag_blower==1) 
01346:  BTFSS  x1B.1
01348:  BRA    1350
....................          minutos_trabajo++;  
0134A:  INCF   xFB,F
0134C:  BTFSC  FD8.2
0134E:  INCF   xFC,F
....................    
....................       if(tiempo_purga==1){                   
01350:  BTFSS  x1B.7
01352:  BRA    1392
....................          Tpurga[0]++; 
01354:  INCF   xFF,F
....................          if(Tpurga[0]>9){ 
01356:  BTFSC  xFF.7
01358:  BRA    1366
0135A:  MOVF   xFF,W
0135C:  SUBLW  09
0135E:  BC    1366
....................             Tpurga[0]=0; 
01360:  CLRF   xFF
....................             Tpurga[1]++; 
01362:  MOVLB  5
01364:  INCF   x00,F
....................          } 
....................          if(Tpurga[1]>5){ 
01366:  MOVLB  5
01368:  BTFSC  x00.7
0136A:  BRA    1376
0136C:  MOVF   x00,W
0136E:  SUBLW  05
01370:  BC    1376
....................             Tpurga[1]=0; 
01372:  CLRF   x00
....................             Tpurga[2]++; 
01374:  INCF   x01,F
....................          } 
....................          if(Tpurga[2]>9){ 
01376:  BTFSC  x01.7
01378:  BRA    1384
0137A:  MOVF   x01,W
0137C:  SUBLW  09
0137E:  BC    1384
....................             Tpurga[2]=0; 
01380:  CLRF   x01
....................             Tpurga[3]++; 
01382:  INCF   x02,F
....................          } 
....................          if(Tpurga[3]>5) 
01384:  BTFSC  x02.7
01386:  BRA    1390
01388:  MOVF   x02,W
0138A:  SUBLW  05
0138C:  BC    1390
....................             Tpurga[3]=0; 
0138E:  CLRF   x02
01390:  MOVLB  4
....................       }          
....................    } 
.................... } 
....................  
01392:  BCF    F9E.0
01394:  MOVLB  0
01396:  GOTO   0058
.................... void main(){ 
*
04590:  CLRF   FF8
04592:  BCF    FD0.7
04594:  BSF    07.7
04596:  CLRF   FEA
04598:  CLRF   FE9
0459A:  MOVLB  4
0459C:  CLRF   x18
0459E:  CLRF   x17
045A0:  CLRF   x19
045A2:  BCF    x1A.0
045A4:  BCF    x1A.1
045A6:  BCF    x1A.2
045A8:  BCF    x1A.3
045AA:  BCF    x1A.4
045AC:  BCF    x1A.5
045AE:  BCF    x1A.6
045B0:  BCF    x1A.7
045B2:  BCF    x1B.0
045B4:  BCF    x1B.1
045B6:  BCF    x1B.2
045B8:  BCF    x1B.3
045BA:  BCF    x1B.4
045BC:  BCF    x1B.5
045BE:  BCF    x1B.6
045C0:  BCF    x1B.7
045C2:  BCF    x1C.0
045C4:  BCF    x1C.1
045C6:  BCF    x1C.2
045C8:  BCF    x1C.3
045CA:  BCF    x1C.4
045CC:  BCF    x1C.5
045CE:  BCF    x1C.6
045D0:  BCF    x1C.7
045D2:  BCF    x1D.0
045D4:  BCF    x1D.1
045D6:  MOVLW  C8
045D8:  MOVWF  xDB
045DA:  MOVLW  01
045DC:  MOVWF  xDC
045DE:  MOVWF  xDD
045E0:  CLRF   xDE
045E2:  MOVLW  0A
045E4:  MOVWF  xDF
045E6:  CLRF   xE0
045E8:  CLRF   xE1
045EA:  CLRF   xE2
045EC:  CLRF   xE3
045EE:  CLRF   xE4
045F0:  CLRF   xE5
045F2:  CLRF   xE6
045F4:  CLRF   xE7
045F6:  CLRF   xE8
045F8:  CLRF   xE9
045FA:  MOVWF  xEA
045FC:  MOVWF  xEB
045FE:  MOVWF  xEC
04600:  CLRF   xED
04602:  CLRF   xEE
04604:  CLRF   xEF
04606:  CLRF   xF0
04608:  CLRF   xF2
0460A:  CLRF   xF1
0460C:  CLRF   xF4
0460E:  CLRF   xF3
04610:  CLRF   xF6
04612:  CLRF   xF5
04614:  CLRF   xF8
04616:  CLRF   xF7
04618:  CLRF   xFA
0461A:  CLRF   xF9
0461C:  CLRF   xFC
0461E:  CLRF   xFB
04620:  CLRF   xFE
04622:  CLRF   xFD
04624:  MOVLB  5
04626:  CLRF   x2A
04628:  CLRF   x29
0462A:  CLRF   x28
0462C:  CLRF   x27
0462E:  CLRF   x2E
04630:  CLRF   x2D
04632:  CLRF   x2C
04634:  CLRF   x2B
04636:  CLRF   x32
04638:  CLRF   x31
0463A:  CLRF   x30
0463C:  CLRF   x2F
0463E:  CLRF   x36
04640:  CLRF   x35
04642:  CLRF   x34
04644:  CLRF   x33
04646:  CLRF   x3A
04648:  CLRF   x39
0464A:  CLRF   x38
0464C:  CLRF   x37
0464E:  CLRF   x3E
04650:  CLRF   x3D
04652:  CLRF   x3C
04654:  CLRF   x3B
04656:  CLRF   x42
04658:  CLRF   x41
0465A:  CLRF   x40
0465C:  CLRF   x3F
0465E:  CLRF   x46
04660:  CLRF   x45
04662:  CLRF   x44
04664:  CLRF   x43
04666:  CLRF   x4A
04668:  CLRF   x49
0466A:  CLRF   x48
0466C:  CLRF   x47
0466E:  CLRF   x4E
04670:  CLRF   x4D
04672:  CLRF   x4C
04674:  CLRF   x4B
04676:  CLRF   x52
04678:  CLRF   x51
0467A:  CLRF   x50
0467C:  CLRF   x4F
0467E:  CLRF   x56
04680:  CLRF   x55
04682:  CLRF   x54
04684:  CLRF   x53
04686:  CLRF   x5A
04688:  CLRF   x59
0468A:  CLRF   x58
0468C:  CLRF   x57
0468E:  CLRF   x5E
04690:  CLRF   x5D
04692:  CLRF   x5C
04694:  CLRF   x5B
04696:  CLRF   x62
04698:  CLRF   x61
0469A:  CLRF   x60
0469C:  CLRF   x5F
0469E:  CLRF   x66
046A0:  CLRF   x65
046A2:  CLRF   x64
046A4:  CLRF   x63
046A6:  CLRF   x6A
046A8:  CLRF   x69
046AA:  CLRF   x68
046AC:  CLRF   x67
046AE:  MOVLW  19
046B0:  MOVWF  x6E
046B2:  MOVLW  53
046B4:  MOVWF  x6D
046B6:  MOVLW  18
046B8:  MOVWF  x6C
046BA:  MOVLW  68
046BC:  MOVWF  x6B
046BE:  MOVLW  E9
046C0:  MOVWF  x72
046C2:  MOVLW  BD
046C4:  MOVWF  x71
046C6:  MOVLW  C6
046C8:  MOVWF  x70
046CA:  MOVLW  71
046CC:  MOVWF  x6F
046CE:  MOVLW  BE
046D0:  MOVWF  x76
046D2:  MOVLW  96
046D4:  MOVWF  x75
046D6:  MOVLW  24
046D8:  MOVWF  x74
046DA:  MOVLW  7A
046DC:  MOVWF  x73
046DE:  MOVLW  F3
046E0:  MOVWF  x7A
046E2:  MOVLW  5A
046E4:  MOVWF  x79
046E6:  MOVLW  AB
046E8:  MOVWF  x78
046EA:  MOVLW  81
046EC:  MOVWF  x77
046EE:  CLRF   xBE
046F0:  CLRF   xBD
046F2:  CLRF   xBC
046F4:  CLRF   xBB
046F6:  CLRF   xC2
046F8:  CLRF   xC1
046FA:  MOVLW  4B
046FC:  MOVWF  xC0
046FE:  MOVLW  86
04700:  MOVWF  xBF
04702:  CLRF   xC6
04704:  CLRF   xC5
04706:  CLRF   xC4
04708:  CLRF   xC3
0470A:  CLRF   xCA
0470C:  CLRF   xC9
0470E:  CLRF   xC8
04710:  CLRF   xC7
04712:  CLRF   xCE
04714:  CLRF   xCD
04716:  CLRF   xCC
04718:  CLRF   xCB
0471A:  CLRF   xD2
0471C:  CLRF   xD1
0471E:  CLRF   xD0
04720:  MOVLW  80
04722:  MOVWF  xCF
04724:  CLRF   xD6
04726:  CLRF   xD5
04728:  CLRF   xD4
0472A:  CLRF   xD3
0472C:  MOVLW  85
0472E:  MOVWF  xDA
04730:  MOVLW  EB
04732:  MOVWF  xD9
04734:  MOVLW  11
04736:  MOVWF  xD8
04738:  MOVLW  7E
0473A:  MOVWF  xD7
0473C:  MOVF   FC1,W
0473E:  ANDLW  C0
04740:  IORLW  0F
04742:  MOVWF  FC1
04744:  MOVLW  07
04746:  MOVWF  FB4
04748:  MOVLW  4A
0474A:  MOVLB  4
0474C:  MOVWF  x1E
0474E:  MOVLW  50
04750:  MOVWF  x1F
04752:  MOVLW  20
04754:  MOVWF  x20
04756:  MOVLW  49
04758:  MOVWF  x21
0475A:  MOVLW  6E
0475C:  MOVWF  x22
0475E:  MOVLW  67
04760:  MOVWF  x23
04762:  MOVLW  6C
04764:  MOVWF  x24
04766:  MOVLW  6F
04768:  MOVWF  x25
0476A:  MOVLW  62
0476C:  MOVWF  x26
0476E:  MOVLW  61
04770:  MOVWF  x27
04772:  MOVLW  6C
04774:  MOVWF  x28
04776:  CLRF   x29
04778:  MOVLW  43
0477A:  MOVWF  x2A
0477C:  MOVLW  61
0477E:  MOVWF  x2B
04780:  MOVLW  62
04782:  MOVWF  x2C
04784:  MOVLW  69
04786:  MOVWF  x2D
04788:  MOVLW  6E
0478A:  MOVWF  x2E
0478C:  MOVLW  61
0478E:  MOVWF  x2F
04790:  MOVLW  20
04792:  MOVWF  x30
04794:  MOVLW  46
04796:  MOVWF  x31
04798:  MOVLW  6C
0479A:  MOVWF  x32
0479C:  MOVLW  75
0479E:  MOVWF  x33
047A0:  MOVLW  6A
047A2:  MOVWF  x34
047A4:  MOVLW  6F
047A6:  MOVWF  x35
047A8:  MOVLW  20
047AA:  MOVWF  x36
047AC:  MOVLW  4C
047AE:  MOVWF  x37
047B0:  MOVLW  61
047B2:  MOVWF  x38
047B4:  MOVLW  6D
047B6:  MOVWF  x39
047B8:  MOVLW  69
047BA:  MOVWF  x3A
047BC:  MOVLW  6E
047BE:  MOVWF  x3B
047C0:  MOVLW  61
047C2:  MOVWF  x3C
047C4:  MOVLW  72
047C6:  MOVWF  x3D
047C8:  CLRF   x3E
047CA:  MOVLW  54
047CC:  MOVWF  x3F
047CE:  MOVLW  20
047D0:  MOVWF  x40
047D2:  MOVLW  65
047D4:  MOVWF  x41
047D6:  MOVLW  73
047D8:  MOVWF  x42
047DA:  MOVLW  74
047DC:  MOVWF  x43
047DE:  MOVLW  3D
047E0:  MOVWF  x44
047E2:  CLRF   x45
047E4:  MOVLW  3A
047E6:  MOVWF  x46
047E8:  CLRF   x47
047EA:  MOVLW  48
047EC:  MOVWF  x48
047EE:  MOVLW  6F
047F0:  MOVWF  x49
047F2:  MOVLW  72
047F4:  MOVWF  x4A
047F6:  MOVLW  69
047F8:  MOVWF  x4B
047FA:  MOVLW  7A
047FC:  MOVWF  x4C
047FE:  MOVLW  6F
04800:  MOVWF  x4D
04802:  MOVLW  6E
04804:  MOVWF  x4E
04806:  MOVLW  74
04808:  MOVWF  x4F
0480A:  MOVLW  61
0480C:  MOVWF  x50
0480E:  MOVLW  6C
04810:  MOVWF  x51
04812:  CLRF   x52
04814:  MOVLW  54
04816:  MOVWF  x53
04818:  MOVLW  69
0481A:  MOVWF  x54
0481C:  MOVLW  65
0481E:  MOVWF  x55
04820:  MOVLW  6D
04822:  MOVWF  x56
04824:  MOVLW  70
04826:  MOVWF  x57
04828:  MOVLW  6F
0482A:  MOVWF  x58
0482C:  MOVLW  20
0482E:  MOVWF  x59
04830:  MOVLW  64
04832:  MOVWF  x5A
04834:  MOVLW  65
04836:  MOVWF  x5B
04838:  MOVLW  20
0483A:  MOVWF  x5C
0483C:  MOVLW  50
0483E:  MOVWF  x5D
04840:  MOVLW  75
04842:  MOVWF  x5E
04844:  MOVLW  72
04846:  MOVWF  x5F
04848:  MOVLW  67
0484A:  MOVWF  x60
0484C:  MOVLW  61
0484E:  MOVWF  x61
04850:  CLRF   x62
04852:  MOVLW  55
04854:  MOVWF  x63
04856:  MOVLW  56
04858:  MOVWF  x64
0485A:  CLRF   x65
0485C:  MOVLW  21
0485E:  MOVWF  x66
04860:  MOVWF  x67
04862:  MOVLW  55
04864:  MOVWF  x68
04866:  MOVLW  62
04868:  MOVWF  x69
0486A:  MOVLW  69
0486C:  MOVWF  x6A
0486E:  MOVLW  71
04870:  MOVWF  x6B
04872:  MOVLW  75
04874:  MOVWF  x6C
04876:  MOVLW  65
04878:  MOVWF  x6D
0487A:  MOVLW  20
0487C:  MOVWF  x6E
0487E:  MOVLW  56
04880:  MOVWF  x6F
04882:  MOVLW  69
04884:  MOVWF  x70
04886:  MOVLW  64
04888:  MOVWF  x71
0488A:  MOVLW  72
0488C:  MOVWF  x72
0488E:  MOVLW  69
04890:  MOVWF  x73
04892:  MOVLW  6F
04894:  MOVWF  x74
04896:  MOVLW  21
04898:  MOVWF  x75
0489A:  MOVWF  x76
0489C:  CLRF   x77
0489E:  MOVLW  50
048A0:  MOVWF  x78
048A2:  MOVLW  72
048A4:  MOVWF  x79
048A6:  MOVLW  65
048A8:  MOVWF  x7A
048AA:  MOVLW  73
048AC:  MOVWF  x7B
048AE:  MOVLW  69
048B0:  MOVWF  x7C
048B2:  MOVLW  6F
048B4:  MOVWF  x7D
048B6:  MOVLW  6E
048B8:  MOVWF  x7E
048BA:  MOVLW  3A
048BC:  MOVWF  x7F
048BE:  CLRF   x80
048C0:  MOVLW  4A
048C2:  MOVWF  x81
048C4:  MOVLW  50
048C6:  MOVWF  x82
048C8:  MOVLW  43
048CA:  MOVWF  x83
048CC:  MOVLW  46
048CE:  MOVWF  x84
048D0:  MOVLW  4C
048D2:  MOVWF  x85
048D4:  MOVLW  48
048D6:  MOVWF  x86
048D8:  CLRF   x87
048DA:  MOVLW  46
048DC:  MOVWF  x88
048DE:  MOVLW  61
048E0:  MOVWF  x89
048E2:  MOVLW  62
048E4:  MOVWF  x8A
048E6:  MOVLW  72
048E8:  MOVWF  x8B
048EA:  MOVLW  69
048EC:  MOVWF  x8C
048EE:  MOVLW  63
048F0:  MOVWF  x8D
048F2:  MOVLW  61
048F4:  MOVWF  x8E
048F6:  MOVLW  3A
048F8:  MOVWF  x8F
048FA:  MOVLW  32
048FC:  MOVWF  x90
048FE:  MOVLW  30
04900:  MOVWF  x91
04902:  MOVLW  33
04904:  MOVWF  x92
04906:  MOVLW  2E
04908:  MOVWF  x93
0490A:  MOVLW  30
0490C:  MOVWF  x94
0490E:  CLRF   x95
04910:  MOVLW  41
04912:  MOVWF  x96
04914:  MOVLW  63
04916:  MOVWF  x97
04918:  MOVLW  74
0491A:  MOVWF  x98
0491C:  MOVLW  75
0491E:  MOVWF  x99
04920:  MOVLW  61
04922:  MOVWF  x9A
04924:  MOVLW  6C
04926:  MOVWF  x9B
04928:  MOVLW  3A
0492A:  MOVWF  x9C
0492C:  CLRF   x9D
0492E:  MOVLW  41
04930:  MOVWF  x9E
04932:  MOVLW  6A
04934:  MOVWF  x9F
04936:  MOVLW  75
04938:  MOVWF  xA0
0493A:  MOVLW  73
0493C:  MOVWF  xA1
0493E:  MOVLW  74
04940:  MOVWF  xA2
04942:  MOVLW  65
04944:  MOVWF  xA3
04946:  MOVLW  3A
04948:  MOVWF  xA4
0494A:  CLRF   xA5
0494C:  MOVLW  55
0494E:  MOVWF  xA6
04950:  MOVLW  56
04952:  MOVWF  xA7
04954:  MOVLW  4C
04956:  MOVWF  xA8
04958:  MOVLW  69
0495A:  MOVWF  xA9
0495C:  MOVLW  66
0495E:  MOVWF  xAA
04960:  MOVLW  65
04962:  MOVWF  xAB
04964:  MOVLW  3A
04966:  MOVWF  xAC
04968:  CLRF   xAD
0496A:  MOVLW  46
0496C:  MOVWF  xAE
0496E:  MOVLW  69
04970:  MOVWF  xAF
04972:  MOVLW  6C
04974:  MOVWF  xB0
04976:  MOVLW  74
04978:  MOVWF  xB1
0497A:  MOVLW  65
0497C:  MOVWF  xB2
0497E:  MOVLW  72
04980:  MOVWF  xB3
04982:  MOVLW  3A
04984:  MOVWF  xB4
04986:  CLRF   xB5
04988:  MOVLW  46
0498A:  MOVWF  xB6
0498C:  MOVLW  61
0498E:  MOVWF  xB7
04990:  MOVLW  62
04992:  MOVWF  xB8
04994:  MOVLW  72
04996:  MOVWF  xB9
04998:  MOVLW  69
0499A:  MOVWF  xBA
0499C:  MOVLW  63
0499E:  MOVWF  xBB
049A0:  MOVLW  61
049A2:  MOVWF  xBC
049A4:  MOVLW  3A
049A6:  MOVWF  xBD
049A8:  MOVLW  32
049AA:  MOVWF  xBE
049AC:  MOVLW  33
049AE:  MOVWF  xBF
049B0:  MOVLW  35
049B2:  MOVWF  xC0
049B4:  MOVLW  2E
049B6:  MOVWF  xC1
049B8:  MOVLW  30
049BA:  MOVWF  xC2
049BC:  CLRF   xC3
049BE:  MOVLW  21
049C0:  MOVWF  xC4
049C2:  MOVLW  50
049C4:  MOVWF  xC5
049C6:  MOVLW  65
049C8:  MOVWF  xC6
049CA:  MOVLW  72
049CC:  MOVWF  xC7
049CE:  MOVLW  64
049D0:  MOVWF  xC8
049D2:  MOVLW  69
049D4:  MOVWF  xC9
049D6:  MOVLW  64
049D8:  MOVWF  xCA
049DA:  MOVLW  61
049DC:  MOVWF  xCB
049DE:  MOVLW  20
049E0:  MOVWF  xCC
049E2:  MOVLW  46
049E4:  MOVWF  xCD
049E6:  MOVLW  6C
049E8:  MOVWF  xCE
049EA:  MOVLW  75
049EC:  MOVWF  xCF
049EE:  MOVLW  6A
049F0:  MOVWF  xD0
049F2:  MOVLW  6F
049F4:  MOVWF  xD1
049F6:  MOVLW  21
049F8:  MOVWF  xD2
049FA:  CLRF   xD3
049FC:  MOVLW  54
049FE:  MOVWF  xD4
04A00:  MOVLW  69
04A02:  MOVWF  xD5
04A04:  MOVLW  6D
04A06:  MOVWF  xD6
04A08:  MOVLW  65
04A0A:  MOVWF  xD7
04A0C:  MOVLW  55
04A0E:  MOVWF  xD8
04A10:  MOVLW  56
04A12:  MOVWF  xD9
04A14:  CLRF   xDA
04A16:  CLRF   xFF
04A18:  MOVLB  5
04A1A:  CLRF   x00
04A1C:  CLRF   x01
04A1E:  CLRF   x02
04A20:  MOVLW  09
04A22:  MOVWF  x03
04A24:  CLRF   x04
04A26:  CLRF   x05
04A28:  CLRF   x06
04A2A:  CLRF   x07
04A2C:  CLRF   x08
04A2E:  CLRF   x09
04A30:  CLRF   x0A
04A32:  MOVWF  x0B
04A34:  CLRF   x0C
04A36:  CLRF   x0D
04A38:  CLRF   x0E
04A3A:  CLRF   x0F
04A3C:  CLRF   x10
04A3E:  CLRF   x11
04A40:  CLRF   x12
04A42:  CLRF   x13
04A44:  CLRF   x14
04A46:  CLRF   x15
04A48:  CLRF   x16
04A4A:  CLRF   x17
04A4C:  CLRF   x18
04A4E:  CLRF   x19
04A50:  CLRF   x1A
04A52:  CLRF   x1B
04A54:  CLRF   x1C
04A56:  CLRF   x1D
04A58:  CLRF   x1E
04A5A:  CLRF   x1F
04A5C:  CLRF   x20
04A5E:  CLRF   x21
04A60:  CLRF   x22
04A62:  CLRF   x23
04A64:  CLRF   x24
04A66:  CLRF   x25
04A68:  CLRF   x26
04A6A:  CLRF   x7B
04A6C:  CLRF   x7C
04A6E:  CLRF   x7D
04A70:  CLRF   x7E
04A72:  CLRF   x7F
04A74:  CLRF   x80
04A76:  CLRF   x81
04A78:  CLRF   x82
04A7A:  CLRF   x83
04A7C:  CLRF   x84
04A7E:  CLRF   x85
04A80:  CLRF   x86
04A82:  CLRF   x87
04A84:  CLRF   x88
04A86:  CLRF   x89
04A88:  CLRF   x8A
04A8A:  CLRF   x8B
04A8C:  CLRF   x8C
04A8E:  CLRF   x8D
04A90:  CLRF   x8E
04A92:  CLRF   x8F
04A94:  CLRF   x90
04A96:  CLRF   x91
04A98:  CLRF   x92
04A9A:  CLRF   x93
04A9C:  CLRF   x94
04A9E:  CLRF   x95
04AA0:  CLRF   x96
04AA2:  CLRF   x97
04AA4:  CLRF   x98
04AA6:  CLRF   x99
04AA8:  CLRF   x9A
04AAA:  CLRF   x9B
04AAC:  CLRF   x9C
04AAE:  CLRF   x9D
04AB0:  CLRF   x9E
04AB2:  CLRF   x9F
04AB4:  CLRF   xA0
04AB6:  CLRF   xA1
04AB8:  CLRF   xA2
04ABA:  CLRF   xA3
04ABC:  CLRF   xA4
04ABE:  CLRF   xA5
04AC0:  CLRF   xA6
04AC2:  CLRF   xA7
04AC4:  CLRF   xA8
04AC6:  CLRF   xA9
04AC8:  CLRF   xAA
04ACA:  CLRF   xAB
04ACC:  CLRF   xAC
04ACE:  CLRF   xAD
04AD0:  CLRF   xAE
04AD2:  CLRF   xAF
04AD4:  CLRF   xB0
04AD6:  CLRF   xB1
04AD8:  CLRF   xB2
04ADA:  CLRF   xB3
04ADC:  CLRF   xB4
04ADE:  CLRF   xB5
04AE0:  CLRF   xB6
04AE2:  CLRF   xB7
04AE4:  CLRF   xB8
04AE6:  CLRF   xB9
04AE8:  CLRF   xBA
04AEA:  MOVLB  6
04AEC:  CLRF   x3F
04AEE:  CLRF   x40
....................  
....................    setup_timer_1(T1_INTERNAL|T1_DIV_BY_1);    
04AF0:  MOVLW  85
04AF2:  MOVWF  FCD
....................    enable_interrupts(INT_TIMER1); 
04AF4:  BSF    F9D.0
....................    setup_adc_ports(AN0_TO_AN2); 
04AF6:  MOVF   FC1,W
04AF8:  ANDLW  C0
04AFA:  IORLW  0C
04AFC:  MOVWF  FC1
....................    setup_adc(ADC_CLOCK_DIV_32 ); 
04AFE:  MOVF   FC0,W
04B00:  ANDLW  C0
04B02:  IORLW  02
04B04:  MOVWF  FC0
04B06:  BSF    FC0.7
04B08:  BSF    FC2.0
....................    enable_interrupts(global);    
04B0A:  MOVLW  C0
04B0C:  IORWF  FF2,F
....................     
....................    LeeEEPROM(); // Lectura de variables almacenadas en la EEPROM 
04B0E:  MOVLB  0
04B10:  GOTO   17CE
....................     
....................    LimitaValores(); 
04B14:  GOTO   209E
....................     
....................    while(true){ 
....................     
....................    glcd_update(); 
04B18:  CALL   2AE8
....................  
.................... //**Actualizacin de Lectura de Sensores**// 
....................    if(Lectura==1){ 
04B1C:  MOVLB  4
04B1E:  BTFSS  x1C.7
04B20:  BRA    4B42
....................       Lectura=0; 
04B22:  BCF    x1C.7
....................       //InFlow=LeerFlujoInFlow(8); 
....................       Filtro_DownFlow=Leer_Sensor_Presion(8); 
04B24:  MOVLW  08
04B26:  MOVLB  6
04B28:  MOVWF  x41
04B2A:  MOVLB  0
04B2C:  CALL   2CD6
04B30:  MOVFF  03,532
04B34:  MOVFF  02,531
04B38:  MOVFF  01,530
04B3C:  MOVFF  00,52F
04B40:  MOVLB  4
....................    } 
.................... //----------------------------------------// 
....................  
.................... //**Contador de Tiempo de Trabajo del filtro**// 
....................    if(minutos_trabajo>=3600){ // Tiempo de Trabajo 
04B42:  MOVF   xFC,W
04B44:  SUBLW  0D
04B46:  BTFSC  FD8.0
04B48:  BRA    4CF0
04B4A:  XORLW  FF
04B4C:  BNZ   4B56
04B4E:  MOVF   xFB,W
04B50:  SUBLW  0F
04B52:  BTFSC  FD8.0
04B54:  BRA    4CF0
....................       minutos_trabajo=0; //Minutos Trabajo realmente son segundos. 
04B56:  CLRF   xFC
04B58:  CLRF   xFB
....................       write_eeprom(33,make8(minutos_trabajo,0)); 
04B5A:  MOVFF  4FB,641
04B5E:  CLRF   FAA
04B60:  MOVLW  21
04B62:  MOVWF  FA9
04B64:  MOVFF  641,FA8
04B68:  BCF    FA6.6
04B6A:  BCF    FA6.7
04B6C:  BSF    FA6.2
04B6E:  MOVF   FF2,W
04B70:  MOVWF  00
04B72:  BCF    FF2.7
04B74:  MOVLB  F
04B76:  MOVLW  55
04B78:  MOVWF  FA7
04B7A:  MOVLW  AA
04B7C:  MOVWF  FA7
04B7E:  BSF    FA6.1
04B80:  BTFSC  FA6.1
04B82:  BRA    4B80
04B84:  BCF    FA6.2
04B86:  MOVF   00,W
04B88:  IORWF  FF2,F
....................       delay_ms(20); 
04B8A:  MOVLW  14
04B8C:  MOVLB  6
04B8E:  MOVWF  x4A
04B90:  MOVLB  0
04B92:  CALL   139A
....................       write_eeprom(34,make8(minutos_trabajo,1)); 
04B96:  MOVFF  4FC,641
04B9A:  CLRF   FAA
04B9C:  MOVLW  22
04B9E:  MOVWF  FA9
04BA0:  MOVFF  641,FA8
04BA4:  BCF    FA6.6
04BA6:  BCF    FA6.7
04BA8:  BSF    FA6.2
04BAA:  MOVF   FF2,W
04BAC:  MOVWF  00
04BAE:  BCF    FF2.7
04BB0:  MOVLB  F
04BB2:  MOVLW  55
04BB4:  MOVWF  FA7
04BB6:  MOVLW  AA
04BB8:  MOVWF  FA7
04BBA:  BSF    FA6.1
04BBC:  BTFSC  FA6.1
04BBE:  BRA    4BBC
04BC0:  BCF    FA6.2
04BC2:  MOVF   00,W
04BC4:  IORWF  FF2,F
....................       delay_ms(20); 
04BC6:  MOVLW  14
04BC8:  MOVLB  6
04BCA:  MOVWF  x4A
04BCC:  MOVLB  0
04BCE:  CALL   139A
....................       Ttrabajo[0]++; 
04BD2:  MOVLB  5
04BD4:  INCF   x1B,F
....................       if(Ttrabajo[0]>9){ 
04BD6:  BTFSC  x1B.7
04BD8:  BRA    4BE4
04BDA:  MOVF   x1B,W
04BDC:  SUBLW  09
04BDE:  BC    4BE4
....................          Ttrabajo[0]=0; 
04BE0:  CLRF   x1B
....................          Ttrabajo[1]++; 
04BE2:  INCF   x1C,F
....................       } 
....................       if(Ttrabajo[1]>9){ 
04BE4:  BTFSC  x1C.7
04BE6:  BRA    4BF2
04BE8:  MOVF   x1C,W
04BEA:  SUBLW  09
04BEC:  BC    4BF2
....................          Ttrabajo[1]=0; 
04BEE:  CLRF   x1C
....................          Ttrabajo[2]++; 
04BF0:  INCF   x1D,F
....................       } 
....................       if(Ttrabajo[2]>9){ 
04BF2:  BTFSC  x1D.7
04BF4:  BRA    4C00
04BF6:  MOVF   x1D,W
04BF8:  SUBLW  09
04BFA:  BC    4C00
....................          Ttrabajo[2]=0; 
04BFC:  CLRF   x1D
....................          Ttrabajo[3]++; 
04BFE:  INCF   x1E,F
....................       } 
....................       if(Ttrabajo[3]>9){ 
04C00:  BTFSC  x1E.7
04C02:  BRA    4C0C
04C04:  MOVF   x1E,W
04C06:  SUBLW  09
04C08:  BC    4C0C
....................          Ttrabajo[3]=0; 
04C0A:  CLRF   x1E
....................       } 
....................       write_eeprom(16,Ttrabajo[0]); 
04C0C:  CLRF   FAA
04C0E:  MOVLW  10
04C10:  MOVWF  FA9
04C12:  MOVFF  51B,FA8
04C16:  BCF    FA6.6
04C18:  BCF    FA6.7
04C1A:  BSF    FA6.2
04C1C:  MOVF   FF2,W
04C1E:  MOVWF  00
04C20:  BCF    FF2.7
04C22:  MOVLB  F
04C24:  MOVLW  55
04C26:  MOVWF  FA7
04C28:  MOVLW  AA
04C2A:  MOVWF  FA7
04C2C:  BSF    FA6.1
04C2E:  BTFSC  FA6.1
04C30:  BRA    4C2E
04C32:  BCF    FA6.2
04C34:  MOVF   00,W
04C36:  IORWF  FF2,F
....................       delay_ms(20); 
04C38:  MOVLW  14
04C3A:  MOVLB  6
04C3C:  MOVWF  x4A
04C3E:  MOVLB  0
04C40:  CALL   139A
....................       write_eeprom(17,Ttrabajo[1]); 
04C44:  CLRF   FAA
04C46:  MOVLW  11
04C48:  MOVWF  FA9
04C4A:  MOVFF  51C,FA8
04C4E:  BCF    FA6.6
04C50:  BCF    FA6.7
04C52:  BSF    FA6.2
04C54:  MOVF   FF2,W
04C56:  MOVWF  00
04C58:  BCF    FF2.7
04C5A:  MOVLB  F
04C5C:  MOVLW  55
04C5E:  MOVWF  FA7
04C60:  MOVLW  AA
04C62:  MOVWF  FA7
04C64:  BSF    FA6.1
04C66:  BTFSC  FA6.1
04C68:  BRA    4C66
04C6A:  BCF    FA6.2
04C6C:  MOVF   00,W
04C6E:  IORWF  FF2,F
....................       delay_ms(20); 
04C70:  MOVLW  14
04C72:  MOVLB  6
04C74:  MOVWF  x4A
04C76:  MOVLB  0
04C78:  CALL   139A
....................       write_eeprom(18,Ttrabajo[2]); 
04C7C:  CLRF   FAA
04C7E:  MOVLW  12
04C80:  MOVWF  FA9
04C82:  MOVFF  51D,FA8
04C86:  BCF    FA6.6
04C88:  BCF    FA6.7
04C8A:  BSF    FA6.2
04C8C:  MOVF   FF2,W
04C8E:  MOVWF  00
04C90:  BCF    FF2.7
04C92:  MOVLB  F
04C94:  MOVLW  55
04C96:  MOVWF  FA7
04C98:  MOVLW  AA
04C9A:  MOVWF  FA7
04C9C:  BSF    FA6.1
04C9E:  BTFSC  FA6.1
04CA0:  BRA    4C9E
04CA2:  BCF    FA6.2
04CA4:  MOVF   00,W
04CA6:  IORWF  FF2,F
....................       delay_ms(20); 
04CA8:  MOVLW  14
04CAA:  MOVLB  6
04CAC:  MOVWF  x4A
04CAE:  MOVLB  0
04CB0:  CALL   139A
....................       write_eeprom(19,Ttrabajo[3]); 
04CB4:  CLRF   FAA
04CB6:  MOVLW  13
04CB8:  MOVWF  FA9
04CBA:  MOVFF  51E,FA8
04CBE:  BCF    FA6.6
04CC0:  BCF    FA6.7
04CC2:  BSF    FA6.2
04CC4:  MOVF   FF2,W
04CC6:  MOVWF  00
04CC8:  BCF    FF2.7
04CCA:  MOVLB  F
04CCC:  MOVLW  55
04CCE:  MOVWF  FA7
04CD0:  MOVLW  AA
04CD2:  MOVWF  FA7
04CD4:  BSF    FA6.1
04CD6:  BTFSC  FA6.1
04CD8:  BRA    4CD6
04CDA:  BCF    FA6.2
04CDC:  MOVF   00,W
04CDE:  IORWF  FF2,F
....................       delay_ms(20); 
04CE0:  MOVLW  14
04CE2:  MOVLB  6
04CE4:  MOVWF  x4A
04CE6:  MOVLB  0
04CE8:  CALL   139A
....................    }else if(minutos_trabajo==900 || minutos_trabajo==1800 || minutos_trabajo==2700 ){ 
04CEC:  BRA    4D8C
04CEE:  MOVLB  4
04CF0:  MOVF   xFB,W
04CF2:  SUBLW  84
04CF4:  BNZ   4CFC
04CF6:  MOVF   xFC,W
04CF8:  SUBLW  03
04CFA:  BZ    4D14
04CFC:  MOVF   xFB,W
04CFE:  SUBLW  08
04D00:  BNZ   4D08
04D02:  MOVF   xFC,W
04D04:  SUBLW  07
04D06:  BZ    4D14
04D08:  MOVF   xFB,W
04D0A:  SUBLW  8C
04D0C:  BNZ   4D8E
04D0E:  MOVF   xFC,W
04D10:  SUBLW  0A
04D12:  BNZ   4D8E
....................       write_eeprom(33,make8(minutos_trabajo,0)); 
04D14:  MOVFF  4FB,641
04D18:  CLRF   FAA
04D1A:  MOVLW  21
04D1C:  MOVWF  FA9
04D1E:  MOVFF  641,FA8
04D22:  BCF    FA6.6
04D24:  BCF    FA6.7
04D26:  BSF    FA6.2
04D28:  MOVF   FF2,W
04D2A:  MOVWF  00
04D2C:  BCF    FF2.7
04D2E:  MOVLB  F
04D30:  MOVLW  55
04D32:  MOVWF  FA7
04D34:  MOVLW  AA
04D36:  MOVWF  FA7
04D38:  BSF    FA6.1
04D3A:  BTFSC  FA6.1
04D3C:  BRA    4D3A
04D3E:  BCF    FA6.2
04D40:  MOVF   00,W
04D42:  IORWF  FF2,F
....................       delay_ms(20); 
04D44:  MOVLW  14
04D46:  MOVLB  6
04D48:  MOVWF  x4A
04D4A:  MOVLB  0
04D4C:  CALL   139A
....................       write_eeprom(34,make8(minutos_trabajo,1)); 
04D50:  MOVFF  4FC,641
04D54:  CLRF   FAA
04D56:  MOVLW  22
04D58:  MOVWF  FA9
04D5A:  MOVFF  641,FA8
04D5E:  BCF    FA6.6
04D60:  BCF    FA6.7
04D62:  BSF    FA6.2
04D64:  MOVF   FF2,W
04D66:  MOVWF  00
04D68:  BCF    FF2.7
04D6A:  MOVLB  F
04D6C:  MOVLW  55
04D6E:  MOVWF  FA7
04D70:  MOVLW  AA
04D72:  MOVWF  FA7
04D74:  BSF    FA6.1
04D76:  BTFSC  FA6.1
04D78:  BRA    4D76
04D7A:  BCF    FA6.2
04D7C:  MOVF   00,W
04D7E:  IORWF  FF2,F
....................       delay_ms(20); 
04D80:  MOVLW  14
04D82:  MOVLB  6
04D84:  MOVWF  x4A
04D86:  MOVLB  0
04D88:  CALL   139A
04D8C:  MOVLB  4
....................    } 
.................... //----------------------------------------// 
....................  
.................... //**Contador de Tiempo de Trabajo de UV**// 
....................          if(segundos_uv>=60){ 
04D8E:  MOVF   xFA,F
04D90:  BNZ   4D98
04D92:  MOVF   xF9,W
04D94:  SUBLW  3B
04D96:  BC    4D9E
....................             segundos_uv=0; 
04D98:  CLRF   xFA
04D9A:  CLRF   xF9
....................             minutos_uv++; 
04D9C:  INCF   xE3,F
....................          } 
....................           
....................          if(minutos_uv>=60){ 
04D9E:  MOVF   xE3,W
04DA0:  SUBLW  3B
04DA2:  BTFSC  FD8.0
04DA4:  BRA    4EFE
....................             minutos_uv=0; 
04DA6:  CLRF   xE3
....................             Tuv[0]++; 
04DA8:  MOVLB  5
04DAA:  INCF   x0F,F
....................             if(Tuv[0]>9){ 
04DAC:  BTFSC  x0F.7
04DAE:  BRA    4DBA
04DB0:  MOVF   x0F,W
04DB2:  SUBLW  09
04DB4:  BC    4DBA
....................                Tuv[0]=0; 
04DB6:  CLRF   x0F
....................                Tuv[1]++; 
04DB8:  INCF   x10,F
....................             } 
....................             if(Tuv[1]>9){ 
04DBA:  BTFSC  x10.7
04DBC:  BRA    4DC8
04DBE:  MOVF   x10,W
04DC0:  SUBLW  09
04DC2:  BC    4DC8
....................                Tuv[1]=0; 
04DC4:  CLRF   x10
....................                Tuv[2]++; 
04DC6:  INCF   x11,F
....................             } 
....................             if(Tuv[2]>9){ 
04DC8:  BTFSC  x11.7
04DCA:  BRA    4DD6
04DCC:  MOVF   x11,W
04DCE:  SUBLW  09
04DD0:  BC    4DD6
....................                Tuv[2]=0; 
04DD2:  CLRF   x11
....................                Tuv[3]++; 
04DD4:  INCF   x12,F
....................             } 
....................             if(Tuv[3]>9){ 
04DD6:  BTFSC  x12.7
04DD8:  BRA    4DE2
04DDA:  MOVF   x12,W
04DDC:  SUBLW  09
04DDE:  BC    4DE2
....................                Tuv[3]=0; 
04DE0:  CLRF   x12
....................             } 
....................             write_eeprom(31,minutos_uv); 
04DE2:  CLRF   FAA
04DE4:  MOVLW  1F
04DE6:  MOVWF  FA9
04DE8:  MOVFF  4E3,FA8
04DEC:  BCF    FA6.6
04DEE:  BCF    FA6.7
04DF0:  BSF    FA6.2
04DF2:  MOVF   FF2,W
04DF4:  MOVWF  00
04DF6:  BCF    FF2.7
04DF8:  MOVLB  F
04DFA:  MOVLW  55
04DFC:  MOVWF  FA7
04DFE:  MOVLW  AA
04E00:  MOVWF  FA7
04E02:  BSF    FA6.1
04E04:  BTFSC  FA6.1
04E06:  BRA    4E04
04E08:  BCF    FA6.2
04E0A:  MOVF   00,W
04E0C:  IORWF  FF2,F
....................             delay_ms(20); 
04E0E:  MOVLW  14
04E10:  MOVLB  6
04E12:  MOVWF  x4A
04E14:  MOVLB  0
04E16:  CALL   139A
....................             write_eeprom(12,Tuv[0]); 
04E1A:  CLRF   FAA
04E1C:  MOVLW  0C
04E1E:  MOVWF  FA9
04E20:  MOVFF  50F,FA8
04E24:  BCF    FA6.6
04E26:  BCF    FA6.7
04E28:  BSF    FA6.2
04E2A:  MOVF   FF2,W
04E2C:  MOVWF  00
04E2E:  BCF    FF2.7
04E30:  MOVLB  F
04E32:  MOVLW  55
04E34:  MOVWF  FA7
04E36:  MOVLW  AA
04E38:  MOVWF  FA7
04E3A:  BSF    FA6.1
04E3C:  BTFSC  FA6.1
04E3E:  BRA    4E3C
04E40:  BCF    FA6.2
04E42:  MOVF   00,W
04E44:  IORWF  FF2,F
....................             delay_ms(20); 
04E46:  MOVLW  14
04E48:  MOVLB  6
04E4A:  MOVWF  x4A
04E4C:  MOVLB  0
04E4E:  CALL   139A
....................             write_eeprom(13,Tuv[1]); 
04E52:  CLRF   FAA
04E54:  MOVLW  0D
04E56:  MOVWF  FA9
04E58:  MOVFF  510,FA8
04E5C:  BCF    FA6.6
04E5E:  BCF    FA6.7
04E60:  BSF    FA6.2
04E62:  MOVF   FF2,W
04E64:  MOVWF  00
04E66:  BCF    FF2.7
04E68:  MOVLB  F
04E6A:  MOVLW  55
04E6C:  MOVWF  FA7
04E6E:  MOVLW  AA
04E70:  MOVWF  FA7
04E72:  BSF    FA6.1
04E74:  BTFSC  FA6.1
04E76:  BRA    4E74
04E78:  BCF    FA6.2
04E7A:  MOVF   00,W
04E7C:  IORWF  FF2,F
....................             delay_ms(20); 
04E7E:  MOVLW  14
04E80:  MOVLB  6
04E82:  MOVWF  x4A
04E84:  MOVLB  0
04E86:  CALL   139A
....................             write_eeprom(14,Tuv[2]); 
04E8A:  CLRF   FAA
04E8C:  MOVLW  0E
04E8E:  MOVWF  FA9
04E90:  MOVFF  511,FA8
04E94:  BCF    FA6.6
04E96:  BCF    FA6.7
04E98:  BSF    FA6.2
04E9A:  MOVF   FF2,W
04E9C:  MOVWF  00
04E9E:  BCF    FF2.7
04EA0:  MOVLB  F
04EA2:  MOVLW  55
04EA4:  MOVWF  FA7
04EA6:  MOVLW  AA
04EA8:  MOVWF  FA7
04EAA:  BSF    FA6.1
04EAC:  BTFSC  FA6.1
04EAE:  BRA    4EAC
04EB0:  BCF    FA6.2
04EB2:  MOVF   00,W
04EB4:  IORWF  FF2,F
....................             delay_ms(20); 
04EB6:  MOVLW  14
04EB8:  MOVLB  6
04EBA:  MOVWF  x4A
04EBC:  MOVLB  0
04EBE:  CALL   139A
....................             write_eeprom(15,Tuv[3]); 
04EC2:  CLRF   FAA
04EC4:  MOVLW  0F
04EC6:  MOVWF  FA9
04EC8:  MOVFF  512,FA8
04ECC:  BCF    FA6.6
04ECE:  BCF    FA6.7
04ED0:  BSF    FA6.2
04ED2:  MOVF   FF2,W
04ED4:  MOVWF  00
04ED6:  BCF    FF2.7
04ED8:  MOVLB  F
04EDA:  MOVLW  55
04EDC:  MOVWF  FA7
04EDE:  MOVLW  AA
04EE0:  MOVWF  FA7
04EE2:  BSF    FA6.1
04EE4:  BTFSC  FA6.1
04EE6:  BRA    4EE4
04EE8:  BCF    FA6.2
04EEA:  MOVF   00,W
04EEC:  IORWF  FF2,F
....................             delay_ms(20); 
04EEE:  MOVLW  14
04EF0:  MOVLB  6
04EF2:  MOVWF  x4A
04EF4:  MOVLB  0
04EF6:  CALL   139A
....................          }else if(minutos_uv==15 || minutos_uv==30 || minutos_uv==45){ 
04EFA:  BRA    4F48
04EFC:  MOVLB  4
04EFE:  MOVF   xE3,W
04F00:  SUBLW  0F
04F02:  BZ    4F10
04F04:  MOVF   xE3,W
04F06:  SUBLW  1E
04F08:  BZ    4F10
04F0A:  MOVF   xE3,W
04F0C:  SUBLW  2D
04F0E:  BNZ   4F4A
....................             write_eeprom(31,minutos_uv); 
04F10:  CLRF   FAA
04F12:  MOVLW  1F
04F14:  MOVWF  FA9
04F16:  MOVFF  4E3,FA8
04F1A:  BCF    FA6.6
04F1C:  BCF    FA6.7
04F1E:  BSF    FA6.2
04F20:  MOVF   FF2,W
04F22:  MOVWF  00
04F24:  BCF    FF2.7
04F26:  MOVLB  F
04F28:  MOVLW  55
04F2A:  MOVWF  FA7
04F2C:  MOVLW  AA
04F2E:  MOVWF  FA7
04F30:  BSF    FA6.1
04F32:  BTFSC  FA6.1
04F34:  BRA    4F32
04F36:  BCF    FA6.2
04F38:  MOVF   00,W
04F3A:  IORWF  FF2,F
....................             delay_ms(20); 
04F3C:  MOVLW  14
04F3E:  MOVLB  6
04F40:  MOVWF  x4A
04F42:  MOVLB  0
04F44:  CALL   139A
04F48:  MOVLB  4
....................          } 
.................... //----------------------------------------// 
....................  
....................    if(Menu!=2){ // Si no esta en el menu de estados apaga la alarma 
04F4A:  MOVF   xDB,W
04F4C:  SUBLW  02
04F4E:  BZ    4F58
....................       Alarma_off; 
04F50:  BCF    F8B.2
04F52:  BCF    F94.2
....................       Alarma=10; 
04F54:  MOVLW  0A
04F56:  MOVWF  xEC
....................    } 
.................... //_-------------------------------------------------------------------------------------------------------------------------------------------------------- 
....................    if(Menu==0){ //Menu de Contrasea. 
04F58:  MOVF   xDB,F
04F5A:  BNZ   4F7E
....................       PidePassword(0,0,1,Password[0],Password[1],Password[2],Password[3]); 
04F5C:  MOVLB  6
04F5E:  CLRF   x42
04F60:  CLRF   x43
04F62:  MOVLW  01
04F64:  MOVWF  x44
04F66:  MOVFF  523,645
04F6A:  MOVFF  524,646
04F6E:  MOVFF  525,647
04F72:  MOVFF  526,648
04F76:  MOVLB  0
04F78:  CALL   3648
04F7C:  MOVLB  4
....................    } 
.................... //_--------------------------------------------------------------------------------------------------------------------------------------------------------        
....................  
.................... //_-------------------------------------------------------------------------------------------------------------------------------------------------------- 
....................       if(Menu==1)//Menu de Purga. 
04F7E:  DECFSZ xDB,W
04F80:  BRA    510A
....................       {  
....................          glcd_text57(15, 1, Tiempo, 1, ON); 
04F82:  MOVLW  0F
04F84:  MOVLB  6
04F86:  MOVWF  x5A
04F88:  MOVLW  01
04F8A:  MOVWF  x5B
04F8C:  MOVLW  04
04F8E:  MOVWF  x5D
04F90:  MOVLW  53
04F92:  MOVWF  x5C
04F94:  MOVLW  01
04F96:  MOVWF  x5E
04F98:  MOVWF  x5F
04F9A:  MOVLB  0
04F9C:  CALL   32B4
....................          tiempo_purga=1;LuzBlanca_off;LuzUV_off;Toma_off;Alarma_off;VelocidadMotor(VelMotor); 
04FA0:  MOVLB  4
04FA2:  BSF    x1B.7
04FA4:  BCF    F8B.4
04FA6:  BCF    F94.4
04FA8:  BCF    F8B.5
04FAA:  BCF    F94.5
04FAC:  BCF    F8B.7
04FAE:  BCF    F94.7
04FB0:  BCF    F8B.2
04FB2:  BCF    F94.2
04FB4:  MOVFF  4F0,641
04FB8:  MOVLB  0
04FBA:  CALL   3D2E
....................          glcd_rect(9, 54, 120, 64, YES, OFF); 
04FBE:  MOVLW  09
04FC0:  MOVLB  6
04FC2:  MOVWF  x5A
04FC4:  MOVLW  36
04FC6:  MOVWF  x5B
04FC8:  MOVLW  78
04FCA:  MOVWF  x5C
04FCC:  MOVLW  40
04FCE:  MOVWF  x5D
04FD0:  MOVLW  01
04FD2:  MOVWF  x5E
04FD4:  CLRF   x5F
04FD6:  MOVLB  0
04FD8:  CALL   31F2
....................           
....................          displayTiempo(Tpurga[3],20,20,0,2);displayTiempo(Tpurga[2],40,20,0,2);glcd_text57(60, 22, Dos_puntos, 2, ON); 
04FDC:  MOVFF  502,641
04FE0:  MOVLW  14
04FE2:  MOVLB  6
04FE4:  MOVWF  x42
04FE6:  MOVWF  x43
04FE8:  CLRF   x44
04FEA:  MOVLW  02
04FEC:  MOVWF  x45
04FEE:  MOVLB  0
04FF0:  CALL   3D46
04FF4:  MOVFF  501,641
04FF8:  MOVLW  28
04FFA:  MOVLB  6
04FFC:  MOVWF  x42
04FFE:  MOVLW  14
05000:  MOVWF  x43
05002:  CLRF   x44
05004:  MOVLW  02
05006:  MOVWF  x45
05008:  MOVLB  0
0500A:  CALL   3D46
0500E:  MOVLW  3C
05010:  MOVLB  6
05012:  MOVWF  x5A
05014:  MOVLW  16
05016:  MOVWF  x5B
05018:  MOVLW  04
0501A:  MOVWF  x5D
0501C:  MOVLW  46
0501E:  MOVWF  x5C
05020:  MOVLW  02
05022:  MOVWF  x5E
05024:  MOVLW  01
05026:  MOVWF  x5F
05028:  MOVLB  0
0502A:  CALL   32B4
....................          displayTiempo(Tpurga[1],70,20,0,2);displayTiempo(Tpurga[0],90,20,0,2);         
0502E:  MOVFF  500,641
05032:  MOVLW  46
05034:  MOVLB  6
05036:  MOVWF  x42
05038:  MOVLW  14
0503A:  MOVWF  x43
0503C:  CLRF   x44
0503E:  MOVLW  02
05040:  MOVWF  x45
05042:  MOVLB  0
05044:  CALL   3D46
05048:  MOVFF  4FF,641
0504C:  MOVLW  5A
0504E:  MOVLB  6
05050:  MOVWF  x42
05052:  MOVLW  14
05054:  MOVWF  x43
05056:  CLRF   x44
05058:  MOVLW  02
0505A:  MOVWF  x45
0505C:  MOVLB  0
0505E:  CALL   3D46
....................        
....................          if(RIGHT){ // Modo de saltarse el tiempo de purga. 
05062:  BSF    F94.0
05064:  BTFSS  F82.0
05066:  BRA    5096
....................             delay_ms(1000); 
05068:  MOVLW  04
0506A:  MOVLB  6
0506C:  MOVWF  x41
0506E:  MOVLW  FA
05070:  MOVWF  x4A
05072:  MOVLB  0
05074:  CALL   139A
05078:  MOVLB  6
0507A:  DECFSZ x41,F
0507C:  BRA    506E
....................             if(RIGHT){ 
0507E:  BSF    F94.0
05080:  BTFSS  F82.0
05082:  BRA    5098
....................                tiempo_purga=0;Menu=2;glcd_fillScreen(OFF); 
05084:  MOVLB  4
05086:  BCF    x1B.7
05088:  MOVLW  02
0508A:  MOVWF  xDB
0508C:  MOVLB  6
0508E:  CLRF   x49
05090:  MOVLB  0
05092:  CALL   35EE
05096:  MOVLB  6
....................             } 
....................          } 
....................         
....................          if((Tpurga[0]>=Tpurgap[0])&&(Tpurga[1]>=Tpurgap[1])&&(Tpurga[2]>=Tpurgap[2])&&(Tpurga[3]>=Tpurgap[3])){//Si cumplio el tiempo 
05098:  MOVLB  5
0509A:  MOVF   x03,W
0509C:  XORLW  80
0509E:  MOVWF  00
050A0:  MOVLB  4
050A2:  MOVF   xFF,W
050A4:  XORLW  80
050A6:  SUBWF  00,W
050A8:  BZ    50AC
050AA:  BC    510A
050AC:  MOVLB  5
050AE:  MOVF   x04,W
050B0:  XORLW  80
050B2:  MOVWF  00
050B4:  MOVF   x00,W
050B6:  XORLW  80
050B8:  SUBWF  00,W
050BA:  BZ    50C4
050BC:  BTFSS  FD8.0
050BE:  BRA    50C4
050C0:  MOVLB  4
050C2:  BRA    510A
050C4:  MOVF   x05,W
050C6:  XORLW  80
050C8:  MOVWF  00
050CA:  MOVF   x01,W
050CC:  XORLW  80
050CE:  SUBWF  00,W
050D0:  BZ    50DA
050D2:  BTFSS  FD8.0
050D4:  BRA    50DA
050D6:  MOVLB  4
050D8:  BRA    510A
050DA:  MOVF   x06,W
050DC:  XORLW  80
050DE:  MOVWF  00
050E0:  MOVF   x02,W
050E2:  XORLW  80
050E4:  SUBWF  00,W
050E6:  BZ    50F0
050E8:  BTFSS  FD8.0
050EA:  BRA    50F0
050EC:  MOVLB  4
050EE:  BRA    510A
....................             tiempo_purga=0;Menu=2;glcd_fillScreen(OFF);flag_luz=!flag_luz;flag_blower=1;flag_toma=1; 
050F0:  MOVLB  4
050F2:  BCF    x1B.7
050F4:  MOVLW  02
050F6:  MOVWF  xDB
050F8:  MOVLB  6
050FA:  CLRF   x49
050FC:  MOVLB  0
050FE:  CALL   35EE
05102:  MOVLB  4
05104:  BTG    x1B.3
05106:  BSF    x1B.1
05108:  BSF    x1B.2
....................          }       
....................       } 
.................... //_--------------------------------------------------------------------------------------------------------------------------------------------------------        
....................  
.................... //_-------------------------------------------------------------------------------------------------------------------------------------------------------- 
....................       if(Menu==2) //Menu General. 
0510A:  MOVF   xDB,W
0510C:  SUBLW  02
0510E:  BTFSS  FD8.2
05110:  GOTO   5DEC
....................       {          
....................          w=0; 
05114:  BCF    x1B.5
....................          glcd_text57(0, 1, Downflowt, 1, ON); 
05116:  MOVLB  6
05118:  CLRF   x5A
0511A:  MOVLW  01
0511C:  MOVWF  x5B
0511E:  MOVLW  04
05120:  MOVWF  x5D
05122:  MOVLW  81
05124:  MOVWF  x5C
05126:  MOVLW  01
05128:  MOVWF  x5E
0512A:  MOVWF  x5F
0512C:  MOVLB  0
0512E:  CALL   32B4
....................          glcd_text57(0, 15, Inflowt, 1, ON); 
05132:  MOVLB  6
05134:  CLRF   x5A
05136:  MOVLW  0F
05138:  MOVWF  x5B
0513A:  MOVLW  04
0513C:  MOVWF  x5D
0513E:  MOVLW  78
05140:  MOVWF  x5C
05142:  MOVLW  01
05144:  MOVWF  x5E
05146:  MOVWF  x5F
05148:  MOVLB  0
0514A:  CALL   32B4
....................          glcd_text57(0, 29, Vida_Filtro, 1, ON); 
0514E:  MOVLB  6
05150:  CLRF   x5A
05152:  MOVLW  1D
05154:  MOVWF  x5B
05156:  MOVLW  04
05158:  MOVWF  x5D
0515A:  MOVLW  AE
0515C:  MOVWF  x5C
0515E:  MOVLW  01
05160:  MOVWF  x5E
05162:  MOVWF  x5F
05164:  MOVLB  0
05166:  CALL   32B4
....................          glcd_text57(0, 43, Vida_UV, 1, ON); 
0516A:  MOVLB  6
0516C:  CLRF   x5A
0516E:  MOVLW  2B
05170:  MOVWF  x5B
05172:  MOVLW  04
05174:  MOVWF  x5D
05176:  MOVLW  A6
05178:  MOVWF  x5C
0517A:  MOVLW  01
0517C:  MOVWF  x5E
0517E:  MOVWF  x5F
05180:  MOVLB  0
05182:  CALL   32B4
....................          glcd_text57(0, 55, TimeUV, 1, ON); 
05186:  MOVLB  6
05188:  CLRF   x5A
0518A:  MOVLW  37
0518C:  MOVWF  x5B
0518E:  MOVLW  04
05190:  MOVWF  x5D
05192:  MOVLW  D4
05194:  MOVWF  x5C
05196:  MOVLW  01
05198:  MOVWF  x5E
0519A:  MOVWF  x5F
0519C:  MOVLB  0
0519E:  CALL   32B4
....................          UVTime=Tuv[0]+(Tuv[1]*10)+(Tuv[2]*100)+(Tuv[3]*1000);  
051A2:  MOVFF  510,642
051A6:  MOVLW  0A
051A8:  MOVLB  6
051AA:  MOVWF  x43
051AC:  MOVLB  0
051AE:  CALL   3E1E
051B2:  MOVF   01,W
051B4:  MOVLB  5
051B6:  ADDWF  x0F,W
051B8:  MOVLB  6
051BA:  MOVWF  x41
051BC:  MOVFF  511,642
051C0:  MOVLW  64
051C2:  MOVWF  x43
051C4:  MOVLB  0
051C6:  CALL   3E1E
051CA:  MOVF   01,W
051CC:  MOVLB  6
051CE:  ADDWF  x41,F
051D0:  CLRF   03
051D2:  MOVLB  5
051D4:  MOVF   x12,W
051D6:  MOVWF  00
051D8:  BTFSC  FE8.7
051DA:  DECF   03,F
051DC:  MOVLB  6
051DE:  MOVWF  x42
051E0:  MOVFF  03,643
051E4:  MOVFF  03,645
051E8:  MOVWF  x44
051EA:  MOVLW  03
051EC:  MOVWF  x47
051EE:  MOVLW  E8
051F0:  MOVWF  x46
051F2:  MOVLB  0
051F4:  GOTO   3E6C
051F8:  MOVFF  02,03
051FC:  MOVF   01,W
051FE:  MOVLB  6
05200:  ADDWF  x41,W
05202:  MOVWF  01
05204:  MOVLW  00
05206:  ADDWFC 03,F
05208:  MOVFF  01,641
0520C:  MOVFF  03,642
05210:  MOVLB  0
05212:  GOTO   3EC2
05216:  MOVFF  03,5D6
0521A:  MOVFF  02,5D5
0521E:  MOVFF  01,5D4
05222:  MOVFF  00,5D3
....................          displayTiempo(Tempouv[3],40,55,0,1); 
05226:  MOVFF  516,641
0522A:  MOVLW  28
0522C:  MOVLB  6
0522E:  MOVWF  x42
05230:  MOVLW  37
05232:  MOVWF  x43
05234:  CLRF   x44
05236:  MOVLW  01
05238:  MOVWF  x45
0523A:  MOVLB  0
0523C:  CALL   3D46
....................          displayTiempo(Tempouv[2],47,55,0,1); 
05240:  MOVFF  515,641
05244:  MOVLW  2F
05246:  MOVLB  6
05248:  MOVWF  x42
0524A:  MOVLW  37
0524C:  MOVWF  x43
0524E:  CLRF   x44
05250:  MOVLW  01
05252:  MOVWF  x45
05254:  MOVLB  0
05256:  CALL   3D46
....................          glcd_text57(54, 56, Dos_puntos, 1, ON); 
0525A:  MOVLW  36
0525C:  MOVLB  6
0525E:  MOVWF  x5A
05260:  MOVLW  38
05262:  MOVWF  x5B
05264:  MOVLW  04
05266:  MOVWF  x5D
05268:  MOVLW  46
0526A:  MOVWF  x5C
0526C:  MOVLW  01
0526E:  MOVWF  x5E
05270:  MOVWF  x5F
05272:  MOVLB  0
05274:  CALL   32B4
....................          displayTiempo(Tempouv[1],57,55,0,1); 
05278:  MOVFF  514,641
0527C:  MOVLW  39
0527E:  MOVLB  6
05280:  MOVWF  x42
05282:  MOVLW  37
05284:  MOVWF  x43
05286:  CLRF   x44
05288:  MOVLW  01
0528A:  MOVWF  x45
0528C:  MOVLB  0
0528E:  CALL   3D46
....................          displayTiempo(Tempouv[0],64,55,0,1); 
05292:  MOVFF  513,641
05296:  MOVLW  40
05298:  MOVLB  6
0529A:  MOVWF  x42
0529C:  MOVLW  37
0529E:  MOVWF  x43
052A0:  CLRF   x44
052A2:  MOVLW  01
052A4:  MOVWF  x45
052A6:  MOVLB  0
052A8:  CALL   3D46
....................           
....................          if(imprimir==1){ 
052AC:  MOVLB  4
052AE:  BTFSS  x1A.7
052B0:  BRA    52F8
....................             displayfloat(Leer_Sensor_Presion(8),70,15,0,1); 
052B2:  MOVLW  08
052B4:  MOVLB  6
052B6:  MOVWF  x41
052B8:  MOVLB  0
052BA:  CALL   2CD6
052BE:  MOVFF  00,641
052C2:  MOVFF  01,642
052C6:  MOVFF  02,643
052CA:  MOVFF  03,644
052CE:  MOVFF  03,648
052D2:  MOVFF  02,647
052D6:  MOVFF  01,646
052DA:  MOVFF  00,645
052DE:  MOVLW  46
052E0:  MOVLB  6
052E2:  MOVWF  x49
052E4:  MOVLW  0F
052E6:  MOVWF  x4A
052E8:  CLRF   x4B
052EA:  MOVLW  01
052EC:  MOVWF  x4C
052EE:  MOVLB  0
052F0:  CALL   418E
....................             imprimir=0; 
052F4:  MOVLB  4
052F6:  BCF    x1A.7
....................          } 
....................           
....................          if(flag_blower==1){ 
052F8:  BTFSS  x1B.1
052FA:  BRA    54A8
....................             glcd_imagen(5);tiempo_trabajo=1;VelocidadMotor(VelMotor); 
052FC:  MOVLW  05
052FE:  MOVLB  6
05300:  MOVWF  x41
05302:  MOVLB  0
05304:  CALL   4296
05308:  MOVLB  4
0530A:  BSF    x1C.1
0530C:  MOVFF  4F0,641
05310:  MOVLB  0
05312:  CALL   3D2E
....................             if(guardatrabajo==1){ 
05316:  MOVLB  4
05318:  BTFSS  x1C.6
0531A:  BRA    54A6
....................                guardatrabajo=0; 
0531C:  BCF    x1C.6
....................                write_eeprom(33,make8(minutos_trabajo,0)); 
0531E:  MOVFF  4FB,641
05322:  CLRF   FAA
05324:  MOVLW  21
05326:  MOVWF  FA9
05328:  MOVFF  641,FA8
0532C:  BCF    FA6.6
0532E:  BCF    FA6.7
05330:  BSF    FA6.2
05332:  MOVF   FF2,W
05334:  MOVWF  00
05336:  BCF    FF2.7
05338:  MOVLB  F
0533A:  MOVLW  55
0533C:  MOVWF  FA7
0533E:  MOVLW  AA
05340:  MOVWF  FA7
05342:  BSF    FA6.1
05344:  BTFSC  FA6.1
05346:  BRA    5344
05348:  BCF    FA6.2
0534A:  MOVF   00,W
0534C:  IORWF  FF2,F
....................                delay_ms(20); 
0534E:  MOVLW  14
05350:  MOVLB  6
05352:  MOVWF  x4A
05354:  MOVLB  0
05356:  CALL   139A
....................                write_eeprom(34,make8(minutos_trabajo,1)); 
0535A:  MOVFF  4FC,641
0535E:  CLRF   FAA
05360:  MOVLW  22
05362:  MOVWF  FA9
05364:  MOVFF  641,FA8
05368:  BCF    FA6.6
0536A:  BCF    FA6.7
0536C:  BSF    FA6.2
0536E:  MOVF   FF2,W
05370:  MOVWF  00
05372:  BCF    FF2.7
05374:  MOVLB  F
05376:  MOVLW  55
05378:  MOVWF  FA7
0537A:  MOVLW  AA
0537C:  MOVWF  FA7
0537E:  BSF    FA6.1
05380:  BTFSC  FA6.1
05382:  BRA    5380
05384:  BCF    FA6.2
05386:  MOVF   00,W
05388:  IORWF  FF2,F
....................                delay_ms(20); 
0538A:  MOVLW  14
0538C:  MOVLB  6
0538E:  MOVWF  x4A
05390:  MOVLB  0
05392:  CALL   139A
....................                write_eeprom(16,Ttrabajo[0]); 
05396:  CLRF   FAA
05398:  MOVLW  10
0539A:  MOVWF  FA9
0539C:  MOVFF  51B,FA8
053A0:  BCF    FA6.6
053A2:  BCF    FA6.7
053A4:  BSF    FA6.2
053A6:  MOVF   FF2,W
053A8:  MOVWF  00
053AA:  BCF    FF2.7
053AC:  MOVLB  F
053AE:  MOVLW  55
053B0:  MOVWF  FA7
053B2:  MOVLW  AA
053B4:  MOVWF  FA7
053B6:  BSF    FA6.1
053B8:  BTFSC  FA6.1
053BA:  BRA    53B8
053BC:  BCF    FA6.2
053BE:  MOVF   00,W
053C0:  IORWF  FF2,F
....................                delay_ms(20); 
053C2:  MOVLW  14
053C4:  MOVLB  6
053C6:  MOVWF  x4A
053C8:  MOVLB  0
053CA:  CALL   139A
....................                write_eeprom(17,Ttrabajo[1]); 
053CE:  CLRF   FAA
053D0:  MOVLW  11
053D2:  MOVWF  FA9
053D4:  MOVFF  51C,FA8
053D8:  BCF    FA6.6
053DA:  BCF    FA6.7
053DC:  BSF    FA6.2
053DE:  MOVF   FF2,W
053E0:  MOVWF  00
053E2:  BCF    FF2.7
053E4:  MOVLB  F
053E6:  MOVLW  55
053E8:  MOVWF  FA7
053EA:  MOVLW  AA
053EC:  MOVWF  FA7
053EE:  BSF    FA6.1
053F0:  BTFSC  FA6.1
053F2:  BRA    53F0
053F4:  BCF    FA6.2
053F6:  MOVF   00,W
053F8:  IORWF  FF2,F
....................                delay_ms(20); 
053FA:  MOVLW  14
053FC:  MOVLB  6
053FE:  MOVWF  x4A
05400:  MOVLB  0
05402:  CALL   139A
....................                write_eeprom(18,Ttrabajo[2]); 
05406:  CLRF   FAA
05408:  MOVLW  12
0540A:  MOVWF  FA9
0540C:  MOVFF  51D,FA8
05410:  BCF    FA6.6
05412:  BCF    FA6.7
05414:  BSF    FA6.2
05416:  MOVF   FF2,W
05418:  MOVWF  00
0541A:  BCF    FF2.7
0541C:  MOVLB  F
0541E:  MOVLW  55
05420:  MOVWF  FA7
05422:  MOVLW  AA
05424:  MOVWF  FA7
05426:  BSF    FA6.1
05428:  BTFSC  FA6.1
0542A:  BRA    5428
0542C:  BCF    FA6.2
0542E:  MOVF   00,W
05430:  IORWF  FF2,F
....................                delay_ms(20); 
05432:  MOVLW  14
05434:  MOVLB  6
05436:  MOVWF  x4A
05438:  MOVLB  0
0543A:  CALL   139A
....................                write_eeprom(19,Ttrabajo[3]); 
0543E:  CLRF   FAA
05440:  MOVLW  13
05442:  MOVWF  FA9
05444:  MOVFF  51E,FA8
05448:  BCF    FA6.6
0544A:  BCF    FA6.7
0544C:  BSF    FA6.2
0544E:  MOVF   FF2,W
05450:  MOVWF  00
05452:  BCF    FF2.7
05454:  MOVLB  F
05456:  MOVLW  55
05458:  MOVWF  FA7
0545A:  MOVLW  AA
0545C:  MOVWF  FA7
0545E:  BSF    FA6.1
05460:  BTFSC  FA6.1
05462:  BRA    5460
05464:  BCF    FA6.2
05466:  MOVF   00,W
05468:  IORWF  FF2,F
....................                delay_ms(20); 
0546A:  MOVLW  14
0546C:  MOVLB  6
0546E:  MOVWF  x4A
05470:  MOVLB  0
05472:  CALL   139A
....................                delay_ms(500); 
05476:  MOVLW  02
05478:  MOVLB  6
0547A:  MOVWF  x41
0547C:  MOVLW  FA
0547E:  MOVWF  x4A
05480:  MOVLB  0
05482:  CALL   139A
05486:  MOVLB  6
05488:  DECFSZ x41,F
0548A:  BRA    547C
....................                glcd_init(ON);             //Inicializa la glcd 
0548C:  MOVLW  01
0548E:  MOVWF  x41
05490:  MOVLB  0
05492:  CALL   4494
....................                glcd_fillScreen(OFF);      //Limpia la pantalla 
05496:  MOVLB  6
05498:  CLRF   x49
0549A:  MOVLB  0
0549C:  CALL   35EE
....................                glcd_update();  
054A0:  CALL   2AE8
054A4:  MOVLB  4
....................             } 
....................          }else{ 
054A6:  BRA    566E
....................             Filtro_Downflow=0; 
054A8:  MOVLB  5
054AA:  CLRF   x32
054AC:  CLRF   x31
054AE:  CLRF   x30
054B0:  CLRF   x2F
....................             glcd_rect(102, 45, 127, 64, YES, OFF);tiempo_trabajo=0;VelocidadMotor(0); 
054B2:  MOVLW  66
054B4:  MOVLB  6
054B6:  MOVWF  x5A
054B8:  MOVLW  2D
054BA:  MOVWF  x5B
054BC:  MOVLW  7F
054BE:  MOVWF  x5C
054C0:  MOVLW  40
054C2:  MOVWF  x5D
054C4:  MOVLW  01
054C6:  MOVWF  x5E
054C8:  CLRF   x5F
054CA:  MOVLB  0
054CC:  CALL   31F2
054D0:  MOVLB  4
054D2:  BCF    x1C.1
054D4:  MOVLB  6
054D6:  CLRF   x41
054D8:  MOVLB  0
054DA:  CALL   3D2E
....................             if(guardatrabajo==0){ 
054DE:  MOVLB  4
054E0:  BTFSC  x1C.6
054E2:  BRA    566E
....................                guardatrabajo=1; 
054E4:  BSF    x1C.6
....................                write_eeprom(33,make8(minutos_trabajo,0)); 
054E6:  MOVFF  4FB,641
054EA:  CLRF   FAA
054EC:  MOVLW  21
054EE:  MOVWF  FA9
054F0:  MOVFF  641,FA8
054F4:  BCF    FA6.6
054F6:  BCF    FA6.7
054F8:  BSF    FA6.2
054FA:  MOVF   FF2,W
054FC:  MOVWF  00
054FE:  BCF    FF2.7
05500:  MOVLB  F
05502:  MOVLW  55
05504:  MOVWF  FA7
05506:  MOVLW  AA
05508:  MOVWF  FA7
0550A:  BSF    FA6.1
0550C:  BTFSC  FA6.1
0550E:  BRA    550C
05510:  BCF    FA6.2
05512:  MOVF   00,W
05514:  IORWF  FF2,F
....................                delay_ms(20); 
05516:  MOVLW  14
05518:  MOVLB  6
0551A:  MOVWF  x4A
0551C:  MOVLB  0
0551E:  CALL   139A
....................                write_eeprom(34,make8(minutos_trabajo,1)); 
05522:  MOVFF  4FC,641
05526:  CLRF   FAA
05528:  MOVLW  22
0552A:  MOVWF  FA9
0552C:  MOVFF  641,FA8
05530:  BCF    FA6.6
05532:  BCF    FA6.7
05534:  BSF    FA6.2
05536:  MOVF   FF2,W
05538:  MOVWF  00
0553A:  BCF    FF2.7
0553C:  MOVLB  F
0553E:  MOVLW  55
05540:  MOVWF  FA7
05542:  MOVLW  AA
05544:  MOVWF  FA7
05546:  BSF    FA6.1
05548:  BTFSC  FA6.1
0554A:  BRA    5548
0554C:  BCF    FA6.2
0554E:  MOVF   00,W
05550:  IORWF  FF2,F
....................                delay_ms(20); 
05552:  MOVLW  14
05554:  MOVLB  6
05556:  MOVWF  x4A
05558:  MOVLB  0
0555A:  CALL   139A
....................                write_eeprom(16,Ttrabajo[0]); 
0555E:  CLRF   FAA
05560:  MOVLW  10
05562:  MOVWF  FA9
05564:  MOVFF  51B,FA8
05568:  BCF    FA6.6
0556A:  BCF    FA6.7
0556C:  BSF    FA6.2
0556E:  MOVF   FF2,W
05570:  MOVWF  00
05572:  BCF    FF2.7
05574:  MOVLB  F
05576:  MOVLW  55
05578:  MOVWF  FA7
0557A:  MOVLW  AA
0557C:  MOVWF  FA7
0557E:  BSF    FA6.1
05580:  BTFSC  FA6.1
05582:  BRA    5580
05584:  BCF    FA6.2
05586:  MOVF   00,W
05588:  IORWF  FF2,F
....................                delay_ms(20); 
0558A:  MOVLW  14
0558C:  MOVLB  6
0558E:  MOVWF  x4A
05590:  MOVLB  0
05592:  CALL   139A
....................                write_eeprom(17,Ttrabajo[1]); 
05596:  CLRF   FAA
05598:  MOVLW  11
0559A:  MOVWF  FA9
0559C:  MOVFF  51C,FA8
055A0:  BCF    FA6.6
055A2:  BCF    FA6.7
055A4:  BSF    FA6.2
055A6:  MOVF   FF2,W
055A8:  MOVWF  00
055AA:  BCF    FF2.7
055AC:  MOVLB  F
055AE:  MOVLW  55
055B0:  MOVWF  FA7
055B2:  MOVLW  AA
055B4:  MOVWF  FA7
055B6:  BSF    FA6.1
055B8:  BTFSC  FA6.1
055BA:  BRA    55B8
055BC:  BCF    FA6.2
055BE:  MOVF   00,W
055C0:  IORWF  FF2,F
....................                delay_ms(20); 
055C2:  MOVLW  14
055C4:  MOVLB  6
055C6:  MOVWF  x4A
055C8:  MOVLB  0
055CA:  CALL   139A
....................                write_eeprom(18,Ttrabajo[2]); 
055CE:  CLRF   FAA
055D0:  MOVLW  12
055D2:  MOVWF  FA9
055D4:  MOVFF  51D,FA8
055D8:  BCF    FA6.6
055DA:  BCF    FA6.7
055DC:  BSF    FA6.2
055DE:  MOVF   FF2,W
055E0:  MOVWF  00
055E2:  BCF    FF2.7
055E4:  MOVLB  F
055E6:  MOVLW  55
055E8:  MOVWF  FA7
055EA:  MOVLW  AA
055EC:  MOVWF  FA7
055EE:  BSF    FA6.1
055F0:  BTFSC  FA6.1
055F2:  BRA    55F0
055F4:  BCF    FA6.2
055F6:  MOVF   00,W
055F8:  IORWF  FF2,F
....................                delay_ms(20); 
055FA:  MOVLW  14
055FC:  MOVLB  6
055FE:  MOVWF  x4A
05600:  MOVLB  0
05602:  CALL   139A
....................                write_eeprom(19,Ttrabajo[3]); 
05606:  CLRF   FAA
05608:  MOVLW  13
0560A:  MOVWF  FA9
0560C:  MOVFF  51E,FA8
05610:  BCF    FA6.6
05612:  BCF    FA6.7
05614:  BSF    FA6.2
05616:  MOVF   FF2,W
05618:  MOVWF  00
0561A:  BCF    FF2.7
0561C:  MOVLB  F
0561E:  MOVLW  55
05620:  MOVWF  FA7
05622:  MOVLW  AA
05624:  MOVWF  FA7
05626:  BSF    FA6.1
05628:  BTFSC  FA6.1
0562A:  BRA    5628
0562C:  BCF    FA6.2
0562E:  MOVF   00,W
05630:  IORWF  FF2,F
....................                delay_ms(20); 
05632:  MOVLW  14
05634:  MOVLB  6
05636:  MOVWF  x4A
05638:  MOVLB  0
0563A:  CALL   139A
....................                delay_ms(500); 
0563E:  MOVLW  02
05640:  MOVLB  6
05642:  MOVWF  x41
05644:  MOVLW  FA
05646:  MOVWF  x4A
05648:  MOVLB  0
0564A:  CALL   139A
0564E:  MOVLB  6
05650:  DECFSZ x41,F
05652:  BRA    5644
....................                glcd_init(ON);             //Inicializa la glcd 
05654:  MOVLW  01
05656:  MOVWF  x41
05658:  MOVLB  0
0565A:  CALL   4494
....................                glcd_fillScreen(OFF);      //Limpia la pantalla 
0565E:  MOVLB  6
05660:  CLRF   x49
05662:  MOVLB  0
05664:  CALL   35EE
....................                glcd_update();  
05668:  CALL   2AE8
0566C:  MOVLB  4
....................             } 
....................          } 
....................           
.................... // Dibujo de barra de estado de filtro                   
....................          barra=100.0*(Filtro_Downflow/1.0); 
0566E:  MOVFF  532,649
05672:  MOVFF  531,648
05676:  MOVFF  530,647
0567A:  MOVFF  52F,646
0567E:  MOVLB  6
05680:  CLRF   x4D
05682:  CLRF   x4C
05684:  CLRF   x4B
05686:  MOVLW  7F
05688:  MOVWF  x4A
0568A:  MOVLB  0
0568C:  CALL   13F8
05690:  MOVLB  6
05692:  CLRF   x66
05694:  CLRF   x65
05696:  MOVLW  48
05698:  MOVWF  x64
0569A:  MOVLW  85
0569C:  MOVWF  x63
0569E:  MOVFF  03,66A
056A2:  MOVFF  02,669
056A6:  MOVFF  01,668
056AA:  MOVFF  00,667
056AE:  MOVLB  0
056B0:  CALL   2BE0
056B4:  MOVFF  03,53A
056B8:  MOVFF  02,539
056BC:  MOVFF  01,538
056C0:  MOVFF  00,537
....................          if(barra>100.0) 
056C4:  MOVLB  6
056C6:  CLRF   x49
056C8:  CLRF   x48
056CA:  MOVLW  48
056CC:  MOVWF  x47
056CE:  MOVLW  85
056D0:  MOVWF  x46
056D2:  MOVFF  53A,64D
056D6:  MOVFF  539,64C
056DA:  MOVFF  538,64B
056DE:  MOVFF  537,64A
056E2:  MOVLB  0
056E4:  CALL   2024
056E8:  BNC   56F8
....................             barra=100.0; 
056EA:  MOVLB  5
056EC:  CLRF   x3A
056EE:  CLRF   x39
056F0:  MOVLW  48
056F2:  MOVWF  x38
056F4:  MOVLW  85
056F6:  MOVWF  x37
....................          barra=barra/2; 
056F8:  MOVFF  53A,649
056FC:  MOVFF  539,648
05700:  MOVFF  538,647
05704:  MOVFF  537,646
05708:  MOVLB  6
0570A:  CLRF   x4D
0570C:  CLRF   x4C
0570E:  CLRF   x4B
05710:  MOVLW  80
05712:  MOVWF  x4A
05714:  MOVLB  0
05716:  CALL   13F8
0571A:  MOVFF  03,53A
0571E:  MOVFF  02,539
05722:  MOVFF  01,538
05726:  MOVFF  00,537
....................          glcd_rect(42, 28, (int8)(barra_old)+42, 35, YES, OFF);  // Clears the old bar 
0572A:  MOVFF  53E,644
0572E:  MOVFF  53D,643
05732:  MOVFF  53C,642
05736:  MOVFF  53B,641
0573A:  CALL   4554
0573E:  MOVLW  2A
05740:  ADDWF  01,W
05742:  MOVLB  6
05744:  MOVWF  x41
05746:  MOVLW  2A
05748:  MOVWF  x5A
0574A:  MOVLW  1C
0574C:  MOVWF  x5B
0574E:  MOVFF  641,65C
05752:  MOVLW  23
05754:  MOVWF  x5D
05756:  MOVLW  01
05758:  MOVWF  x5E
0575A:  CLRF   x5F
0575C:  MOVLB  0
0575E:  CALL   31F2
....................          glcd_rect(42, 28, (int8)(barra)+42, 35, YES, ON);             // Draws a new bar 
05762:  MOVFF  53A,644
05766:  MOVFF  539,643
0576A:  MOVFF  538,642
0576E:  MOVFF  537,641
05772:  CALL   4554
05776:  MOVLW  2A
05778:  ADDWF  01,W
0577A:  MOVLB  6
0577C:  MOVWF  x41
0577E:  MOVLW  2A
05780:  MOVWF  x5A
05782:  MOVLW  1C
05784:  MOVWF  x5B
05786:  MOVFF  641,65C
0578A:  MOVLW  23
0578C:  MOVWF  x5D
0578E:  MOVLW  01
05790:  MOVWF  x5E
05792:  MOVWF  x5F
05794:  MOVLB  0
05796:  CALL   31F2
....................          glcd_rect(40, 26, 94, 37, NO, ON);             // Draws a new bar 
0579A:  MOVLW  28
0579C:  MOVLB  6
0579E:  MOVWF  x5A
057A0:  MOVLW  1A
057A2:  MOVWF  x5B
057A4:  MOVLW  5E
057A6:  MOVWF  x5C
057A8:  MOVLW  25
057AA:  MOVWF  x5D
057AC:  CLRF   x5E
057AE:  MOVLW  01
057B0:  MOVWF  x5F
057B2:  MOVLB  0
057B4:  CALL   31F2
....................          barra_old=barra; 
057B8:  MOVFF  53A,53E
057BC:  MOVFF  539,53D
057C0:  MOVFF  538,53C
057C4:  MOVFF  537,53B
.................... // Fin de Dibujo de barra de estado de Filtro 
....................  
.................... // Dibujo de barra de estado de Luz UV 
....................          barra2=100.0*(UVTime/1000.0); 
057C8:  MOVFF  5D6,649
057CC:  MOVFF  5D5,648
057D0:  MOVFF  5D4,647
057D4:  MOVFF  5D3,646
057D8:  MOVLB  6
057DA:  CLRF   x4D
057DC:  CLRF   x4C
057DE:  MOVLW  7A
057E0:  MOVWF  x4B
057E2:  MOVLW  88
057E4:  MOVWF  x4A
057E6:  MOVLB  0
057E8:  CALL   13F8
057EC:  MOVLB  6
057EE:  CLRF   x66
057F0:  CLRF   x65
057F2:  MOVLW  48
057F4:  MOVWF  x64
057F6:  MOVLW  85
057F8:  MOVWF  x63
057FA:  MOVFF  03,66A
057FE:  MOVFF  02,669
05802:  MOVFF  01,668
05806:  MOVFF  00,667
0580A:  MOVLB  0
0580C:  CALL   2BE0
05810:  MOVFF  03,542
05814:  MOVFF  02,541
05818:  MOVFF  01,540
0581C:  MOVFF  00,53F
....................          if(barra2>100.0) 
05820:  MOVLB  6
05822:  CLRF   x49
05824:  CLRF   x48
05826:  MOVLW  48
05828:  MOVWF  x47
0582A:  MOVLW  85
0582C:  MOVWF  x46
0582E:  MOVFF  542,64D
05832:  MOVFF  541,64C
05836:  MOVFF  540,64B
0583A:  MOVFF  53F,64A
0583E:  MOVLB  0
05840:  CALL   2024
05844:  BNC   5854
....................             barra2=100.0; 
05846:  MOVLB  5
05848:  CLRF   x42
0584A:  CLRF   x41
0584C:  MOVLW  48
0584E:  MOVWF  x40
05850:  MOVLW  85
05852:  MOVWF  x3F
....................          barra2=barra2/2; 
05854:  MOVFF  542,649
05858:  MOVFF  541,648
0585C:  MOVFF  540,647
05860:  MOVFF  53F,646
05864:  MOVLB  6
05866:  CLRF   x4D
05868:  CLRF   x4C
0586A:  CLRF   x4B
0586C:  MOVLW  80
0586E:  MOVWF  x4A
05870:  MOVLB  0
05872:  CALL   13F8
05876:  MOVFF  03,542
0587A:  MOVFF  02,541
0587E:  MOVFF  01,540
05882:  MOVFF  00,53F
....................          glcd_rect(42, 42, (int8)(barra_old2)+42, 49, YES, OFF);  // Clears the old bar 
05886:  MOVFF  546,644
0588A:  MOVFF  545,643
0588E:  MOVFF  544,642
05892:  MOVFF  543,641
05896:  CALL   4554
0589A:  MOVLW  2A
0589C:  ADDWF  01,W
0589E:  MOVLB  6
058A0:  MOVWF  x41
058A2:  MOVLW  2A
058A4:  MOVWF  x5A
058A6:  MOVWF  x5B
058A8:  MOVFF  641,65C
058AC:  MOVLW  31
058AE:  MOVWF  x5D
058B0:  MOVLW  01
058B2:  MOVWF  x5E
058B4:  CLRF   x5F
058B6:  MOVLB  0
058B8:  CALL   31F2
....................          glcd_rect(42, 42, (int8)(barra2)+42, 49, YES, ON);             // Draws a new bar 
058BC:  MOVFF  542,644
058C0:  MOVFF  541,643
058C4:  MOVFF  540,642
058C8:  MOVFF  53F,641
058CC:  CALL   4554
058D0:  MOVLW  2A
058D2:  ADDWF  01,W
058D4:  MOVLB  6
058D6:  MOVWF  x41
058D8:  MOVLW  2A
058DA:  MOVWF  x5A
058DC:  MOVWF  x5B
058DE:  MOVFF  641,65C
058E2:  MOVLW  31
058E4:  MOVWF  x5D
058E6:  MOVLW  01
058E8:  MOVWF  x5E
058EA:  MOVWF  x5F
058EC:  MOVLB  0
058EE:  CALL   31F2
....................          glcd_rect(40, 40, 94, 51, NO, ON);             // Draws a new bar 
058F2:  MOVLW  28
058F4:  MOVLB  6
058F6:  MOVWF  x5A
058F8:  MOVWF  x5B
058FA:  MOVLW  5E
058FC:  MOVWF  x5C
058FE:  MOVLW  33
05900:  MOVWF  x5D
05902:  CLRF   x5E
05904:  MOVLW  01
05906:  MOVWF  x5F
05908:  MOVLB  0
0590A:  CALL   31F2
....................          barra_old2=barra2; 
0590E:  MOVFF  542,546
05912:  MOVFF  541,545
05916:  MOVFF  540,544
0591A:  MOVFF  53F,543
.................... // Fin de Dibujo de barra de estado de Luz UV 
....................  
....................  
....................          if(Filtro_Downflow>=0.8){ 
0591E:  MOVLW  CD
05920:  MOVLB  6
05922:  MOVWF  x49
05924:  MOVLW  CC
05926:  MOVWF  x48
05928:  MOVLW  4C
0592A:  MOVWF  x47
0592C:  MOVLW  7E
0592E:  MOVWF  x46
05930:  MOVFF  532,64D
05934:  MOVFF  531,64C
05938:  MOVFF  530,64B
0593C:  MOVFF  52F,64A
05940:  MOVLB  0
05942:  CALL   2024
05946:  BC    594A
05948:  BNZ   5986
....................             flag_latencia=1; 
0594A:  MOVLB  4
0594C:  BSF    x1C.4
....................             if(Latencia==1){          
0594E:  BTFSS  x1C.3
05950:  BRA    5984
....................                if(Filtro_Downflow>=0.8){ 
05952:  MOVLW  CD
05954:  MOVLB  6
05956:  MOVWF  x49
05958:  MOVLW  CC
0595A:  MOVWF  x48
0595C:  MOVLW  4C
0595E:  MOVWF  x47
05960:  MOVLW  7E
05962:  MOVWF  x46
05964:  MOVFF  532,64D
05968:  MOVFF  531,64C
0596C:  MOVFF  530,64B
05970:  MOVFF  52F,64A
05974:  MOVLB  0
05976:  CALL   2024
0597A:  BC    597E
0597C:  BNZ   5986
....................                   Alarma=5; 
0597E:  MOVLW  05
05980:  MOVLB  4
05982:  MOVWF  xEC
05984:  MOVLB  0
....................                } 
....................             } 
....................          } 
....................        
....................          if(flag_luz==1){ 
05986:  MOVLB  4
05988:  BTFSS  x1B.3
0598A:  BRA    59A0
....................             glcd_imagen(3);LuzBlanca_on; 
0598C:  MOVLW  03
0598E:  MOVLB  6
05990:  MOVWF  x41
05992:  MOVLB  0
05994:  CALL   4296
05998:  BSF    F8B.4
0599A:  BCF    F94.4
....................          }else{ 
0599C:  BRA    59C2
0599E:  MOVLB  4
....................             glcd_rect(102, 14, 127, 28, YES, OFF);LuzBlanca_off; 
059A0:  MOVLW  66
059A2:  MOVLB  6
059A4:  MOVWF  x5A
059A6:  MOVLW  0E
059A8:  MOVWF  x5B
059AA:  MOVLW  7F
059AC:  MOVWF  x5C
059AE:  MOVLW  1C
059B0:  MOVWF  x5D
059B2:  MOVLW  01
059B4:  MOVWF  x5E
059B6:  CLRF   x5F
059B8:  MOVLB  0
059BA:  CALL   31F2
059BE:  BCF    F8B.4
059C0:  BCF    F94.4
....................          } 
....................          
....................          if(UV2==10){     
059C2:  MOVLB  4
059C4:  MOVF   xED,W
059C6:  SUBLW  0A
059C8:  BTFSS  FD8.2
059CA:  BRA    5B50
....................             //glcd_rect(0, 55, 100, 63, YES, OFF); 
....................             flag_Luz=0;LuzBlanca_off; 
059CC:  BCF    x1B.3
059CE:  BCF    F8B.4
059D0:  BCF    F94.4
....................             flag_blower=0; 
059D2:  BCF    x1B.1
....................             VelocidadMotor(0); 
059D4:  MOVLB  6
059D6:  CLRF   x41
059D8:  MOVLB  0
059DA:  CALL   3D2E
....................             tiempo_uv=1; 
059DE:  MOVLB  4
059E0:  BSF    x1C.0
....................             LuzUV_on; 
059E2:  BSF    F8B.5
059E4:  BCF    F94.5
....................             if(!flag_activo){ 
059E6:  BTFSC  x1B.6
059E8:  BRA    5A0E
....................                delay_ms(500); 
059EA:  MOVLW  02
059EC:  MOVLB  6
059EE:  MOVWF  x41
059F0:  MOVLW  FA
059F2:  MOVWF  x4A
059F4:  MOVLB  0
059F6:  CALL   139A
059FA:  MOVLB  6
059FC:  DECFSZ x41,F
059FE:  BRA    59F0
....................                glcd_init(ON); 
05A00:  MOVLW  01
05A02:  MOVWF  x41
05A04:  MOVLB  0
05A06:  CALL   4494
....................                flag_activo=1; 
05A0A:  MOVLB  4
05A0C:  BSF    x1B.6
....................             } 
....................             glcd_text57(105, 0, UV, 2, ON); 
05A0E:  MOVLW  69
05A10:  MOVLB  6
05A12:  MOVWF  x5A
05A14:  CLRF   x5B
05A16:  MOVLW  04
05A18:  MOVWF  x5D
05A1A:  MOVLW  63
05A1C:  MOVWF  x5C
05A1E:  MOVLW  02
05A20:  MOVWF  x5E
05A22:  MOVLW  01
05A24:  MOVWF  x5F
05A26:  MOVLB  0
05A28:  CALL   32B4
....................             if(guardauv==1){ 
05A2C:  MOVLB  4
05A2E:  BTFSS  x1C.5
05A30:  BRA    5B4E
....................                guardauv=0; 
05A32:  BCF    x1C.5
....................                write_eeprom(31,minutos_uv); 
05A34:  CLRF   FAA
05A36:  MOVLW  1F
05A38:  MOVWF  FA9
05A3A:  MOVFF  4E3,FA8
05A3E:  BCF    FA6.6
05A40:  BCF    FA6.7
05A42:  BSF    FA6.2
05A44:  MOVF   FF2,W
05A46:  MOVWF  00
05A48:  BCF    FF2.7
05A4A:  MOVLB  F
05A4C:  MOVLW  55
05A4E:  MOVWF  FA7
05A50:  MOVLW  AA
05A52:  MOVWF  FA7
05A54:  BSF    FA6.1
05A56:  BTFSC  FA6.1
05A58:  BRA    5A56
05A5A:  BCF    FA6.2
05A5C:  MOVF   00,W
05A5E:  IORWF  FF2,F
....................                delay_ms(20); 
05A60:  MOVLW  14
05A62:  MOVLB  6
05A64:  MOVWF  x4A
05A66:  MOVLB  0
05A68:  CALL   139A
....................                write_eeprom(12,Tuv[0]); 
05A6C:  CLRF   FAA
05A6E:  MOVLW  0C
05A70:  MOVWF  FA9
05A72:  MOVFF  50F,FA8
05A76:  BCF    FA6.6
05A78:  BCF    FA6.7
05A7A:  BSF    FA6.2
05A7C:  MOVF   FF2,W
05A7E:  MOVWF  00
05A80:  BCF    FF2.7
05A82:  MOVLB  F
05A84:  MOVLW  55
05A86:  MOVWF  FA7
05A88:  MOVLW  AA
05A8A:  MOVWF  FA7
05A8C:  BSF    FA6.1
05A8E:  BTFSC  FA6.1
05A90:  BRA    5A8E
05A92:  BCF    FA6.2
05A94:  MOVF   00,W
05A96:  IORWF  FF2,F
....................                delay_ms(20); 
05A98:  MOVLW  14
05A9A:  MOVLB  6
05A9C:  MOVWF  x4A
05A9E:  MOVLB  0
05AA0:  CALL   139A
....................                write_eeprom(13,Tuv[1]); 
05AA4:  CLRF   FAA
05AA6:  MOVLW  0D
05AA8:  MOVWF  FA9
05AAA:  MOVFF  510,FA8
05AAE:  BCF    FA6.6
05AB0:  BCF    FA6.7
05AB2:  BSF    FA6.2
05AB4:  MOVF   FF2,W
05AB6:  MOVWF  00
05AB8:  BCF    FF2.7
05ABA:  MOVLB  F
05ABC:  MOVLW  55
05ABE:  MOVWF  FA7
05AC0:  MOVLW  AA
05AC2:  MOVWF  FA7
05AC4:  BSF    FA6.1
05AC6:  BTFSC  FA6.1
05AC8:  BRA    5AC6
05ACA:  BCF    FA6.2
05ACC:  MOVF   00,W
05ACE:  IORWF  FF2,F
....................                delay_ms(20); 
05AD0:  MOVLW  14
05AD2:  MOVLB  6
05AD4:  MOVWF  x4A
05AD6:  MOVLB  0
05AD8:  CALL   139A
....................                write_eeprom(14,Tuv[2]); 
05ADC:  CLRF   FAA
05ADE:  MOVLW  0E
05AE0:  MOVWF  FA9
05AE2:  MOVFF  511,FA8
05AE6:  BCF    FA6.6
05AE8:  BCF    FA6.7
05AEA:  BSF    FA6.2
05AEC:  MOVF   FF2,W
05AEE:  MOVWF  00
05AF0:  BCF    FF2.7
05AF2:  MOVLB  F
05AF4:  MOVLW  55
05AF6:  MOVWF  FA7
05AF8:  MOVLW  AA
05AFA:  MOVWF  FA7
05AFC:  BSF    FA6.1
05AFE:  BTFSC  FA6.1
05B00:  BRA    5AFE
05B02:  BCF    FA6.2
05B04:  MOVF   00,W
05B06:  IORWF  FF2,F
....................                delay_ms(20); 
05B08:  MOVLW  14
05B0A:  MOVLB  6
05B0C:  MOVWF  x4A
05B0E:  MOVLB  0
05B10:  CALL   139A
....................                write_eeprom(15,Tuv[3]); 
05B14:  CLRF   FAA
05B16:  MOVLW  0F
05B18:  MOVWF  FA9
05B1A:  MOVFF  512,FA8
05B1E:  BCF    FA6.6
05B20:  BCF    FA6.7
05B22:  BSF    FA6.2
05B24:  MOVF   FF2,W
05B26:  MOVWF  00
05B28:  BCF    FF2.7
05B2A:  MOVLB  F
05B2C:  MOVLW  55
05B2E:  MOVWF  FA7
05B30:  MOVLW  AA
05B32:  MOVWF  FA7
05B34:  BSF    FA6.1
05B36:  BTFSC  FA6.1
05B38:  BRA    5B36
05B3A:  BCF    FA6.2
05B3C:  MOVF   00,W
05B3E:  IORWF  FF2,F
....................                delay_ms(20); 
05B40:  MOVLW  14
05B42:  MOVLB  6
05B44:  MOVWF  x4A
05B46:  MOVLB  0
05B48:  CALL   139A
05B4C:  MOVLB  4
....................             }                
....................          }else{ 
05B4E:  BRA    5C96
....................             flag_activo=0; 
05B50:  BCF    x1B.6
....................             LuzUV_off;tiempo_uv=0; 
05B52:  BCF    F8B.5
05B54:  BCF    F94.5
05B56:  BCF    x1C.0
....................             glcd_rect(102, 0, 127, 14, YES, OFF); 
05B58:  MOVLW  66
05B5A:  MOVLB  6
05B5C:  MOVWF  x5A
05B5E:  CLRF   x5B
05B60:  MOVLW  7F
05B62:  MOVWF  x5C
05B64:  MOVLW  0E
05B66:  MOVWF  x5D
05B68:  MOVLW  01
05B6A:  MOVWF  x5E
05B6C:  CLRF   x5F
05B6E:  MOVLB  0
05B70:  CALL   31F2
....................             if(guardauv==0){ 
05B74:  MOVLB  4
05B76:  BTFSC  x1C.5
05B78:  BRA    5C96
....................                guardauv=1; 
05B7A:  BSF    x1C.5
....................                write_eeprom(31,minutos_uv); 
05B7C:  CLRF   FAA
05B7E:  MOVLW  1F
05B80:  MOVWF  FA9
05B82:  MOVFF  4E3,FA8
05B86:  BCF    FA6.6
05B88:  BCF    FA6.7
05B8A:  BSF    FA6.2
05B8C:  MOVF   FF2,W
05B8E:  MOVWF  00
05B90:  BCF    FF2.7
05B92:  MOVLB  F
05B94:  MOVLW  55
05B96:  MOVWF  FA7
05B98:  MOVLW  AA
05B9A:  MOVWF  FA7
05B9C:  BSF    FA6.1
05B9E:  BTFSC  FA6.1
05BA0:  BRA    5B9E
05BA2:  BCF    FA6.2
05BA4:  MOVF   00,W
05BA6:  IORWF  FF2,F
....................                delay_ms(20); 
05BA8:  MOVLW  14
05BAA:  MOVLB  6
05BAC:  MOVWF  x4A
05BAE:  MOVLB  0
05BB0:  CALL   139A
....................                write_eeprom(12,Tuv[0]); 
05BB4:  CLRF   FAA
05BB6:  MOVLW  0C
05BB8:  MOVWF  FA9
05BBA:  MOVFF  50F,FA8
05BBE:  BCF    FA6.6
05BC0:  BCF    FA6.7
05BC2:  BSF    FA6.2
05BC4:  MOVF   FF2,W
05BC6:  MOVWF  00
05BC8:  BCF    FF2.7
05BCA:  MOVLB  F
05BCC:  MOVLW  55
05BCE:  MOVWF  FA7
05BD0:  MOVLW  AA
05BD2:  MOVWF  FA7
05BD4:  BSF    FA6.1
05BD6:  BTFSC  FA6.1
05BD8:  BRA    5BD6
05BDA:  BCF    FA6.2
05BDC:  MOVF   00,W
05BDE:  IORWF  FF2,F
....................                delay_ms(20); 
05BE0:  MOVLW  14
05BE2:  MOVLB  6
05BE4:  MOVWF  x4A
05BE6:  MOVLB  0
05BE8:  CALL   139A
....................                write_eeprom(13,Tuv[1]); 
05BEC:  CLRF   FAA
05BEE:  MOVLW  0D
05BF0:  MOVWF  FA9
05BF2:  MOVFF  510,FA8
05BF6:  BCF    FA6.6
05BF8:  BCF    FA6.7
05BFA:  BSF    FA6.2
05BFC:  MOVF   FF2,W
05BFE:  MOVWF  00
05C00:  BCF    FF2.7
05C02:  MOVLB  F
05C04:  MOVLW  55
05C06:  MOVWF  FA7
05C08:  MOVLW  AA
05C0A:  MOVWF  FA7
05C0C:  BSF    FA6.1
05C0E:  BTFSC  FA6.1
05C10:  BRA    5C0E
05C12:  BCF    FA6.2
05C14:  MOVF   00,W
05C16:  IORWF  FF2,F
....................                delay_ms(20); 
05C18:  MOVLW  14
05C1A:  MOVLB  6
05C1C:  MOVWF  x4A
05C1E:  MOVLB  0
05C20:  CALL   139A
....................                write_eeprom(14,Tuv[2]); 
05C24:  CLRF   FAA
05C26:  MOVLW  0E
05C28:  MOVWF  FA9
05C2A:  MOVFF  511,FA8
05C2E:  BCF    FA6.6
05C30:  BCF    FA6.7
05C32:  BSF    FA6.2
05C34:  MOVF   FF2,W
05C36:  MOVWF  00
05C38:  BCF    FF2.7
05C3A:  MOVLB  F
05C3C:  MOVLW  55
05C3E:  MOVWF  FA7
05C40:  MOVLW  AA
05C42:  MOVWF  FA7
05C44:  BSF    FA6.1
05C46:  BTFSC  FA6.1
05C48:  BRA    5C46
05C4A:  BCF    FA6.2
05C4C:  MOVF   00,W
05C4E:  IORWF  FF2,F
....................                delay_ms(20); 
05C50:  MOVLW  14
05C52:  MOVLB  6
05C54:  MOVWF  x4A
05C56:  MOVLB  0
05C58:  CALL   139A
....................                write_eeprom(15,Tuv[3]); 
05C5C:  CLRF   FAA
05C5E:  MOVLW  0F
05C60:  MOVWF  FA9
05C62:  MOVFF  512,FA8
05C66:  BCF    FA6.6
05C68:  BCF    FA6.7
05C6A:  BSF    FA6.2
05C6C:  MOVF   FF2,W
05C6E:  MOVWF  00
05C70:  BCF    FF2.7
05C72:  MOVLB  F
05C74:  MOVLW  55
05C76:  MOVWF  FA7
05C78:  MOVLW  AA
05C7A:  MOVWF  FA7
05C7C:  BSF    FA6.1
05C7E:  BTFSC  FA6.1
05C80:  BRA    5C7E
05C82:  BCF    FA6.2
05C84:  MOVF   00,W
05C86:  IORWF  FF2,F
....................                delay_ms(20); 
05C88:  MOVLW  14
05C8A:  MOVLB  6
05C8C:  MOVWF  x4A
05C8E:  MOVLB  0
05C90:  CALL   139A
05C94:  MOVLB  4
....................             } 
....................          } 
....................              
....................          if(RIGHT){//Si oprime boton de Blower. 
05C96:  BSF    F94.0
05C98:  BTFSS  F82.0
05C9A:  BRA    5CB4
....................           
....................             if(Flanco3 == 0){ 
05C9C:  BTFSC  x1A.3
05C9E:  BRA    5CB2
....................                Flanco3 = 1;delay_ms(5);flag_blower=!flag_blower; 
05CA0:  BSF    x1A.3
05CA2:  MOVLW  05
05CA4:  MOVLB  6
05CA6:  MOVWF  x4A
05CA8:  MOVLB  0
05CAA:  CALL   139A
05CAE:  MOVLB  4
05CB0:  BTG    x1B.1
....................             } 
....................          }else{ 
05CB2:  BRA    5CB6
....................             Flanco3 = 0; 
05CB4:  BCF    x1A.3
....................          } 
....................              
....................          if(LEFT){//Si oprime boton de Luz UV. 
05CB6:  BSF    F94.1
05CB8:  BTFSS  F82.1
05CBA:  BRA    5CE0
....................             if(Flanco4 == 0){ 
05CBC:  BTFSC  x1A.4
05CBE:  BRA    5CDE
....................                Flanco4 = 1;delay_ms(5);flag_uv=!flag_uv; 
05CC0:  BSF    x1A.4
05CC2:  MOVLW  05
05CC4:  MOVLB  6
05CC6:  MOVWF  x4A
05CC8:  MOVLB  0
05CCA:  CALL   139A
05CCE:  MOVLB  4
05CD0:  BTG    x1B.0
....................                if(UV2==0) 
05CD2:  MOVF   xED,F
05CD4:  BNZ   5CDC
....................                   UV2=10; 
05CD6:  MOVLW  0A
05CD8:  MOVWF  xED
....................                else 
05CDA:  BRA    5CDE
....................                   UV2=0; 
05CDC:  CLRF   xED
....................             } 
....................          }else{ 
05CDE:  BRA    5CE2
....................             Flanco4 = 0; 
05CE0:  BCF    x1A.4
....................          } 
....................              
....................          if(DOWN){//Si oprime boton de Luz Blanca. 
05CE2:  BSF    F96.2
05CE4:  BTFSS  F84.2
05CE6:  BRA    5D00
....................             if(Flanco5 == 0){ 
05CE8:  BTFSC  x1A.5
05CEA:  BRA    5CFE
....................                Flanco5 = 1;delay_ms(5);flag_luz=!flag_luz; 
05CEC:  BSF    x1A.5
05CEE:  MOVLW  05
05CF0:  MOVLB  6
05CF2:  MOVWF  x4A
05CF4:  MOVLB  0
05CF6:  CALL   139A
05CFA:  MOVLB  4
05CFC:  BTG    x1B.3
....................             } 
....................          }else{ 
05CFE:  BRA    5D02
....................             Flanco5 = 0; 
05D00:  BCF    x1A.5
....................          } 
....................        
....................          if(UP){//Si oprime boton de Toma.          
05D02:  BSF    F96.1
05D04:  BTFSS  F84.1
05D06:  BRA    5D62
....................              
....................             if(UP){//Si oprime boton de Toma. 
05D08:  BSF    F96.1
05D0A:  BTFSS  F84.1
05D0C:  BRA    5D46
....................                delay_ms(30);Menu=3;//glcd_fillScreen(OFF); 
05D0E:  MOVLW  1E
05D10:  MOVLB  6
05D12:  MOVWF  x4A
05D14:  MOVLB  0
05D16:  CALL   139A
05D1A:  MOVLW  03
05D1C:  MOVLB  4
05D1E:  MOVWF  xDB
....................                glcd_init(ON);             //Inicializa la glcd 
05D20:  MOVLW  01
05D22:  MOVLB  6
05D24:  MOVWF  x41
05D26:  MOVLB  0
05D28:  CALL   4494
....................                glcd_fillScreen(OFF);      //Limpia la pantalla 
05D2C:  MOVLB  6
05D2E:  CLRF   x49
05D30:  MOVLB  0
05D32:  CALL   35EE
....................                glcd_update();   
05D36:  CALL   2AE8
....................                LuzBlanca_off;LuzUV_off; 
05D3A:  BCF    F8B.4
05D3C:  BCF    F94.4
05D3E:  BCF    F8B.5
05D40:  BCF    F94.5
....................             }else{ 
05D42:  BRA    5D5E
05D44:  MOVLB  4
....................                if(Flanco6 == 0){ 
05D46:  BTFSC  x1A.6
05D48:  BRA    5D5C
....................                   Flanco6 = 1;delay_ms(30);flag_toma=!flag_toma; 
05D4A:  BSF    x1A.6
05D4C:  MOVLW  1E
05D4E:  MOVLB  6
05D50:  MOVWF  x4A
05D52:  MOVLB  0
05D54:  CALL   139A
05D58:  MOVLB  4
05D5A:  BTG    x1B.2
05D5C:  MOVLB  0
....................                } 
....................             } 
....................          }else{ 
05D5E:  BRA    5D64
05D60:  MOVLB  4
....................             Flanco6 = 0; 
05D62:  BCF    x1A.6
....................          } 
....................              
....................          if((Tempouv[0]>=Tempouvp[0])&&(Tempouv[1]>=Tempouvp[1])&&(Tempouv[2]>=Tempouvp[2])&&(Tempouv[3]>=Tempouvp[3]))      { 
05D64:  MOVLB  5
05D66:  MOVF   x17,W
05D68:  XORLW  80
05D6A:  MOVWF  00
05D6C:  MOVF   x13,W
05D6E:  XORLW  80
05D70:  SUBWF  00,W
05D72:  BZ    5D76
05D74:  BC    5DEE
05D76:  MOVF   x18,W
05D78:  XORLW  80
05D7A:  MOVWF  00
05D7C:  MOVF   x14,W
05D7E:  XORLW  80
05D80:  SUBWF  00,W
05D82:  BZ    5D86
05D84:  BC    5DEE
05D86:  MOVF   x19,W
05D88:  XORLW  80
05D8A:  MOVWF  00
05D8C:  MOVF   x15,W
05D8E:  XORLW  80
05D90:  SUBWF  00,W
05D92:  BZ    5D96
05D94:  BC    5DEE
05D96:  MOVF   x1A,W
05D98:  XORLW  80
05D9A:  MOVWF  00
05D9C:  MOVF   x16,W
05D9E:  XORLW  80
05DA0:  SUBWF  00,W
05DA2:  BZ    5DA6
05DA4:  BC    5DEE
....................             if((Tempouvp[0]==0)&&(Tempouvp[1]==0)&&(Tempouvp[2]==0)&&(Tempouvp[3]==0)){ 
05DA6:  MOVF   x17,F
05DA8:  BNZ   5DB8
05DAA:  MOVF   x18,F
05DAC:  BNZ   5DB8
05DAE:  MOVF   x19,F
05DB0:  BNZ   5DB8
05DB2:  MOVF   x1A,F
05DB4:  BNZ   5DB8
....................             }else{ 
05DB6:  BRA    5DEE
....................                tiempo_uv=0;LuzUV=10;flag_uv=!flag_uv;glcd_rect(102, 0, 127, 14, YES, OFF); 
05DB8:  MOVLB  4
05DBA:  BCF    x1C.0
05DBC:  MOVLW  0A
05DBE:  MOVWF  xEA
05DC0:  BTG    x1B.0
05DC2:  MOVLW  66
05DC4:  MOVLB  6
05DC6:  MOVWF  x5A
05DC8:  CLRF   x5B
05DCA:  MOVLW  7F
05DCC:  MOVWF  x5C
05DCE:  MOVLW  0E
05DD0:  MOVWF  x5D
05DD2:  MOVLW  01
05DD4:  MOVWF  x5E
05DD6:  CLRF   x5F
05DD8:  MOVLB  0
05DDA:  CALL   31F2
....................                Tempouv[0]=0;Tempouv[1]=0;Tempouv[2]=0;Tempouv[3]=0;UV2=0; 
05DDE:  MOVLB  5
05DE0:  CLRF   x13
05DE2:  CLRF   x14
05DE4:  CLRF   x15
05DE6:  CLRF   x16
05DE8:  MOVLB  4
05DEA:  CLRF   xED
05DEC:  MOVLB  5
....................             } 
....................          } 
....................       } 
.................... //_--------------------------------------------------------------------------------------------------------------------------------------------------------        
....................  
.................... //_-------------------------------------------------------------------------------------------------------------------------------------------------------- 
....................       if(Menu==3){ //Menu Principal. 
05DEE:  MOVLB  4
05DF0:  MOVF   xDB,W
05DF2:  SUBLW  03
05DF4:  BTFSS  FD8.2
05DF6:  BRA    60DE
....................              
....................       strcpy(Menus.Letra,"Menu"); 
05DF8:  MOVLW  06
05DFA:  MOVWF  FEA
05DFC:  MOVLW  2B
05DFE:  MOVWF  FE9
05E00:  MOVFF  FF2,641
05E04:  BCF    FF2.7
05E06:  MOVLW  00
05E08:  MOVLB  0
05E0A:  CALL   0F80
05E0E:  TBLRD*-
05E10:  TBLRD*+
05E12:  MOVF   FF5,W
05E14:  MOVWF  FEE
05E16:  IORLW  00
05E18:  BNZ   5E10
05E1A:  MOVLB  6
05E1C:  BTFSC  x41.7
05E1E:  BSF    FF2.7
....................       displayMenu(Menus.Letra,40,0,1,2); 
05E20:  MOVLW  06
05E22:  MOVWF  x4A
05E24:  MOVLW  2B
05E26:  MOVWF  x49
05E28:  MOVLW  28
05E2A:  MOVWF  x4B
05E2C:  CLRF   x4C
05E2E:  MOVLW  01
05E30:  MOVWF  x4D
05E32:  MOVLW  02
05E34:  MOVWF  x4E
05E36:  MOVLB  0
05E38:  CALL   3522
....................        
....................       if(Opcion==1){ 
05E3C:  MOVLB  4
05E3E:  DECFSZ xDD,W
05E40:  BRA    5E88
....................          strcpy(Menus.Letra,"Ajustes"); 
05E42:  MOVLW  06
05E44:  MOVWF  FEA
05E46:  MOVLW  2B
05E48:  MOVWF  FE9
05E4A:  MOVFF  FF2,641
05E4E:  BCF    FF2.7
05E50:  MOVLW  00
05E52:  MOVLB  0
05E54:  CALL   0FA4
05E58:  TBLRD*-
05E5A:  TBLRD*+
05E5C:  MOVF   FF5,W
05E5E:  MOVWF  FEE
05E60:  IORLW  00
05E62:  BNZ   5E5A
05E64:  MOVLB  6
05E66:  BTFSC  x41.7
05E68:  BSF    FF2.7
....................          displayMenu(Menus.Letra,0,19,1,1); 
05E6A:  MOVLW  06
05E6C:  MOVWF  x4A
05E6E:  MOVLW  2B
05E70:  MOVWF  x49
05E72:  CLRF   x4B
05E74:  MOVLW  13
05E76:  MOVWF  x4C
05E78:  MOVLW  01
05E7A:  MOVWF  x4D
05E7C:  MOVWF  x4E
05E7E:  MOVLB  0
05E80:  CALL   3522
....................       }else{ 
05E84:  BRA    5ECA
05E86:  MOVLB  4
....................          strcpy(Menus.Letra,"Ajustes"); 
05E88:  MOVLW  06
05E8A:  MOVWF  FEA
05E8C:  MOVLW  2B
05E8E:  MOVWF  FE9
05E90:  MOVFF  FF2,641
05E94:  BCF    FF2.7
05E96:  MOVLW  00
05E98:  MOVLB  0
05E9A:  CALL   0FA4
05E9E:  TBLRD*-
05EA0:  TBLRD*+
05EA2:  MOVF   FF5,W
05EA4:  MOVWF  FEE
05EA6:  IORLW  00
05EA8:  BNZ   5EA0
05EAA:  MOVLB  6
05EAC:  BTFSC  x41.7
05EAE:  BSF    FF2.7
....................          displayMenu(Menus.Letra,0,19,0,1); 
05EB0:  MOVLW  06
05EB2:  MOVWF  x4A
05EB4:  MOVLW  2B
05EB6:  MOVWF  x49
05EB8:  CLRF   x4B
05EBA:  MOVLW  13
05EBC:  MOVWF  x4C
05EBE:  CLRF   x4D
05EC0:  MOVLW  01
05EC2:  MOVWF  x4E
05EC4:  MOVLB  0
05EC6:  CALL   3522
....................       } 
....................           
....................       if(Opcion==2){ 
05ECA:  MOVLB  4
05ECC:  MOVF   xDD,W
05ECE:  SUBLW  02
05ED0:  BNZ   5F18
....................          strcpy(Menus.Letra,"Cambio de Clave"); 
05ED2:  MOVLW  06
05ED4:  MOVWF  FEA
05ED6:  MOVLW  2B
05ED8:  MOVWF  FE9
05EDA:  MOVFF  FF2,641
05EDE:  BCF    FF2.7
05EE0:  MOVLW  00
05EE2:  MOVLB  0
05EE4:  CALL   0FCA
05EE8:  TBLRD*-
05EEA:  TBLRD*+
05EEC:  MOVF   FF5,W
05EEE:  MOVWF  FEE
05EF0:  IORLW  00
05EF2:  BNZ   5EEA
05EF4:  MOVLB  6
05EF6:  BTFSC  x41.7
05EF8:  BSF    FF2.7
....................          displayMenu(Menus.Letra,0,35,1,1); 
05EFA:  MOVLW  06
05EFC:  MOVWF  x4A
05EFE:  MOVLW  2B
05F00:  MOVWF  x49
05F02:  CLRF   x4B
05F04:  MOVLW  23
05F06:  MOVWF  x4C
05F08:  MOVLW  01
05F0A:  MOVWF  x4D
05F0C:  MOVWF  x4E
05F0E:  MOVLB  0
05F10:  CALL   3522
....................       }else{ 
05F14:  BRA    5F5A
05F16:  MOVLB  4
....................          strcpy(Menus.Letra,"Cambio de Clave"); 
05F18:  MOVLW  06
05F1A:  MOVWF  FEA
05F1C:  MOVLW  2B
05F1E:  MOVWF  FE9
05F20:  MOVFF  FF2,641
05F24:  BCF    FF2.7
05F26:  MOVLW  00
05F28:  MOVLB  0
05F2A:  CALL   0FCA
05F2E:  TBLRD*-
05F30:  TBLRD*+
05F32:  MOVF   FF5,W
05F34:  MOVWF  FEE
05F36:  IORLW  00
05F38:  BNZ   5F30
05F3A:  MOVLB  6
05F3C:  BTFSC  x41.7
05F3E:  BSF    FF2.7
....................          displayMenu(Menus.Letra,0,35,0,1); 
05F40:  MOVLW  06
05F42:  MOVWF  x4A
05F44:  MOVLW  2B
05F46:  MOVWF  x49
05F48:  CLRF   x4B
05F4A:  MOVLW  23
05F4C:  MOVWF  x4C
05F4E:  CLRF   x4D
05F50:  MOVLW  01
05F52:  MOVWF  x4E
05F54:  MOVLB  0
05F56:  CALL   3522
....................       } 
....................           
....................       if(Opcion==3){ 
05F5A:  MOVLB  4
05F5C:  MOVF   xDD,W
05F5E:  SUBLW  03
05F60:  BNZ   5FA8
....................          strcpy(Menus.Letra,"Modo"); 
05F62:  MOVLW  06
05F64:  MOVWF  FEA
05F66:  MOVLW  2B
05F68:  MOVWF  FE9
05F6A:  MOVFF  FF2,641
05F6E:  BCF    FF2.7
05F70:  MOVLW  00
05F72:  MOVLB  0
05F74:  CALL   0FF8
05F78:  TBLRD*-
05F7A:  TBLRD*+
05F7C:  MOVF   FF5,W
05F7E:  MOVWF  FEE
05F80:  IORLW  00
05F82:  BNZ   5F7A
05F84:  MOVLB  6
05F86:  BTFSC  x41.7
05F88:  BSF    FF2.7
....................          displayMenu(Menus.Letra,0,51,1,1); 
05F8A:  MOVLW  06
05F8C:  MOVWF  x4A
05F8E:  MOVLW  2B
05F90:  MOVWF  x49
05F92:  CLRF   x4B
05F94:  MOVLW  33
05F96:  MOVWF  x4C
05F98:  MOVLW  01
05F9A:  MOVWF  x4D
05F9C:  MOVWF  x4E
05F9E:  MOVLB  0
05FA0:  CALL   3522
....................       }else{ 
05FA4:  BRA    5FEA
05FA6:  MOVLB  4
....................          strcpy(Menus.Letra,"Modo"); 
05FA8:  MOVLW  06
05FAA:  MOVWF  FEA
05FAC:  MOVLW  2B
05FAE:  MOVWF  FE9
05FB0:  MOVFF  FF2,641
05FB4:  BCF    FF2.7
05FB6:  MOVLW  00
05FB8:  MOVLB  0
05FBA:  CALL   0FF8
05FBE:  TBLRD*-
05FC0:  TBLRD*+
05FC2:  MOVF   FF5,W
05FC4:  MOVWF  FEE
05FC6:  IORLW  00
05FC8:  BNZ   5FC0
05FCA:  MOVLB  6
05FCC:  BTFSC  x41.7
05FCE:  BSF    FF2.7
....................          displayMenu(Menus.Letra,0,51,0,1); 
05FD0:  MOVLW  06
05FD2:  MOVWF  x4A
05FD4:  MOVLW  2B
05FD6:  MOVWF  x49
05FD8:  CLRF   x4B
05FDA:  MOVLW  33
05FDC:  MOVWF  x4C
05FDE:  CLRF   x4D
05FE0:  MOVLW  01
05FE2:  MOVWF  x4E
05FE4:  MOVLB  0
05FE6:  CALL   3522
....................       } 
....................       glcd_update();  
05FEA:  CALL   2AE8
....................        
....................       if(w==0){ 
05FEE:  MOVLB  4
05FF0:  BTFSC  x1B.5
05FF2:  BRA    600E
....................          delay_ms(500);w=1; 
05FF4:  MOVLW  02
05FF6:  MOVLB  6
05FF8:  MOVWF  x41
05FFA:  MOVLW  FA
05FFC:  MOVWF  x4A
05FFE:  MOVLB  0
06000:  CALL   139A
06004:  MOVLB  6
06006:  DECFSZ x41,F
06008:  BRA    5FFA
0600A:  MOVLB  4
0600C:  BSF    x1B.5
....................       } 
....................           
....................       if(UP){//Si oprime hacia arriba         
0600E:  BSF    F96.1
06010:  BTFSS  F84.1
06012:  BRA    602C
....................          if(Flanco == 0){ 
06014:  BTFSC  x1A.0
06016:  BRA    602A
....................             Flanco = 1;delay_ms(30);Opcion--; 
06018:  BSF    x1A.0
0601A:  MOVLW  1E
0601C:  MOVLB  6
0601E:  MOVWF  x4A
06020:  MOVLB  0
06022:  CALL   139A
06026:  MOVLB  4
06028:  DECF   xDD,F
....................          } 
....................       }else{ 
0602A:  BRA    602E
....................          Flanco = 0; 
0602C:  BCF    x1A.0
....................       } 
....................              
....................       if(DOWN){//Si oprime hacia abajo 
0602E:  BSF    F96.2
06030:  BTFSS  F84.2
06032:  BRA    604C
....................          if(Flanco2 == 0){ 
06034:  BTFSC  x1A.2
06036:  BRA    604A
....................             Flanco2 = 1;delay_ms(30);Opcion++; 
06038:  BSF    x1A.2
0603A:  MOVLW  1E
0603C:  MOVLB  6
0603E:  MOVWF  x4A
06040:  MOVLB  0
06042:  CALL   139A
06046:  MOVLB  4
06048:  INCF   xDD,F
....................          } 
....................       }else{ 
0604A:  BRA    604E
....................          Flanco2 = 0; 
0604C:  BCF    x1A.2
....................       } 
....................              
....................       if(RIGHT){//Si oprime SET 
0604E:  BSF    F94.0
06050:  BTFSS  F82.0
06052:  BRA    609C
....................          if(Flanco1 == 0){ 
06054:  BTFSC  x1A.1
06056:  BRA    609A
....................             Flanco1 = 1;delay_ms(500);Menu=Opcion+3;Opcion=1;glcd_fillscreen(OFF);unidad=1; 
06058:  BSF    x1A.1
0605A:  MOVLW  02
0605C:  MOVLB  6
0605E:  MOVWF  x41
06060:  MOVLW  FA
06062:  MOVWF  x4A
06064:  MOVLB  0
06066:  CALL   139A
0606A:  MOVLB  6
0606C:  DECFSZ x41,F
0606E:  BRA    6060
06070:  MOVLW  03
06072:  MOVLB  4
06074:  ADDWF  xDD,W
06076:  MOVWF  xDB
06078:  MOVLW  01
0607A:  MOVWF  xDD
0607C:  MOVLB  6
0607E:  CLRF   x49
06080:  MOVLB  0
06082:  CALL   35EE
06086:  MOVLW  01
06088:  MOVLB  4
0608A:  MOVWF  xDC
....................             Contrasena[0]=0;Contrasena[1]=0;Contrasena[2]=0;Contrasena[3]=0;n=0; 
0608C:  MOVLB  5
0608E:  CLRF   x1F
06090:  CLRF   x20
06092:  CLRF   x21
06094:  CLRF   x22
06096:  MOVLB  4
06098:  BCF    x1D.0
....................          } 
....................       }else{ 
0609A:  BRA    609E
....................          Flanco1 = 0; 
0609C:  BCF    x1A.1
....................       } 
....................              
....................       if(LEFT){//Si oprime boton de Toma. 
0609E:  BSF    F94.1
060A0:  BTFSS  F82.1
060A2:  BRA    60CC
....................          delay_ms(700);Menu=2;glcd_fillscreen(OFF); 
060A4:  MOVLW  04
060A6:  MOVLB  6
060A8:  MOVWF  x41
060AA:  MOVLW  AF
060AC:  MOVWF  x4A
060AE:  MOVLB  0
060B0:  CALL   139A
060B4:  MOVLB  6
060B6:  DECFSZ x41,F
060B8:  BRA    60AA
060BA:  MOVLW  02
060BC:  MOVLB  4
060BE:  MOVWF  xDB
060C0:  MOVLB  6
060C2:  CLRF   x49
060C4:  MOVLB  0
060C6:  CALL   35EE
060CA:  MOVLB  4
....................       } 
....................              
....................       if(Opcion>3) 
060CC:  MOVF   xDD,W
060CE:  SUBLW  03
060D0:  BC    60D6
....................          Opcion=1; 
060D2:  MOVLW  01
060D4:  MOVWF  xDD
....................       if(Opcion<1) 
060D6:  MOVF   xDD,F
060D8:  BNZ   60DE
....................          Opcion=3; 
060DA:  MOVLW  03
060DC:  MOVWF  xDD
....................     } 
.................... //_--------------------------------------------------------------------------------------------------------------------------------------------------------        
....................  
.................... //_-------------------------------------------------------------------------------------------------------------------------------------------------------- 
....................       if(Menu==4){ //Menu de Ajustes. 
060DE:  MOVF   xDB,W
060E0:  SUBLW  04
060E2:  BTFSS  FD8.2
060E4:  BRA    6304
....................        
....................       strcpy(Menus.Letra,"Ajustes"); 
060E6:  MOVLW  06
060E8:  MOVWF  FEA
060EA:  MOVLW  2B
060EC:  MOVWF  FE9
060EE:  MOVFF  FF2,641
060F2:  BCF    FF2.7
060F4:  MOVLW  00
060F6:  MOVLB  0
060F8:  CALL   0FA4
060FC:  TBLRD*-
060FE:  TBLRD*+
06100:  MOVF   FF5,W
06102:  MOVWF  FEE
06104:  IORLW  00
06106:  BNZ   60FE
06108:  MOVLB  6
0610A:  BTFSC  x41.7
0610C:  BSF    FF2.7
....................       displayMenu(Menus.Letra,0,0,1,2); 
0610E:  MOVLW  06
06110:  MOVWF  x4A
06112:  MOVLW  2B
06114:  MOVWF  x49
06116:  CLRF   x4B
06118:  CLRF   x4C
0611A:  MOVLW  01
0611C:  MOVWF  x4D
0611E:  MOVLW  02
06120:  MOVWF  x4E
06122:  MOVLB  0
06124:  CALL   3522
....................        
....................       if(Opcion==1)    
06128:  MOVLB  4
0612A:  DECFSZ xDD,W
0612C:  BRA    6174
....................          {strcpy(Menus.Letra,"Tiempo Purga"); 
0612E:  MOVLW  06
06130:  MOVWF  FEA
06132:  MOVLW  2B
06134:  MOVWF  FE9
06136:  MOVFF  FF2,641
0613A:  BCF    FF2.7
0613C:  MOVLW  00
0613E:  MOVLB  0
06140:  CALL   101C
06144:  TBLRD*-
06146:  TBLRD*+
06148:  MOVF   FF5,W
0614A:  MOVWF  FEE
0614C:  IORLW  00
0614E:  BNZ   6146
06150:  MOVLB  6
06152:  BTFSC  x41.7
06154:  BSF    FF2.7
....................          displayMenu(Menus.Letra,0,20,1,1);} 
06156:  MOVLW  06
06158:  MOVWF  x4A
0615A:  MOVLW  2B
0615C:  MOVWF  x49
0615E:  CLRF   x4B
06160:  MOVLW  14
06162:  MOVWF  x4C
06164:  MOVLW  01
06166:  MOVWF  x4D
06168:  MOVWF  x4E
0616A:  MOVLB  0
0616C:  CALL   3522
....................       else 
06170:  BRA    61B6
06172:  MOVLB  4
....................          {strcpy(Menus.Letra,"Tiempo Purga"); 
06174:  MOVLW  06
06176:  MOVWF  FEA
06178:  MOVLW  2B
0617A:  MOVWF  FE9
0617C:  MOVFF  FF2,641
06180:  BCF    FF2.7
06182:  MOVLW  00
06184:  MOVLB  0
06186:  CALL   101C
0618A:  TBLRD*-
0618C:  TBLRD*+
0618E:  MOVF   FF5,W
06190:  MOVWF  FEE
06192:  IORLW  00
06194:  BNZ   618C
06196:  MOVLB  6
06198:  BTFSC  x41.7
0619A:  BSF    FF2.7
....................          displayMenu(Menus.Letra,0,20,0,1);} 
0619C:  MOVLW  06
0619E:  MOVWF  x4A
061A0:  MOVLW  2B
061A2:  MOVWF  x49
061A4:  CLRF   x4B
061A6:  MOVLW  14
061A8:  MOVWF  x4C
061AA:  CLRF   x4D
061AC:  MOVLW  01
061AE:  MOVWF  x4E
061B0:  MOVLB  0
061B2:  CALL   3522
....................           
....................       if(Opcion==2)    
061B6:  MOVLB  4
061B8:  MOVF   xDD,W
061BA:  SUBLW  02
061BC:  BNZ   6204
....................          {strcpy(Menus.Letra,"Tempo UV"); 
061BE:  MOVLW  06
061C0:  MOVWF  FEA
061C2:  MOVLW  2B
061C4:  MOVWF  FE9
061C6:  MOVFF  FF2,641
061CA:  BCF    FF2.7
061CC:  MOVLW  00
061CE:  MOVLB  0
061D0:  CALL   1048
061D4:  TBLRD*-
061D6:  TBLRD*+
061D8:  MOVF   FF5,W
061DA:  MOVWF  FEE
061DC:  IORLW  00
061DE:  BNZ   61D6
061E0:  MOVLB  6
061E2:  BTFSC  x41.7
061E4:  BSF    FF2.7
....................          displayMenu(Menus.Letra,0,35,1,1);} 
061E6:  MOVLW  06
061E8:  MOVWF  x4A
061EA:  MOVLW  2B
061EC:  MOVWF  x49
061EE:  CLRF   x4B
061F0:  MOVLW  23
061F2:  MOVWF  x4C
061F4:  MOVLW  01
061F6:  MOVWF  x4D
061F8:  MOVWF  x4E
061FA:  MOVLB  0
061FC:  CALL   3522
....................       else 
06200:  BRA    6246
06202:  MOVLB  4
....................          {strcpy(Menus.Letra,"Tempo UV"); 
06204:  MOVLW  06
06206:  MOVWF  FEA
06208:  MOVLW  2B
0620A:  MOVWF  FE9
0620C:  MOVFF  FF2,641
06210:  BCF    FF2.7
06212:  MOVLW  00
06214:  MOVLB  0
06216:  CALL   1048
0621A:  TBLRD*-
0621C:  TBLRD*+
0621E:  MOVF   FF5,W
06220:  MOVWF  FEE
06222:  IORLW  00
06224:  BNZ   621C
06226:  MOVLB  6
06228:  BTFSC  x41.7
0622A:  BSF    FF2.7
....................          displayMenu(Menus.Letra,0,35,0,1);}               
0622C:  MOVLW  06
0622E:  MOVWF  x4A
06230:  MOVLW  2B
06232:  MOVWF  x49
06234:  CLRF   x4B
06236:  MOVLW  23
06238:  MOVWF  x4C
0623A:  CLRF   x4D
0623C:  MOVLW  01
0623E:  MOVWF  x4E
06240:  MOVLB  0
06242:  CALL   3522
....................          
....................       if(UP)//Si oprime hacia arriba 
06246:  BSF    F96.1
06248:  BTFSS  F84.1
0624A:  BRA    6266
....................       {  if(Flanco == 0)  
0624C:  MOVLB  4
0624E:  BTFSC  x1A.0
06250:  BRA    6264
....................             {Flanco = 1;delay_ms(30);Opcion--; 
06252:  BSF    x1A.0
06254:  MOVLW  1E
06256:  MOVLB  6
06258:  MOVWF  x4A
0625A:  MOVLB  0
0625C:  CALL   139A
06260:  MOVLB  4
06262:  DECF   xDD,F
....................             } 
....................       } 
....................          else 
06264:  BRA    626A
....................             {Flanco = 0;} 
06266:  MOVLB  4
06268:  BCF    x1A.0
....................              
....................       if(DOWN)//Si oprime hacia abajo 
0626A:  BSF    F96.2
0626C:  BTFSS  F84.2
0626E:  BRA    6288
....................       {  if(Flanco2 == 0)  
06270:  BTFSC  x1A.2
06272:  BRA    6286
....................             {Flanco2 = 1;delay_ms(30);Opcion++; 
06274:  BSF    x1A.2
06276:  MOVLW  1E
06278:  MOVLB  6
0627A:  MOVWF  x4A
0627C:  MOVLB  0
0627E:  CALL   139A
06282:  MOVLB  4
06284:  INCF   xDD,F
....................             }      
....................       } 
....................          else 
06286:  BRA    628A
....................             {Flanco2 = 0;}   
06288:  BCF    x1A.2
....................              
....................       if(RIGHT)//Si oprime SET 
0628A:  BSF    F94.0
0628C:  BTFSS  F82.0
0628E:  BRA    62C2
....................       {  if(Flanco1 == 0)  
06290:  BTFSC  x1A.1
06292:  BRA    62C0
....................             {Flanco1 = 1;delay_ms(500);Menu=Opcion+10;glcd_fillScreen(OFF); 
06294:  BSF    x1A.1
06296:  MOVLW  02
06298:  MOVLB  6
0629A:  MOVWF  x41
0629C:  MOVLW  FA
0629E:  MOVWF  x4A
062A0:  MOVLB  0
062A2:  CALL   139A
062A6:  MOVLB  6
062A8:  DECFSZ x41,F
062AA:  BRA    629C
062AC:  MOVLW  0A
062AE:  MOVLB  4
062B0:  ADDWF  xDD,W
062B2:  MOVWF  xDB
062B4:  MOVLB  6
062B6:  CLRF   x49
062B8:  MOVLB  0
062BA:  CALL   35EE
062BE:  MOVLB  4
....................             } 
....................       } 
....................          else 
062C0:  BRA    62C4
....................             {Flanco1 = 0;}   
062C2:  BCF    x1A.1
....................              
....................       if(LEFT)//Si oprime boton de Toma. 
062C4:  BSF    F94.1
062C6:  BTFSS  F82.1
062C8:  BRA    62F2
....................         {delay_ms(700);Menu=3;glcd_fillscreen(OFF);} 
062CA:  MOVLW  04
062CC:  MOVLB  6
062CE:  MOVWF  x41
062D0:  MOVLW  AF
062D2:  MOVWF  x4A
062D4:  MOVLB  0
062D6:  CALL   139A
062DA:  MOVLB  6
062DC:  DECFSZ x41,F
062DE:  BRA    62D0
062E0:  MOVLW  03
062E2:  MOVLB  4
062E4:  MOVWF  xDB
062E6:  MOVLB  6
062E8:  CLRF   x49
062EA:  MOVLB  0
062EC:  CALL   35EE
062F0:  MOVLB  4
....................        
....................       if(Opcion>2) 
062F2:  MOVF   xDD,W
062F4:  SUBLW  02
062F6:  BC    62FC
....................       {Opcion=1;} 
062F8:  MOVLW  01
062FA:  MOVWF  xDD
....................       if(Opcion<1) 
062FC:  MOVF   xDD,F
062FE:  BNZ   6304
....................       {Opcion=2;} 
06300:  MOVLW  02
06302:  MOVWF  xDD
....................      
....................     } 
.................... //_--------------------------------------------------------------------------------------------------------------------------------------------------------        
.................... //_-------------------------------------------------------------------------------------------------------------------------------------------------------- 
....................       if(Menu==6){ //Menu de Modo. 
06304:  MOVF   xDB,W
06306:  SUBLW  06
06308:  BTFSS  FD8.2
0630A:  BRA    6532
....................        
....................       strcpy(Menus.Letra,"Modo"); 
0630C:  MOVLW  06
0630E:  MOVWF  FEA
06310:  MOVLW  2B
06312:  MOVWF  FE9
06314:  MOVFF  FF2,641
06318:  BCF    FF2.7
0631A:  MOVLW  00
0631C:  MOVLB  0
0631E:  CALL   0FF8
06322:  TBLRD*-
06324:  TBLRD*+
06326:  MOVF   FF5,W
06328:  MOVWF  FEE
0632A:  IORLW  00
0632C:  BNZ   6324
0632E:  MOVLB  6
06330:  BTFSC  x41.7
06332:  BSF    FF2.7
....................       displayMenu(Menus.Letra,40,0,1,2); 
06334:  MOVLW  06
06336:  MOVWF  x4A
06338:  MOVLW  2B
0633A:  MOVWF  x49
0633C:  MOVLW  28
0633E:  MOVWF  x4B
06340:  CLRF   x4C
06342:  MOVLW  01
06344:  MOVWF  x4D
06346:  MOVLW  02
06348:  MOVWF  x4E
0634A:  MOVLB  0
0634C:  CALL   3522
....................           
....................       if(Opcion==1)    
06350:  MOVLB  4
06352:  DECFSZ xDD,W
06354:  BRA    639C
....................          {strcpy(Menus.Letra,"Mantenimiento"); 
06356:  MOVLW  06
06358:  MOVWF  FEA
0635A:  MOVLW  2B
0635C:  MOVWF  FE9
0635E:  MOVFF  FF2,641
06362:  BCF    FF2.7
06364:  MOVLW  00
06366:  MOVLB  0
06368:  CALL   1070
0636C:  TBLRD*-
0636E:  TBLRD*+
06370:  MOVF   FF5,W
06372:  MOVWF  FEE
06374:  IORLW  00
06376:  BNZ   636E
06378:  MOVLB  6
0637A:  BTFSC  x41.7
0637C:  BSF    FF2.7
....................          displayMenu(Menus.Letra,0,19,1,1);} 
0637E:  MOVLW  06
06380:  MOVWF  x4A
06382:  MOVLW  2B
06384:  MOVWF  x49
06386:  CLRF   x4B
06388:  MOVLW  13
0638A:  MOVWF  x4C
0638C:  MOVLW  01
0638E:  MOVWF  x4D
06390:  MOVWF  x4E
06392:  MOVLB  0
06394:  CALL   3522
....................       else 
06398:  BRA    63DE
0639A:  MOVLB  4
....................          {strcpy(Menus.Letra,"Mantenimiento"); 
0639C:  MOVLW  06
0639E:  MOVWF  FEA
063A0:  MOVLW  2B
063A2:  MOVWF  FE9
063A4:  MOVFF  FF2,641
063A8:  BCF    FF2.7
063AA:  MOVLW  00
063AC:  MOVLB  0
063AE:  CALL   1070
063B2:  TBLRD*-
063B4:  TBLRD*+
063B6:  MOVF   FF5,W
063B8:  MOVWF  FEE
063BA:  IORLW  00
063BC:  BNZ   63B4
063BE:  MOVLB  6
063C0:  BTFSC  x41.7
063C2:  BSF    FF2.7
....................          displayMenu(Menus.Letra,0,19,0,1);}    
063C4:  MOVLW  06
063C6:  MOVWF  x4A
063C8:  MOVLW  2B
063CA:  MOVWF  x49
063CC:  CLRF   x4B
063CE:  MOVLW  13
063D0:  MOVWF  x4C
063D2:  CLRF   x4D
063D4:  MOVLW  01
063D6:  MOVWF  x4E
063D8:  MOVLB  0
063DA:  CALL   3522
....................           
....................       if(Opcion==2)    
063DE:  MOVLB  4
063E0:  MOVF   xDD,W
063E2:  SUBLW  02
063E4:  BNZ   642C
....................          {strcpy(Menus.Letra,"Servicio"); 
063E6:  MOVLW  06
063E8:  MOVWF  FEA
063EA:  MOVLW  2B
063EC:  MOVWF  FE9
063EE:  MOVFF  FF2,641
063F2:  BCF    FF2.7
063F4:  MOVLW  00
063F6:  MOVLB  0
063F8:  CALL   109C
063FC:  TBLRD*-
063FE:  TBLRD*+
06400:  MOVF   FF5,W
06402:  MOVWF  FEE
06404:  IORLW  00
06406:  BNZ   63FE
06408:  MOVLB  6
0640A:  BTFSC  x41.7
0640C:  BSF    FF2.7
....................          displayMenu(Menus.Letra,0,35,1,1);} 
0640E:  MOVLW  06
06410:  MOVWF  x4A
06412:  MOVLW  2B
06414:  MOVWF  x49
06416:  CLRF   x4B
06418:  MOVLW  23
0641A:  MOVWF  x4C
0641C:  MOVLW  01
0641E:  MOVWF  x4D
06420:  MOVWF  x4E
06422:  MOVLB  0
06424:  CALL   3522
....................       else 
06428:  BRA    646E
0642A:  MOVLB  4
....................          {strcpy(Menus.Letra,"Servicio"); 
0642C:  MOVLW  06
0642E:  MOVWF  FEA
06430:  MOVLW  2B
06432:  MOVWF  FE9
06434:  MOVFF  FF2,641
06438:  BCF    FF2.7
0643A:  MOVLW  00
0643C:  MOVLB  0
0643E:  CALL   109C
06442:  TBLRD*-
06444:  TBLRD*+
06446:  MOVF   FF5,W
06448:  MOVWF  FEE
0644A:  IORLW  00
0644C:  BNZ   6444
0644E:  MOVLB  6
06450:  BTFSC  x41.7
06452:  BSF    FF2.7
....................          displayMenu(Menus.Letra,0,35,0,1);}  
06454:  MOVLW  06
06456:  MOVWF  x4A
06458:  MOVLW  2B
0645A:  MOVWF  x49
0645C:  CLRF   x4B
0645E:  MOVLW  23
06460:  MOVWF  x4C
06462:  CLRF   x4D
06464:  MOVLW  01
06466:  MOVWF  x4E
06468:  MOVLB  0
0646A:  CALL   3522
....................          
....................       if(UP)//Si oprime hacia arriba 
0646E:  BSF    F96.1
06470:  BTFSS  F84.1
06472:  BRA    648E
....................       {  if(Flanco == 0)  
06474:  MOVLB  4
06476:  BTFSC  x1A.0
06478:  BRA    648C
....................             {Flanco = 1;delay_ms(30);Opcion--; 
0647A:  BSF    x1A.0
0647C:  MOVLW  1E
0647E:  MOVLB  6
06480:  MOVWF  x4A
06482:  MOVLB  0
06484:  CALL   139A
06488:  MOVLB  4
0648A:  DECF   xDD,F
....................             } 
....................       } 
....................          else 
0648C:  BRA    6492
....................             {Flanco = 0;} 
0648E:  MOVLB  4
06490:  BCF    x1A.0
....................              
....................       if(DOWN)//Si oprime hacia abajo 
06492:  BSF    F96.2
06494:  BTFSS  F84.2
06496:  BRA    64B0
....................       {  if(Flanco2 == 0)  
06498:  BTFSC  x1A.2
0649A:  BRA    64AE
....................             {Flanco2 = 1;delay_ms(30);Opcion++; 
0649C:  BSF    x1A.2
0649E:  MOVLW  1E
064A0:  MOVLB  6
064A2:  MOVWF  x4A
064A4:  MOVLB  0
064A6:  CALL   139A
064AA:  MOVLB  4
064AC:  INCF   xDD,F
....................             }      
....................       } 
....................          else 
064AE:  BRA    64B2
....................             {Flanco2 = 0;}   
064B0:  BCF    x1A.2
....................              
....................       if(RIGHT)//Si oprime SET 
064B2:  BSF    F94.0
064B4:  BTFSS  F82.0
064B6:  BRA    64F0
....................       {  if(Flanco1 == 0)  
064B8:  BTFSC  x1A.1
064BA:  BRA    64EE
....................             {Flanco1 = 1;delay_ms(500);Menu=Opcion+30;glcd_fillScreen(OFF);Opcion=1;unidad=1; 
064BC:  BSF    x1A.1
064BE:  MOVLW  02
064C0:  MOVLB  6
064C2:  MOVWF  x41
064C4:  MOVLW  FA
064C6:  MOVWF  x4A
064C8:  MOVLB  0
064CA:  CALL   139A
064CE:  MOVLB  6
064D0:  DECFSZ x41,F
064D2:  BRA    64C4
064D4:  MOVLW  1E
064D6:  MOVLB  4
064D8:  ADDWF  xDD,W
064DA:  MOVWF  xDB
064DC:  MOVLB  6
064DE:  CLRF   x49
064E0:  MOVLB  0
064E2:  CALL   35EE
064E6:  MOVLW  01
064E8:  MOVLB  4
064EA:  MOVWF  xDD
064EC:  MOVWF  xDC
....................             } 
....................       } 
....................          else 
064EE:  BRA    64F2
....................             {Flanco1 = 0;}   
064F0:  BCF    x1A.1
....................              
....................       if(LEFT)//Si oprime boton de Toma. 
064F2:  BSF    F94.1
064F4:  BTFSS  F82.1
064F6:  BRA    6520
....................         {delay_ms(700);Menu=3;glcd_fillscreen(OFF);} 
064F8:  MOVLW  04
064FA:  MOVLB  6
064FC:  MOVWF  x41
064FE:  MOVLW  AF
06500:  MOVWF  x4A
06502:  MOVLB  0
06504:  CALL   139A
06508:  MOVLB  6
0650A:  DECFSZ x41,F
0650C:  BRA    64FE
0650E:  MOVLW  03
06510:  MOVLB  4
06512:  MOVWF  xDB
06514:  MOVLB  6
06516:  CLRF   x49
06518:  MOVLB  0
0651A:  CALL   35EE
0651E:  MOVLB  4
....................       if(Opcion>2) 
06520:  MOVF   xDD,W
06522:  SUBLW  02
06524:  BC    652A
....................       {Opcion=1;} 
06526:  MOVLW  01
06528:  MOVWF  xDD
....................       if(Opcion<1) 
0652A:  MOVF   xDD,F
0652C:  BNZ   6532
....................       {Opcion=2;} 
0652E:  MOVLW  02
06530:  MOVWF  xDD
....................      
....................     } 
.................... //_--------------------------------------------------------------------------------------------------------------------------------------------------------        
....................  
.................... //_-------------------------------------------------------------------------------------------------------------------------------------------------------- 
....................       if(Menu==11){ //Menu de Purga. 
06532:  MOVF   xDB,W
06534:  SUBLW  0B
06536:  BTFSS  FD8.2
06538:  BRA    68FA
....................        
....................       strcpy(Menus.Letra,"T. Purga"); 
0653A:  MOVLW  06
0653C:  MOVWF  FEA
0653E:  MOVLW  2B
06540:  MOVWF  FE9
06542:  MOVFF  FF2,641
06546:  BCF    FF2.7
06548:  MOVLW  00
0654A:  MOVLB  0
0654C:  CALL   10C4
06550:  TBLRD*-
06552:  TBLRD*+
06554:  MOVF   FF5,W
06556:  MOVWF  FEE
06558:  IORLW  00
0655A:  BNZ   6552
0655C:  MOVLB  6
0655E:  BTFSC  x41.7
06560:  BSF    FF2.7
....................       displayMenu(Menus.Letra,10,0,1,2); 
06562:  MOVLW  06
06564:  MOVWF  x4A
06566:  MOVLW  2B
06568:  MOVWF  x49
0656A:  MOVLW  0A
0656C:  MOVWF  x4B
0656E:  CLRF   x4C
06570:  MOVLW  01
06572:  MOVWF  x4D
06574:  MOVLW  02
06576:  MOVWF  x4E
06578:  MOVLB  0
0657A:  CALL   3522
....................        
....................       if(unidad==4) 
0657E:  MOVLB  4
06580:  MOVF   xDC,W
06582:  SUBLW  04
06584:  BNZ   65A4
....................       {displayTiempo(Tpurgap[3],20,40,1,2);} 
06586:  MOVFF  506,641
0658A:  MOVLW  14
0658C:  MOVLB  6
0658E:  MOVWF  x42
06590:  MOVLW  28
06592:  MOVWF  x43
06594:  MOVLW  01
06596:  MOVWF  x44
06598:  MOVLW  02
0659A:  MOVWF  x45
0659C:  MOVLB  0
0659E:  CALL   3D46
....................       else 
065A2:  BRA    65BE
....................       {displayTiempo(Tpurgap[3],20,40,0,2);} 
065A4:  MOVFF  506,641
065A8:  MOVLW  14
065AA:  MOVLB  6
065AC:  MOVWF  x42
065AE:  MOVLW  28
065B0:  MOVWF  x43
065B2:  CLRF   x44
065B4:  MOVLW  02
065B6:  MOVWF  x45
065B8:  MOVLB  0
065BA:  CALL   3D46
....................        
....................       if(unidad==3) 
065BE:  MOVLB  4
065C0:  MOVF   xDC,W
065C2:  SUBLW  03
065C4:  BNZ   65E2
....................       {displayTiempo(Tpurgap[2],40,40,1,2);} 
065C6:  MOVFF  505,641
065CA:  MOVLW  28
065CC:  MOVLB  6
065CE:  MOVWF  x42
065D0:  MOVWF  x43
065D2:  MOVLW  01
065D4:  MOVWF  x44
065D6:  MOVLW  02
065D8:  MOVWF  x45
065DA:  MOVLB  0
065DC:  CALL   3D46
....................       else 
065E0:  BRA    65FA
....................       {displayTiempo(Tpurgap[2],40,40,0,2);} 
065E2:  MOVFF  505,641
065E6:  MOVLW  28
065E8:  MOVLB  6
065EA:  MOVWF  x42
065EC:  MOVWF  x43
065EE:  CLRF   x44
065F0:  MOVLW  02
065F2:  MOVWF  x45
065F4:  MOVLB  0
065F6:  CALL   3D46
....................        
....................       if(unidad==2) 
065FA:  MOVLB  4
065FC:  MOVF   xDC,W
065FE:  SUBLW  02
06600:  BNZ   6620
....................       {displayTiempo(Tpurgap[1],70,40,1,2);} 
06602:  MOVFF  504,641
06606:  MOVLW  46
06608:  MOVLB  6
0660A:  MOVWF  x42
0660C:  MOVLW  28
0660E:  MOVWF  x43
06610:  MOVLW  01
06612:  MOVWF  x44
06614:  MOVLW  02
06616:  MOVWF  x45
06618:  MOVLB  0
0661A:  CALL   3D46
....................       else 
0661E:  BRA    663A
....................       {displayTiempo(Tpurgap[1],70,40,0,2);} 
06620:  MOVFF  504,641
06624:  MOVLW  46
06626:  MOVLB  6
06628:  MOVWF  x42
0662A:  MOVLW  28
0662C:  MOVWF  x43
0662E:  CLRF   x44
06630:  MOVLW  02
06632:  MOVWF  x45
06634:  MOVLB  0
06636:  CALL   3D46
....................        
....................       if(unidad==1) 
0663A:  MOVLB  4
0663C:  DECFSZ xDC,W
0663E:  BRA    665E
....................       {displayTiempo(Tpurgap[0],90,40,1,2);} 
06640:  MOVFF  503,641
06644:  MOVLW  5A
06646:  MOVLB  6
06648:  MOVWF  x42
0664A:  MOVLW  28
0664C:  MOVWF  x43
0664E:  MOVLW  01
06650:  MOVWF  x44
06652:  MOVLW  02
06654:  MOVWF  x45
06656:  MOVLB  0
06658:  CALL   3D46
....................       else 
0665C:  BRA    6678
....................       {displayTiempo(Tpurgap[0],90,40,0,2);} 
0665E:  MOVFF  503,641
06662:  MOVLW  5A
06664:  MOVLB  6
06666:  MOVWF  x42
06668:  MOVLW  28
0666A:  MOVWF  x43
0666C:  CLRF   x44
0666E:  MOVLW  02
06670:  MOVWF  x45
06672:  MOVLB  0
06674:  CALL   3D46
....................        
....................       glcd_text57(60, 42, Dos_puntos, 2, ON); 
06678:  MOVLW  3C
0667A:  MOVLB  6
0667C:  MOVWF  x5A
0667E:  MOVLW  2A
06680:  MOVWF  x5B
06682:  MOVLW  04
06684:  MOVWF  x5D
06686:  MOVLW  46
06688:  MOVWF  x5C
0668A:  MOVLW  02
0668C:  MOVWF  x5E
0668E:  MOVLW  01
06690:  MOVWF  x5F
06692:  MOVLB  0
06694:  CALL   32B4
....................           
....................          
....................       if(UP)//Si oprime hacia arriba 
06698:  BSF    F96.1
0669A:  BTFSS  F84.1
0669C:  BRA    66C8
....................       {  if(Flanco == 0)  
0669E:  MOVLB  4
066A0:  BTFSC  x1A.0
066A2:  BRA    66C6
....................             {Flanco = 1;delay_ms(30);Tpurgap[unidad-1]++; 
066A4:  BSF    x1A.0
066A6:  MOVLW  1E
066A8:  MOVLB  6
066AA:  MOVWF  x4A
066AC:  MOVLB  0
066AE:  CALL   139A
066B2:  MOVLW  01
066B4:  MOVLB  4
066B6:  SUBWF  xDC,W
066B8:  CLRF   03
066BA:  ADDLW  03
066BC:  MOVWF  FE9
066BE:  MOVLW  05
066C0:  ADDWFC 03,W
066C2:  MOVWF  FEA
066C4:  INCF   FEF,F
....................             } 
....................       } 
....................          else 
066C6:  BRA    66CC
....................             {Flanco = 0;} 
066C8:  MOVLB  4
066CA:  BCF    x1A.0
....................              
....................       if(DOWN)//Si oprime hacia abajo 
066CC:  BSF    F96.2
066CE:  BTFSS  F84.2
066D0:  BRA    66FA
....................       {  if(Flanco2 == 0)  
066D2:  BTFSC  x1A.2
066D4:  BRA    66F8
....................             {Flanco2 = 1;delay_ms(30);Tpurgap[unidad-1]--; 
066D6:  BSF    x1A.2
066D8:  MOVLW  1E
066DA:  MOVLB  6
066DC:  MOVWF  x4A
066DE:  MOVLB  0
066E0:  CALL   139A
066E4:  MOVLW  01
066E6:  MOVLB  4
066E8:  SUBWF  xDC,W
066EA:  CLRF   03
066EC:  ADDLW  03
066EE:  MOVWF  FE9
066F0:  MOVLW  05
066F2:  ADDWFC 03,W
066F4:  MOVWF  FEA
066F6:  DECF   FEF,F
....................             }      
....................       } 
....................          else 
066F8:  BRA    66FC
....................             {Flanco2 = 0;}   
066FA:  BCF    x1A.2
....................              
....................       if(RIGHT)//Si oprime SET 
066FC:  BSF    F94.0
066FE:  BTFSS  F82.0
06700:  BRA    671A
....................       {  if(Flanco1 == 0)  
06702:  BTFSC  x1A.1
06704:  BRA    6718
....................             {Flanco1 = 1;delay_ms(30);unidad--; 
06706:  BSF    x1A.1
06708:  MOVLW  1E
0670A:  MOVLB  6
0670C:  MOVWF  x4A
0670E:  MOVLB  0
06710:  CALL   139A
06714:  MOVLB  4
06716:  DECF   xDC,F
....................             } 
....................       } 
....................          else 
06718:  BRA    671C
....................             {Flanco1 = 0;}   
0671A:  BCF    x1A.1
....................              
....................       if(LEFT)//Si oprime boton de Toma. 
0671C:  BSF    F94.1
0671E:  BTFSS  F82.1
06720:  BRA    6832
....................       { 
....................          delay_ms(700);Menu=4;glcd_fillscreen(OFF);Opcion=1;unidad=1; 
06722:  MOVLW  04
06724:  MOVLB  6
06726:  MOVWF  x41
06728:  MOVLW  AF
0672A:  MOVWF  x4A
0672C:  MOVLB  0
0672E:  CALL   139A
06732:  MOVLB  6
06734:  DECFSZ x41,F
06736:  BRA    6728
06738:  MOVLW  04
0673A:  MOVLB  4
0673C:  MOVWF  xDB
0673E:  MOVLB  6
06740:  CLRF   x49
06742:  MOVLB  0
06744:  CALL   35EE
06748:  MOVLW  01
0674A:  MOVLB  4
0674C:  MOVWF  xDD
0674E:  MOVWF  xDC
....................          write_eeprom(4,Tpurgap[0]); 
06750:  CLRF   FAA
06752:  MOVLW  04
06754:  MOVWF  FA9
06756:  MOVFF  503,FA8
0675A:  BCF    FA6.6
0675C:  BCF    FA6.7
0675E:  BSF    FA6.2
06760:  MOVF   FF2,W
06762:  MOVWF  00
06764:  BCF    FF2.7
06766:  MOVLB  F
06768:  MOVLW  55
0676A:  MOVWF  FA7
0676C:  MOVLW  AA
0676E:  MOVWF  FA7
06770:  BSF    FA6.1
06772:  BTFSC  FA6.1
06774:  BRA    6772
06776:  BCF    FA6.2
06778:  MOVF   00,W
0677A:  IORWF  FF2,F
....................          delay_ms(20); 
0677C:  MOVLW  14
0677E:  MOVLB  6
06780:  MOVWF  x4A
06782:  MOVLB  0
06784:  CALL   139A
....................          write_eeprom(5,Tpurgap[1]); 
06788:  CLRF   FAA
0678A:  MOVLW  05
0678C:  MOVWF  FA9
0678E:  MOVFF  504,FA8
06792:  BCF    FA6.6
06794:  BCF    FA6.7
06796:  BSF    FA6.2
06798:  MOVF   FF2,W
0679A:  MOVWF  00
0679C:  BCF    FF2.7
0679E:  MOVLB  F
067A0:  MOVLW  55
067A2:  MOVWF  FA7
067A4:  MOVLW  AA
067A6:  MOVWF  FA7
067A8:  BSF    FA6.1
067AA:  BTFSC  FA6.1
067AC:  BRA    67AA
067AE:  BCF    FA6.2
067B0:  MOVF   00,W
067B2:  IORWF  FF2,F
....................          delay_ms(20); 
067B4:  MOVLW  14
067B6:  MOVLB  6
067B8:  MOVWF  x4A
067BA:  MOVLB  0
067BC:  CALL   139A
....................          write_eeprom(6,Tpurgap[2]); 
067C0:  CLRF   FAA
067C2:  MOVLW  06
067C4:  MOVWF  FA9
067C6:  MOVFF  505,FA8
067CA:  BCF    FA6.6
067CC:  BCF    FA6.7
067CE:  BSF    FA6.2
067D0:  MOVF   FF2,W
067D2:  MOVWF  00
067D4:  BCF    FF2.7
067D6:  MOVLB  F
067D8:  MOVLW  55
067DA:  MOVWF  FA7
067DC:  MOVLW  AA
067DE:  MOVWF  FA7
067E0:  BSF    FA6.1
067E2:  BTFSC  FA6.1
067E4:  BRA    67E2
067E6:  BCF    FA6.2
067E8:  MOVF   00,W
067EA:  IORWF  FF2,F
....................          delay_ms(20); 
067EC:  MOVLW  14
067EE:  MOVLB  6
067F0:  MOVWF  x4A
067F2:  MOVLB  0
067F4:  CALL   139A
....................          write_eeprom(7,Tpurgap[3]); 
067F8:  CLRF   FAA
067FA:  MOVLW  07
067FC:  MOVWF  FA9
067FE:  MOVFF  506,FA8
06802:  BCF    FA6.6
06804:  BCF    FA6.7
06806:  BSF    FA6.2
06808:  MOVF   FF2,W
0680A:  MOVWF  00
0680C:  BCF    FF2.7
0680E:  MOVLB  F
06810:  MOVLW  55
06812:  MOVWF  FA7
06814:  MOVLW  AA
06816:  MOVWF  FA7
06818:  BSF    FA6.1
0681A:  BTFSC  FA6.1
0681C:  BRA    681A
0681E:  BCF    FA6.2
06820:  MOVF   00,W
06822:  IORWF  FF2,F
....................          delay_ms(20); 
06824:  MOVLW  14
06826:  MOVLB  6
06828:  MOVWF  x4A
0682A:  MOVLB  0
0682C:  CALL   139A
06830:  MOVLB  4
....................       } 
....................        
....................       for(i=0;i<4;i++) 
06832:  CLRF   x19
06834:  MOVF   x19,W
06836:  SUBLW  03
06838:  BNC   688C
....................       { 
....................          if(Tpurgap[i]>9) 
0683A:  CLRF   03
0683C:  MOVF   x19,W
0683E:  ADDLW  03
06840:  MOVWF  FE9
06842:  MOVLW  05
06844:  ADDWFC 03,W
06846:  MOVWF  FEA
06848:  BTFSC  FEF.7
0684A:  BRA    6862
0684C:  MOVF   FEF,W
0684E:  SUBLW  09
06850:  BC    6862
....................          {Tpurgap[i]=0;} 
06852:  CLRF   03
06854:  MOVF   x19,W
06856:  ADDLW  03
06858:  MOVWF  FE9
0685A:  MOVLW  05
0685C:  ADDWFC 03,W
0685E:  MOVWF  FEA
06860:  CLRF   FEF
....................           
....................          if(Tpurgap[i]<0) 
06862:  CLRF   03
06864:  MOVF   x19,W
06866:  ADDLW  03
06868:  MOVWF  FE9
0686A:  MOVLW  05
0686C:  ADDWFC 03,W
0686E:  MOVWF  FEA
06870:  BTFSC  FEF.7
06872:  BRA    6876
06874:  BRA    6888
....................          {Tpurgap[i]=9;} 
06876:  CLRF   03
06878:  MOVF   x19,W
0687A:  ADDLW  03
0687C:  MOVWF  FE9
0687E:  MOVLW  05
06880:  ADDWFC 03,W
06882:  MOVWF  FEA
06884:  MOVLW  09
06886:  MOVWF  FEF
....................       }       
06888:  INCF   x19,F
0688A:  BRA    6834
....................       for(i=1;i<4;i++) 
0688C:  MOVLW  01
0688E:  MOVWF  x19
06890:  MOVF   x19,W
06892:  SUBLW  03
06894:  BNC   68EA
....................       { 
....................          if(Tpurgap[i]>5) 
06896:  CLRF   03
06898:  MOVF   x19,W
0689A:  ADDLW  03
0689C:  MOVWF  FE9
0689E:  MOVLW  05
068A0:  ADDWFC 03,W
068A2:  MOVWF  FEA
068A4:  BTFSC  FEF.7
068A6:  BRA    68BE
068A8:  MOVF   FEF,W
068AA:  SUBLW  05
068AC:  BC    68BE
....................          {Tpurgap[i]=0;} 
068AE:  CLRF   03
068B0:  MOVF   x19,W
068B2:  ADDLW  03
068B4:  MOVWF  FE9
068B6:  MOVLW  05
068B8:  ADDWFC 03,W
068BA:  MOVWF  FEA
068BC:  CLRF   FEF
....................           
....................          if(Tpurgap[i]<0) 
068BE:  CLRF   03
068C0:  MOVF   x19,W
068C2:  ADDLW  03
068C4:  MOVWF  FE9
068C6:  MOVLW  05
068C8:  ADDWFC 03,W
068CA:  MOVWF  FEA
068CC:  BTFSC  FEF.7
068CE:  BRA    68D2
068D0:  BRA    68E4
....................          {Tpurgap[i]=5;} 
068D2:  CLRF   03
068D4:  MOVF   x19,W
068D6:  ADDLW  03
068D8:  MOVWF  FE9
068DA:  MOVLW  05
068DC:  ADDWFC 03,W
068DE:  MOVWF  FEA
068E0:  MOVLW  05
068E2:  MOVWF  FEF
....................         i++;  
068E4:  INCF   x19,F
....................       } 
068E6:  INCF   x19,F
068E8:  BRA    6890
....................       if(unidad<1) 
068EA:  MOVF   xDC,F
068EC:  BNZ   68F2
....................       {unidad=4;} 
068EE:  MOVLW  04
068F0:  MOVWF  xDC
....................       if(Opcion<1) 
068F2:  MOVF   xDD,F
068F4:  BNZ   68FA
....................       {Opcion=4;} 
068F6:  MOVLW  04
068F8:  MOVWF  xDD
....................      
....................     } 
.................... //_--------------------------------------------------------------------------------------------------------------------------------------------------------        
....................  
.................... //_-------------------------------------------------------------------------------------------------------------------------------------------------------- 
....................       if(Menu==12){ //Menu de Tempo UV. 
068FA:  MOVF   xDB,W
068FC:  SUBLW  0C
068FE:  BTFSS  FD8.2
06900:  BRA    6CCE
....................        
....................       strcpy(Menus.Letra,"T. UV"); 
06902:  MOVLW  06
06904:  MOVWF  FEA
06906:  MOVLW  2B
06908:  MOVWF  FE9
0690A:  MOVFF  FF2,641
0690E:  BCF    FF2.7
06910:  MOVLW  00
06912:  MOVLB  0
06914:  CALL   10EC
06918:  TBLRD*-
0691A:  TBLRD*+
0691C:  MOVF   FF5,W
0691E:  MOVWF  FEE
06920:  IORLW  00
06922:  BNZ   691A
06924:  MOVLB  6
06926:  BTFSC  x41.7
06928:  BSF    FF2.7
....................       displayMenu(Menus.Letra,30,0,1,2); 
0692A:  MOVLW  06
0692C:  MOVWF  x4A
0692E:  MOVLW  2B
06930:  MOVWF  x49
06932:  MOVLW  1E
06934:  MOVWF  x4B
06936:  CLRF   x4C
06938:  MOVLW  01
0693A:  MOVWF  x4D
0693C:  MOVLW  02
0693E:  MOVWF  x4E
06940:  MOVLB  0
06942:  CALL   3522
....................        
....................       if(unidad==4) 
06946:  MOVLB  4
06948:  MOVF   xDC,W
0694A:  SUBLW  04
0694C:  BNZ   696C
....................       {displayTiempo(Tempouvp[3],20,40,1,2);} 
0694E:  MOVFF  51A,641
06952:  MOVLW  14
06954:  MOVLB  6
06956:  MOVWF  x42
06958:  MOVLW  28
0695A:  MOVWF  x43
0695C:  MOVLW  01
0695E:  MOVWF  x44
06960:  MOVLW  02
06962:  MOVWF  x45
06964:  MOVLB  0
06966:  CALL   3D46
....................       else 
0696A:  BRA    6986
....................       {displayTiempo(Tempouvp[3],20,40,0,2);} 
0696C:  MOVFF  51A,641
06970:  MOVLW  14
06972:  MOVLB  6
06974:  MOVWF  x42
06976:  MOVLW  28
06978:  MOVWF  x43
0697A:  CLRF   x44
0697C:  MOVLW  02
0697E:  MOVWF  x45
06980:  MOVLB  0
06982:  CALL   3D46
....................        
....................       if(unidad==3) 
06986:  MOVLB  4
06988:  MOVF   xDC,W
0698A:  SUBLW  03
0698C:  BNZ   69AA
....................       {displayTiempo(Tempouvp[2],40,40,1,2);} 
0698E:  MOVFF  519,641
06992:  MOVLW  28
06994:  MOVLB  6
06996:  MOVWF  x42
06998:  MOVWF  x43
0699A:  MOVLW  01
0699C:  MOVWF  x44
0699E:  MOVLW  02
069A0:  MOVWF  x45
069A2:  MOVLB  0
069A4:  CALL   3D46
....................       else 
069A8:  BRA    69C2
....................       {displayTiempo(Tempouvp[2],40,40,0,2);} 
069AA:  MOVFF  519,641
069AE:  MOVLW  28
069B0:  MOVLB  6
069B2:  MOVWF  x42
069B4:  MOVWF  x43
069B6:  CLRF   x44
069B8:  MOVLW  02
069BA:  MOVWF  x45
069BC:  MOVLB  0
069BE:  CALL   3D46
....................        
....................       if(unidad==2) 
069C2:  MOVLB  4
069C4:  MOVF   xDC,W
069C6:  SUBLW  02
069C8:  BNZ   69E8
....................       {displayTiempo(Tempouvp[1],70,40,1,2);} 
069CA:  MOVFF  518,641
069CE:  MOVLW  46
069D0:  MOVLB  6
069D2:  MOVWF  x42
069D4:  MOVLW  28
069D6:  MOVWF  x43
069D8:  MOVLW  01
069DA:  MOVWF  x44
069DC:  MOVLW  02
069DE:  MOVWF  x45
069E0:  MOVLB  0
069E2:  CALL   3D46
....................       else 
069E6:  BRA    6A02
....................       {displayTiempo(Tempouvp[1],70,40,0,2);} 
069E8:  MOVFF  518,641
069EC:  MOVLW  46
069EE:  MOVLB  6
069F0:  MOVWF  x42
069F2:  MOVLW  28
069F4:  MOVWF  x43
069F6:  CLRF   x44
069F8:  MOVLW  02
069FA:  MOVWF  x45
069FC:  MOVLB  0
069FE:  CALL   3D46
....................        
....................       if(unidad==1) 
06A02:  MOVLB  4
06A04:  DECFSZ xDC,W
06A06:  BRA    6A26
....................       {displayTiempo(Tempouvp[0],90,40,1,2);} 
06A08:  MOVFF  517,641
06A0C:  MOVLW  5A
06A0E:  MOVLB  6
06A10:  MOVWF  x42
06A12:  MOVLW  28
06A14:  MOVWF  x43
06A16:  MOVLW  01
06A18:  MOVWF  x44
06A1A:  MOVLW  02
06A1C:  MOVWF  x45
06A1E:  MOVLB  0
06A20:  CALL   3D46
....................       else 
06A24:  BRA    6A40
....................       {displayTiempo(Tempouvp[0],90,40,0,2);} 
06A26:  MOVFF  517,641
06A2A:  MOVLW  5A
06A2C:  MOVLB  6
06A2E:  MOVWF  x42
06A30:  MOVLW  28
06A32:  MOVWF  x43
06A34:  CLRF   x44
06A36:  MOVLW  02
06A38:  MOVWF  x45
06A3A:  MOVLB  0
06A3C:  CALL   3D46
....................        
....................       glcd_text57(60, 42, Dos_puntos, 2, ON); 
06A40:  MOVLW  3C
06A42:  MOVLB  6
06A44:  MOVWF  x5A
06A46:  MOVLW  2A
06A48:  MOVWF  x5B
06A4A:  MOVLW  04
06A4C:  MOVWF  x5D
06A4E:  MOVLW  46
06A50:  MOVWF  x5C
06A52:  MOVLW  02
06A54:  MOVWF  x5E
06A56:  MOVLW  01
06A58:  MOVWF  x5F
06A5A:  MOVLB  0
06A5C:  CALL   32B4
....................           
....................          
....................       if(UP)//Si oprime hacia arriba 
06A60:  BSF    F96.1
06A62:  BTFSS  F84.1
06A64:  BRA    6A90
....................       {  if(Flanco == 0)  
06A66:  MOVLB  4
06A68:  BTFSC  x1A.0
06A6A:  BRA    6A8E
....................             {Flanco = 1;delay_ms(30);Tempouvp[unidad-1]++; 
06A6C:  BSF    x1A.0
06A6E:  MOVLW  1E
06A70:  MOVLB  6
06A72:  MOVWF  x4A
06A74:  MOVLB  0
06A76:  CALL   139A
06A7A:  MOVLW  01
06A7C:  MOVLB  4
06A7E:  SUBWF  xDC,W
06A80:  CLRF   03
06A82:  ADDLW  17
06A84:  MOVWF  FE9
06A86:  MOVLW  05
06A88:  ADDWFC 03,W
06A8A:  MOVWF  FEA
06A8C:  INCF   FEF,F
....................             } 
....................       } 
....................          else 
06A8E:  BRA    6A94
....................             {Flanco = 0;} 
06A90:  MOVLB  4
06A92:  BCF    x1A.0
....................              
....................       if(DOWN )//Si oprime hacia abajo 
06A94:  BSF    F96.2
06A96:  BTFSS  F84.2
06A98:  BRA    6AC2
....................       {  if(Flanco2 == 0)  
06A9A:  BTFSC  x1A.2
06A9C:  BRA    6AC0
....................             {Flanco2 = 1;delay_ms(30);Tempouvp[unidad-1]--; 
06A9E:  BSF    x1A.2
06AA0:  MOVLW  1E
06AA2:  MOVLB  6
06AA4:  MOVWF  x4A
06AA6:  MOVLB  0
06AA8:  CALL   139A
06AAC:  MOVLW  01
06AAE:  MOVLB  4
06AB0:  SUBWF  xDC,W
06AB2:  CLRF   03
06AB4:  ADDLW  17
06AB6:  MOVWF  FE9
06AB8:  MOVLW  05
06ABA:  ADDWFC 03,W
06ABC:  MOVWF  FEA
06ABE:  DECF   FEF,F
....................             }      
....................       } 
....................          else 
06AC0:  BRA    6AC4
....................             {Flanco2 = 0;}   
06AC2:  BCF    x1A.2
....................              
....................       if(RIGHT)//Si oprime SET 
06AC4:  BSF    F94.0
06AC6:  BTFSS  F82.0
06AC8:  BRA    6AE2
....................       {  if(Flanco1 == 0)  
06ACA:  BTFSC  x1A.1
06ACC:  BRA    6AE0
....................             {Flanco1 = 1;delay_ms(30);unidad--; 
06ACE:  BSF    x1A.1
06AD0:  MOVLW  1E
06AD2:  MOVLB  6
06AD4:  MOVWF  x4A
06AD6:  MOVLB  0
06AD8:  CALL   139A
06ADC:  MOVLB  4
06ADE:  DECF   xDC,F
....................             } 
....................       } 
....................          else 
06AE0:  BRA    6AE4
....................             {Flanco1 = 0;}   
06AE2:  BCF    x1A.1
....................              
....................       if(LEFT)//Si oprime boton de Toma. 
06AE4:  BSF    F94.1
06AE6:  BTFSS  F82.1
06AE8:  BRA    6C04
....................       { 
....................          delay_ms(700);Menu=4;glcd_fillscreen(OFF);Opcion=1;unidad=1; 
06AEA:  MOVLW  04
06AEC:  MOVLB  6
06AEE:  MOVWF  x41
06AF0:  MOVLW  AF
06AF2:  MOVWF  x4A
06AF4:  MOVLB  0
06AF6:  CALL   139A
06AFA:  MOVLB  6
06AFC:  DECFSZ x41,F
06AFE:  BRA    6AF0
06B00:  MOVLW  04
06B02:  MOVLB  4
06B04:  MOVWF  xDB
06B06:  MOVLB  6
06B08:  CLRF   x49
06B0A:  MOVLB  0
06B0C:  CALL   35EE
06B10:  MOVLW  01
06B12:  MOVLB  4
06B14:  MOVWF  xDD
06B16:  MOVWF  xDC
....................          write_eeprom(21,Tempouvp[0]); 
06B18:  CLRF   FAA
06B1A:  MOVLW  15
06B1C:  MOVWF  FA9
06B1E:  MOVFF  517,FA8
06B22:  BCF    FA6.6
06B24:  BCF    FA6.7
06B26:  BSF    FA6.2
06B28:  MOVF   FF2,W
06B2A:  MOVWF  00
06B2C:  BCF    FF2.7
06B2E:  MOVLB  F
06B30:  MOVLW  55
06B32:  MOVWF  FA7
06B34:  MOVLW  AA
06B36:  MOVWF  FA7
06B38:  BSF    FA6.1
06B3A:  BTFSC  FA6.1
06B3C:  BRA    6B3A
06B3E:  BCF    FA6.2
06B40:  MOVF   00,W
06B42:  IORWF  FF2,F
....................          delay_ms(20); 
06B44:  MOVLW  14
06B46:  MOVLB  6
06B48:  MOVWF  x4A
06B4A:  MOVLB  0
06B4C:  CALL   139A
....................          write_eeprom(22,Tempouvp[1]); 
06B50:  CLRF   FAA
06B52:  MOVLW  16
06B54:  MOVWF  FA9
06B56:  MOVFF  518,FA8
06B5A:  BCF    FA6.6
06B5C:  BCF    FA6.7
06B5E:  BSF    FA6.2
06B60:  MOVF   FF2,W
06B62:  MOVWF  00
06B64:  BCF    FF2.7
06B66:  MOVLB  F
06B68:  MOVLW  55
06B6A:  MOVWF  FA7
06B6C:  MOVLW  AA
06B6E:  MOVWF  FA7
06B70:  BSF    FA6.1
06B72:  BTFSC  FA6.1
06B74:  BRA    6B72
06B76:  BCF    FA6.2
06B78:  MOVF   00,W
06B7A:  IORWF  FF2,F
....................          delay_ms(20); 
06B7C:  MOVLW  14
06B7E:  MOVLB  6
06B80:  MOVWF  x4A
06B82:  MOVLB  0
06B84:  CALL   139A
....................          write_eeprom(23,Tempouvp[2]); 
06B88:  CLRF   FAA
06B8A:  MOVLW  17
06B8C:  MOVWF  FA9
06B8E:  MOVFF  519,FA8
06B92:  BCF    FA6.6
06B94:  BCF    FA6.7
06B96:  BSF    FA6.2
06B98:  MOVF   FF2,W
06B9A:  MOVWF  00
06B9C:  BCF    FF2.7
06B9E:  MOVLB  F
06BA0:  MOVLW  55
06BA2:  MOVWF  FA7
06BA4:  MOVLW  AA
06BA6:  MOVWF  FA7
06BA8:  BSF    FA6.1
06BAA:  BTFSC  FA6.1
06BAC:  BRA    6BAA
06BAE:  BCF    FA6.2
06BB0:  MOVF   00,W
06BB2:  IORWF  FF2,F
....................          delay_ms(20); 
06BB4:  MOVLW  14
06BB6:  MOVLB  6
06BB8:  MOVWF  x4A
06BBA:  MOVLB  0
06BBC:  CALL   139A
....................          write_eeprom(24,Tempouvp[3]); 
06BC0:  CLRF   FAA
06BC2:  MOVLW  18
06BC4:  MOVWF  FA9
06BC6:  MOVFF  51A,FA8
06BCA:  BCF    FA6.6
06BCC:  BCF    FA6.7
06BCE:  BSF    FA6.2
06BD0:  MOVF   FF2,W
06BD2:  MOVWF  00
06BD4:  BCF    FF2.7
06BD6:  MOVLB  F
06BD8:  MOVLW  55
06BDA:  MOVWF  FA7
06BDC:  MOVLW  AA
06BDE:  MOVWF  FA7
06BE0:  BSF    FA6.1
06BE2:  BTFSC  FA6.1
06BE4:  BRA    6BE2
06BE6:  BCF    FA6.2
06BE8:  MOVF   00,W
06BEA:  IORWF  FF2,F
....................          delay_ms(20); 
06BEC:  MOVLW  14
06BEE:  MOVLB  6
06BF0:  MOVWF  x4A
06BF2:  MOVLB  0
06BF4:  CALL   139A
....................          Tempouv[0]=0;Tempouv[1]=0;Tempouv[2]=0;Tempouv[3]=0; 
06BF8:  MOVLB  5
06BFA:  CLRF   x13
06BFC:  CLRF   x14
06BFE:  CLRF   x15
06C00:  CLRF   x16
06C02:  MOVLB  4
....................       } 
....................              
....................       for(i=0;i<3;i++) 
06C04:  CLRF   x19
06C06:  MOVF   x19,W
06C08:  SUBLW  02
06C0A:  BNC   6C60
....................       { 
....................          if(Tempouvp[i]>9) 
06C0C:  CLRF   03
06C0E:  MOVF   x19,W
06C10:  ADDLW  17
06C12:  MOVWF  FE9
06C14:  MOVLW  05
06C16:  ADDWFC 03,W
06C18:  MOVWF  FEA
06C1A:  BTFSC  FEF.7
06C1C:  BRA    6C34
06C1E:  MOVF   FEF,W
06C20:  SUBLW  09
06C22:  BC    6C34
....................          {Tempouvp[i]=0;} 
06C24:  CLRF   03
06C26:  MOVF   x19,W
06C28:  ADDLW  17
06C2A:  MOVWF  FE9
06C2C:  MOVLW  05
06C2E:  ADDWFC 03,W
06C30:  MOVWF  FEA
06C32:  CLRF   FEF
....................           
....................          if(Tempouvp[i]<0) 
06C34:  CLRF   03
06C36:  MOVF   x19,W
06C38:  ADDLW  17
06C3A:  MOVWF  FE9
06C3C:  MOVLW  05
06C3E:  ADDWFC 03,W
06C40:  MOVWF  FEA
06C42:  BTFSC  FEF.7
06C44:  BRA    6C48
06C46:  BRA    6C5A
....................          {Tempouvp[i]=9;} 
06C48:  CLRF   03
06C4A:  MOVF   x19,W
06C4C:  ADDLW  17
06C4E:  MOVWF  FE9
06C50:  MOVLW  05
06C52:  ADDWFC 03,W
06C54:  MOVWF  FEA
06C56:  MOVLW  09
06C58:  MOVWF  FEF
....................          i++; 
06C5A:  INCF   x19,F
....................       }       
06C5C:  INCF   x19,F
06C5E:  BRA    6C06
....................       for(i=1;i<4;i++) 
06C60:  MOVLW  01
06C62:  MOVWF  x19
06C64:  MOVF   x19,W
06C66:  SUBLW  03
06C68:  BNC   6CBE
....................       { 
....................          if(Tempouvp[i]>5) 
06C6A:  CLRF   03
06C6C:  MOVF   x19,W
06C6E:  ADDLW  17
06C70:  MOVWF  FE9
06C72:  MOVLW  05
06C74:  ADDWFC 03,W
06C76:  MOVWF  FEA
06C78:  BTFSC  FEF.7
06C7A:  BRA    6C92
06C7C:  MOVF   FEF,W
06C7E:  SUBLW  05
06C80:  BC    6C92
....................          {Tempouvp[i]=0;} 
06C82:  CLRF   03
06C84:  MOVF   x19,W
06C86:  ADDLW  17
06C88:  MOVWF  FE9
06C8A:  MOVLW  05
06C8C:  ADDWFC 03,W
06C8E:  MOVWF  FEA
06C90:  CLRF   FEF
....................           
....................          if(Tempouvp[i]<0) 
06C92:  CLRF   03
06C94:  MOVF   x19,W
06C96:  ADDLW  17
06C98:  MOVWF  FE9
06C9A:  MOVLW  05
06C9C:  ADDWFC 03,W
06C9E:  MOVWF  FEA
06CA0:  BTFSC  FEF.7
06CA2:  BRA    6CA6
06CA4:  BRA    6CB8
....................          {Tempouvp[i]=5;} 
06CA6:  CLRF   03
06CA8:  MOVF   x19,W
06CAA:  ADDLW  17
06CAC:  MOVWF  FE9
06CAE:  MOVLW  05
06CB0:  ADDWFC 03,W
06CB2:  MOVWF  FEA
06CB4:  MOVLW  05
06CB6:  MOVWF  FEF
....................         i++;  
06CB8:  INCF   x19,F
....................       }       
06CBA:  INCF   x19,F
06CBC:  BRA    6C64
....................       if(unidad<1) 
06CBE:  MOVF   xDC,F
06CC0:  BNZ   6CC6
....................       {unidad=4;} 
06CC2:  MOVLW  04
06CC4:  MOVWF  xDC
....................       if(Opcion<1) 
06CC6:  MOVF   xDD,F
06CC8:  BNZ   6CCE
....................       {Opcion=4;} 
06CCA:  MOVLW  04
06CCC:  MOVWF  xDD
....................      
....................     } 
.................... //_--------------------------------------------------------------------------------------------------------------------------------------------------------        
....................  
.................... //_-------------------------------------------------------------------------------------------------------------------------------------------------------- 
....................       if(Menu==5){ //Menu de Clave. 
06CCE:  MOVF   xDB,W
06CD0:  SUBLW  05
06CD2:  BNZ   6D32
....................  
....................       PidePassword(3,5,211,Password[0],Password[1],Password[2],Password[3]); 
06CD4:  MOVLW  03
06CD6:  MOVLB  6
06CD8:  MOVWF  x42
06CDA:  MOVLW  05
06CDC:  MOVWF  x43
06CDE:  MOVLW  D3
06CE0:  MOVWF  x44
06CE2:  MOVFF  523,645
06CE6:  MOVFF  524,646
06CEA:  MOVFF  525,647
06CEE:  MOVFF  526,648
06CF2:  MOVLB  0
06CF4:  CALL   3648
....................              
....................       if(LEFT)//Si oprime boton de Toma. 
06CF8:  BSF    F94.1
06CFA:  BTFSS  F82.1
06CFC:  BRA    6D34
....................       { 
....................          delay_ms(200); 
06CFE:  MOVLW  C8
06D00:  MOVLB  6
06D02:  MOVWF  x4A
06D04:  MOVLB  0
06D06:  CALL   139A
....................          if(unidad==1){ 
06D0A:  MOVLB  4
06D0C:  DECFSZ xDC,W
06D0E:  BRA    6D32
....................             Menu=3;glcd_fillscreen(OFF);Opcion=1;unidad=1;Contrasena[0]=0;Contrasena[1]=0;Contrasena[2]=0;Contrasena[3]=0; 
06D10:  MOVLW  03
06D12:  MOVWF  xDB
06D14:  MOVLB  6
06D16:  CLRF   x49
06D18:  MOVLB  0
06D1A:  CALL   35EE
06D1E:  MOVLW  01
06D20:  MOVLB  4
06D22:  MOVWF  xDD
06D24:  MOVWF  xDC
06D26:  MOVLB  5
06D28:  CLRF   x1F
06D2A:  CLRF   x20
06D2C:  CLRF   x21
06D2E:  CLRF   x22
06D30:  MOVLB  4
06D32:  MOVLB  0
....................          } 
....................       }  
....................     } 
.................... //_--------------------------------------------------------------------------------------------------------------------------------------------------------        
....................  
.................... //_-------------------------------------------------------------------------------------------------------------------------------------------------------- 
....................       if(Menu==211){ //Menu de Cambio Clave. 
06D34:  MOVLB  4
06D36:  MOVF   xDB,W
06D38:  SUBLW  D3
06D3A:  BTFSS  FD8.2
06D3C:  BRA    71D4
....................        
....................       if(n==0) 
06D3E:  BTFSC  x1D.0
06D40:  BRA    6DA0
....................       { 
....................          displayContrasena(Contrasena[0],20,30,1);displayContrasena(Contrasena[1],40,30,0); 
06D42:  MOVFF  51F,64B
06D46:  MOVLW  14
06D48:  MOVLB  6
06D4A:  MOVWF  x4C
06D4C:  MOVLW  1E
06D4E:  MOVWF  x4D
06D50:  MOVLW  01
06D52:  MOVWF  x4E
06D54:  MOVLB  0
06D56:  CALL   346C
06D5A:  MOVFF  520,64B
06D5E:  MOVLW  28
06D60:  MOVLB  6
06D62:  MOVWF  x4C
06D64:  MOVLW  1E
06D66:  MOVWF  x4D
06D68:  CLRF   x4E
06D6A:  MOVLB  0
06D6C:  CALL   346C
....................          displayContrasena(Contrasena[2],60,30,0);displayContrasena(Contrasena[0],80,30,0); 
06D70:  MOVFF  521,64B
06D74:  MOVLW  3C
06D76:  MOVLB  6
06D78:  MOVWF  x4C
06D7A:  MOVLW  1E
06D7C:  MOVWF  x4D
06D7E:  CLRF   x4E
06D80:  MOVLB  0
06D82:  CALL   346C
06D86:  MOVFF  51F,64B
06D8A:  MOVLW  50
06D8C:  MOVLB  6
06D8E:  MOVWF  x4C
06D90:  MOVLW  1E
06D92:  MOVWF  x4D
06D94:  CLRF   x4E
06D96:  MOVLB  0
06D98:  CALL   346C
....................          n=1; 
06D9C:  MOVLB  4
06D9E:  BSF    x1D.0
....................       } 
....................       strcpy(Menus.Letra,"Clave Nueva"); 
06DA0:  MOVLW  06
06DA2:  MOVWF  FEA
06DA4:  MOVLW  2B
06DA6:  MOVWF  FE9
06DA8:  MOVFF  FF2,641
06DAC:  BCF    FF2.7
06DAE:  MOVLW  00
06DB0:  MOVLB  0
06DB2:  CALL   1110
06DB6:  TBLRD*-
06DB8:  TBLRD*+
06DBA:  MOVF   FF5,W
06DBC:  MOVWF  FEE
06DBE:  IORLW  00
06DC0:  BNZ   6DB8
06DC2:  MOVLB  6
06DC4:  BTFSC  x41.7
06DC6:  BSF    FF2.7
....................       displayMenu(Menus.Letra,0,0,1,2); 
06DC8:  MOVLW  06
06DCA:  MOVWF  x4A
06DCC:  MOVLW  2B
06DCE:  MOVWF  x49
06DD0:  CLRF   x4B
06DD2:  CLRF   x4C
06DD4:  MOVLW  01
06DD6:  MOVWF  x4D
06DD8:  MOVLW  02
06DDA:  MOVWF  x4E
06DDC:  MOVLB  0
06DDE:  CALL   3522
....................          
....................        
....................       if(UP)//Si oprime hacia arriba 
06DE2:  BSF    F96.1
06DE4:  BTFSS  F84.1
06DE6:  BRA    6EBE
....................       {  if(Flanco == 0)  
06DE8:  MOVLB  4
06DEA:  BTFSC  x1A.0
06DEC:  BRA    6EBC
....................             {Flanco = 1;delay_ms(30); 
06DEE:  BSF    x1A.0
06DF0:  MOVLW  1E
06DF2:  MOVLB  6
06DF4:  MOVWF  x4A
06DF6:  MOVLB  0
06DF8:  CALL   139A
....................             for(i=1;i<=4;i++) 
06DFC:  MOVLW  01
06DFE:  MOVLB  4
06E00:  MOVWF  x19
06E02:  MOVF   x19,W
06E04:  SUBLW  04
06E06:  BNC   6EBC
....................                { 
....................                   if(unidad==i) 
06E08:  MOVF   x19,W
06E0A:  SUBWF  xDC,W
06E0C:  BNZ   6E84
....................                   {Contrasena[i-1]++; 
06E0E:  MOVLW  01
06E10:  SUBWF  x19,W
06E12:  CLRF   03
06E14:  ADDLW  1F
06E16:  MOVWF  FE9
06E18:  MOVLW  05
06E1A:  ADDWFC 03,W
06E1C:  MOVWF  FEA
06E1E:  INCF   FEF,F
....................                   if(Contrasena[i-1]>9) 
06E20:  MOVLW  01
06E22:  SUBWF  x19,W
06E24:  CLRF   03
06E26:  ADDLW  1F
06E28:  MOVWF  FE9
06E2A:  MOVLW  05
06E2C:  ADDWFC 03,W
06E2E:  MOVWF  FEA
06E30:  BTFSC  FEF.7
06E32:  BRA    6E4C
06E34:  MOVF   FEF,W
06E36:  SUBLW  09
06E38:  BC    6E4C
....................                         {Contrasena[i-1]=0;} 
06E3A:  MOVLW  01
06E3C:  SUBWF  x19,W
06E3E:  CLRF   03
06E40:  ADDLW  1F
06E42:  MOVWF  FE9
06E44:  MOVLW  05
06E46:  ADDWFC 03,W
06E48:  MOVWF  FEA
06E4A:  CLRF   FEF
....................                   displayContrasena(Contrasena[i-1],i*20,30,1);} 
06E4C:  MOVLW  01
06E4E:  SUBWF  x19,W
06E50:  CLRF   03
06E52:  ADDLW  1F
06E54:  MOVWF  FE9
06E56:  MOVLW  05
06E58:  ADDWFC 03,W
06E5A:  MOVWF  FEA
06E5C:  MOVFF  FEF,641
06E60:  MOVF   x19,W
06E62:  MULLW  14
06E64:  MOVFF  FF3,642
06E68:  MOVLB  6
06E6A:  MOVFF  641,64B
06E6E:  MOVFF  642,64C
06E72:  MOVLW  1E
06E74:  MOVWF  x4D
06E76:  MOVLW  01
06E78:  MOVWF  x4E
06E7A:  MOVLB  0
06E7C:  CALL   346C
....................                   else 
06E80:  BRA    6EB6
06E82:  MOVLB  4
....................                   {displayContrasena(Contrasena[i-1],i*20,30,0);} 
06E84:  MOVLW  01
06E86:  SUBWF  x19,W
06E88:  CLRF   03
06E8A:  ADDLW  1F
06E8C:  MOVWF  FE9
06E8E:  MOVLW  05
06E90:  ADDWFC 03,W
06E92:  MOVWF  FEA
06E94:  MOVFF  FEF,641
06E98:  MOVF   x19,W
06E9A:  MULLW  14
06E9C:  MOVFF  FF3,642
06EA0:  MOVLB  6
06EA2:  MOVFF  641,64B
06EA6:  MOVFF  642,64C
06EAA:  MOVLW  1E
06EAC:  MOVWF  x4D
06EAE:  CLRF   x4E
06EB0:  MOVLB  0
06EB2:  CALL   346C
....................                } 
06EB6:  MOVLB  4
06EB8:  INCF   x19,F
06EBA:  BRA    6E02
....................             } 
....................       } 
....................          else 
06EBC:  BRA    6EC2
....................             {Flanco = 0;} 
06EBE:  MOVLB  4
06EC0:  BCF    x1A.0
....................              
....................       if(DOWN )//Si oprime hacia abajo 
06EC2:  BSF    F96.2
06EC4:  BTFSS  F84.2
06EC6:  BRA    6F9A
....................       {  if(Flanco2 == 0)  
06EC8:  BTFSC  x1A.2
06ECA:  BRA    6F98
....................             {Flanco2 = 1;delay_ms(30); 
06ECC:  BSF    x1A.2
06ECE:  MOVLW  1E
06ED0:  MOVLB  6
06ED2:  MOVWF  x4A
06ED4:  MOVLB  0
06ED6:  CALL   139A
....................                for(i=1;i<=4;i++) 
06EDA:  MOVLW  01
06EDC:  MOVLB  4
06EDE:  MOVWF  x19
06EE0:  MOVF   x19,W
06EE2:  SUBLW  04
06EE4:  BNC   6F98
....................                { 
....................                   if(unidad==i) 
06EE6:  MOVF   x19,W
06EE8:  SUBWF  xDC,W
06EEA:  BNZ   6F60
....................                   {Contrasena[i-1]--;  
06EEC:  MOVLW  01
06EEE:  SUBWF  x19,W
06EF0:  CLRF   03
06EF2:  ADDLW  1F
06EF4:  MOVWF  FE9
06EF6:  MOVLW  05
06EF8:  ADDWFC 03,W
06EFA:  MOVWF  FEA
06EFC:  DECF   FEF,F
....................                      if(Contrasena[i-1]<0) 
06EFE:  MOVLW  01
06F00:  SUBWF  x19,W
06F02:  CLRF   03
06F04:  ADDLW  1F
06F06:  MOVWF  FE9
06F08:  MOVLW  05
06F0A:  ADDWFC 03,W
06F0C:  MOVWF  FEA
06F0E:  BTFSC  FEF.7
06F10:  BRA    6F14
06F12:  BRA    6F28
....................                         {Contrasena[i-1]=9;} 
06F14:  MOVLW  01
06F16:  SUBWF  x19,W
06F18:  CLRF   03
06F1A:  ADDLW  1F
06F1C:  MOVWF  FE9
06F1E:  MOVLW  05
06F20:  ADDWFC 03,W
06F22:  MOVWF  FEA
06F24:  MOVLW  09
06F26:  MOVWF  FEF
....................                    displayContrasena(Contrasena[i-1],i*20,30,1);} 
06F28:  MOVLW  01
06F2A:  SUBWF  x19,W
06F2C:  CLRF   03
06F2E:  ADDLW  1F
06F30:  MOVWF  FE9
06F32:  MOVLW  05
06F34:  ADDWFC 03,W
06F36:  MOVWF  FEA
06F38:  MOVFF  FEF,641
06F3C:  MOVF   x19,W
06F3E:  MULLW  14
06F40:  MOVFF  FF3,642
06F44:  MOVLB  6
06F46:  MOVFF  641,64B
06F4A:  MOVFF  642,64C
06F4E:  MOVLW  1E
06F50:  MOVWF  x4D
06F52:  MOVLW  01
06F54:  MOVWF  x4E
06F56:  MOVLB  0
06F58:  CALL   346C
....................                   else 
06F5C:  BRA    6F92
06F5E:  MOVLB  4
....................                   {displayContrasena(Contrasena[i-1],i*20,30,0);} 
06F60:  MOVLW  01
06F62:  SUBWF  x19,W
06F64:  CLRF   03
06F66:  ADDLW  1F
06F68:  MOVWF  FE9
06F6A:  MOVLW  05
06F6C:  ADDWFC 03,W
06F6E:  MOVWF  FEA
06F70:  MOVFF  FEF,641
06F74:  MOVF   x19,W
06F76:  MULLW  14
06F78:  MOVFF  FF3,642
06F7C:  MOVLB  6
06F7E:  MOVFF  641,64B
06F82:  MOVFF  642,64C
06F86:  MOVLW  1E
06F88:  MOVWF  x4D
06F8A:  CLRF   x4E
06F8C:  MOVLB  0
06F8E:  CALL   346C
....................                }       
06F92:  MOVLB  4
06F94:  INCF   x19,F
06F96:  BRA    6EE0
....................             }      
....................       } 
....................          else 
06F98:  BRA    6F9C
....................             {Flanco2 = 0;}   
06F9A:  BCF    x1A.2
....................              
....................       if(RIGHT)//Si oprime SET 
06F9C:  BSF    F94.0
06F9E:  BTFSS  F82.0
06FA0:  BRA    703A
....................       {  if(Flanco1 == 0)  
06FA2:  BTFSC  x1A.1
06FA4:  BRA    7038
....................             {Flanco1 = 1;delay_ms(30);unidad++; 
06FA6:  BSF    x1A.1
06FA8:  MOVLW  1E
06FAA:  MOVLB  6
06FAC:  MOVWF  x4A
06FAE:  MOVLB  0
06FB0:  CALL   139A
06FB4:  MOVLB  4
06FB6:  INCF   xDC,F
....................                for(i=1;i<=4;i++) 
06FB8:  MOVLW  01
06FBA:  MOVWF  x19
06FBC:  MOVF   x19,W
06FBE:  SUBLW  04
06FC0:  BNC   7038
....................                { 
....................                   if(unidad==i) 
06FC2:  MOVF   x19,W
06FC4:  SUBWF  xDC,W
06FC6:  BNZ   7000
....................                   {displayContrasena(Contrasena[i-1],i*20,30,1);} 
06FC8:  MOVLW  01
06FCA:  SUBWF  x19,W
06FCC:  CLRF   03
06FCE:  ADDLW  1F
06FD0:  MOVWF  FE9
06FD2:  MOVLW  05
06FD4:  ADDWFC 03,W
06FD6:  MOVWF  FEA
06FD8:  MOVFF  FEF,641
06FDC:  MOVF   x19,W
06FDE:  MULLW  14
06FE0:  MOVFF  FF3,642
06FE4:  MOVLB  6
06FE6:  MOVFF  641,64B
06FEA:  MOVFF  642,64C
06FEE:  MOVLW  1E
06FF0:  MOVWF  x4D
06FF2:  MOVLW  01
06FF4:  MOVWF  x4E
06FF6:  MOVLB  0
06FF8:  CALL   346C
....................                   else 
06FFC:  BRA    7032
06FFE:  MOVLB  4
....................                   {displayContrasena(Contrasena[i-1],i*20,30,0);} 
07000:  MOVLW  01
07002:  SUBWF  x19,W
07004:  CLRF   03
07006:  ADDLW  1F
07008:  MOVWF  FE9
0700A:  MOVLW  05
0700C:  ADDWFC 03,W
0700E:  MOVWF  FEA
07010:  MOVFF  FEF,641
07014:  MOVF   x19,W
07016:  MULLW  14
07018:  MOVFF  FF3,642
0701C:  MOVLB  6
0701E:  MOVFF  641,64B
07022:  MOVFF  642,64C
07026:  MOVLW  1E
07028:  MOVWF  x4D
0702A:  CLRF   x4E
0702C:  MOVLB  0
0702E:  CALL   346C
....................                } 
07032:  MOVLB  4
07034:  INCF   x19,F
07036:  BRA    6FBC
....................             } 
....................       } 
....................          else 
07038:  BRA    703C
....................             {Flanco1 = 0;}   
0703A:  BCF    x1A.1
....................              
....................       if(LEFT)//Si oprime boton de Toma. 
0703C:  BSF    F94.1
0703E:  BTFSS  F82.1
07040:  BRA    7080
....................       { 
....................          
....................          delay_ms(700); 
07042:  MOVLW  04
07044:  MOVLB  6
07046:  MOVWF  x41
07048:  MOVLW  AF
0704A:  MOVWF  x4A
0704C:  MOVLB  0
0704E:  CALL   139A
07052:  MOVLB  6
07054:  DECFSZ x41,F
07056:  BRA    7048
....................          if(unidad==1){ 
07058:  MOVLB  4
0705A:  DECFSZ xDC,W
0705C:  BRA    7080
....................             Menu=3;glcd_fillscreen(OFF);Opcion=1;unidad=1;Contrasena[0]=0;Contrasena[1]=0;Contrasena[2]=0;Contrasena[3]=0; 
0705E:  MOVLW  03
07060:  MOVWF  xDB
07062:  MOVLB  6
07064:  CLRF   x49
07066:  MOVLB  0
07068:  CALL   35EE
0706C:  MOVLW  01
0706E:  MOVLB  4
07070:  MOVWF  xDD
07072:  MOVWF  xDC
07074:  MOVLB  5
07076:  CLRF   x1F
07078:  CLRF   x20
0707A:  CLRF   x21
0707C:  CLRF   x22
0707E:  MOVLB  4
....................          } 
....................       } 
....................        
....................       if(unidad>4) 
07080:  MOVF   xDC,W
07082:  SUBLW  04
07084:  BTFSC  FD8.0
07086:  BRA    71D4
....................       { 
....................          Opcion=1;glcd_fillscreen(OFF);unidad=1;n=0; 
07088:  MOVLW  01
0708A:  MOVWF  xDD
0708C:  MOVLB  6
0708E:  CLRF   x49
07090:  MOVLB  0
07092:  CALL   35EE
07096:  MOVLW  01
07098:  MOVLB  4
0709A:  MOVWF  xDC
0709C:  BCF    x1D.0
....................          Password[0]=Contrasena[0];Password[1]=Contrasena[1];Password[2]=Contrasena[2];Password[3]=Contrasena[3]; 
0709E:  MOVFF  51F,523
070A2:  MOVFF  520,524
070A6:  MOVFF  521,525
070AA:  MOVFF  522,526
....................          write_eeprom(0,Password[0]); 
070AE:  CLRF   FAA
070B0:  CLRF   FA9
070B2:  MOVFF  523,FA8
070B6:  BCF    FA6.6
070B8:  BCF    FA6.7
070BA:  BSF    FA6.2
070BC:  MOVF   FF2,W
070BE:  MOVWF  00
070C0:  BCF    FF2.7
070C2:  MOVLB  F
070C4:  MOVLW  55
070C6:  MOVWF  FA7
070C8:  MOVLW  AA
070CA:  MOVWF  FA7
070CC:  BSF    FA6.1
070CE:  BTFSC  FA6.1
070D0:  BRA    70CE
070D2:  BCF    FA6.2
070D4:  MOVF   00,W
070D6:  IORWF  FF2,F
....................          delay_ms(20); 
070D8:  MOVLW  14
070DA:  MOVLB  6
070DC:  MOVWF  x4A
070DE:  MOVLB  0
070E0:  CALL   139A
....................          write_eeprom(1,Password[1]); 
070E4:  CLRF   FAA
070E6:  MOVLW  01
070E8:  MOVWF  FA9
070EA:  MOVFF  524,FA8
070EE:  BCF    FA6.6
070F0:  BCF    FA6.7
070F2:  BSF    FA6.2
070F4:  MOVF   FF2,W
070F6:  MOVWF  00
070F8:  BCF    FF2.7
070FA:  MOVLB  F
070FC:  MOVLW  55
070FE:  MOVWF  FA7
07100:  MOVLW  AA
07102:  MOVWF  FA7
07104:  BSF    FA6.1
07106:  BTFSC  FA6.1
07108:  BRA    7106
0710A:  BCF    FA6.2
0710C:  MOVF   00,W
0710E:  IORWF  FF2,F
....................          delay_ms(20); 
07110:  MOVLW  14
07112:  MOVLB  6
07114:  MOVWF  x4A
07116:  MOVLB  0
07118:  CALL   139A
....................          write_eeprom(2,Password[2]); 
0711C:  CLRF   FAA
0711E:  MOVLW  02
07120:  MOVWF  FA9
07122:  MOVFF  525,FA8
07126:  BCF    FA6.6
07128:  BCF    FA6.7
0712A:  BSF    FA6.2
0712C:  MOVF   FF2,W
0712E:  MOVWF  00
07130:  BCF    FF2.7
07132:  MOVLB  F
07134:  MOVLW  55
07136:  MOVWF  FA7
07138:  MOVLW  AA
0713A:  MOVWF  FA7
0713C:  BSF    FA6.1
0713E:  BTFSC  FA6.1
07140:  BRA    713E
07142:  BCF    FA6.2
07144:  MOVF   00,W
07146:  IORWF  FF2,F
....................          delay_ms(20); 
07148:  MOVLW  14
0714A:  MOVLB  6
0714C:  MOVWF  x4A
0714E:  MOVLB  0
07150:  CALL   139A
....................          write_eeprom(3,Password[3]); 
07154:  CLRF   FAA
07156:  MOVLW  03
07158:  MOVWF  FA9
0715A:  MOVFF  526,FA8
0715E:  BCF    FA6.6
07160:  BCF    FA6.7
07162:  BSF    FA6.2
07164:  MOVF   FF2,W
07166:  MOVWF  00
07168:  BCF    FF2.7
0716A:  MOVLB  F
0716C:  MOVLW  55
0716E:  MOVWF  FA7
07170:  MOVLW  AA
07172:  MOVWF  FA7
07174:  BSF    FA6.1
07176:  BTFSC  FA6.1
07178:  BRA    7176
0717A:  BCF    FA6.2
0717C:  MOVF   00,W
0717E:  IORWF  FF2,F
....................          delay_ms(20); 
07180:  MOVLW  14
07182:  MOVLB  6
07184:  MOVWF  x4A
07186:  MOVLB  0
07188:  CALL   139A
....................          glcd_imagen(1);glcd_update();Menu=211;delay_ms(1000);glcd_fillScreen(OFF);Menu=3; 
0718C:  MOVLW  01
0718E:  MOVLB  6
07190:  MOVWF  x41
07192:  MOVLB  0
07194:  CALL   4296
07198:  CALL   2AE8
0719C:  MOVLW  D3
0719E:  MOVLB  4
071A0:  MOVWF  xDB
071A2:  MOVLW  04
071A4:  MOVLB  6
071A6:  MOVWF  x41
071A8:  MOVLW  FA
071AA:  MOVWF  x4A
071AC:  MOVLB  0
071AE:  CALL   139A
071B2:  MOVLB  6
071B4:  DECFSZ x41,F
071B6:  BRA    71A8
071B8:  CLRF   x49
071BA:  MOVLB  0
071BC:  CALL   35EE
071C0:  MOVLW  03
071C2:  MOVLB  4
071C4:  MOVWF  xDB
....................          n=0; 
071C6:  BCF    x1D.0
....................          Contrasena[0]=0;Contrasena[1]=0;Contrasena[2]=0;Contrasena[3]=0; 
071C8:  MOVLB  5
071CA:  CLRF   x1F
071CC:  CLRF   x20
071CE:  CLRF   x21
071D0:  CLRF   x22
071D2:  MOVLB  4
....................       } 
....................      
....................     } 
.................... //_--------------------------------------------------------------------------------------------------------------------------------------------------------        
....................  
.................... //_-------------------------------------------------------------------------------------------------------------------------------------------------------- 
....................       if(Menu==31){ //Menu de Mantenimiento. 
071D4:  MOVF   xDB,W
071D6:  SUBLW  1F
071D8:  BTFSS  FD8.2
071DA:  BRA    75FE
....................        
....................          strcpy(Menus.Letra,"Manteniento"); 
071DC:  MOVLW  06
071DE:  MOVWF  FEA
071E0:  MOVLW  2B
071E2:  MOVWF  FE9
071E4:  MOVFF  FF2,641
071E8:  BCF    FF2.7
071EA:  MOVLW  00
071EC:  MOVLB  0
071EE:  CALL   113A
071F2:  TBLRD*-
071F4:  TBLRD*+
071F6:  MOVF   FF5,W
071F8:  MOVWF  FEE
071FA:  IORLW  00
071FC:  BNZ   71F4
071FE:  MOVLB  6
07200:  BTFSC  x41.7
07202:  BSF    FF2.7
....................          displayMenu(Menus.Letra,0,0,1,2); 
07204:  MOVLW  06
07206:  MOVWF  x4A
07208:  MOVLW  2B
0720A:  MOVWF  x49
0720C:  CLRF   x4B
0720E:  CLRF   x4C
07210:  MOVLW  01
07212:  MOVWF  x4D
07214:  MOVLW  02
07216:  MOVWF  x4E
07218:  MOVLB  0
0721A:  CALL   3522
....................           
....................          strcpy(Menus.Letra,"Trabajo Filtro(h):"); 
0721E:  MOVLW  06
07220:  MOVWF  FEA
07222:  MOVLW  2B
07224:  MOVWF  FE9
07226:  MOVFF  FF2,641
0722A:  BCF    FF2.7
0722C:  MOVLW  00
0722E:  CALL   1164
07232:  TBLRD*-
07234:  TBLRD*+
07236:  MOVF   FF5,W
07238:  MOVWF  FEE
0723A:  IORLW  00
0723C:  BNZ   7234
0723E:  MOVLB  6
07240:  BTFSC  x41.7
07242:  BSF    FF2.7
....................          displayMenu(Menus.Letra,10,20,1,1); 
07244:  MOVLW  06
07246:  MOVWF  x4A
07248:  MOVLW  2B
0724A:  MOVWF  x49
0724C:  MOVLW  0A
0724E:  MOVWF  x4B
07250:  MOVLW  14
07252:  MOVWF  x4C
07254:  MOVLW  01
07256:  MOVWF  x4D
07258:  MOVWF  x4E
0725A:  MOVLB  0
0725C:  CALL   3522
....................          glcd_text57(0, 31, Vida_Filtro, 1, ON); 
07260:  MOVLB  6
07262:  CLRF   x5A
07264:  MOVLW  1F
07266:  MOVWF  x5B
07268:  MOVLW  04
0726A:  MOVWF  x5D
0726C:  MOVLW  AE
0726E:  MOVWF  x5C
07270:  MOVLW  01
07272:  MOVWF  x5E
07274:  MOVWF  x5F
07276:  MOVLB  0
07278:  CALL   32B4
....................          displayTiempo(Ttrabajo[3],60,30,0,1);displayTiempo(Ttrabajo[2],67,30,0,1);displayTiempo(Ttrabajo[1],74,30,0,1);displayTiempo(Ttrabajo[0],82,30,0,1); 
0727C:  MOVFF  51E,641
07280:  MOVLW  3C
07282:  MOVLB  6
07284:  MOVWF  x42
07286:  MOVLW  1E
07288:  MOVWF  x43
0728A:  CLRF   x44
0728C:  MOVLW  01
0728E:  MOVWF  x45
07290:  MOVLB  0
07292:  CALL   3D46
07296:  MOVFF  51D,641
0729A:  MOVLW  43
0729C:  MOVLB  6
0729E:  MOVWF  x42
072A0:  MOVLW  1E
072A2:  MOVWF  x43
072A4:  CLRF   x44
072A6:  MOVLW  01
072A8:  MOVWF  x45
072AA:  MOVLB  0
072AC:  CALL   3D46
072B0:  MOVFF  51C,641
072B4:  MOVLW  4A
072B6:  MOVLB  6
072B8:  MOVWF  x42
072BA:  MOVLW  1E
072BC:  MOVWF  x43
072BE:  CLRF   x44
072C0:  MOVLW  01
072C2:  MOVWF  x45
072C4:  MOVLB  0
072C6:  CALL   3D46
072CA:  MOVFF  51B,641
072CE:  MOVLW  52
072D0:  MOVLB  6
072D2:  MOVWF  x42
072D4:  MOVLW  1E
072D6:  MOVWF  x43
072D8:  CLRF   x44
072DA:  MOVLW  01
072DC:  MOVWF  x45
072DE:  MOVLB  0
072E0:  CALL   3D46
....................           
....................          strcpy(Menus.Letra,"Trabajo Luz UV(h):"); 
072E4:  MOVLW  06
072E6:  MOVWF  FEA
072E8:  MOVLW  2B
072EA:  MOVWF  FE9
072EC:  MOVFF  FF2,641
072F0:  BCF    FF2.7
072F2:  MOVLW  00
072F4:  CALL   1196
072F8:  TBLRD*-
072FA:  TBLRD*+
072FC:  MOVF   FF5,W
072FE:  MOVWF  FEE
07300:  IORLW  00
07302:  BNZ   72FA
07304:  MOVLB  6
07306:  BTFSC  x41.7
07308:  BSF    FF2.7
....................          displayMenu(Menus.Letra,0,40,1,1); 
0730A:  MOVLW  06
0730C:  MOVWF  x4A
0730E:  MOVLW  2B
07310:  MOVWF  x49
07312:  CLRF   x4B
07314:  MOVLW  28
07316:  MOVWF  x4C
07318:  MOVLW  01
0731A:  MOVWF  x4D
0731C:  MOVWF  x4E
0731E:  MOVLB  0
07320:  CALL   3522
....................          glcd_text57(0, 53, Vida_UV, 1, ON); 
07324:  MOVLB  6
07326:  CLRF   x5A
07328:  MOVLW  35
0732A:  MOVWF  x5B
0732C:  MOVLW  04
0732E:  MOVWF  x5D
07330:  MOVLW  A6
07332:  MOVWF  x5C
07334:  MOVLW  01
07336:  MOVWF  x5E
07338:  MOVWF  x5F
0733A:  MOVLB  0
0733C:  CALL   32B4
....................          displayTiempo(Tuv[3],60,52,0,1);displayTiempo(Tuv[2],67,52,0,1);displayTiempo(Tuv[1],74,52,0,1);displayTiempo(Tuv[0],82,52,0,1);                  
07340:  MOVFF  512,641
07344:  MOVLW  3C
07346:  MOVLB  6
07348:  MOVWF  x42
0734A:  MOVLW  34
0734C:  MOVWF  x43
0734E:  CLRF   x44
07350:  MOVLW  01
07352:  MOVWF  x45
07354:  MOVLB  0
07356:  CALL   3D46
0735A:  MOVFF  511,641
0735E:  MOVLW  43
07360:  MOVLB  6
07362:  MOVWF  x42
07364:  MOVLW  34
07366:  MOVWF  x43
07368:  CLRF   x44
0736A:  MOVLW  01
0736C:  MOVWF  x45
0736E:  MOVLB  0
07370:  CALL   3D46
07374:  MOVFF  510,641
07378:  MOVLW  4A
0737A:  MOVLB  6
0737C:  MOVWF  x42
0737E:  MOVLW  34
07380:  MOVWF  x43
07382:  CLRF   x44
07384:  MOVLW  01
07386:  MOVWF  x45
07388:  MOVLB  0
0738A:  CALL   3D46
0738E:  MOVFF  50F,641
07392:  MOVLW  52
07394:  MOVLB  6
07396:  MOVWF  x42
07398:  MOVLW  34
0739A:  MOVWF  x43
0739C:  CLRF   x44
0739E:  MOVLW  01
073A0:  MOVWF  x45
073A2:  MOVLB  0
073A4:  CALL   3D46
....................          LuzBlanca_on; 
073A8:  BSF    F8B.4
073AA:  BCF    F94.4
....................           
....................             if(UP && RIGHT) // Reinicia Tiempo de Luz UV 
073AC:  BSF    F96.1
073AE:  BTFSS  F84.1
073B0:  BRA    74C4
073B2:  BSF    F94.0
073B4:  BTFSS  F82.0
073B6:  BRA    74C4
....................             { 
....................                   delay_ms(2000); 
073B8:  MOVLW  08
073BA:  MOVLB  6
073BC:  MOVWF  x41
073BE:  MOVLW  FA
073C0:  MOVWF  x4A
073C2:  MOVLB  0
073C4:  CALL   139A
073C8:  MOVLB  6
073CA:  DECFSZ x41,F
073CC:  BRA    73BE
....................                   write_eeprom(12,0); 
073CE:  CLRF   FAA
073D0:  MOVLW  0C
073D2:  MOVWF  FA9
073D4:  CLRF   FA8
073D6:  BCF    FA6.6
073D8:  BCF    FA6.7
073DA:  BSF    FA6.2
073DC:  MOVF   FF2,W
073DE:  MOVWF  00
073E0:  BCF    FF2.7
073E2:  MOVLB  F
073E4:  MOVLW  55
073E6:  MOVWF  FA7
073E8:  MOVLW  AA
073EA:  MOVWF  FA7
073EC:  BSF    FA6.1
073EE:  BTFSC  FA6.1
073F0:  BRA    73EE
073F2:  BCF    FA6.2
073F4:  MOVF   00,W
073F6:  IORWF  FF2,F
....................                   delay_ms(20); 
073F8:  MOVLW  14
073FA:  MOVLB  6
073FC:  MOVWF  x4A
073FE:  MOVLB  0
07400:  CALL   139A
....................                   write_eeprom(13,0); 
07404:  CLRF   FAA
07406:  MOVLW  0D
07408:  MOVWF  FA9
0740A:  CLRF   FA8
0740C:  BCF    FA6.6
0740E:  BCF    FA6.7
07410:  BSF    FA6.2
07412:  MOVF   FF2,W
07414:  MOVWF  00
07416:  BCF    FF2.7
07418:  MOVLB  F
0741A:  MOVLW  55
0741C:  MOVWF  FA7
0741E:  MOVLW  AA
07420:  MOVWF  FA7
07422:  BSF    FA6.1
07424:  BTFSC  FA6.1
07426:  BRA    7424
07428:  BCF    FA6.2
0742A:  MOVF   00,W
0742C:  IORWF  FF2,F
....................                   delay_ms(20); 
0742E:  MOVLW  14
07430:  MOVLB  6
07432:  MOVWF  x4A
07434:  MOVLB  0
07436:  CALL   139A
....................                   write_eeprom(14,0); 
0743A:  CLRF   FAA
0743C:  MOVLW  0E
0743E:  MOVWF  FA9
07440:  CLRF   FA8
07442:  BCF    FA6.6
07444:  BCF    FA6.7
07446:  BSF    FA6.2
07448:  MOVF   FF2,W
0744A:  MOVWF  00
0744C:  BCF    FF2.7
0744E:  MOVLB  F
07450:  MOVLW  55
07452:  MOVWF  FA7
07454:  MOVLW  AA
07456:  MOVWF  FA7
07458:  BSF    FA6.1
0745A:  BTFSC  FA6.1
0745C:  BRA    745A
0745E:  BCF    FA6.2
07460:  MOVF   00,W
07462:  IORWF  FF2,F
....................                   delay_ms(20); 
07464:  MOVLW  14
07466:  MOVLB  6
07468:  MOVWF  x4A
0746A:  MOVLB  0
0746C:  CALL   139A
....................                   write_eeprom(15,0); 
07470:  CLRF   FAA
07472:  MOVLW  0F
07474:  MOVWF  FA9
07476:  CLRF   FA8
07478:  BCF    FA6.6
0747A:  BCF    FA6.7
0747C:  BSF    FA6.2
0747E:  MOVF   FF2,W
07480:  MOVWF  00
07482:  BCF    FF2.7
07484:  MOVLB  F
07486:  MOVLW  55
07488:  MOVWF  FA7
0748A:  MOVLW  AA
0748C:  MOVWF  FA7
0748E:  BSF    FA6.1
07490:  BTFSC  FA6.1
07492:  BRA    7490
07494:  BCF    FA6.2
07496:  MOVF   00,W
07498:  IORWF  FF2,F
....................                   delay_ms(20); 
0749A:  MOVLW  14
0749C:  MOVLB  6
0749E:  MOVWF  x4A
074A0:  MOVLB  0
074A2:  CALL   139A
....................                   Tuv[3]=0;Tuv[2]=0;Tuv[1]=0;Tuv[0]=0; 
074A6:  MOVLB  5
074A8:  CLRF   x12
074AA:  CLRF   x11
074AC:  CLRF   x10
074AE:  CLRF   x0F
....................                   Menu=3;glcd_fillscreen(OFF);LuzBlanca_off; 
074B0:  MOVLW  03
074B2:  MOVLB  4
074B4:  MOVWF  xDB
074B6:  MOVLB  6
074B8:  CLRF   x49
074BA:  MOVLB  0
074BC:  CALL   35EE
074C0:  BCF    F8B.4
074C2:  BCF    F94.4
....................                 
....................             } 
....................             if(DOWN && RIGHT) // Reinicia Tiempo de Trabajo 
074C4:  BSF    F96.2
074C6:  BTFSS  F84.2
074C8:  BRA    75DC
074CA:  BSF    F94.0
074CC:  BTFSS  F82.0
074CE:  BRA    75DC
....................             { 
....................                   delay_ms(2000); 
074D0:  MOVLW  08
074D2:  MOVLB  6
074D4:  MOVWF  x41
074D6:  MOVLW  FA
074D8:  MOVWF  x4A
074DA:  MOVLB  0
074DC:  CALL   139A
074E0:  MOVLB  6
074E2:  DECFSZ x41,F
074E4:  BRA    74D6
....................                   write_eeprom(16,0); 
074E6:  CLRF   FAA
074E8:  MOVLW  10
074EA:  MOVWF  FA9
074EC:  CLRF   FA8
074EE:  BCF    FA6.6
074F0:  BCF    FA6.7
074F2:  BSF    FA6.2
074F4:  MOVF   FF2,W
074F6:  MOVWF  00
074F8:  BCF    FF2.7
074FA:  MOVLB  F
074FC:  MOVLW  55
074FE:  MOVWF  FA7
07500:  MOVLW  AA
07502:  MOVWF  FA7
07504:  BSF    FA6.1
07506:  BTFSC  FA6.1
07508:  BRA    7506
0750A:  BCF    FA6.2
0750C:  MOVF   00,W
0750E:  IORWF  FF2,F
....................                   delay_ms(20); 
07510:  MOVLW  14
07512:  MOVLB  6
07514:  MOVWF  x4A
07516:  MOVLB  0
07518:  CALL   139A
....................                   write_eeprom(17,0); 
0751C:  CLRF   FAA
0751E:  MOVLW  11
07520:  MOVWF  FA9
07522:  CLRF   FA8
07524:  BCF    FA6.6
07526:  BCF    FA6.7
07528:  BSF    FA6.2
0752A:  MOVF   FF2,W
0752C:  MOVWF  00
0752E:  BCF    FF2.7
07530:  MOVLB  F
07532:  MOVLW  55
07534:  MOVWF  FA7
07536:  MOVLW  AA
07538:  MOVWF  FA7
0753A:  BSF    FA6.1
0753C:  BTFSC  FA6.1
0753E:  BRA    753C
07540:  BCF    FA6.2
07542:  MOVF   00,W
07544:  IORWF  FF2,F
....................                   delay_ms(20); 
07546:  MOVLW  14
07548:  MOVLB  6
0754A:  MOVWF  x4A
0754C:  MOVLB  0
0754E:  CALL   139A
....................                   write_eeprom(18,0); 
07552:  CLRF   FAA
07554:  MOVLW  12
07556:  MOVWF  FA9
07558:  CLRF   FA8
0755A:  BCF    FA6.6
0755C:  BCF    FA6.7
0755E:  BSF    FA6.2
07560:  MOVF   FF2,W
07562:  MOVWF  00
07564:  BCF    FF2.7
07566:  MOVLB  F
07568:  MOVLW  55
0756A:  MOVWF  FA7
0756C:  MOVLW  AA
0756E:  MOVWF  FA7
07570:  BSF    FA6.1
07572:  BTFSC  FA6.1
07574:  BRA    7572
07576:  BCF    FA6.2
07578:  MOVF   00,W
0757A:  IORWF  FF2,F
....................                   delay_ms(20); 
0757C:  MOVLW  14
0757E:  MOVLB  6
07580:  MOVWF  x4A
07582:  MOVLB  0
07584:  CALL   139A
....................                   write_eeprom(19,0); 
07588:  CLRF   FAA
0758A:  MOVLW  13
0758C:  MOVWF  FA9
0758E:  CLRF   FA8
07590:  BCF    FA6.6
07592:  BCF    FA6.7
07594:  BSF    FA6.2
07596:  MOVF   FF2,W
07598:  MOVWF  00
0759A:  BCF    FF2.7
0759C:  MOVLB  F
0759E:  MOVLW  55
075A0:  MOVWF  FA7
075A2:  MOVLW  AA
075A4:  MOVWF  FA7
075A6:  BSF    FA6.1
075A8:  BTFSC  FA6.1
075AA:  BRA    75A8
075AC:  BCF    FA6.2
075AE:  MOVF   00,W
075B0:  IORWF  FF2,F
....................                   delay_ms(20); 
075B2:  MOVLW  14
075B4:  MOVLB  6
075B6:  MOVWF  x4A
075B8:  MOVLB  0
075BA:  CALL   139A
....................                   Ttrabajo[3]=0;Ttrabajo[2]=0;Ttrabajo[1]=0;Ttrabajo[0]=0; 
075BE:  MOVLB  5
075C0:  CLRF   x1E
075C2:  CLRF   x1D
075C4:  CLRF   x1C
075C6:  CLRF   x1B
....................                   Menu=3;glcd_fillscreen(OFF);LuzBlanca_off; 
075C8:  MOVLW  03
075CA:  MOVLB  4
075CC:  MOVWF  xDB
075CE:  MOVLB  6
075D0:  CLRF   x49
075D2:  MOVLB  0
075D4:  CALL   35EE
075D8:  BCF    F8B.4
075DA:  BCF    F94.4
....................             } 
....................              
....................             if(LEFT) 
075DC:  BSF    F94.1
075DE:  BTFSS  F82.1
075E0:  BRA    7600
....................             { 
....................                Menu=6;glcd_fillscreen(OFF);LuzBlanca_off;Opcion=1;unidad=1; 
075E2:  MOVLW  06
075E4:  MOVLB  4
075E6:  MOVWF  xDB
075E8:  MOVLB  6
075EA:  CLRF   x49
075EC:  MOVLB  0
075EE:  CALL   35EE
075F2:  BCF    F8B.4
075F4:  BCF    F94.4
075F6:  MOVLW  01
075F8:  MOVLB  4
075FA:  MOVWF  xDD
075FC:  MOVWF  xDC
075FE:  MOVLB  0
....................             } 
....................     } 
.................... //_--------------------------------------------------------------------------------------------------------------------------------------------------------        
....................  
.................... //_-------------------------------------------------------------------------------------------------------------------------------------------------------- 
....................       if(Menu==32){ //Menu de Servicio 
07600:  MOVLB  4
07602:  MOVF   xDB,W
07604:  SUBLW  20
07606:  BTFSS  FD8.2
07608:  BRA    7800
....................        
....................       strcpy(Menus.Letra,"Servicio"); 
0760A:  MOVLW  06
0760C:  MOVWF  FEA
0760E:  MOVLW  2B
07610:  MOVWF  FE9
07612:  MOVFF  FF2,641
07616:  BCF    FF2.7
07618:  MOVLW  00
0761A:  MOVLB  0
0761C:  CALL   109C
07620:  TBLRD*-
07622:  TBLRD*+
07624:  MOVF   FF5,W
07626:  MOVWF  FEE
07628:  IORLW  00
0762A:  BNZ   7622
0762C:  MOVLB  6
0762E:  BTFSC  x41.7
07630:  BSF    FF2.7
....................       displayMenu(Menus.Letra,10,0,1,2); 
07632:  MOVLW  06
07634:  MOVWF  x4A
07636:  MOVLW  2B
07638:  MOVWF  x49
0763A:  MOVLW  0A
0763C:  MOVWF  x4B
0763E:  CLRF   x4C
07640:  MOVLW  01
07642:  MOVWF  x4D
07644:  MOVLW  02
07646:  MOVWF  x4E
07648:  MOVLB  0
0764A:  CALL   3522
....................        
....................       if(Opcion==1)    
0764E:  MOVLB  4
07650:  DECFSZ xDD,W
07652:  BRA    769A
....................          {strcpy(Menus.Letra,"Sensor de Presion"); 
07654:  MOVLW  06
07656:  MOVWF  FEA
07658:  MOVLW  2B
0765A:  MOVWF  FE9
0765C:  MOVFF  FF2,641
07660:  BCF    FF2.7
07662:  MOVLW  00
07664:  MOVLB  0
07666:  CALL   11C8
0766A:  TBLRD*-
0766C:  TBLRD*+
0766E:  MOVF   FF5,W
07670:  MOVWF  FEE
07672:  IORLW  00
07674:  BNZ   766C
07676:  MOVLB  6
07678:  BTFSC  x41.7
0767A:  BSF    FF2.7
....................          displayMenu(Menus.Letra,0,18,1,1);} 
0767C:  MOVLW  06
0767E:  MOVWF  x4A
07680:  MOVLW  2B
07682:  MOVWF  x49
07684:  CLRF   x4B
07686:  MOVLW  12
07688:  MOVWF  x4C
0768A:  MOVLW  01
0768C:  MOVWF  x4D
0768E:  MOVWF  x4E
07690:  MOVLB  0
07692:  CALL   3522
....................       else 
07696:  BRA    76DC
07698:  MOVLB  4
....................          {strcpy(Menus.Letra,"Sensor de Presion"); 
0769A:  MOVLW  06
0769C:  MOVWF  FEA
0769E:  MOVLW  2B
076A0:  MOVWF  FE9
076A2:  MOVFF  FF2,641
076A6:  BCF    FF2.7
076A8:  MOVLW  00
076AA:  MOVLB  0
076AC:  CALL   11C8
076B0:  TBLRD*-
076B2:  TBLRD*+
076B4:  MOVF   FF5,W
076B6:  MOVWF  FEE
076B8:  IORLW  00
076BA:  BNZ   76B2
076BC:  MOVLB  6
076BE:  BTFSC  x41.7
076C0:  BSF    FF2.7
....................          displayMenu(Menus.Letra,0,18,0,1);}  
076C2:  MOVLW  06
076C4:  MOVWF  x4A
076C6:  MOVLW  2B
076C8:  MOVWF  x49
076CA:  CLRF   x4B
076CC:  MOVLW  12
076CE:  MOVWF  x4C
076D0:  CLRF   x4D
076D2:  MOVLW  01
076D4:  MOVWF  x4E
076D6:  MOVLB  0
076D8:  CALL   3522
....................           
....................  
....................          
....................       if(UP)//Si oprime hacia arriba 
076DC:  BSF    F96.1
076DE:  BTFSS  F84.1
076E0:  BRA    76FC
....................       {  if(Flanco == 0)  
076E2:  MOVLB  4
076E4:  BTFSC  x1A.0
076E6:  BRA    76FA
....................             {Flanco = 1;delay_ms(30);Opcion--; 
076E8:  BSF    x1A.0
076EA:  MOVLW  1E
076EC:  MOVLB  6
076EE:  MOVWF  x4A
076F0:  MOVLB  0
076F2:  CALL   139A
076F6:  MOVLB  4
076F8:  DECF   xDD,F
....................             } 
....................       } 
....................          else 
076FA:  BRA    7700
....................             {Flanco = 0;} 
076FC:  MOVLB  4
076FE:  BCF    x1A.0
....................              
....................       if(DOWN)//Si oprime hacia abajo 
07700:  BSF    F96.2
07702:  BTFSS  F84.2
07704:  BRA    771E
....................       {  if(Flanco2 == 0)  
07706:  BTFSC  x1A.2
07708:  BRA    771C
....................             {Flanco2 = 1;delay_ms(30);Opcion++; 
0770A:  BSF    x1A.2
0770C:  MOVLW  1E
0770E:  MOVLB  6
07710:  MOVWF  x4A
07712:  MOVLB  0
07714:  CALL   139A
07718:  MOVLB  4
0771A:  INCF   xDD,F
....................             }      
....................       } 
....................          else 
0771C:  BRA    7720
....................             {Flanco2 = 0;}   
0771E:  BCF    x1A.2
....................              
....................       if(RIGHT)//Si oprime SET 
07720:  BSF    F94.0
07722:  BTFSS  F82.0
07724:  BRA    77B6
....................       {   
....................          delay_ms(20); 
07726:  MOVLW  14
07728:  MOVLB  6
0772A:  MOVWF  x4A
0772C:  MOVLB  0
0772E:  CALL   139A
....................          if(RIGHT){ 
07732:  BSF    F94.0
07734:  BTFSS  F82.0
07736:  BRA    77B8
....................             delay_ms(100); 
07738:  MOVLW  64
0773A:  MOVLB  6
0773C:  MOVWF  x4A
0773E:  MOVLB  0
07740:  CALL   139A
....................             glcd_fillScreen(OFF); 
07744:  MOVLB  6
07746:  CLRF   x49
07748:  MOVLB  0
0774A:  CALL   35EE
....................             while(!PidePassword(6,32,Opcion+40,4,4,4,4)){ 
0774E:  MOVLW  28
07750:  MOVLB  4
07752:  ADDWF  xDD,W
07754:  MOVLB  6
07756:  MOVWF  x41
07758:  MOVLW  06
0775A:  MOVWF  x42
0775C:  MOVLW  20
0775E:  MOVWF  x43
07760:  MOVFF  641,644
07764:  MOVLW  04
07766:  MOVWF  x45
07768:  MOVWF  x46
0776A:  MOVWF  x47
0776C:  MOVWF  x48
0776E:  MOVLB  0
07770:  CALL   3648
07774:  MOVF   01,F
07776:  BNZ   77A4
....................                PidePassword(6,32,Opcion+40,4,4,4,4);glcd_update(); 
07778:  MOVLW  28
0777A:  MOVLB  4
0777C:  ADDWF  xDD,W
0777E:  MOVLB  6
07780:  MOVWF  x41
07782:  MOVLW  06
07784:  MOVWF  x42
07786:  MOVLW  20
07788:  MOVWF  x43
0778A:  MOVFF  641,644
0778E:  MOVLW  04
07790:  MOVWF  x45
07792:  MOVWF  x46
07794:  MOVWF  x47
07796:  MOVWF  x48
07798:  MOVLB  0
0779A:  CALL   3648
0779E:  CALL   2AE8
....................             }             
077A2:  BRA    774E
....................             glcd_fillScreen(OFF);Opcion=1;unidad=1; 
077A4:  MOVLB  6
077A6:  CLRF   x49
077A8:  MOVLB  0
077AA:  CALL   35EE
077AE:  MOVLW  01
077B0:  MOVLB  4
077B2:  MOVWF  xDD
077B4:  MOVWF  xDC
077B6:  MOVLB  0
....................          } 
....................       } 
....................              
....................       if(LEFT)//Si oprime boton de Toma. 
077B8:  BSF    F94.1
077BA:  BTFSS  F82.1
077BC:  BRA    77EC
....................         {delay_ms(700);Menu=6;glcd_fillscreen(OFF);Opcion=1;unidad=1;} 
077BE:  MOVLW  04
077C0:  MOVLB  6
077C2:  MOVWF  x41
077C4:  MOVLW  AF
077C6:  MOVWF  x4A
077C8:  MOVLB  0
077CA:  CALL   139A
077CE:  MOVLB  6
077D0:  DECFSZ x41,F
077D2:  BRA    77C4
077D4:  MOVLW  06
077D6:  MOVLB  4
077D8:  MOVWF  xDB
077DA:  MOVLB  6
077DC:  CLRF   x49
077DE:  MOVLB  0
077E0:  CALL   35EE
077E4:  MOVLW  01
077E6:  MOVLB  4
077E8:  MOVWF  xDD
077EA:  MOVWF  xDC
....................          
....................       if(Opcion>1) 
077EC:  MOVLB  4
077EE:  MOVF   xDD,W
077F0:  SUBLW  01
077F2:  BC    77F8
....................       {Opcion=1;} 
077F4:  MOVLW  01
077F6:  MOVWF  xDD
....................       if(Opcion<1) 
077F8:  MOVF   xDD,F
077FA:  BNZ   7800
....................       {Opcion=1;} 
077FC:  MOVLW  01
077FE:  MOVWF  xDD
....................     } 
.................... //_--------------------------------------------------------------------------------------------------------------------------------------------------------        
....................  
.................... //_-------------------------------------------------------------------------------------------------------------------------------------------------------- 
....................       if(Menu==33){ //Menu de Apagado de Cabina. 
07800:  MOVF   xDB,W
07802:  SUBLW  21
07804:  BTFSS  FD8.2
07806:  BRA    7C80
....................        
....................       strcpy(Menus.Letra,"  Apagar?"); 
07808:  MOVLW  06
0780A:  MOVWF  FEA
0780C:  MOVLW  2B
0780E:  MOVWF  FE9
07810:  MOVFF  FF2,641
07814:  BCF    FF2.7
07816:  MOVLW  00
07818:  MOVLB  0
0781A:  CALL   11F8
0781E:  TBLRD*-
07820:  TBLRD*+
07822:  MOVF   FF5,W
07824:  MOVWF  FEE
07826:  IORLW  00
07828:  BNZ   7820
0782A:  MOVLB  6
0782C:  BTFSC  x41.7
0782E:  BSF    FF2.7
....................       displayMenu(Menus.Letra,10,0,1,2); 
07830:  MOVLW  06
07832:  MOVWF  x4A
07834:  MOVLW  2B
07836:  MOVWF  x49
07838:  MOVLW  0A
0783A:  MOVWF  x4B
0783C:  CLRF   x4C
0783E:  MOVLW  01
07840:  MOVWF  x4D
07842:  MOVLW  02
07844:  MOVWF  x4E
07846:  MOVLB  0
07848:  CALL   3522
....................        
....................       if(unidad==1) 
0784C:  MOVLB  4
0784E:  DECFSZ xDC,W
07850:  BRA    78DE
....................       {strcpy(Menus.Letra,"SI"); 
07852:  MOVLW  06
07854:  MOVWF  FEA
07856:  MOVLW  2B
07858:  MOVWF  FE9
0785A:  MOVFF  FF2,641
0785E:  BCF    FF2.7
07860:  MOVLW  00
07862:  MOVLB  0
07864:  CALL   1220
07868:  TBLRD*-
0786A:  TBLRD*+
0786C:  MOVF   FF5,W
0786E:  MOVWF  FEE
07870:  IORLW  00
07872:  BNZ   786A
07874:  MOVLB  6
07876:  BTFSC  x41.7
07878:  BSF    FF2.7
....................       displayMenu(Menus.Letra,50,25,1,2); 
0787A:  MOVLW  06
0787C:  MOVWF  x4A
0787E:  MOVLW  2B
07880:  MOVWF  x49
07882:  MOVLW  32
07884:  MOVWF  x4B
07886:  MOVLW  19
07888:  MOVWF  x4C
0788A:  MOVLW  01
0788C:  MOVWF  x4D
0788E:  MOVLW  02
07890:  MOVWF  x4E
07892:  MOVLB  0
07894:  CALL   3522
....................       strcpy(Menus.Letra,"NO"); 
07898:  MOVLW  06
0789A:  MOVWF  FEA
0789C:  MOVLW  2B
0789E:  MOVWF  FE9
078A0:  MOVFF  FF2,641
078A4:  BCF    FF2.7
078A6:  MOVLW  00
078A8:  CALL   1242
078AC:  TBLRD*-
078AE:  TBLRD*+
078B0:  MOVF   FF5,W
078B2:  MOVWF  FEE
078B4:  IORLW  00
078B6:  BNZ   78AE
078B8:  MOVLB  6
078BA:  BTFSC  x41.7
078BC:  BSF    FF2.7
....................       displayMenu(Menus.Letra,50,45,0,2);} 
078BE:  MOVLW  06
078C0:  MOVWF  x4A
078C2:  MOVLW  2B
078C4:  MOVWF  x49
078C6:  MOVLW  32
078C8:  MOVWF  x4B
078CA:  MOVLW  2D
078CC:  MOVWF  x4C
078CE:  CLRF   x4D
078D0:  MOVLW  02
078D2:  MOVWF  x4E
078D4:  MOVLB  0
078D6:  CALL   3522
....................       else 
078DA:  BRA    7966
078DC:  MOVLB  4
....................       {strcpy(Menus.Letra,"SI"); 
078DE:  MOVLW  06
078E0:  MOVWF  FEA
078E2:  MOVLW  2B
078E4:  MOVWF  FE9
078E6:  MOVFF  FF2,641
078EA:  BCF    FF2.7
078EC:  MOVLW  00
078EE:  MOVLB  0
078F0:  CALL   1220
078F4:  TBLRD*-
078F6:  TBLRD*+
078F8:  MOVF   FF5,W
078FA:  MOVWF  FEE
078FC:  IORLW  00
078FE:  BNZ   78F6
07900:  MOVLB  6
07902:  BTFSC  x41.7
07904:  BSF    FF2.7
....................       displayMenu(Menus.Letra,50,25,0,2); 
07906:  MOVLW  06
07908:  MOVWF  x4A
0790A:  MOVLW  2B
0790C:  MOVWF  x49
0790E:  MOVLW  32
07910:  MOVWF  x4B
07912:  MOVLW  19
07914:  MOVWF  x4C
07916:  CLRF   x4D
07918:  MOVLW  02
0791A:  MOVWF  x4E
0791C:  MOVLB  0
0791E:  CALL   3522
....................       strcpy(Menus.Letra,"NO"); 
07922:  MOVLW  06
07924:  MOVWF  FEA
07926:  MOVLW  2B
07928:  MOVWF  FE9
0792A:  MOVFF  FF2,641
0792E:  BCF    FF2.7
07930:  MOVLW  00
07932:  CALL   1242
07936:  TBLRD*-
07938:  TBLRD*+
0793A:  MOVF   FF5,W
0793C:  MOVWF  FEE
0793E:  IORLW  00
07940:  BNZ   7938
07942:  MOVLB  6
07944:  BTFSC  x41.7
07946:  BSF    FF2.7
....................       displayMenu(Menus.Letra,50,45,1,2);} 
07948:  MOVLW  06
0794A:  MOVWF  x4A
0794C:  MOVLW  2B
0794E:  MOVWF  x49
07950:  MOVLW  32
07952:  MOVWF  x4B
07954:  MOVLW  2D
07956:  MOVWF  x4C
07958:  MOVLW  01
0795A:  MOVWF  x4D
0795C:  MOVLW  02
0795E:  MOVWF  x4E
07960:  MOVLB  0
07962:  CALL   3522
....................        
....................        
....................          
....................       if(UP)//Si oprime hacia arriba 
07966:  BSF    F96.1
07968:  BTFSS  F84.1
0796A:  BRA    797E
....................       {   
....................          delay_ms(90);unidad++; 
0796C:  MOVLW  5A
0796E:  MOVLB  6
07970:  MOVWF  x4A
07972:  MOVLB  0
07974:  CALL   139A
07978:  MOVLB  4
0797A:  INCF   xDC,F
0797C:  MOVLB  0
....................       } 
....................              
....................       if(DOWN)//Si oprime hacia abajo 
0797E:  BSF    F96.2
07980:  BTFSS  F84.2
07982:  BRA    7996
....................       { 
....................          delay_ms(90);unidad--; 
07984:  MOVLW  5A
07986:  MOVLB  6
07988:  MOVWF  x4A
0798A:  MOVLB  0
0798C:  CALL   139A
07990:  MOVLB  4
07992:  DECF   xDC,F
07994:  MOVLB  0
....................       } 
....................              
....................       if(RIGHT)//Si oprime SET 
07996:  BSF    F94.0
07998:  BTFSS  F82.0
0799A:  BRA    7C42
....................       { 
....................          Flanco1 = 1;delay_ms(30); 
0799C:  MOVLB  4
0799E:  BSF    x1A.1
079A0:  MOVLW  1E
079A2:  MOVLB  6
079A4:  MOVWF  x4A
079A6:  MOVLB  0
079A8:  CALL   139A
....................          if(unidad==1) 
079AC:  MOVLB  4
079AE:  DECFSZ xDC,W
079B0:  BRA    7C34
....................          {Menu=120;glcd_fillscreen(OFF); 
079B2:  MOVLW  78
079B4:  MOVWF  xDB
079B6:  MOVLB  6
079B8:  CLRF   x49
079BA:  MOVLB  0
079BC:  CALL   35EE
....................             write_eeprom(33,make8(minutos_trabajo,0)); 
079C0:  MOVFF  4FB,641
079C4:  CLRF   FAA
079C6:  MOVLW  21
079C8:  MOVWF  FA9
079CA:  MOVFF  641,FA8
079CE:  BCF    FA6.6
079D0:  BCF    FA6.7
079D2:  BSF    FA6.2
079D4:  MOVF   FF2,W
079D6:  MOVWF  00
079D8:  BCF    FF2.7
079DA:  MOVLB  F
079DC:  MOVLW  55
079DE:  MOVWF  FA7
079E0:  MOVLW  AA
079E2:  MOVWF  FA7
079E4:  BSF    FA6.1
079E6:  BTFSC  FA6.1
079E8:  BRA    79E6
079EA:  BCF    FA6.2
079EC:  MOVF   00,W
079EE:  IORWF  FF2,F
....................             delay_ms(20); 
079F0:  MOVLW  14
079F2:  MOVLB  6
079F4:  MOVWF  x4A
079F6:  MOVLB  0
079F8:  CALL   139A
....................             write_eeprom(34,make8(minutos_trabajo,1)); 
079FC:  MOVFF  4FC,641
07A00:  CLRF   FAA
07A02:  MOVLW  22
07A04:  MOVWF  FA9
07A06:  MOVFF  641,FA8
07A0A:  BCF    FA6.6
07A0C:  BCF    FA6.7
07A0E:  BSF    FA6.2
07A10:  MOVF   FF2,W
07A12:  MOVWF  00
07A14:  BCF    FF2.7
07A16:  MOVLB  F
07A18:  MOVLW  55
07A1A:  MOVWF  FA7
07A1C:  MOVLW  AA
07A1E:  MOVWF  FA7
07A20:  BSF    FA6.1
07A22:  BTFSC  FA6.1
07A24:  BRA    7A22
07A26:  BCF    FA6.2
07A28:  MOVF   00,W
07A2A:  IORWF  FF2,F
....................             delay_ms(20); 
07A2C:  MOVLW  14
07A2E:  MOVLB  6
07A30:  MOVWF  x4A
07A32:  MOVLB  0
07A34:  CALL   139A
....................             write_eeprom(16,Ttrabajo[0]); 
07A38:  CLRF   FAA
07A3A:  MOVLW  10
07A3C:  MOVWF  FA9
07A3E:  MOVFF  51B,FA8
07A42:  BCF    FA6.6
07A44:  BCF    FA6.7
07A46:  BSF    FA6.2
07A48:  MOVF   FF2,W
07A4A:  MOVWF  00
07A4C:  BCF    FF2.7
07A4E:  MOVLB  F
07A50:  MOVLW  55
07A52:  MOVWF  FA7
07A54:  MOVLW  AA
07A56:  MOVWF  FA7
07A58:  BSF    FA6.1
07A5A:  BTFSC  FA6.1
07A5C:  BRA    7A5A
07A5E:  BCF    FA6.2
07A60:  MOVF   00,W
07A62:  IORWF  FF2,F
....................             delay_ms(20); 
07A64:  MOVLW  14
07A66:  MOVLB  6
07A68:  MOVWF  x4A
07A6A:  MOVLB  0
07A6C:  CALL   139A
....................             write_eeprom(17,Ttrabajo[1]); 
07A70:  CLRF   FAA
07A72:  MOVLW  11
07A74:  MOVWF  FA9
07A76:  MOVFF  51C,FA8
07A7A:  BCF    FA6.6
07A7C:  BCF    FA6.7
07A7E:  BSF    FA6.2
07A80:  MOVF   FF2,W
07A82:  MOVWF  00
07A84:  BCF    FF2.7
07A86:  MOVLB  F
07A88:  MOVLW  55
07A8A:  MOVWF  FA7
07A8C:  MOVLW  AA
07A8E:  MOVWF  FA7
07A90:  BSF    FA6.1
07A92:  BTFSC  FA6.1
07A94:  BRA    7A92
07A96:  BCF    FA6.2
07A98:  MOVF   00,W
07A9A:  IORWF  FF2,F
....................             delay_ms(20); 
07A9C:  MOVLW  14
07A9E:  MOVLB  6
07AA0:  MOVWF  x4A
07AA2:  MOVLB  0
07AA4:  CALL   139A
....................             write_eeprom(18,Ttrabajo[2]); 
07AA8:  CLRF   FAA
07AAA:  MOVLW  12
07AAC:  MOVWF  FA9
07AAE:  MOVFF  51D,FA8
07AB2:  BCF    FA6.6
07AB4:  BCF    FA6.7
07AB6:  BSF    FA6.2
07AB8:  MOVF   FF2,W
07ABA:  MOVWF  00
07ABC:  BCF    FF2.7
07ABE:  MOVLB  F
07AC0:  MOVLW  55
07AC2:  MOVWF  FA7
07AC4:  MOVLW  AA
07AC6:  MOVWF  FA7
07AC8:  BSF    FA6.1
07ACA:  BTFSC  FA6.1
07ACC:  BRA    7ACA
07ACE:  BCF    FA6.2
07AD0:  MOVF   00,W
07AD2:  IORWF  FF2,F
....................             delay_ms(20); 
07AD4:  MOVLW  14
07AD6:  MOVLB  6
07AD8:  MOVWF  x4A
07ADA:  MOVLB  0
07ADC:  CALL   139A
....................             write_eeprom(19,Ttrabajo[3]); 
07AE0:  CLRF   FAA
07AE2:  MOVLW  13
07AE4:  MOVWF  FA9
07AE6:  MOVFF  51E,FA8
07AEA:  BCF    FA6.6
07AEC:  BCF    FA6.7
07AEE:  BSF    FA6.2
07AF0:  MOVF   FF2,W
07AF2:  MOVWF  00
07AF4:  BCF    FF2.7
07AF6:  MOVLB  F
07AF8:  MOVLW  55
07AFA:  MOVWF  FA7
07AFC:  MOVLW  AA
07AFE:  MOVWF  FA7
07B00:  BSF    FA6.1
07B02:  BTFSC  FA6.1
07B04:  BRA    7B02
07B06:  BCF    FA6.2
07B08:  MOVF   00,W
07B0A:  IORWF  FF2,F
....................             delay_ms(20); 
07B0C:  MOVLW  14
07B0E:  MOVLB  6
07B10:  MOVWF  x4A
07B12:  MOVLB  0
07B14:  CALL   139A
....................             write_eeprom(31,minutos_uv); 
07B18:  CLRF   FAA
07B1A:  MOVLW  1F
07B1C:  MOVWF  FA9
07B1E:  MOVFF  4E3,FA8
07B22:  BCF    FA6.6
07B24:  BCF    FA6.7
07B26:  BSF    FA6.2
07B28:  MOVF   FF2,W
07B2A:  MOVWF  00
07B2C:  BCF    FF2.7
07B2E:  MOVLB  F
07B30:  MOVLW  55
07B32:  MOVWF  FA7
07B34:  MOVLW  AA
07B36:  MOVWF  FA7
07B38:  BSF    FA6.1
07B3A:  BTFSC  FA6.1
07B3C:  BRA    7B3A
07B3E:  BCF    FA6.2
07B40:  MOVF   00,W
07B42:  IORWF  FF2,F
....................             delay_ms(20); 
07B44:  MOVLW  14
07B46:  MOVLB  6
07B48:  MOVWF  x4A
07B4A:  MOVLB  0
07B4C:  CALL   139A
....................             write_eeprom(12,Tuv[0]); 
07B50:  CLRF   FAA
07B52:  MOVLW  0C
07B54:  MOVWF  FA9
07B56:  MOVFF  50F,FA8
07B5A:  BCF    FA6.6
07B5C:  BCF    FA6.7
07B5E:  BSF    FA6.2
07B60:  MOVF   FF2,W
07B62:  MOVWF  00
07B64:  BCF    FF2.7
07B66:  MOVLB  F
07B68:  MOVLW  55
07B6A:  MOVWF  FA7
07B6C:  MOVLW  AA
07B6E:  MOVWF  FA7
07B70:  BSF    FA6.1
07B72:  BTFSC  FA6.1
07B74:  BRA    7B72
07B76:  BCF    FA6.2
07B78:  MOVF   00,W
07B7A:  IORWF  FF2,F
....................             delay_ms(20); 
07B7C:  MOVLW  14
07B7E:  MOVLB  6
07B80:  MOVWF  x4A
07B82:  MOVLB  0
07B84:  CALL   139A
....................             write_eeprom(13,Tuv[1]); 
07B88:  CLRF   FAA
07B8A:  MOVLW  0D
07B8C:  MOVWF  FA9
07B8E:  MOVFF  510,FA8
07B92:  BCF    FA6.6
07B94:  BCF    FA6.7
07B96:  BSF    FA6.2
07B98:  MOVF   FF2,W
07B9A:  MOVWF  00
07B9C:  BCF    FF2.7
07B9E:  MOVLB  F
07BA0:  MOVLW  55
07BA2:  MOVWF  FA7
07BA4:  MOVLW  AA
07BA6:  MOVWF  FA7
07BA8:  BSF    FA6.1
07BAA:  BTFSC  FA6.1
07BAC:  BRA    7BAA
07BAE:  BCF    FA6.2
07BB0:  MOVF   00,W
07BB2:  IORWF  FF2,F
....................             delay_ms(20); 
07BB4:  MOVLW  14
07BB6:  MOVLB  6
07BB8:  MOVWF  x4A
07BBA:  MOVLB  0
07BBC:  CALL   139A
....................             write_eeprom(14,Tuv[2]); 
07BC0:  CLRF   FAA
07BC2:  MOVLW  0E
07BC4:  MOVWF  FA9
07BC6:  MOVFF  511,FA8
07BCA:  BCF    FA6.6
07BCC:  BCF    FA6.7
07BCE:  BSF    FA6.2
07BD0:  MOVF   FF2,W
07BD2:  MOVWF  00
07BD4:  BCF    FF2.7
07BD6:  MOVLB  F
07BD8:  MOVLW  55
07BDA:  MOVWF  FA7
07BDC:  MOVLW  AA
07BDE:  MOVWF  FA7
07BE0:  BSF    FA6.1
07BE2:  BTFSC  FA6.1
07BE4:  BRA    7BE2
07BE6:  BCF    FA6.2
07BE8:  MOVF   00,W
07BEA:  IORWF  FF2,F
....................             delay_ms(20); 
07BEC:  MOVLW  14
07BEE:  MOVLB  6
07BF0:  MOVWF  x4A
07BF2:  MOVLB  0
07BF4:  CALL   139A
....................             write_eeprom(15,Tuv[3]); 
07BF8:  CLRF   FAA
07BFA:  MOVLW  0F
07BFC:  MOVWF  FA9
07BFE:  MOVFF  512,FA8
07C02:  BCF    FA6.6
07C04:  BCF    FA6.7
07C06:  BSF    FA6.2
07C08:  MOVF   FF2,W
07C0A:  MOVWF  00
07C0C:  BCF    FF2.7
07C0E:  MOVLB  F
07C10:  MOVLW  55
07C12:  MOVWF  FA7
07C14:  MOVLW  AA
07C16:  MOVWF  FA7
07C18:  BSF    FA6.1
07C1A:  BTFSC  FA6.1
07C1C:  BRA    7C1A
07C1E:  BCF    FA6.2
07C20:  MOVF   00,W
07C22:  IORWF  FF2,F
....................             delay_ms(20); 
07C24:  MOVLW  14
07C26:  MOVLB  6
07C28:  MOVWF  x4A
07C2A:  MOVLB  0
07C2C:  CALL   139A
....................          } 
....................          else 
07C30:  BRA    7C42
07C32:  MOVLB  4
....................          {Menu=2;glcd_fillscreen(OFF);}  
07C34:  MOVLW  02
07C36:  MOVWF  xDB
07C38:  MOVLB  6
07C3A:  CLRF   x49
07C3C:  MOVLB  0
07C3E:  CALL   35EE
....................           
....................       } 
....................              
....................       if(LEFT)//Si oprime boton de Toma. 
07C42:  BSF    F94.1
07C44:  BTFSS  F82.1
07C46:  BRA    7C6C
....................       { 
....................          delay_ms(30);Menu=6;glcd_fillscreen(OFF);Opcion=1;unidad=1; 
07C48:  MOVLW  1E
07C4A:  MOVLB  6
07C4C:  MOVWF  x4A
07C4E:  MOVLB  0
07C50:  CALL   139A
07C54:  MOVLW  06
07C56:  MOVLB  4
07C58:  MOVWF  xDB
07C5A:  MOVLB  6
07C5C:  CLRF   x49
07C5E:  MOVLB  0
07C60:  CALL   35EE
07C64:  MOVLW  01
07C66:  MOVLB  4
07C68:  MOVWF  xDD
07C6A:  MOVWF  xDC
....................       } 
....................        
....................       if(unidad>2) 
07C6C:  MOVLB  4
07C6E:  MOVF   xDC,W
07C70:  SUBLW  02
07C72:  BC    7C78
....................       {unidad=1;} 
07C74:  MOVLW  01
07C76:  MOVWF  xDC
....................       if(unidad<1) 
07C78:  MOVF   xDC,F
07C7A:  BNZ   7C80
....................       {unidad=2;} 
07C7C:  MOVLW  02
07C7E:  MOVWF  xDC
....................      
....................     } 
.................... //_--------------------------------------------------------------------------------------------------------------------------------------------------------        
....................  
.................... //_-------------------------------------------------------------------------------------------------------------------------------------------------------- 
....................      /* if(Menu==41){ //Menu de Sensor de Flujo. 
....................        
....................       if(Ajuste1>10.0) 
....................          Ajuste1=0.0; 
....................        
....................       strcpy(Menus.Letra,"Sensor de Flujo"); 
....................       displayMenu(Menus.Letra,10,0,1,1); 
....................        
....................       glcd_text57(0, 12, ZF, 1, ON); 
....................        
....................       glcd_text57(0, 20, ZA, 1, ON); 
....................        
....................       glcd_text57(0, 30, AJ, 1, ON);            
....................        
....................       displayfloat(zero_actual,44,20,0,1); 
....................       displayfloat(Ajuste1,44,30,0,1); 
....................       displayfloat(Inflow_adc,0,40,0,1); 
.................... //      displayfloat(Diferencia,0,50,0,1); 
....................        
....................       if(UP)//Si oprime hacia arriba 
....................       {   
....................          delay_ms(30);Ajuste1+=0.01; 
....................       } 
....................              
....................       if(DOWN)//Si oprime hacia abajo 
....................       {    
....................          delay_ms(30);Ajuste1-=0.01; 
....................       } 
....................              
....................       if(RIGHT)//Si oprime SET 
....................       {   
....................          zero_actual=Inflow_adc; 
....................          Diferencia=zero_fabrica-Inflow_adc; 
....................              
....................          if(Diferencia>=0) 
....................          { 
....................             negativo=10;write_eeprom(50,negativo);delay_ms(20); 
....................          } 
....................          if(Diferencia<0) 
....................          { 
....................             negativo=20;write_eeprom(50,negativo);delay_ms(20); 
....................          } 
....................          Diferencia=abs(Diferencia); 
....................          Temporal1=(int16)Diferencia; 
....................          write_eeprom(60,make8(Temporal1,0)); 
....................          delay_ms(20); 
....................          write_eeprom(61,make8(Temporal1,1));//Guardar valor de Setpoint en eeprom 
....................          delay_ms(20); 
....................  
....................          Temporal1=(int16)zero_actual; 
....................          write_eeprom(29,make8(Temporal1,0)); 
....................          delay_ms(20); 
....................          write_eeprom(30,make8(Temporal1,1));//Guardar valor de Setpoint en eeprom 
....................          delay_ms(20); 
....................       } 
....................          else 
....................             {Flanco1 = 0;}   
....................              
....................       if(LEFT)//Si oprime boton de Toma. 
....................       { 
....................          delay_ms(700);Menu=32;glcd_fillscreen(OFF);Opcion=1;unidad=1; 
....................          Temporal=Ajuste1; 
....................          Entero=(int)Ajuste1; 
....................          Temporal=Temporal-Entero; 
....................          Temporal2=Temporal*10.0; 
....................          Decimal1=(int8)Temporal2; 
....................          write_eeprom(25,Entero); 
....................          delay_ms(20); 
....................          write_eeprom(26,Decimal1); 
....................          delay_ms(20); 
....................       } 
....................     }*/ 
.................... //_--------------------------------------------------------------------------------------------------------------------------------------------------------        
....................  
.................... //_-------------------------------------------------------------------------------------------------------------------------------------------------------- 
....................       if(Menu==41){ //Menu de Sensor de Presin. 
07C80:  MOVF   xDB,W
07C82:  SUBLW  29
07C84:  BTFSS  FD8.2
07C86:  BRA    80B4
....................        
....................       if(Ajuste2>10.0) 
07C88:  MOVLB  6
07C8A:  CLRF   x49
07C8C:  CLRF   x48
07C8E:  MOVLW  20
07C90:  MOVWF  x47
07C92:  MOVLW  82
07C94:  MOVWF  x46
07C96:  MOVFF  55E,64D
07C9A:  MOVFF  55D,64C
07C9E:  MOVFF  55C,64B
07CA2:  MOVFF  55B,64A
07CA6:  MOVLB  0
07CA8:  CALL   2024
07CAC:  BNC   7CBA
....................          Ajuste2=0.0; 
07CAE:  MOVLB  5
07CB0:  CLRF   x5E
07CB2:  CLRF   x5D
07CB4:  CLRF   x5C
07CB6:  CLRF   x5B
07CB8:  MOVLB  0
....................        
....................       strcpy(Menus.Letra,"Sensor de Presion"); 
07CBA:  MOVLW  06
07CBC:  MOVWF  FEA
07CBE:  MOVLW  2B
07CC0:  MOVWF  FE9
07CC2:  MOVFF  FF2,641
07CC6:  BCF    FF2.7
07CC8:  MOVLW  00
07CCA:  CALL   11C8
07CCE:  TBLRD*-
07CD0:  TBLRD*+
07CD2:  MOVF   FF5,W
07CD4:  MOVWF  FEE
07CD6:  IORLW  00
07CD8:  BNZ   7CD0
07CDA:  MOVLB  6
07CDC:  BTFSC  x41.7
07CDE:  BSF    FF2.7
....................       displayMenu(Menus.Letra,10,0,1,1); 
07CE0:  MOVLW  06
07CE2:  MOVWF  x4A
07CE4:  MOVLW  2B
07CE6:  MOVWF  x49
07CE8:  MOVLW  0A
07CEA:  MOVWF  x4B
07CEC:  CLRF   x4C
07CEE:  MOVLW  01
07CF0:  MOVWF  x4D
07CF2:  MOVWF  x4E
07CF4:  MOVLB  0
07CF6:  CALL   3522
....................        
....................       glcd_text57(0, 12, ZFP, 1, ON); 
07CFA:  MOVLB  6
07CFC:  CLRF   x5A
07CFE:  MOVLW  0C
07D00:  MOVWF  x5B
07D02:  MOVLW  04
07D04:  MOVWF  x5D
07D06:  MOVLW  B6
07D08:  MOVWF  x5C
07D0A:  MOVLW  01
07D0C:  MOVWF  x5E
07D0E:  MOVWF  x5F
07D10:  MOVLB  0
07D12:  CALL   32B4
....................        
....................       glcd_text57(0, 20, ZA, 1, ON); 
07D16:  MOVLB  6
07D18:  CLRF   x5A
07D1A:  MOVLW  14
07D1C:  MOVWF  x5B
07D1E:  MOVLW  04
07D20:  MOVWF  x5D
07D22:  MOVLW  96
07D24:  MOVWF  x5C
07D26:  MOVLW  01
07D28:  MOVWF  x5E
07D2A:  MOVWF  x5F
07D2C:  MOVLB  0
07D2E:  CALL   32B4
....................        
....................       glcd_text57(0, 30, AJ, 1, ON);            
07D32:  MOVLB  6
07D34:  CLRF   x5A
07D36:  MOVLW  1E
07D38:  MOVWF  x5B
07D3A:  MOVLW  04
07D3C:  MOVWF  x5D
07D3E:  MOVLW  9E
07D40:  MOVWF  x5C
07D42:  MOVLW  01
07D44:  MOVWF  x5E
07D46:  MOVWF  x5F
07D48:  MOVLB  0
07D4A:  CALL   32B4
....................        
....................       displayfloat(G,44,20,0,1); 
07D4E:  MOVFF  5D2,648
07D52:  MOVFF  5D1,647
07D56:  MOVFF  5D0,646
07D5A:  MOVFF  5CF,645
07D5E:  MOVLW  2C
07D60:  MOVLB  6
07D62:  MOVWF  x49
07D64:  MOVLW  14
07D66:  MOVWF  x4A
07D68:  CLRF   x4B
07D6A:  MOVLW  01
07D6C:  MOVWF  x4C
07D6E:  MOVLB  0
07D70:  CALL   418E
....................       displayfloat(Ajuste2,44,30,0,1); 
07D74:  MOVFF  55E,648
07D78:  MOVFF  55D,647
07D7C:  MOVFF  55C,646
07D80:  MOVFF  55B,645
07D84:  MOVLW  2C
07D86:  MOVLB  6
07D88:  MOVWF  x49
07D8A:  MOVLW  1E
07D8C:  MOVWF  x4A
07D8E:  CLRF   x4B
07D90:  MOVLW  01
07D92:  MOVWF  x4C
07D94:  MOVLB  0
07D96:  CALL   418E
....................       displayfloat(Filtro_DownFlow_adc,0,40,0,1); 
07D9A:  MOVFF  4F4,647
07D9E:  MOVFF  4F3,646
07DA2:  CALL   13C2
07DA6:  MOVFF  00,641
07DAA:  MOVFF  01,642
07DAE:  MOVFF  02,643
07DB2:  MOVFF  03,644
07DB6:  MOVFF  03,648
07DBA:  MOVFF  02,647
07DBE:  MOVFF  01,646
07DC2:  MOVFF  00,645
07DC6:  MOVLB  6
07DC8:  CLRF   x49
07DCA:  MOVLW  28
07DCC:  MOVWF  x4A
07DCE:  CLRF   x4B
07DD0:  MOVLW  01
07DD2:  MOVWF  x4C
07DD4:  MOVLB  0
07DD6:  CALL   418E
....................       displayfloat(Filtro_DownFlow,0,50,0,1); 
07DDA:  MOVFF  532,648
07DDE:  MOVFF  531,647
07DE2:  MOVFF  530,646
07DE6:  MOVFF  52F,645
07DEA:  MOVLB  6
07DEC:  CLRF   x49
07DEE:  MOVLW  32
07DF0:  MOVWF  x4A
07DF2:  CLRF   x4B
07DF4:  MOVLW  01
07DF6:  MOVWF  x4C
07DF8:  MOVLB  0
07DFA:  CALL   418E
....................        
....................       if(UP)//Si oprime hacia arriba 
07DFE:  BSF    F96.1
07E00:  BTFSS  F84.1
07E02:  BRA    7E4A
....................       {   
....................          delay_ms(30);Ajuste2+=0.01; 
07E04:  MOVLW  1E
07E06:  MOVLB  6
07E08:  MOVWF  x4A
07E0A:  MOVLB  0
07E0C:  CALL   139A
07E10:  BCF    FD8.1
07E12:  MOVFF  55E,64D
07E16:  MOVFF  55D,64C
07E1A:  MOVFF  55C,64B
07E1E:  MOVFF  55B,64A
07E22:  MOVLW  0A
07E24:  MOVLB  6
07E26:  MOVWF  x51
07E28:  MOVLW  D7
07E2A:  MOVWF  x50
07E2C:  MOVLW  23
07E2E:  MOVWF  x4F
07E30:  MOVLW  78
07E32:  MOVWF  x4E
07E34:  MOVLB  0
07E36:  CALL   1556
07E3A:  MOVFF  03,55E
07E3E:  MOVFF  02,55D
07E42:  MOVFF  01,55C
07E46:  MOVFF  00,55B
....................       } 
....................              
....................       if(DOWN)//Si oprime hacia abajo 
07E4A:  BSF    F96.2
07E4C:  BTFSS  F84.2
07E4E:  BRA    7E96
....................       {   
....................          delay_ms(30);Ajuste2-=0.01; 
07E50:  MOVLW  1E
07E52:  MOVLB  6
07E54:  MOVWF  x4A
07E56:  MOVLB  0
07E58:  CALL   139A
07E5C:  BSF    FD8.1
07E5E:  MOVFF  55E,64D
07E62:  MOVFF  55D,64C
07E66:  MOVFF  55C,64B
07E6A:  MOVFF  55B,64A
07E6E:  MOVLW  0A
07E70:  MOVLB  6
07E72:  MOVWF  x51
07E74:  MOVLW  D7
07E76:  MOVWF  x50
07E78:  MOVLW  23
07E7A:  MOVWF  x4F
07E7C:  MOVLW  78
07E7E:  MOVWF  x4E
07E80:  MOVLB  0
07E82:  CALL   1556
07E86:  MOVFF  03,55E
07E8A:  MOVFF  02,55D
07E8E:  MOVFF  01,55C
07E92:  MOVFF  00,55B
....................       } 
....................              
....................       if(RIGHT)//Si oprime SET 
07E96:  BSF    F94.0
07E98:  BTFSS  F82.0
07E9A:  BRA    7F4E
....................       {            
....................          G=Filtro_Downflow_adc; 
07E9C:  MOVFF  4F4,647
07EA0:  MOVFF  4F3,646
07EA4:  CALL   13C2
07EA8:  MOVFF  03,5D2
07EAC:  MOVFF  02,5D1
07EB0:  MOVFF  01,5D0
07EB4:  MOVFF  00,5CF
....................          G16=(int16)G; 
07EB8:  MOVFF  5D2,644
07EBC:  MOVFF  5D1,643
07EC0:  MOVFF  5D0,642
07EC4:  MOVFF  5CF,641
07EC8:  CALL   4554
07ECC:  MOVFF  02,4FE
07ED0:  MOVFF  01,4FD
....................          G_l=G16; G_h=(G16>>8); 
07ED4:  MOVFF  4FD,4E0
07ED8:  MOVFF  4FE,4E1
....................              
....................          write_eeprom(62,G_l); 
07EDC:  CLRF   FAA
07EDE:  MOVLW  3E
07EE0:  MOVWF  FA9
07EE2:  MOVFF  4E0,FA8
07EE6:  BCF    FA6.6
07EE8:  BCF    FA6.7
07EEA:  BSF    FA6.2
07EEC:  MOVF   FF2,W
07EEE:  MOVWF  00
07EF0:  BCF    FF2.7
07EF2:  MOVLB  F
07EF4:  MOVLW  55
07EF6:  MOVWF  FA7
07EF8:  MOVLW  AA
07EFA:  MOVWF  FA7
07EFC:  BSF    FA6.1
07EFE:  BTFSC  FA6.1
07F00:  BRA    7EFE
07F02:  BCF    FA6.2
07F04:  MOVF   00,W
07F06:  IORWF  FF2,F
....................          delay_ms(20); 
07F08:  MOVLW  14
07F0A:  MOVLB  6
07F0C:  MOVWF  x4A
07F0E:  MOVLB  0
07F10:  CALL   139A
....................          write_eeprom(63,G_h);//Guardar valor de Setpoint en eeprom 
07F14:  CLRF   FAA
07F16:  MOVLW  3F
07F18:  MOVWF  FA9
07F1A:  MOVFF  4E1,FA8
07F1E:  BCF    FA6.6
07F20:  BCF    FA6.7
07F22:  BSF    FA6.2
07F24:  MOVF   FF2,W
07F26:  MOVWF  00
07F28:  BCF    FF2.7
07F2A:  MOVLB  F
07F2C:  MOVLW  55
07F2E:  MOVWF  FA7
07F30:  MOVLW  AA
07F32:  MOVWF  FA7
07F34:  BSF    FA6.1
07F36:  BTFSC  FA6.1
07F38:  BRA    7F36
07F3A:  BCF    FA6.2
07F3C:  MOVF   00,W
07F3E:  IORWF  FF2,F
....................          delay_ms(20); 
07F40:  MOVLW  14
07F42:  MOVLB  6
07F44:  MOVWF  x4A
07F46:  MOVLB  0
07F48:  CALL   139A
....................       } 
....................          else 
07F4C:  BRA    7F54
....................             {Flanco1 = 0;}   
07F4E:  MOVLB  4
07F50:  BCF    x1A.1
07F52:  MOVLB  0
....................              
....................       if(LEFT)//Si oprime boton de Toma. 
07F54:  BSF    F94.1
07F56:  BTFSS  F82.1
07F58:  BRA    80B2
....................       {                   
....................          delay_ms(700);Menu=32;glcd_fillscreen(OFF);Opcion=1;unidad=1; 
07F5A:  MOVLW  04
07F5C:  MOVLB  6
07F5E:  MOVWF  x41
07F60:  MOVLW  AF
07F62:  MOVWF  x4A
07F64:  MOVLB  0
07F66:  CALL   139A
07F6A:  MOVLB  6
07F6C:  DECFSZ x41,F
07F6E:  BRA    7F60
07F70:  MOVLW  20
07F72:  MOVLB  4
07F74:  MOVWF  xDB
07F76:  MOVLB  6
07F78:  CLRF   x49
07F7A:  MOVLB  0
07F7C:  CALL   35EE
07F80:  MOVLW  01
07F82:  MOVLB  4
07F84:  MOVWF  xDD
07F86:  MOVWF  xDC
....................          Temporal=Ajuste2; 
07F88:  MOVFF  55E,566
07F8C:  MOVFF  55D,565
07F90:  MOVFF  55C,564
07F94:  MOVFF  55B,563
....................          Entero=(int)Ajuste2; 
07F98:  MOVFF  55E,644
07F9C:  MOVFF  55D,643
07FA0:  MOVFF  55C,642
07FA4:  MOVFF  55B,641
07FA8:  MOVLB  0
07FAA:  CALL   4554
07FAE:  MOVFF  01,4E8
....................          Temporal=Temporal-Entero; 
07FB2:  MOVLB  6
07FB4:  CLRF   x47
07FB6:  MOVFF  4E8,646
07FBA:  MOVLB  0
07FBC:  CALL   13C2
07FC0:  BSF    FD8.1
07FC2:  MOVFF  566,64D
07FC6:  MOVFF  565,64C
07FCA:  MOVFF  564,64B
07FCE:  MOVFF  563,64A
07FD2:  MOVFF  03,651
07FD6:  MOVFF  02,650
07FDA:  MOVFF  01,64F
07FDE:  MOVFF  00,64E
07FE2:  CALL   1556
07FE6:  MOVFF  03,566
07FEA:  MOVFF  02,565
07FEE:  MOVFF  01,564
07FF2:  MOVFF  00,563
....................          Temporal2=Temporal*10.0; 
07FF6:  MOVFF  566,666
07FFA:  MOVFF  565,665
07FFE:  MOVFF  564,664
08002:  MOVFF  563,663
08006:  MOVLB  6
08008:  CLRF   x6A
0800A:  CLRF   x69
0800C:  MOVLW  20
0800E:  MOVWF  x68
08010:  MOVLW  82
08012:  MOVWF  x67
08014:  MOVLB  0
08016:  CALL   2BE0
0801A:  MOVFF  03,56A
0801E:  MOVFF  02,569
08022:  MOVFF  01,568
08026:  MOVFF  00,567
....................          Decimal1=(int8)Temporal2; 
0802A:  MOVFF  56A,644
0802E:  MOVFF  569,643
08032:  MOVFF  568,642
08036:  MOVFF  567,641
0803A:  CALL   4554
0803E:  MOVFF  01,4E9
....................          write_eeprom(27,Entero); 
08042:  CLRF   FAA
08044:  MOVLW  1B
08046:  MOVWF  FA9
08048:  MOVFF  4E8,FA8
0804C:  BCF    FA6.6
0804E:  BCF    FA6.7
08050:  BSF    FA6.2
08052:  MOVF   FF2,W
08054:  MOVWF  00
08056:  BCF    FF2.7
08058:  MOVLB  F
0805A:  MOVLW  55
0805C:  MOVWF  FA7
0805E:  MOVLW  AA
08060:  MOVWF  FA7
08062:  BSF    FA6.1
08064:  BTFSC  FA6.1
08066:  BRA    8064
08068:  BCF    FA6.2
0806A:  MOVF   00,W
0806C:  IORWF  FF2,F
....................          delay_ms(20); 
0806E:  MOVLW  14
08070:  MOVLB  6
08072:  MOVWF  x4A
08074:  MOVLB  0
08076:  CALL   139A
....................          write_eeprom(28,Decimal1); 
0807A:  CLRF   FAA
0807C:  MOVLW  1C
0807E:  MOVWF  FA9
08080:  MOVFF  4E9,FA8
08084:  BCF    FA6.6
08086:  BCF    FA6.7
08088:  BSF    FA6.2
0808A:  MOVF   FF2,W
0808C:  MOVWF  00
0808E:  BCF    FF2.7
08090:  MOVLB  F
08092:  MOVLW  55
08094:  MOVWF  FA7
08096:  MOVLW  AA
08098:  MOVWF  FA7
0809A:  BSF    FA6.1
0809C:  BTFSC  FA6.1
0809E:  BRA    809C
080A0:  BCF    FA6.2
080A2:  MOVF   00,W
080A4:  IORWF  FF2,F
....................          delay_ms(20); 
080A6:  MOVLW  14
080A8:  MOVLB  6
080AA:  MOVWF  x4A
080AC:  MOVLB  0
080AE:  CALL   139A
080B2:  MOVLB  4
....................       } 
....................     } 
.................... //_--------------------------------------------------------------------------------------------------------------------------------------------------------        
....................  
.................... //_-------------------------------------------------------------------------------------------------------------------------------------------------------- 
....................       /*if(Menu==43){ //Menu de Velocidad de Motor 
....................        
....................       if(VelMotor>6)VelMotor=6; 
....................        
....................       strcpy(Menus.Letra,"Seleccion Vel"); 
....................       displayMenu(Menus.Letra,10,0,1,1); 
....................        
....................       displayTiempo(VelMotor,50,40,1,2); 
....................        
....................       if(UP && VelMotor<6)//Si oprime hacia arriba 
....................       {   
....................          delay_ms(200);VelMotor++; 
....................       } 
....................              
....................       if(DOWN && VelMotor>0)//Si oprime hacia abajo 
....................       {   
....................          delay_ms(200);VelMotor--; 
....................       } 
....................              
....................       if(RIGHT)//Si oprime SET 
....................       {            
....................          VelocidadMotor(VelMotor); 
....................       }  
....................              
....................       if(LEFT)//Si oprime boton de Toma. 
....................       {                   
....................          delay_ms(100);glcd_fillscreen(OFF);Opcion=1;unidad=1; 
....................          write_eeprom(32,VelMotor);//Guardar valor de Setpoint en eeprom 
....................          delay_ms(20); 
....................          glcd_fillScreen(OFF); 
....................          strcpy(Menus.Letra,"Velocidad"); 
....................          displayMenu(Menus.Letra,0,0,0,2); 
....................          strcpy(Menus.Letra,"Guardada"); 
....................          displayMenu(Menus.Letra,0,30,0,2); 
....................          glcd_update(); 
....................          delay_ms(1000); 
....................          glcd_fillScreen(OFF); 
....................          Menu=32; 
....................       } 
....................     }*/ 
.................... //_--------------------------------------------------------------------------------------------------------------------------------------------------------        
....................  
.................... //_-------------------------------------------------------------------------------------------------------------------------------------------------------- 
....................      /* if(Menu==44){ //Menu de Relacion 
....................        
....................       if(Relacion>2.0)Relacion=2.0; 
....................        
....................       strcpy(Menus.Letra,"Relacion"); 
....................       displayMenu(Menus.Letra,10,0,1,1); 
....................        
....................       displayfloat(Relacion,44,30,0,2); 
....................        
....................       if(UP)//Si oprime hacia arriba 
....................       {   
....................          delay_ms(100);Relacion+=0.01; 
....................       } 
....................              
....................       if(DOWN)//Si oprime hacia abajo 
....................       {   
....................          delay_ms(100);Relacion-=0.01; 
....................       } 
....................              
....................       if(LEFT)//Si oprime boton de Toma. 
....................       {                   
....................          delay_ms(100);Menu=32;glcd_fillscreen(OFF);Opcion=1;unidad=1; 
....................          Temporal=Relacion; 
....................          Entero=(int)Relacion; 
....................          Temporal=Temporal-Entero; 
....................          Temporal2=Temporal*100.0; 
....................          Decimal1=(int8)Temporal2; 
....................          write_eeprom(35,Entero); 
....................          delay_ms(20); 
....................          write_eeprom(36,Decimal1); 
....................          delay_ms(20); 
....................          glcd_fillScreen(OFF); 
....................          strcpy(Menus.Letra,"Valor"); 
....................          displayMenu(Menus.Letra,0,0,0,2); 
....................          strcpy(Menus.Letra,"Guardado"); 
....................          displayMenu(Menus.Letra,0,30,0,2); 
....................          glcd_update(); 
....................          delay_ms(1000); 
....................          glcd_fillScreen(OFF); 
....................          Menu=32; 
....................       } 
....................     }*/ 
.................... //_--------------------------------------------------------------------------------------------------------------------------------------------------------        
....................  
.................... //_-------------------------------------------------------------------------------------------------------------------------------------------------------- 
....................     if(Menu==200){ //Menu de Inicio. 
080B4:  MOVF   xDB,W
080B6:  SUBLW  C8
080B8:  BTFSS  FD8.2
080BA:  BRA    820C
....................           
....................          Display_on; 
080BC:  BSF    F8A.1
080BE:  BCF    F93.1
....................          glcd_init(ON);             //Inicializa la glcd 
080C0:  MOVLW  01
080C2:  MOVLB  6
080C4:  MOVWF  x41
080C6:  MOVLB  0
080C8:  CALL   4494
....................          glcd_fillScreen(OFF);      //Limpia la pantalla 
080CC:  MOVLB  6
080CE:  CLRF   x49
080D0:  MOVLB  0
080D2:  CALL   35EE
....................          glcd_text57(0, 0, JP, 2, ON);glcd_text57(5, 20, Cabina, 1, ON);glcd_text57(10, 40, Clase, 2, ON);              
080D6:  MOVLB  6
080D8:  CLRF   x5A
080DA:  CLRF   x5B
080DC:  MOVLW  04
080DE:  MOVWF  x5D
080E0:  MOVLW  1E
080E2:  MOVWF  x5C
080E4:  MOVLW  02
080E6:  MOVWF  x5E
080E8:  MOVLW  01
080EA:  MOVWF  x5F
080EC:  MOVLB  0
080EE:  CALL   32B4
080F2:  MOVLW  05
080F4:  MOVLB  6
080F6:  MOVWF  x5A
080F8:  MOVLW  14
080FA:  MOVWF  x5B
080FC:  MOVLW  04
080FE:  MOVWF  x5D
08100:  MOVLW  2A
08102:  MOVWF  x5C
08104:  MOVLW  01
08106:  MOVWF  x5E
08108:  MOVWF  x5F
0810A:  MOVLB  0
0810C:  CALL   32B4
08110:  MOVLW  0A
08112:  MOVLB  6
08114:  MOVWF  x5A
08116:  MOVLW  28
08118:  MOVWF  x5B
0811A:  MOVLW  04
0811C:  MOVWF  x5D
0811E:  MOVLW  48
08120:  MOVWF  x5C
08122:  MOVLW  02
08124:  MOVWF  x5E
08126:  MOVLW  01
08128:  MOVWF  x5F
0812A:  MOVLB  0
0812C:  CALL   32B4
....................          glcd_update();    
08130:  CALL   2AE8
....................          delay_ms(3000); 
08134:  MOVLW  0C
08136:  MOVLB  6
08138:  MOVWF  x41
0813A:  MOVLW  FA
0813C:  MOVWF  x4A
0813E:  MOVLB  0
08140:  CALL   139A
08144:  MOVLB  6
08146:  DECFSZ x41,F
08148:  BRA    813A
....................                         
....................          glcd_fillScreen(OFF);      //Limpia la pantalla 
0814A:  CLRF   x49
0814C:  MOVLB  0
0814E:  CALL   35EE
....................          displayContrasena(Contrasena[0],20,30,1);displayContrasena(Contrasena[1],40,30,0); 
08152:  MOVFF  51F,64B
08156:  MOVLW  14
08158:  MOVLB  6
0815A:  MOVWF  x4C
0815C:  MOVLW  1E
0815E:  MOVWF  x4D
08160:  MOVLW  01
08162:  MOVWF  x4E
08164:  MOVLB  0
08166:  CALL   346C
0816A:  MOVFF  520,64B
0816E:  MOVLW  28
08170:  MOVLB  6
08172:  MOVWF  x4C
08174:  MOVLW  1E
08176:  MOVWF  x4D
08178:  CLRF   x4E
0817A:  MOVLB  0
0817C:  CALL   346C
....................          displayContrasena(Contrasena[2],60,30,0);displayContrasena(Contrasena[0],80,30,0); 
08180:  MOVFF  521,64B
08184:  MOVLW  3C
08186:  MOVLB  6
08188:  MOVWF  x4C
0818A:  MOVLW  1E
0818C:  MOVWF  x4D
0818E:  CLRF   x4E
08190:  MOVLB  0
08192:  CALL   346C
08196:  MOVFF  51F,64B
0819A:  MOVLW  50
0819C:  MOVLB  6
0819E:  MOVWF  x4C
081A0:  MOVLW  1E
081A2:  MOVWF  x4D
081A4:  CLRF   x4E
081A6:  MOVLB  0
081A8:  CALL   346C
....................          glcd_rect(0, 0, 127, 25, YES, ON);strcpy(Menus.Letra,"Clave");glcd_text57(25, 1, Menus.Letra, 3, OFF);    
081AC:  MOVLB  6
081AE:  CLRF   x5A
081B0:  CLRF   x5B
081B2:  MOVLW  7F
081B4:  MOVWF  x5C
081B6:  MOVLW  19
081B8:  MOVWF  x5D
081BA:  MOVLW  01
081BC:  MOVWF  x5E
081BE:  MOVWF  x5F
081C0:  MOVLB  0
081C2:  CALL   31F2
081C6:  MOVLW  06
081C8:  MOVWF  FEA
081CA:  MOVLW  2B
081CC:  MOVWF  FE9
081CE:  MOVFF  FF2,641
081D2:  BCF    FF2.7
081D4:  MOVLW  00
081D6:  CALL   0F0A
081DA:  TBLRD*-
081DC:  TBLRD*+
081DE:  MOVF   FF5,W
081E0:  MOVWF  FEE
081E2:  IORLW  00
081E4:  BNZ   81DC
081E6:  MOVLB  6
081E8:  BTFSC  x41.7
081EA:  BSF    FF2.7
081EC:  MOVLW  19
081EE:  MOVWF  x5A
081F0:  MOVLW  01
081F2:  MOVWF  x5B
081F4:  MOVLW  06
081F6:  MOVWF  x5D
081F8:  MOVLW  2B
081FA:  MOVWF  x5C
081FC:  MOVLW  03
081FE:  MOVWF  x5E
08200:  CLRF   x5F
08202:  MOVLB  0
08204:  CALL   32B4
....................          Menu=0; 
08208:  MOVLB  4
0820A:  CLRF   xDB
....................     } 
.................... //_--------------------------------------------------------------------------------------------------------------------------------------------------------        
....................  
....................    if(tiemporeset>=60 && Menu!=0 && Menu!=5 && Menu!=211) 
0820C:  MOVF   xE2,W
0820E:  SUBLW  3B
08210:  BC    8232
08212:  MOVF   xDB,F
08214:  BZ    8232
08216:  MOVF   xDB,W
08218:  SUBLW  05
0821A:  BZ    8232
0821C:  MOVF   xDB,W
0821E:  SUBLW  D3
08220:  BZ    8232
....................    { 
....................       glcd_init(ON); 
08222:  MOVLW  01
08224:  MOVLB  6
08226:  MOVWF  x41
08228:  MOVLB  0
0822A:  CALL   4494
....................       tiemporeset=0; 
0822E:  MOVLB  4
08230:  CLRF   xE2
....................    }  
.................... } 
08232:  MOVLB  0
08234:  GOTO   4B18
....................  
.................... } 
....................    
08238:  SLEEP 

Configuration Fuses:
   Word  1: 0200   HS NOIESO NOFCMEN
   Word  2: 1E1F   BROWNOUT NOWDT BORV20 NOPUT WDT32768
   Word  3: 0000   NOPBADEN NOLPT1OSC NOMCLR
   Word  4: 00B0   NOSTVREN NODEBUG NOLVP NOXINST BBSIZ4K
   Word  5: C03F   NOPROTECT NOCPD NOCPB
   Word  6: E03F   NOWRT NOWRTD NOWRTC NOWRTB
   Word  7: 403F   NOEBTR NOEBTRB
