CCS PCH C Compiler, Version 4.104, 5967               30-abr.-20 16:32

               Filename: D:\Laboratorio\Cabina de Bioseguridad\A2\2020\120\CBA2 Grupo Miligran OP2020116 #004588141\Firmware V2.1\Maestro_v2.lst

               ROM used: 43072 bytes (44%)
                         Largest free fragment is 32768
               RAM used: 1622 (49%) at main() level
                         1680 (50%) worst case
               Stack:    6 worst case (5 in main + 1 for interrupts)

*
00000:  GOTO   4E04
*
00008:  MOVWF  04
0000A:  MOVFF  FD8,05
0000E:  MOVFF  FE0,06
00012:  MOVLB  0
00014:  MOVFF  FE9,0C
00018:  MOVFF  FEA,07
0001C:  MOVFF  FE1,08
00020:  MOVFF  FE2,09
00024:  MOVFF  FD9,0A
00028:  MOVFF  FDA,0B
0002C:  MOVFF  FF3,12
00030:  MOVFF  FF4,13
00034:  MOVFF  FFA,14
00038:  MOVFF  FFB,15
0003C:  MOVFF  00,0E
00040:  MOVFF  01,0F
00044:  MOVFF  02,10
00048:  MOVFF  03,11
0004C:  BTFSS  F9D.0
0004E:  GOTO   0058
00052:  BTFSC  F9E.0
00054:  GOTO   1596
00058:  MOVFF  0E,00
0005C:  MOVFF  0F,01
00060:  MOVFF  10,02
00064:  MOVFF  11,03
00068:  MOVFF  0C,FE9
0006C:  MOVFF  07,FEA
00070:  BSF    07.7
00072:  MOVFF  08,FE1
00076:  MOVFF  09,FE2
0007A:  MOVFF  0A,FD9
0007E:  MOVFF  0B,FDA
00082:  MOVFF  12,FF3
00086:  MOVFF  13,FF4
0008A:  MOVFF  14,FFA
0008E:  MOVFF  15,FFB
00092:  MOVF   04,W
00094:  MOVFF  06,FE0
00098:  MOVFF  05,FD8
0009C:  RETFIE 0
.................... //Programa para Cabina de Bioseguridad 
....................  
.................... #include <18F4685.h> 
.................... //////// Standard Header file for the PIC18F4685 device //////////////// 
.................... #device PIC18F4685 
.................... #list 
....................  
.................... #device adc=10 
.................... #fuses HS,NOWDT,NOPROTECT,NOLVP,NODEBUG,NOSTVREN,NOPUT,NOCPD,NOWRT,NOIESO,NOFCMEN,NOPBADEN,NOWRTC,NOWRTB,NOEBTR,NOEBTRB,NOCPB,NOXINST,,NOLPT1OSC,MCLR 
.................... #use delay(clock=20000000) 
*
016D4:  MOVLW  06
016D6:  MOVWF  FEA
016D8:  MOVLW  5B
016DA:  MOVWF  FE9
016DC:  MOVF   FEF,W
016DE:  BZ    16FA
016E0:  MOVLW  06
016E2:  MOVWF  01
016E4:  CLRF   00
016E6:  DECFSZ 00,F
016E8:  BRA    16E6
016EA:  DECFSZ 01,F
016EC:  BRA    16E4
016EE:  MOVLW  7B
016F0:  MOVWF  00
016F2:  DECFSZ 00,F
016F4:  BRA    16F2
016F6:  DECFSZ FEF,F
016F8:  BRA    16E0
016FA:  RETLW  00
.................... #include "HDM64GS12.c" 
.................... ///////////////////////////////////////////////////////////////////////// 
.................... ////                           HDM64GS12.c                           //// 
.................... ////                                                                 //// 
.................... //// This file contains drivers for using a Hantronix HDM64GS12 with //// 
.................... //// a KS0108 display controller. The HDM64GS12 is 128 by 64 pixels. //// 
.................... //// The driver treats the upper left pixel as (0,0).                //// 
.................... ////                                                                 //// 
.................... //// Use #define FAST_GLCD if the target chip has at least 1k of RAM //// 
.................... //// to decrease the time it takes to update the display.            //// 
.................... //// glcd_update() must then be called to update the display after   //// 
.................... //// changing the pixel information.                                 //// 
.................... //// See ex_glcd.c for suggested usage.                              //// 
.................... //// See KS0108.c for controlling a single 64 by 64 display          //// 
.................... ///////////////////////////////////////////////////////////////////////// 
.................... ////                                                                 //// 
.................... //// LCD Pin connections:                                            //// 
.................... //// (These can be changed as needed in the following defines).      //// 
.................... ////  * 1: VSS is connected to GND                                   //// 
.................... ////  * 2: VDD is connected to +5V                                   //// 
.................... ////  * 3: V0  - LCD operating voltage (Constrast adjustment)        //// 
.................... ////  * 4: D/I - Data or Instruction is connected to B2              //// 
.................... ////  * 5: R/W - Read or Write is connected to B4                    //// 
.................... ////  * 6: Enable is connected to B5                                 //// 
.................... ////  *7-14: Data Bus 0 to 7 is connected to port d                  //// 
.................... ////  *15: Chip Select 1 is connected to B0                          //// 
.................... ////  *16: Chip Select 2 is connected to B1                          //// 
.................... ////  *17: Reset is connected to C0                                  //// 
.................... ////  *18: Negative voltage is also connected to the 20k Ohm POT     //// 
.................... ////  *19: Positive voltage for LED backlight is connected to +5V    //// 
.................... ////  *20: Negavtive voltage for LED backlight is connected to GND   //// 
.................... ////                                                                 //// 
.................... ///////////////////////////////////////////////////////////////////////// 
.................... ////                                                                 //// 
.................... ////  glcd_init(mode)                                                //// 
.................... ////     * Must be called before any other function.                 //// 
.................... ////       - mode can be ON or OFF to turn the LCD on or off         //// 
.................... ////                                                                 //// 
.................... ////  glcd_pixel(x,y,color)                                          //// 
.................... ////     * Sets the pixel to the given color.                        //// 
.................... ////       - color can be ON or OFF                                  //// 
.................... ////                                                                 //// 
.................... ////  glcd_fillScreen(color)                                         //// 
.................... ////     * Fills the entire LCD with the given color.                //// 
.................... ////       - color can be ON or OFF                                  //// 
.................... ////                                                                 //// 
.................... ////  glcd_update()                                                  //// 
.................... ////     * Write the display data stored in RAM to the LCD           //// 
.................... ////     * Only available if FAST_GLCD is defined                    //// 
.................... ////                                                                 //// 
.................... ///////////////////////////////////////////////////////////////////////// 
.................... ////        (C) Copyright 1996, 2004 Custom Computer Services        //// 
.................... //// This source code may only be used by licensed users of the CCS  //// 
.................... //// C compiler.  This source code may only be distributed to other  //// 
.................... //// licensed users of the CCS C compiler.  No other use,            //// 
.................... //// reproduction or distribution is permitted without written       //// 
.................... //// permission.  Derivative programs created using this software    //// 
.................... //// in object code form are not restricted in any way.              //// 
.................... ///////////////////////////////////////////////////////////////////////// 
....................  
....................  
....................  
.................... #ifndef HDM64GS12 
.................... #define HDM64GS12 
....................  
.................... #ifndef FAST_GLCD 
.................... #define FAST_GLCD 
....................  
.................... #ifndef GLCD_WIDTH 
.................... #define GLCD_WIDTH   128 
.................... #endif 
....................  
.................... #ifndef GLCD_CS1 
.................... #define GLCD_CS1     PIN_B2   // Chip Selection 1 
.................... #endif 
....................  
.................... #ifndef GLCD_CS2 
.................... #define GLCD_CS2     PIN_B3   // Chip Selection 2 
.................... #endif 
....................  
.................... #ifndef GLCD_DI 
.................... #define GLCD_DI      PIN_B5   // Data or Instruction input 
.................... #endif 
....................  
.................... #ifndef GLCD_RW 
.................... #define GLCD_RW      PIN_B6   // Read/Write 
.................... #endif 
....................  
.................... #ifndef GLCD_E 
.................... #define GLCD_E       PIN_B7   // Enable 
.................... #endif 
....................  
.................... #ifndef GLCD_RST 
.................... #define GLCD_RST     PIN_B4   // Reset 
.................... #endif 
....................  
.................... #define GLCD_LEFT    0 
.................... #define GLCD_RIGHT   1 
....................  
.................... #ifndef ON 
.................... #define ON           1 
.................... #endif 
....................  
.................... #ifndef OFF 
.................... #define OFF          0 
.................... #endif 
....................  
.................... ///////////////////////////////////////////////////////////////////////// 
.................... // Function Prototypes 
.................... ///////////////////////////////////////////////////////////////////////// 
.................... void glcd_init(int1 mode); 
.................... void glcd_pixel(int8 x, int8 y, int1 color); 
.................... void glcd_fillScreen(int1 color); 
.................... void glcd_writeByte(int1 side, BYTE data); 
.................... BYTE glcd_readByte(int1 side); 
.................... void glcd_update(); 
.................... ///////////////////////////////////////////////////////////////////////// 
....................  
.................... #ifdef FAST_GLCD 
.................... struct 
.................... { 
....................    int8 left[512]; 
....................    int8 right[512]; 
.................... } displayData; 
.................... #endif 
....................  
....................  
.................... // Purpose:       Initialize the LCD. 
.................... //                Call before using any other LCD function. 
.................... // Inputs:        OFF - Turns the LCD off 
.................... //                ON  - Turns the LCD on 
.................... void glcd_init(int1 mode) 
.................... { 
....................    // Initialze some pins 
....................    output_high(GLCD_RST); 
*
02FF6:  BCF    F93.4
02FF8:  BSF    F8A.4
....................    output_low(GLCD_E); 
02FFA:  BCF    F93.7
02FFC:  BCF    F8A.7
....................    output_low(GLCD_CS1); 
02FFE:  BCF    F93.2
03000:  BCF    F8A.2
....................    output_low(GLCD_CS2); 
03002:  BCF    F93.3
03004:  BCF    F8A.3
....................  
....................    output_low(GLCD_DI);                 // Set for instruction 
03006:  BCF    F93.5
03008:  BCF    F8A.5
....................    glcd_writeByte(GLCD_LEFT,  0xC0);    // Specify first RAM line at the top 
0300A:  MOVLB  6
0300C:  CLRF   x61
0300E:  MOVLW  C0
03010:  MOVWF  x62
03012:  MOVLB  0
03014:  RCALL  2EAE
....................    glcd_writeByte(GLCD_RIGHT, 0xC0);    //   of the screen 
03016:  MOVLW  01
03018:  MOVLB  6
0301A:  MOVWF  x61
0301C:  MOVLW  C0
0301E:  MOVWF  x62
03020:  MOVLB  0
03022:  RCALL  2EAE
....................    glcd_writeByte(GLCD_LEFT,  0x40);    // Set the column address to 0 
03024:  MOVLB  6
03026:  CLRF   x61
03028:  MOVLW  40
0302A:  MOVWF  x62
0302C:  MOVLB  0
0302E:  RCALL  2EAE
....................    glcd_writeByte(GLCD_RIGHT, 0x40); 
03030:  MOVLW  01
03032:  MOVLB  6
03034:  MOVWF  x61
03036:  MOVLW  40
03038:  MOVWF  x62
0303A:  MOVLB  0
0303C:  RCALL  2EAE
....................    glcd_writeByte(GLCD_LEFT,  0xB8);    // Set the page address to 0 
0303E:  MOVLB  6
03040:  CLRF   x61
03042:  MOVLW  B8
03044:  MOVWF  x62
03046:  MOVLB  0
03048:  RCALL  2EAE
....................    glcd_writeByte(GLCD_RIGHT, 0xB8); 
0304A:  MOVLW  01
0304C:  MOVLB  6
0304E:  MOVWF  x61
03050:  MOVLW  B8
03052:  MOVWF  x62
03054:  MOVLB  0
03056:  RCALL  2EAE
....................  
....................    if(mode == ON) 
03058:  MOVLB  6
0305A:  DECFSZ x52,W
0305C:  BRA    307A
....................    { 
....................       glcd_writeByte(GLCD_LEFT,  0x3F); // Turn the display on 
0305E:  CLRF   x61
03060:  MOVLW  3F
03062:  MOVWF  x62
03064:  MOVLB  0
03066:  RCALL  2EAE
....................       glcd_writeByte(GLCD_RIGHT, 0x3F); 
03068:  MOVLW  01
0306A:  MOVLB  6
0306C:  MOVWF  x61
0306E:  MOVLW  3F
03070:  MOVWF  x62
03072:  MOVLB  0
03074:  RCALL  2EAE
....................    } 
....................    else 
03076:  BRA    3092
03078:  MOVLB  6
....................    { 
....................       glcd_writeByte(GLCD_LEFT,  0x3E); // Turn the display off 
0307A:  CLRF   x61
0307C:  MOVLW  3E
0307E:  MOVWF  x62
03080:  MOVLB  0
03082:  RCALL  2EAE
....................       glcd_writeByte(GLCD_RIGHT, 0x3E); 
03084:  MOVLW  01
03086:  MOVLB  6
03088:  MOVWF  x61
0308A:  MOVLW  3E
0308C:  MOVWF  x62
0308E:  MOVLB  0
03090:  RCALL  2EAE
....................    } 
....................  
....................    glcd_fillScreen(OFF);                // Clear the display 
03092:  MOVLB  6
03094:  CLRF   x5A
03096:  MOVLB  0
03098:  RCALL  2EE4
....................  
....................    #ifdef FAST_GLCD 
....................    glcd_update(); 
0309A:  RCALL  2F3E
....................    #endif 
.................... } 
0309C:  RETLW  00
....................  
....................  
.................... // Purpose:    Update the LCD with data from the display arrays 
.................... #ifdef FAST_GLCD 
.................... void glcd_update() 
.................... { 
....................    int8 i, j; 
....................    int8 *p1, *p2; 
....................  
....................    p1 = displayData.left; 
*
02F3E:  MOVLB  6
02F40:  CLRF   x5D
02F42:  MOVLW  17
02F44:  MOVWF  x5C
....................    p2 = displayData.right; 
02F46:  MOVLW  02
02F48:  MOVWF  x5F
02F4A:  MOVLW  17
02F4C:  MOVWF  x5E
....................  
....................    // Loop through the vertical pages 
....................    for(i = 0; i < 8; ++i) 
02F4E:  CLRF   x5A
02F50:  MOVF   x5A,W
02F52:  SUBLW  07
02F54:  BNC   2FF2
....................    { 
....................       output_low(GLCD_DI);                      // Set for instruction 
02F56:  BCF    F93.5
02F58:  BCF    F8A.5
....................       glcd_writeByte(GLCD_LEFT, 0x40);          // Set horizontal address to 0 
02F5A:  CLRF   x61
02F5C:  MOVLW  40
02F5E:  MOVWF  x62
02F60:  MOVLB  0
02F62:  RCALL  2EAE
....................       glcd_writeByte(GLCD_RIGHT, 0x40); 
02F64:  MOVLW  01
02F66:  MOVLB  6
02F68:  MOVWF  x61
02F6A:  MOVLW  40
02F6C:  MOVWF  x62
02F6E:  MOVLB  0
02F70:  RCALL  2EAE
....................       glcd_writeByte(GLCD_LEFT, i | 0xB8);      // Set page address 
02F72:  MOVLB  6
02F74:  MOVF   x5A,W
02F76:  IORLW  B8
02F78:  MOVWF  x60
02F7A:  CLRF   x61
02F7C:  MOVWF  x62
02F7E:  MOVLB  0
02F80:  RCALL  2EAE
....................       glcd_writeByte(GLCD_RIGHT, i | 0xB8); 
02F82:  MOVLB  6
02F84:  MOVF   x5A,W
02F86:  IORLW  B8
02F88:  MOVWF  x60
02F8A:  MOVLW  01
02F8C:  MOVWF  x61
02F8E:  MOVFF  660,662
02F92:  MOVLB  0
02F94:  RCALL  2EAE
....................       output_high(GLCD_DI);                     // Set for data 
02F96:  BCF    F93.5
02F98:  BSF    F8A.5
....................  
....................       // Loop through the horizontal sections 
....................       for(j = 0; j < 64; ++j) 
02F9A:  MOVLB  6
02F9C:  CLRF   x5B
02F9E:  MOVF   x5B,W
02FA0:  SUBLW  3F
02FA2:  BNC   2FEE
....................       { 
....................          glcd_writeByte(GLCD_LEFT, *p1++);      // Turn pixels on or off 
02FA4:  MOVFF  65D,03
02FA8:  MOVF   x5C,W
02FAA:  INCF   x5C,F
02FAC:  BTFSC  FD8.2
02FAE:  INCF   x5D,F
02FB0:  MOVWF  FE9
02FB2:  MOVFF  03,FEA
02FB6:  MOVFF  FEF,660
02FBA:  CLRF   x61
02FBC:  MOVFF  660,662
02FC0:  MOVLB  0
02FC2:  RCALL  2EAE
....................          glcd_writeByte(GLCD_RIGHT, *p2++);     // Turn pixels on or off 
02FC4:  MOVLB  6
02FC6:  MOVFF  65F,03
02FCA:  MOVF   x5E,W
02FCC:  INCF   x5E,F
02FCE:  BTFSC  FD8.2
02FD0:  INCF   x5F,F
02FD2:  MOVWF  FE9
02FD4:  MOVFF  03,FEA
02FD8:  MOVFF  FEF,660
02FDC:  MOVLW  01
02FDE:  MOVWF  x61
02FE0:  MOVFF  660,662
02FE4:  MOVLB  0
02FE6:  RCALL  2EAE
....................       } 
02FE8:  MOVLB  6
02FEA:  INCF   x5B,F
02FEC:  BRA    2F9E
....................    } 
02FEE:  INCF   x5A,F
02FF0:  BRA    2F50
.................... } 
02FF2:  MOVLB  0
02FF4:  RETLW  00
.................... #endif 
....................  
....................  
.................... // Purpose:    Turn a pixel on a graphic LCD on or off 
.................... // Inputs:     1) x - the x coordinate of the pixel 
.................... //             2) y - the y coordinate of the pixel 
.................... //             3) color - ON or OFF 
.................... void glcd_pixel(int8 x, int8 y, int1 color) 
.................... #ifdef FAST_GLCD 
.................... { 
....................    int8* p; 
....................    int16 temp; 
....................    temp =  y/8; 
*
038D8:  MOVLB  6
038DA:  CLRF   x8C
038DC:  RRCF   x87,W
038DE:  MOVWF  x8B
038E0:  RRCF   x8B,F
038E2:  RRCF   x8B,F
038E4:  MOVLW  1F
038E6:  ANDWF  x8B,F
....................    temp *= 64; 
038E8:  RLCF   x8B,F
038EA:  RLCF   x8C,F
038EC:  RLCF   x8B,F
038EE:  RLCF   x8C,F
038F0:  RLCF   x8B,F
038F2:  RLCF   x8C,F
038F4:  RLCF   x8B,F
038F6:  RLCF   x8C,F
038F8:  RLCF   x8B,F
038FA:  RLCF   x8C,F
038FC:  RLCF   x8B,F
038FE:  RLCF   x8C,F
03900:  MOVLW  C0
03902:  ANDWF  x8B,F
....................    temp += x; 
03904:  MOVF   x86,W
03906:  ADDWF  x8B,F
03908:  MOVLW  00
0390A:  ADDWFC x8C,F
....................  
....................    if(x > 63) 
0390C:  MOVF   x86,W
0390E:  SUBLW  3F
03910:  BC    392C
....................    { 
....................       p = displayData.right + temp - 64; 
03912:  MOVLW  17
03914:  ADDWF  x8B,W
03916:  MOVWF  x8D
03918:  MOVLW  02
0391A:  ADDWFC x8C,W
0391C:  MOVWF  x8E
0391E:  MOVLW  40
03920:  SUBWF  x8D,W
03922:  MOVWF  x89
03924:  MOVLW  00
03926:  SUBWFB x8E,W
03928:  MOVWF  x8A
....................    } 
....................    else 
0392A:  BRA    3938
....................    { 
....................       p = displayData.left + temp; 
0392C:  MOVLW  17
0392E:  ADDWF  x8B,W
03930:  MOVWF  x89
03932:  MOVLW  00
03934:  ADDWFC x8C,W
03936:  MOVWF  x8A
....................    } 
....................  
....................    if(color) 
03938:  MOVF   x88,F
0393A:  BZ    3966
....................    { 
....................       bit_set(*p, y%8); 
0393C:  MOVFF  68A,03
03940:  MOVFF  689,FE9
03944:  MOVFF  68A,FEA
03948:  MOVF   x87,W
0394A:  ANDLW  07
0394C:  MOVWF  x8D
0394E:  MOVLW  01
03950:  MOVWF  00
03952:  MOVF   x8D,W
03954:  MOVWF  01
03956:  BZ    3960
03958:  BCF    FD8.0
0395A:  RLCF   00,F
0395C:  DECFSZ 01,F
0395E:  BRA    3958
03960:  MOVF   00,W
03962:  IORWF  FEF,F
....................    } 
....................    else 
03964:  BRA    3990
....................    { 
....................       bit_clear(*p, y%8); 
03966:  MOVFF  68A,03
0396A:  MOVFF  689,FE9
0396E:  MOVFF  68A,FEA
03972:  MOVF   x87,W
03974:  ANDLW  07
03976:  MOVWF  x8D
03978:  MOVLW  01
0397A:  MOVWF  00
0397C:  MOVF   x8D,W
0397E:  MOVWF  01
03980:  BZ    398A
03982:  BCF    FD8.0
03984:  RLCF   00,F
03986:  DECFSZ 01,F
03988:  BRA    3982
0398A:  MOVF   00,W
0398C:  XORLW  FF
0398E:  ANDWF  FEF,F
....................    } 
.................... } 
03990:  MOVLB  0
03992:  RETLW  00
.................... #else 
.................... { 
....................    BYTE data; 
....................    int1 side = GLCD_LEFT;  // Stores which chip to use on the LCD 
....................  
....................    if(x > 63)              // Check for first or second display area 
....................    { 
....................       x -= 64; 
....................       side = GLCD_RIGHT; 
....................    } 
....................  
....................    output_low(GLCD_DI);                         // Set for instruction 
....................    bit_clear(x,7);                              // Clear the MSB. Part of an instruction code 
....................    bit_set(x,6);                                // Set bit 6. Also part of an instruction code 
....................    glcd_writeByte(side, x);                     // Set the horizontal address 
....................    glcd_writeByte(side, (y/8 & 0xBF) | 0xB8);   // Set the vertical page address 
....................    output_high(GLCD_DI);                        // Set for data 
....................    glcd_readByte(side);                         // Need two reads to get data 
....................    data = glcd_readByte(side);                  //  at new address 
....................  
....................    if(color == ON) 
....................       bit_set(data, y%8);        // Turn the pixel on 
....................    else                          // or 
....................       bit_clear(data, y%8);      // turn the pixel off 
....................  
....................    output_low(GLCD_DI);          // Set for instruction 
....................    glcd_writeByte(side, x);      // Set the horizontal address 
....................    output_high(GLCD_DI);         // Set for data 
....................    glcd_writeByte(side, data);   // Write the pixel data 
.................... } 
.................... #endif 
....................  
....................  
.................... // Purpose:    Fill the LCD screen with the passed in color 
.................... // Inputs:     ON  - turn all the pixels on 
.................... //             OFF - turn all the pixels off 
.................... void glcd_fillScreen(int1 color) 
.................... #ifdef FAST_GLCD 
.................... { 
....................    int8  data; 
....................    int8  *p1, *p2; 
....................    int16 i; 
....................  
....................    p1 = displayData.left; 
*
02EE4:  MOVLB  6
02EE6:  CLRF   x5D
02EE8:  MOVLW  17
02EEA:  MOVWF  x5C
....................    p2 = displayData.right; 
02EEC:  MOVLW  02
02EEE:  MOVWF  x5F
02EF0:  MOVLW  17
02EF2:  MOVWF  x5E
....................    data = 0xFF * color; 
02EF4:  MOVF   x5A,W
02EF6:  MULLW  FF
02EF8:  MOVFF  FF3,65B
....................  
....................    for(i=0; i<512; ++i) 
02EFC:  CLRF   x61
02EFE:  CLRF   x60
02F00:  MOVF   x61,W
02F02:  SUBLW  01
02F04:  BNC   2F3A
....................    { 
....................       *p1++ = data; 
02F06:  MOVFF  65D,03
02F0A:  MOVF   x5C,W
02F0C:  INCF   x5C,F
02F0E:  BTFSC  FD8.2
02F10:  INCF   x5D,F
02F12:  MOVWF  FE9
02F14:  MOVFF  03,FEA
02F18:  MOVFF  65B,FEF
....................       *p2++ = data; 
02F1C:  MOVFF  65F,03
02F20:  MOVF   x5E,W
02F22:  INCF   x5E,F
02F24:  BTFSC  FD8.2
02F26:  INCF   x5F,F
02F28:  MOVWF  FE9
02F2A:  MOVFF  03,FEA
02F2E:  MOVFF  65B,FEF
....................    } 
02F32:  INCF   x60,F
02F34:  BTFSC  FD8.2
02F36:  INCF   x61,F
02F38:  BRA    2F00
.................... } 
02F3A:  MOVLB  0
02F3C:  RETLW  00
.................... #else 
.................... { 
....................    int8 i, j; 
....................  
....................    // Loop through the vertical pages 
....................    for(i = 0; i < 8; ++i) 
....................    { 
....................       output_low(GLCD_DI);                      // Set for instruction 
....................       glcd_writeByte(GLCD_LEFT, 0b01000000);    // Set horizontal address to 0 
....................       glcd_writeByte(GLCD_RIGHT, 0b01000000); 
....................       glcd_writeByte(GLCD_LEFT, i | 0b10111000);// Set page address 
....................       glcd_writeByte(GLCD_RIGHT, i | 0b10111000); 
....................       output_high(GLCD_DI);                     // Set for data 
....................  
....................       // Loop through the horizontal sections 
....................       for(j = 0; j < 64; ++j) 
....................       { 
....................          glcd_writeByte(GLCD_LEFT, 0xFF*color);  // Turn pixels on or off 
....................          glcd_writeByte(GLCD_RIGHT, 0xFF*color); // Turn pixels on or off 
....................       } 
....................    } 
.................... } 
.................... #endif 
....................  
....................  
.................... // Purpose:    Write a byte of data to the specified chip 
.................... // Inputs:     1) chipSelect - which chip to write the data to 
.................... //             2) data - the byte of data to write 
.................... void glcd_writeByte(int1 side, BYTE data) 
.................... { 
....................    if(side)                   // Choose which side to write to 
*
02EAE:  MOVLB  6
02EB0:  MOVF   x61,F
02EB2:  BZ    2EBA
....................       output_high(GLCD_CS2); 
02EB4:  BCF    F93.3
02EB6:  BSF    F8A.3
....................    else 
02EB8:  BRA    2EBE
....................       output_high(GLCD_CS1); 
02EBA:  BCF    F93.2
02EBC:  BSF    F8A.2
....................  
....................    output_low(GLCD_RW);       // Set for writing 
02EBE:  BCF    F93.6
02EC0:  BCF    F8A.6
....................    output_d(data);            // Put the data on the port 
02EC2:  CLRF   F95
02EC4:  MOVFF  662,F8C
....................    delay_cycles(1); 
02EC8:  NOP   
....................    output_high(GLCD_E);       // Pulse the enable pin 
02ECA:  BCF    F93.7
02ECC:  BSF    F8A.7
....................    delay_cycles(5); 
02ECE:  BRA    2ED0
02ED0:  BRA    2ED2
02ED2:  NOP   
....................    output_low(GLCD_E); 
02ED4:  BCF    F93.7
02ED6:  BCF    F8A.7
....................  
....................    output_low(GLCD_CS1);      // Reset the chip select lines 
02ED8:  BCF    F93.2
02EDA:  BCF    F8A.2
....................    output_low(GLCD_CS2); 
02EDC:  BCF    F93.3
02EDE:  BCF    F8A.3
.................... } 
02EE0:  MOVLB  0
02EE2:  RETLW  00
....................  
....................  
.................... // Purpose:    Reads a byte of data from the specified chip 
.................... // Ouputs:     A byte of data read from the chip 
.................... BYTE glcd_readByte(int1 side) 
.................... { 
....................    BYTE data;                 // Stores the data read from the LCD 
....................  
....................    set_tris_d(0xFF);          // Set port d to input 
....................    output_high(GLCD_RW);      // Set for reading 
....................  
....................    if(side)                   // Choose which side to write to 
....................       output_high(GLCD_CS2); 
....................    else 
....................       output_high(GLCD_CS1); 
....................  
....................    delay_cycles(1); 
....................    output_high(GLCD_E);       // Pulse the enable pin 
....................    delay_cycles(4); 
....................    data = input_d();          // Get the data from the display's output register 
....................    output_low(GLCD_E); 
....................  
....................    output_low(GLCD_CS1);      // Reset the chip select lines 
....................    output_low(GLCD_CS2); 
....................    return data;               // Return the read data 
.................... } 
....................  
.................... #endif 
....................  
.................... #include "GRAPHICS.c" 
.................... ///////////////////////////////////////////////////////////////////////// 
.................... ////                          graphics.c                             //// 
.................... ////                                                                 //// 
.................... ////   This file contains functions to draw lines, rectangles, bars, //// 
.................... ////   circles and text to a display. A function which draws a       //// 
.................... ////   single pixel must be defined before calling the functions in  //// 
.................... ////   this file. Call it glcd_pixel(x, y, color) where x is the     //// 
.................... ////   horizontal coordinate, y is the vertical coordinate, and      //// 
.................... ////   color is 1 bit to turn the pixel on or off.                   //// 
.................... ////                                                                 //// 
.................... ////   * Note: (0, 0) is treated as the upper left corner            //// 
.................... ////                                                                 //// 
.................... ///////////////////////////////////////////////////////////////////////// 
.................... ////                                                                 //// 
.................... ////  glcd_line(x1, y1, x2, y2, color)                               //// 
.................... ////     * Draws a line from the first point to the second point     //// 
.................... ////       with the given color                                      //// 
.................... ////       - color can be ON or OFF                                  //// 
.................... ////                                                                 //// 
.................... ////  glcd_rect(x1, y1, x2, y2, fill, color)                         //// 
.................... ////     * Draws a rectangle with one corner at point (x1,y1) and    //// 
.................... ////       the other corner at point (x2,y2)                         //// 
.................... ////       - fill can be YES or NO                                   //// 
.................... ////       - color can be ON or OFF                                  //// 
.................... ////                                                                 //// 
.................... ////  glcd_bar(x1, y1, x2, y2, width, color)                         //// 
.................... ////     * Draws a bar (wide line) from the first point to the       //// 
.................... ////       second point                                              //// 
.................... ////       - width is the number of pixels wide                      //// 
.................... ////       - color is ON or OFF                                      //// 
.................... ////                                                                 //// 
.................... ////  glcd_circle(x, y, radius, fill, color)                         //// 
.................... ////     * Draws a circle with center at (x,y)                       //// 
.................... ////       - fill can be YES or NO                                   //// 
.................... ////       - color can be ON or OFF                                  //// 
.................... ////                                                                 //// 
.................... ////  glcd_text57(x, y, textptr, size, color)                        //// 
.................... ////     * Write the null terminated text pointed to by textptr with //// 
.................... ////       the upper left coordinate of the first character at (x,y) //// 
.................... ////       Characters are 5 pixels wide and 7 pixels tall            //// 
.................... ////       - size is an integer that scales the size of the text     //// 
.................... ////       - color is ON or OFF                                      //// 
.................... ////     * Note - This function wraps characters to the next line    //// 
.................... ////              use #define GLCD_WIDTH to specify a display width  //// 
.................... ////                                                                 //// 
.................... ///////////////////////////////////////////////////////////////////////// 
.................... ////        (C) Copyright 1996, 2004 Custom Computer Services        //// 
.................... //// This source code may only be used by licensed users of the CCS  //// 
.................... //// C compiler.  This source code may only be distributed to other  //// 
.................... //// licensed users of the CCS C compiler.  No other use,            //// 
.................... //// reproduction or distribution is permitted without written       //// 
.................... //// permission.  Derivative programs created using this software    //// 
.................... //// in object code form are not restricted in any way.              //// 
.................... ///////////////////////////////////////////////////////////////////////// 
....................  
....................  
.................... ///////////////////////////////////////////////////////////////////////// 
.................... #ifndef GRAPHICS_DRAWING_FUNCTIONS 
.................... #define GRAPHICS_DRAWING_FUNCTIONS 
.................... ///////////////////////////////////////////////////////////////////////// 
....................  
....................  
.................... ///////////////////////////////////////////////////////////////////////// 
.................... #ifndef ON 
.................... #define ON  1 
.................... #endif 
....................  
.................... #ifndef OFF 
.................... #define OFF 0 
.................... #endif 
....................  
.................... #ifndef YES 
.................... #define YES 1 
.................... #endif 
....................  
.................... #ifndef NO 
.................... #define NO  0 
.................... #endif 
.................... ///////////////////////////////////////////////////////////////////////// 
....................  
....................  
.................... ///////////////////////////////////////////////////////////////////////// 
.................... //// Defines a 5x7 font 
.................... ///////////////////////////////////////////////////////////////////////// 
.................... const int8 FONT[51][5] ={0x00, 0x00, 0x00, 0x00, 0x00, // SPACE 
....................                          0x00, 0x00, 0x5F, 0x00, 0x00, // ! 
....................                          0x00, 0x03, 0x00, 0x03, 0x00, // " 
....................                          0x14, 0x3E, 0x14, 0x3E, 0x14, // # 
....................                          0x24, 0x2A, 0x7F, 0x2A, 0x12, // $ 
....................                          0x43, 0x33, 0x08, 0x66, 0x61, // % 
....................                          0x36, 0x49, 0x55, 0x22, 0x50, // & 
....................                          0x00, 0x05, 0x03, 0x00, 0x00, // ' 
....................                          0x00, 0x1C, 0x22, 0x41, 0x00, // ( 
....................                          0x00, 0x41, 0x22, 0x1C, 0x00, // ) 
....................                          0x14, 0x08, 0x3E, 0x08, 0x14, // * 
....................                          0x08, 0x08, 0x3E, 0x08, 0x08, // + 
....................                          0x00, 0x50, 0x30, 0x00, 0x00, // , 
....................                          0x08, 0x08, 0x08, 0x08, 0x08, // - 
....................                          0x00, 0x60, 0x60, 0x00, 0x00, // . 
....................                          0x20, 0x10, 0x08, 0x04, 0x02, // / 
....................                          0x3E, 0x51, 0x49, 0x45, 0x3E, // 0 
....................                          0x00, 0x04, 0x02, 0x7F, 0x00, // 1 
....................                          0x42, 0x61, 0x51, 0x49, 0x46, // 2 
....................                          0x22, 0x41, 0x49, 0x49, 0x36, // 3 
....................                          0x18, 0x14, 0x12, 0x7F, 0x10, // 4 
....................                          0x27, 0x45, 0x45, 0x45, 0x39, // 5 
....................                          0x3E, 0x49, 0x49, 0x49, 0x32, // 6 
....................                          0x01, 0x01, 0x71, 0x09, 0x07, // 7 
....................                          0x36, 0x49, 0x49, 0x49, 0x36, // 8 
....................                          0x26, 0x49, 0x49, 0x49, 0x3E, // 9 
....................                          0x00, 0x36, 0x36, 0x00, 0x00, // : 
....................                          0x00, 0x56, 0x36, 0x00, 0x00, // ; 
....................                          0x08, 0x14, 0x22, 0x41, 0x00, // < 
....................                          0x14, 0x14, 0x14, 0x14, 0x14, // = 
....................                          0x00, 0x41, 0x22, 0x14, 0x08, // > 
....................                          0x02, 0x01, 0x51, 0x09, 0x06, // ? 
....................                          0x3E, 0x41, 0x59, 0x55, 0x5E, // @ 
....................                          0x7E, 0x09, 0x09, 0x09, 0x7E, // A 
....................                          0x7F, 0x49, 0x49, 0x49, 0x36, // B 
....................                          0x3E, 0x41, 0x41, 0x41, 0x22, // C 
....................                          0x7F, 0x41, 0x41, 0x41, 0x3E, // D 
....................                          0x7F, 0x49, 0x49, 0x49, 0x41, // E 
....................                          0x7F, 0x09, 0x09, 0x09, 0x01, // F 
....................                          0x3E, 0x41, 0x41, 0x49, 0x3A, // G 
....................                          0x7F, 0x08, 0x08, 0x08, 0x7F, // H 
....................                          0x00, 0x41, 0x7F, 0x41, 0x00, // I 
....................                          0x30, 0x40, 0x40, 0x40, 0x3F, // J 
....................                          0x7F, 0x08, 0x14, 0x22, 0x41, // K 
....................                          0x7F, 0x40, 0x40, 0x40, 0x40, // L 
....................                          0x7F, 0x02, 0x0C, 0x02, 0x7F, // M 
....................                          0x7F, 0x02, 0x04, 0x08, 0x7F, // N 
....................                          0x3E, 0x41, 0x41, 0x41, 0x3E, // O 
....................                          0x7F, 0x09, 0x09, 0x09, 0x06, // P 
....................                          0x1E, 0x21, 0x21, 0x21, 0x5E, // Q 
....................                          0x7F, 0x09, 0x09, 0x09, 0x76};// R 
....................  
.................... const int8 FONT2[44][5]={0x26, 0x49, 0x49, 0x49, 0x32, // S 
....................                          0x01, 0x01, 0x7F, 0x01, 0x01, // T 
....................                          0x3F, 0x40, 0x40, 0x40, 0x3F, // U 
....................                          0x1F, 0x20, 0x40, 0x20, 0x1F, // V 
....................                          0x7F, 0x20, 0x10, 0x20, 0x7F, // W 
....................                          0x41, 0x22, 0x1C, 0x22, 0x41, // X 
....................                          0x07, 0x08, 0x70, 0x08, 0x07, // Y 
....................                          0x61, 0x51, 0x49, 0x45, 0x43, // Z 
....................                          0x00, 0x7F, 0x41, 0x00, 0x00, // [ 
....................                          0x02, 0x04, 0x08, 0x10, 0x20, // \ 
....................                          0x00, 0x00, 0x41, 0x7F, 0x00, // ] 
....................                          0x04, 0x02, 0x01, 0x02, 0x04, // ^ 
....................                          0x40, 0x40, 0x40, 0x40, 0x40, // _ 
....................                          0x00, 0x01, 0x02, 0x04, 0x00, // ` 
....................                          0x20, 0x54, 0x54, 0x54, 0x78, // a 
....................                          0x7F, 0x44, 0x44, 0x44, 0x38, // b 
....................                          0x38, 0x44, 0x44, 0x44, 0x44, // c 
....................                          0x38, 0x44, 0x44, 0x44, 0x7F, // d 
....................                          0x38, 0x54, 0x54, 0x54, 0x18, // e 
....................                          0x04, 0x04, 0x7E, 0x05, 0x05, // f 
....................                          0x08, 0x54, 0x54, 0x54, 0x3C, // g 
....................                          0x7F, 0x08, 0x04, 0x04, 0x78, // h 
....................                          0x00, 0x44, 0x7D, 0x40, 0x00, // i 
....................                          0x20, 0x40, 0x44, 0x3D, 0x00, // j 
....................                          0x7F, 0x10, 0x28, 0x44, 0x00, // k 
....................                          0x00, 0x41, 0x7F, 0x40, 0x00, // l 
....................                          0x7C, 0x04, 0x78, 0x04, 0x78, // m 
....................                          0x7C, 0x08, 0x04, 0x04, 0x78, // n 
....................                          0x38, 0x44, 0x44, 0x44, 0x38, // o 
....................                          0x7C, 0x14, 0x14, 0x14, 0x08, // p 
....................                          0x08, 0x14, 0x14, 0x14, 0x7C, // q 
....................                          0x00, 0x7C, 0x08, 0x04, 0x04, // r 
....................                          0x48, 0x54, 0x54, 0x54, 0x20, // s 
....................                          0x04, 0x04, 0x3F, 0x44, 0x44, // t 
....................                          0x3C, 0x40, 0x40, 0x20, 0x7C, // u 
....................                          0x1C, 0x20, 0x40, 0x20, 0x1C, // v 
....................                          0x3C, 0x40, 0x30, 0x40, 0x3C, // w 
....................                          0x44, 0x28, 0x10, 0x28, 0x44, // x 
....................                          0x0C, 0x50, 0x50, 0x50, 0x3C, // y 
....................                          0x44, 0x64, 0x54, 0x4C, 0x44, // z 
....................                          0x00, 0x08, 0x36, 0x41, 0x41, // { 
....................                          0x00, 0x00, 0x7F, 0x00, 0x00, // | 
....................                          0x41, 0x41, 0x36, 0x08, 0x00, // } 
....................                          0x02, 0x01, 0x02, 0x04, 0x02};// ~ 
.................... ///////////////////////////////////////////////////////////////////////// 
....................  
....................  
.................... ///////////////////////////////////////////////////////////////////////// 
.................... // Purpose:       Draw a line on a graphic LCD using Bresenham's 
.................... //                line drawing algorithm 
.................... // Inputs:        (x1, y1) - the start coordinate 
.................... //                (x2, y2) - the end coordinate 
.................... //                color - ON or OFF 
.................... // Dependencies:  glcd_pixel() 
.................... ///////////////////////////////////////////////////////////////////////// 
.................... #ifdef LARGE_LCD 
.................... void glcd_line(int16 x1, int16 y1, int16 x2, int16 y2, int1 color) 
.................... #else 
.................... void glcd_line(int8 x1, int8 y1, int8 x2, int8 y2, int1 color) 
.................... #endif 
.................... { 
*
03994:  MOVLW  01
03996:  MOVLB  6
03998:  MOVWF  x7F
0399A:  MOVWF  x80
0399C:  CLRF   x85
....................    int16        dy, dx; 
....................    signed int8  addx=1, addy=1; 
....................    signed int16 P, diff; 
....................  
....................    #ifdef LARGE_LCD 
....................    int16 i=0; 
....................    dx = abs((signed int16)(x2 - x1)); 
....................    dy = abs((signed int16)(y2 - y1)); 
....................    #else 
....................    int8 i=0; 
....................    dx = abs((signed int8)(x2 - x1)); 
0399E:  MOVF   x76,W
039A0:  SUBWF  x78,W
039A2:  MOVWF  x86
039A4:  MOVF   x86,W
039A6:  BTFSS  x86.7
039A8:  BRA    39B0
039AA:  MOVLW  00
039AC:  BSF    FD8.0
039AE:  SUBFWB x86,W
039B0:  CLRF   03
039B2:  MOVWF  x7D
039B4:  MOVFF  03,67E
....................    dy = abs((signed int8)(y2 - y1)); 
039B8:  MOVF   x77,W
039BA:  SUBWF  x79,W
039BC:  MOVWF  x86
039BE:  MOVF   x86,W
039C0:  BTFSS  x86.7
039C2:  BRA    39CA
039C4:  MOVLW  00
039C6:  BSF    FD8.0
039C8:  SUBFWB x86,W
039CA:  CLRF   03
039CC:  MOVWF  x7B
039CE:  MOVFF  03,67C
....................    #endif 
....................  
....................    if(x1 > x2) 
039D2:  MOVF   x76,W
039D4:  SUBWF  x78,W
039D6:  BC    39DC
....................       addx = -1; 
039D8:  MOVLW  FF
039DA:  MOVWF  x7F
....................    if(y1 > y2) 
039DC:  MOVF   x77,W
039DE:  SUBWF  x79,W
039E0:  BC    39E6
....................       addy = -1; 
039E2:  MOVLW  FF
039E4:  MOVWF  x80
....................  
....................    if(dx >= dy) 
039E6:  MOVF   x7C,W
039E8:  SUBWF  x7E,W
039EA:  BNC   3A62
039EC:  BNZ   39F4
039EE:  MOVF   x7B,W
039F0:  SUBWF  x7D,W
039F2:  BNC   3A62
....................    { 
....................       dy *= 2; 
039F4:  BCF    FD8.0
039F6:  RLCF   x7B,F
039F8:  RLCF   x7C,F
....................       P = dy - dx; 
039FA:  MOVF   x7D,W
039FC:  SUBWF  x7B,W
039FE:  MOVWF  00
03A00:  MOVF   x7E,W
03A02:  SUBWFB x7C,W
03A04:  MOVFF  00,681
03A08:  MOVWF  x82
....................       diff = P - dx; 
03A0A:  MOVF   x7D,W
03A0C:  SUBWF  x81,W
03A0E:  MOVWF  x83
03A10:  MOVF   x7E,W
03A12:  SUBWFB x82,W
03A14:  MOVWF  x84
....................  
....................       for(; i<=dx; ++i) 
03A16:  MOVF   x7E,F
03A18:  BNZ   3A20
03A1A:  MOVF   x85,W
03A1C:  SUBWF  x7D,W
03A1E:  BNC   3A60
....................       { 
....................          glcd_pixel(x1, y1, color); 
03A20:  MOVFF  676,686
03A24:  MOVFF  677,687
03A28:  MOVFF  67A,688
03A2C:  MOVLB  0
03A2E:  RCALL  38D8
....................  
....................          if(P < 0) 
03A30:  MOVLB  6
03A32:  BTFSC  x82.7
03A34:  BRA    3A38
03A36:  BRA    3A48
....................          { 
....................             P  += dy; 
03A38:  MOVF   x7B,W
03A3A:  ADDWF  x81,F
03A3C:  MOVF   x7C,W
03A3E:  ADDWFC x82,F
....................             x1 += addx; 
03A40:  MOVF   x7F,W
03A42:  ADDWF  x76,W
03A44:  MOVWF  x76
....................          } 
....................          else 
03A46:  BRA    3A5C
....................          { 
....................             P  += diff; 
03A48:  MOVF   x83,W
03A4A:  ADDWF  x81,F
03A4C:  MOVF   x84,W
03A4E:  ADDWFC x82,F
....................             x1 += addx; 
03A50:  MOVF   x7F,W
03A52:  ADDWF  x76,W
03A54:  MOVWF  x76
....................             y1 += addy; 
03A56:  MOVF   x80,W
03A58:  ADDWF  x77,W
03A5A:  MOVWF  x77
....................          } 
....................       } 
03A5C:  INCF   x85,F
03A5E:  BRA    3A16
....................    } 
....................    else 
03A60:  BRA    3ACE
....................    { 
....................       dx *= 2; 
03A62:  BCF    FD8.0
03A64:  RLCF   x7D,F
03A66:  RLCF   x7E,F
....................       P = dx - dy; 
03A68:  MOVF   x7B,W
03A6A:  SUBWF  x7D,W
03A6C:  MOVWF  00
03A6E:  MOVF   x7C,W
03A70:  SUBWFB x7E,W
03A72:  MOVFF  00,681
03A76:  MOVWF  x82
....................       diff = P - dy; 
03A78:  MOVF   x7B,W
03A7A:  SUBWF  x81,W
03A7C:  MOVWF  x83
03A7E:  MOVF   x7C,W
03A80:  SUBWFB x82,W
03A82:  MOVWF  x84
....................  
....................       for(; i<=dy; ++i) 
03A84:  MOVF   x7C,F
03A86:  BNZ   3A8E
03A88:  MOVF   x85,W
03A8A:  SUBWF  x7B,W
03A8C:  BNC   3ACE
....................       { 
....................          glcd_pixel(x1, y1, color); 
03A8E:  MOVFF  676,686
03A92:  MOVFF  677,687
03A96:  MOVFF  67A,688
03A9A:  MOVLB  0
03A9C:  RCALL  38D8
....................  
....................          if(P < 0) 
03A9E:  MOVLB  6
03AA0:  BTFSC  x82.7
03AA2:  BRA    3AA6
03AA4:  BRA    3AB6
....................          { 
....................             P  += dx; 
03AA6:  MOVF   x7D,W
03AA8:  ADDWF  x81,F
03AAA:  MOVF   x7E,W
03AAC:  ADDWFC x82,F
....................             y1 += addy; 
03AAE:  MOVF   x80,W
03AB0:  ADDWF  x77,W
03AB2:  MOVWF  x77
....................          } 
....................          else 
03AB4:  BRA    3ACA
....................          { 
....................             P  += diff; 
03AB6:  MOVF   x83,W
03AB8:  ADDWF  x81,F
03ABA:  MOVF   x84,W
03ABC:  ADDWFC x82,F
....................             x1 += addx; 
03ABE:  MOVF   x7F,W
03AC0:  ADDWF  x76,W
03AC2:  MOVWF  x76
....................             y1 += addy; 
03AC4:  MOVF   x80,W
03AC6:  ADDWF  x77,W
03AC8:  MOVWF  x77
....................          } 
....................       } 
03ACA:  INCF   x85,F
03ACC:  BRA    3A84
....................    } 
.................... } 
03ACE:  MOVLB  0
03AD0:  RETLW  00
....................  
....................  
.................... ///////////////////////////////////////////////////////////////////////// 
.................... // Purpose:       Draw a rectangle on a graphic LCD 
.................... // Inputs:        (x1, y1) - the start coordinate 
.................... //                (x2, y2) - the end coordinate 
.................... //                fill  - YES or NO 
.................... //                color - ON or OFF 
.................... // Dependencies:  glcd_pixel(), glcd_line() 
.................... ///////////////////////////////////////////////////////////////////////// 
.................... #ifdef LARGE_LCD 
.................... void glcd_rect(int16 x1, int16 y1, int16 x2, int16 y2, int1 fill, int1 color) 
.................... #else 
.................... void glcd_rect(int8 x1, int8 y1, int8 x2, int8 y2, int1 fill, int1 color) 
.................... #endif 
.................... { 
....................    if(fill) 
03AD2:  MOVLB  6
03AD4:  MOVF   x6F,F
03AD6:  BZ    3B34
....................    { 
....................       #ifdef LARGE_LCD 
....................       int16 i, xmin, xmax, ymin, ymax; 
....................       #else 
....................       int8  i, xmin, xmax, ymin, ymax; 
....................       #endif 
....................  
....................       if(x1 < x2)                            //  Find x min and max 
03AD8:  MOVF   x6D,W
03ADA:  SUBWF  x6B,W
03ADC:  BC    3AE8
....................       { 
....................          xmin = x1; 
03ADE:  MOVFF  66B,672
....................          xmax = x2; 
03AE2:  MOVFF  66D,673
....................       } 
....................       else 
03AE6:  BRA    3AF0
....................       { 
....................          xmin = x2; 
03AE8:  MOVFF  66D,672
....................          xmax = x1; 
03AEC:  MOVFF  66B,673
....................       } 
....................  
....................       if(y1 < y2)                            // Find the y min and max 
03AF0:  MOVF   x6E,W
03AF2:  SUBWF  x6C,W
03AF4:  BC    3B00
....................       { 
....................          ymin = y1; 
03AF6:  MOVFF  66C,674
....................          ymax = y2; 
03AFA:  MOVFF  66E,675
....................       } 
....................       else 
03AFE:  BRA    3B08
....................       { 
....................          ymin = y2; 
03B00:  MOVFF  66E,674
....................          ymax = y1; 
03B04:  MOVFF  66C,675
....................       } 
....................  
....................       for(; xmin <= xmax; ++xmin) 
03B08:  MOVF   x72,W
03B0A:  SUBWF  x73,W
03B0C:  BNC   3B32
....................       { 
....................          for(i=ymin; i<=ymax; ++i) 
03B0E:  MOVFF  674,671
03B12:  MOVF   x71,W
03B14:  SUBWF  x75,W
03B16:  BNC   3B2E
....................          { 
....................             glcd_pixel(xmin, i, color); 
03B18:  MOVFF  672,686
03B1C:  MOVFF  671,687
03B20:  MOVFF  670,688
03B24:  MOVLB  0
03B26:  RCALL  38D8
....................          } 
03B28:  MOVLB  6
03B2A:  INCF   x71,F
03B2C:  BRA    3B12
....................       } 
03B2E:  INCF   x72,F
03B30:  BRA    3B08
....................    } 
....................    else 
03B32:  BRA    3B90
....................    { 
....................       glcd_line(x1, y1, x2, y1, color);      // Draw the 4 sides 
03B34:  MOVFF  66B,676
03B38:  MOVFF  66C,677
03B3C:  MOVFF  66D,678
03B40:  MOVFF  66C,679
03B44:  MOVFF  670,67A
03B48:  MOVLB  0
03B4A:  RCALL  3994
....................       glcd_line(x1, y2, x2, y2, color); 
03B4C:  MOVFF  66B,676
03B50:  MOVFF  66E,677
03B54:  MOVFF  66D,678
03B58:  MOVFF  66E,679
03B5C:  MOVFF  670,67A
03B60:  RCALL  3994
....................       glcd_line(x1, y1, x1, y2, color); 
03B62:  MOVFF  66B,676
03B66:  MOVFF  66C,677
03B6A:  MOVFF  66B,678
03B6E:  MOVFF  66E,679
03B72:  MOVFF  670,67A
03B76:  RCALL  3994
....................       glcd_line(x2, y1, x2, y2, color); 
03B78:  MOVFF  66D,676
03B7C:  MOVFF  66C,677
03B80:  MOVFF  66D,678
03B84:  MOVFF  66E,679
03B88:  MOVFF  670,67A
03B8C:  RCALL  3994
03B8E:  MOVLB  6
....................    } 
.................... } 
03B90:  MOVLB  0
03B92:  RETLW  00
....................  
.................... ///////////////////////////////////////////////////////////////////////// 
.................... // Purpose:       Draw a bar (wide line) on a graphic LCD 
.................... // Inputs:        (x1, y1) - the start coordinate 
.................... //                (x2, y2) - the end coordinate 
.................... //                width  - The number of pixels wide 
.................... //                color - ON or OFF 
.................... ///////////////////////////////////////////////////////////////////////// 
.................... #ifdef LARGE_LCD 
.................... void glcd_bar(int16 x1, int16 y1, int16 x2, int16 y2, int8 width, int1 color) 
.................... #else 
.................... void glcd_bar(int8 x1, int8 y1, int8 x2, int8 y2, int8 width, int1 color) 
.................... #endif 
.................... { 
....................    int8         half_width; 
....................    signed int16 dy, dx; 
....................    signed int8  addx=1, addy=1, j; 
....................    signed int16 P, diff, c1, c2; 
....................  
....................    #ifdef LARGE_LCD 
....................    int16 i=0; 
....................    dx = abs((signed int16)(x2 - x1)); 
....................    dy = abs((signed int16)(y2 - y1)); 
....................    #else 
....................    int8 i=0; 
....................    dx = abs((signed int8)(x2 - x1)); 
....................    dy = abs((signed int8)(y2 - y1)); 
....................    #endif 
....................  
....................    half_width = width/2; 
....................    c1 = -(dx*x1 + dy*y1); 
....................    c2 = -(dx*x2 + dy*y2); 
....................  
....................    if(x1 > x2) 
....................    { 
....................       signed int16 temp; 
....................       temp = c1; 
....................       c1 = c2; 
....................       c2 = temp; 
....................       addx = -1; 
....................    } 
....................    if(y1 > y2) 
....................    { 
....................       signed int16 temp; 
....................       temp = c1; 
....................       c1 = c2; 
....................       c2 = temp; 
....................       addy = -1; 
....................    } 
....................  
....................    if(dx >= dy) 
....................    { 
....................       P = 2*dy - dx; 
....................       diff = P - dx; 
....................  
....................       for(i=0; i<=dx; ++i) 
....................       { 
....................          for(j=-half_width; j<half_width+width%2; ++j) 
....................          { 
....................             #ifdef LARGE_LCD 
....................             int16 temp; 
....................             #else 
....................             int8 temp; 
....................             #endif 
....................  
....................             temp = dx*x1+dy*(y1+j);    // Use more RAM to increase speed 
....................             if(temp+c1 >= 0 && temp+c2 <=0) 
....................                glcd_pixel(x1, y1+j, color); 
....................          } 
....................          if(P < 0) 
....................          { 
....................             P  += 2*dy; 
....................             x1 += addx; 
....................          } 
....................          else 
....................          { 
....................             P  += diff; 
....................             x1 += addx; 
....................             y1 += addy; 
....................          } 
....................       } 
....................    } 
....................    else 
....................    { 
....................       P = 2*dx - dy; 
....................       diff = P - dy; 
....................  
....................       for(i=0; i<=dy; ++i) 
....................       { 
....................          if(P < 0) 
....................          { 
....................             P  += 2*dx; 
....................             y1 += addy; 
....................          } 
....................          else 
....................          { 
....................             P  += diff; 
....................             x1 += addx; 
....................             y1 += addy; 
....................          } 
....................          for(j=-half_width; j<half_width+width%2; ++j) 
....................          { 
....................             #ifdef LARGE_LCD 
....................             int16 temp; 
....................             #else 
....................             int8 temp; 
....................             #endif 
....................  
....................             temp = dx*x1+dy*(y1+j);    // Use more RAM to increase speed 
....................             if(temp+c1 >= 0 && temp+c2 <=0) 
....................                glcd_pixel(x1+j, y1, color); 
....................          } 
....................       } 
....................    } 
.................... } 
....................  
....................  
.................... ///////////////////////////////////////////////////////////////////////// 
.................... // Purpose:       Draw a circle on a graphic LCD 
.................... // Inputs:        (x,y) - the center of the circle 
.................... //                radius - the radius of the circle 
.................... //                fill - YES or NO 
.................... //                color - ON or OFF 
.................... ///////////////////////////////////////////////////////////////////////// 
.................... #ifdef LARGE_LCD 
.................... void glcd_circle(int16 x, int16 y, int16 radius, int1 fill, int1 color) 
.................... #else 
.................... void glcd_circle(int8 x, int8 y, int8 radius, int1 fill, int1 color) 
.................... #endif 
.................... { 
....................    #ifdef LARGE_LCD 
....................    signed int16 a, b, P; 
....................    #else 
....................    signed int8  a, b, P; 
....................    #endif 
....................  
....................    a = 0; 
....................    b = radius; 
....................    P = 1 - radius; 
....................  
....................    do 
....................    { 
....................       if(fill) 
....................       { 
....................          glcd_line(x-a, y+b, x+a, y+b, color); 
....................          glcd_line(x-a, y-b, x+a, y-b, color); 
....................          glcd_line(x-b, y+a, x+b, y+a, color); 
....................          glcd_line(x-b, y-a, x+b, y-a, color); 
....................       } 
....................       else 
....................       { 
....................          glcd_pixel(a+x, b+y, color); 
....................          glcd_pixel(b+x, a+y, color); 
....................          glcd_pixel(x-a, b+y, color); 
....................          glcd_pixel(x-b, a+y, color); 
....................          glcd_pixel(b+x, y-a, color); 
....................          glcd_pixel(a+x, y-b, color); 
....................          glcd_pixel(x-a, y-b, color); 
....................          glcd_pixel(x-b, y-a, color); 
....................       } 
....................  
....................       if(P < 0) 
....................          P += 3 + 2 * a++; 
....................       else 
....................          P += 5 + 2 * (a++ - b--); 
....................     } while(a <= b); 
.................... } 
....................  
....................  
.................... ///////////////////////////////////////////////////////////////////////// 
.................... // Purpose:       Write text on a graphic LCD 
.................... // Inputs:        (x,y) - The upper left coordinate of the first letter 
.................... //                textptr - A pointer to an array of text to display 
.................... //                size - The size of the text: 1 = 5x7, 2 = 10x14, ... 
.................... //                color - ON or OFF 
.................... ///////////////////////////////////////////////////////////////////////// 
.................... #ifdef LARGE_LCD 
.................... void glcd_text57(int16 x, int16 y, char* textptr, int8 size, int1 color) 
.................... #else 
.................... void glcd_text57(int8 x, int8 y, char* textptr, int8 size, int1 color) 
.................... #endif 
.................... { 
....................    int8 j, k, l, m;                       // Loop counters 
....................    int8 pixelData[5];                     // Stores character data 
....................  
....................    for(; *textptr != '\0'; ++textptr, ++x)// Loop through the passed string 
03B94:  MOVFF  66E,03
03B98:  MOVLB  6
03B9A:  MOVFF  66D,FE9
03B9E:  MOVFF  66E,FEA
03BA2:  MOVF   FEF,F
03BA4:  BTFSC  FD8.2
03BA6:  BRA    3D48
....................    { 
....................       if(*textptr < 'S') // Checks if the letter is in the first font array 
03BA8:  MOVFF  66E,03
03BAC:  MOVFF  66D,FE9
03BB0:  MOVFF  66E,FEA
03BB4:  MOVF   FEF,W
03BB6:  SUBLW  52
03BB8:  BNC   3C08
....................          memcpy(pixelData, FONT[*textptr - ' '], 5); 
03BBA:  MOVFF  66E,03
03BBE:  MOVFF  66D,FE9
03BC2:  MOVFF  66E,FEA
03BC6:  MOVLW  20
03BC8:  SUBWF  FEF,W
03BCA:  MULLW  05
03BCC:  MOVF   FF3,W
03BCE:  CLRF   03
03BD0:  MOVWF  x7A
03BD2:  MOVLW  06
03BD4:  MOVWF  FEA
03BD6:  MOVLW  75
03BD8:  MOVWF  FE9
03BDA:  CLRF   x7E
03BDC:  MOVFF  67A,67D
03BE0:  MOVFF  FF2,67B
03BE4:  BCF    FF2.7
03BE6:  MOVLW  05
03BE8:  MOVWF  01
03BEA:  CLRF   FF7
03BEC:  MOVF   x7A,W
03BEE:  MOVLB  0
03BF0:  CALL   009E
03BF4:  TBLRD*-
03BF6:  TBLRD*+
03BF8:  MOVFF  FF5,FEE
03BFC:  DECFSZ 01,F
03BFE:  BRA    3BF6
03C00:  MOVLB  6
03C02:  BTFSC  x7B.7
03C04:  BSF    FF2.7
....................       else if(*textptr <= '~') // Check if the letter is in the second font array 
03C06:  BRA    3C72
03C08:  MOVFF  66E,03
03C0C:  MOVFF  66D,FE9
03C10:  MOVFF  66E,FEA
03C14:  MOVF   FEF,W
03C16:  SUBLW  7E
03C18:  BNC   3C68
....................          memcpy(pixelData, FONT2[*textptr - 'S'], 5); 
03C1A:  MOVFF  66E,03
03C1E:  MOVFF  66D,FE9
03C22:  MOVFF  66E,FEA
03C26:  MOVLW  53
03C28:  SUBWF  FEF,W
03C2A:  MULLW  05
03C2C:  MOVF   FF3,W
03C2E:  CLRF   03
03C30:  MOVWF  x7A
03C32:  MOVLW  06
03C34:  MOVWF  FEA
03C36:  MOVLW  75
03C38:  MOVWF  FE9
03C3A:  CLRF   x7E
03C3C:  MOVFF  67A,67D
03C40:  MOVFF  FF2,67B
03C44:  BCF    FF2.7
03C46:  MOVLW  05
03C48:  MOVWF  01
03C4A:  CLRF   FF7
03C4C:  MOVF   x7A,W
03C4E:  MOVLB  0
03C50:  CALL   01BC
03C54:  TBLRD*-
03C56:  TBLRD*+
03C58:  MOVFF  FF5,FEE
03C5C:  DECFSZ 01,F
03C5E:  BRA    3C56
03C60:  MOVLB  6
03C62:  BTFSC  x7B.7
03C64:  BSF    FF2.7
....................       else 
03C66:  BRA    3C72
....................          memcpy(pixelData, FONT[0], 5);   // Default to space 
03C68:  CLRF   x75
03C6A:  CLRF   x76
03C6C:  CLRF   x77
03C6E:  CLRF   x78
03C70:  CLRF   x79
....................  
....................       // Handles newline and carriage returns 
....................       switch(*textptr) 
....................       { 
03C72:  MOVFF  66E,03
03C76:  MOVF   x6D,W
03C78:  MOVWF  FE9
03C7A:  MOVFF  03,FEA
03C7E:  MOVF   FEF,W
03C80:  XORLW  0A
03C82:  MOVLB  0
03C84:  BZ    3C8C
03C86:  XORLW  07
03C88:  BZ    3C9C
03C8A:  BRA    3CA2
....................          case '\n': 
....................             y += 7*size + 1; 
03C8C:  MOVLB  6
03C8E:  MOVF   x6F,W
03C90:  MULLW  07
03C92:  MOVF   FF3,W
03C94:  ADDLW  01
03C96:  ADDWF  x6C,F
....................             continue; 
03C98:  BRA    3D3A
03C9A:  MOVLB  0
....................          case '\r': 
....................             x = 0; 
03C9C:  MOVLB  6
03C9E:  CLRF   x6B
....................             continue; 
03CA0:  BRA    3D3A
....................       } 
....................  
....................       if(x+5*size >= GLCD_WIDTH)          // Performs character wrapping 
03CA2:  MOVLB  6
03CA4:  MOVF   x6F,W
03CA6:  MULLW  05
03CA8:  MOVF   FF3,W
03CAA:  ADDWF  x6B,W
03CAC:  SUBLW  7F
03CAE:  BC    3CBC
....................       { 
....................          x = 0;                           // Set x at far left position 
03CB0:  CLRF   x6B
....................          y += 7*size + 1;                 // Set y at next position down 
03CB2:  MOVF   x6F,W
03CB4:  MULLW  07
03CB6:  MOVF   FF3,W
03CB8:  ADDLW  01
03CBA:  ADDWF  x6C,F
....................       } 
....................       for(j=0; j<5; ++j, x+=size)         // Loop through character byte data 
03CBC:  CLRF   x71
03CBE:  MOVF   x71,W
03CC0:  SUBLW  04
03CC2:  BNC   3D3A
....................       { 
....................          for(k=0; k < 7; ++k)             // Loop through the vertical pixels 
03CC4:  CLRF   x72
03CC6:  MOVF   x72,W
03CC8:  SUBLW  06
03CCA:  BNC   3D32
....................          { 
....................             if(bit_test(pixelData[j], k)) // Check if the pixel should be set 
03CCC:  CLRF   03
03CCE:  MOVF   x71,W
03CD0:  ADDLW  75
03CD2:  MOVWF  FE9
03CD4:  MOVLW  06
03CD6:  ADDWFC 03,W
03CD8:  MOVWF  FEA
03CDA:  MOVFF  FEF,67A
03CDE:  MOVFF  67A,00
03CE2:  MOVF   x72,W
03CE4:  MOVWF  01
03CE6:  BZ    3CF0
03CE8:  BCF    FD8.0
03CEA:  RRCF   00,F
03CEC:  DECFSZ 01,F
03CEE:  BRA    3CE8
03CF0:  BTFSS  00.0
03CF2:  BRA    3D2E
....................             { 
....................                for(l=0; l < size; ++l)    // These two loops change the 
03CF4:  CLRF   x73
03CF6:  MOVF   x6F,W
03CF8:  SUBWF  x73,W
03CFA:  BC    3D2E
....................                {                          // character's size 
....................                   for(m=0; m < size; ++m) 
03CFC:  CLRF   x74
03CFE:  MOVF   x6F,W
03D00:  SUBWF  x74,W
03D02:  BC    3D2A
....................                   { 
....................                      glcd_pixel(x+m, y+k*size+l, color); // Draws the pixel 
03D04:  MOVF   x74,W
03D06:  ADDWF  x6B,W
03D08:  MOVWF  x7A
03D0A:  MOVF   x72,W
03D0C:  MULWF  x6F
03D0E:  MOVF   FF3,W
03D10:  ADDWF  x6C,W
03D12:  ADDWF  x73,W
03D14:  MOVWF  x7B
03D16:  MOVFF  67A,686
03D1A:  MOVWF  x87
03D1C:  MOVFF  670,688
03D20:  MOVLB  0
03D22:  RCALL  38D8
....................                   } 
03D24:  MOVLB  6
03D26:  INCF   x74,F
03D28:  BRA    3CFE
....................                } 
03D2A:  INCF   x73,F
03D2C:  BRA    3CF6
....................             } 
....................          } 
03D2E:  INCF   x72,F
03D30:  BRA    3CC6
....................       } 
03D32:  INCF   x71,F
03D34:  MOVF   x6F,W
03D36:  ADDWF  x6B,F
03D38:  BRA    3CBE
....................    } 
03D3A:  INCF   x6D,F
03D3C:  BTFSC  FD8.2
03D3E:  INCF   x6E,F
03D40:  INCF   x6B,F
03D42:  MOVLB  0
03D44:  BRA    3B94
03D46:  MOVLB  6
.................... } 
03D48:  MOVLB  0
03D4A:  RETLW  00
....................  
.................... #endif 
....................  
.................... #include "imagen.h" 
.................... const int8 Bombillo [64][16] = { 
.................... 0x00, 0x00, 0x00, 0x00, 0x00, 0x00, 0x00, 0x00, 0x00, 0x00, 0x00, 0x00, 0x00, 0x00, 0x00, 0x00, 
.................... 0x00, 0x00, 0x00, 0x00, 0x00, 0x00, 0x00, 0x00, 0x00, 0x00, 0x00, 0x00, 0x00, 0x00, 0x00, 0x00, 
.................... 0x00, 0x00, 0x00, 0x00, 0x00, 0x00, 0x00, 0x00, 0x00, 0x00, 0x00, 0x00, 0x00, 0x00, 0x00, 0x00, 
.................... 0x00, 0x00, 0x00, 0x00, 0x00, 0x00, 0x00, 0x00, 0x00, 0x00, 0x00, 0x00, 0x00, 0x00, 0x00, 0x00, 
.................... 0x00, 0x00, 0x00, 0x00, 0x00, 0x00, 0x00, 0x00, 0x00, 0x00, 0x00, 0x00, 0x00, 0x00, 0x00, 0x00, 
.................... 0x00, 0x00, 0x00, 0x00, 0x00, 0x00, 0x00, 0x00, 0x00, 0x00, 0x00, 0x00, 0x00, 0x00, 0x00, 0x00, 
.................... 0x00, 0x00, 0x00, 0x00, 0x00, 0x00, 0x00, 0x00, 0x00, 0x00, 0x00, 0x00, 0x00, 0x00, 0x00, 0x00, 
.................... 0x00, 0x00, 0x00, 0x00, 0x00, 0x00, 0x00, 0x00, 0x00, 0x00, 0x00, 0x00, 0x00, 0x00, 0x00, 0x00, 
.................... 0x00, 0x00, 0x00, 0x00, 0x00, 0x00, 0x00, 0x00, 0x00, 0x00, 0x00, 0x00, 0x00, 0x00, 0x00, 0x00, 
.................... 0x00, 0x00, 0x00, 0x00, 0x00, 0x00, 0x00, 0x00, 0x00, 0x00, 0x00, 0x00, 0x00, 0x00, 0x00, 0x00, 
.................... 0x00, 0x00, 0x00, 0x00, 0x00, 0x00, 0x00, 0x00, 0x00, 0x00, 0x00, 0x00, 0x00, 0x00, 0x00, 0x00, 
.................... 0x00, 0x00, 0x00, 0x00, 0x00, 0x00, 0x00, 0x00, 0x00, 0x00, 0x00, 0x00, 0x00, 0x00, 0x00, 0x00, 
.................... 0x00, 0x00, 0x00, 0x00, 0x00, 0x00, 0x00, 0x00, 0x00, 0x00, 0x00, 0x00, 0x00, 0x00, 0x00, 0x00, 
.................... 0x00, 0x00, 0x00, 0x00, 0x00, 0x00, 0x00, 0x00, 0x00, 0x00, 0x00, 0x00, 0x00, 0x00, 0x00, 0x00, 
.................... 0x00, 0x00, 0x00, 0x00, 0x00, 0x00, 0x00, 0x00, 0x00, 0x00, 0x00, 0x00, 0x00, 0x00, 0x00, 0x00, 
.................... 0x00, 0x00, 0x00, 0x00, 0x00, 0x00, 0x00, 0x00, 0x00, 0x00, 0x00, 0x00, 0x00, 0x08, 0x00, 0x80, 
.................... 0x00, 0x00, 0x00, 0x00, 0x00, 0x00, 0x00, 0x00, 0x00, 0x00, 0x00, 0x00, 0x00, 0x04, 0x01, 0x00, 
.................... 0x00, 0x00, 0x00, 0x00, 0x00, 0x00, 0x00, 0x00, 0x00, 0x00, 0x00, 0x00, 0x00, 0x02, 0x02, 0x00, 
.................... 0x00, 0x00, 0x00, 0x00, 0x00, 0x00, 0x00, 0x00, 0x00, 0x00, 0x00, 0x00, 0x00, 0x00, 0x78, 0x00, 
.................... 0x00, 0x00, 0x00, 0x00, 0x00, 0x00, 0x00, 0x00, 0x00, 0x00, 0x00, 0x00, 0x00, 0x00, 0x84, 0x00, 
.................... 0x00, 0x00, 0x00, 0x00, 0x00, 0x00, 0x00, 0x00, 0x00, 0x00, 0x00, 0x00, 0x00, 0x01, 0x02, 0x00, 
.................... 0x00, 0x00, 0x00, 0x00, 0x00, 0x00, 0x00, 0x00, 0x00, 0x00, 0x00, 0x00, 0x00, 0xF9, 0x02, 0xF8, 
.................... 0x00, 0x00, 0x00, 0x00, 0x00, 0x00, 0x00, 0x00, 0x00, 0x00, 0x00, 0x00, 0x00, 0x01, 0x02, 0x00, 
.................... 0x00, 0x00, 0x00, 0x00, 0x00, 0x00, 0x00, 0x00, 0x00, 0x00, 0x00, 0x00, 0x00, 0x01, 0x02, 0x00, 
.................... 0x00, 0x00, 0x00, 0x00, 0x00, 0x00, 0x00, 0x00, 0x00, 0x00, 0x00, 0x00, 0x00, 0x04, 0x84, 0x80, 
.................... 0x00, 0x00, 0x00, 0x00, 0x00, 0x00, 0x00, 0x00, 0x00, 0x00, 0x00, 0x00, 0x00, 0x08, 0x78, 0x40, 
.................... 0x00, 0x00, 0x00, 0x00, 0x00, 0x00, 0x00, 0x00, 0x00, 0x00, 0x00, 0x00, 0x00, 0x10, 0x48, 0x20, 
.................... 0x00, 0x00, 0x00, 0x00, 0x00, 0x00, 0x00, 0x00, 0x00, 0x00, 0x00, 0x00, 0x00, 0x20, 0x48, 0x10, 
.................... 0x00, 0x00, 0x00, 0x00, 0x00, 0x00, 0x00, 0x00, 0x00, 0x00, 0x00, 0x00, 0x00, 0x00, 0x78, 0x00, 
.................... 0x00, 0x00, 0x00, 0x00, 0x00, 0x00, 0x00, 0x00, 0x00, 0x00, 0x00, 0x00, 0x00, 0x00, 0x00, 0x00, 
.................... 0x00, 0x00, 0x00, 0x00, 0x00, 0x00, 0x00, 0x00, 0x00, 0x00, 0x00, 0x00, 0x00, 0x00, 0x00, 0x00, 
.................... 0x00, 0x00, 0x00, 0x00, 0x00, 0x00, 0x00, 0x00, 0x00, 0x00, 0x00, 0x00, 0x00, 0x00, 0x00, 0x00, 
.................... 0x00, 0x00, 0x00, 0x00, 0x00, 0x00, 0x00, 0x00, 0x00, 0x00, 0x00, 0x00, 0x00, 0x00, 0x00, 0x00, 
.................... 0x00, 0x00, 0x00, 0x00, 0x00, 0x00, 0x00, 0x00, 0x00, 0x00, 0x00, 0x00, 0x00, 0x00, 0x00, 0x00, 
.................... 0x00, 0x00, 0x00, 0x00, 0x00, 0x00, 0x00, 0x00, 0x00, 0x00, 0x00, 0x00, 0x00, 0x00, 0x00, 0x00, 
.................... 0x00, 0x00, 0x00, 0x00, 0x00, 0x00, 0x00, 0x00, 0x00, 0x00, 0x00, 0x00, 0x00, 0x00, 0x00, 0x00, 
.................... 0x00, 0x00, 0x00, 0x00, 0x00, 0x00, 0x00, 0x00, 0x00, 0x00, 0x00, 0x00, 0x00, 0x00, 0x00, 0x00, 
.................... 0x00, 0x00, 0x00, 0x00, 0x00, 0x00, 0x00, 0x00, 0x00, 0x00, 0x00, 0x00, 0x00, 0x00, 0x00, 0x00, 
.................... 0x00, 0x00, 0x00, 0x00, 0x00, 0x00, 0x00, 0x00, 0x00, 0x00, 0x00, 0x00, 0x00, 0x00, 0x00, 0x00, 
.................... 0x00, 0x00, 0x00, 0x00, 0x00, 0x00, 0x00, 0x00, 0x00, 0x00, 0x00, 0x00, 0x00, 0x00, 0x00, 0x00, 
.................... 0x00, 0x00, 0x00, 0x00, 0x00, 0x00, 0x00, 0x00, 0x00, 0x00, 0x00, 0x00, 0x00, 0x00, 0x00, 0x00, 
.................... 0x00, 0x00, 0x00, 0x00, 0x00, 0x00, 0x00, 0x00, 0x00, 0x00, 0x00, 0x00, 0x00, 0x00, 0x00, 0x00, 
.................... 0x00, 0x00, 0x00, 0x00, 0x00, 0x00, 0x00, 0x00, 0x00, 0x00, 0x00, 0x00, 0x00, 0x00, 0x00, 0x00, 
.................... 0x00, 0x00, 0x00, 0x00, 0x00, 0x00, 0x00, 0x00, 0x00, 0x00, 0x00, 0x00, 0x00, 0x00, 0x00, 0x00, 
.................... 0x00, 0x00, 0x00, 0x00, 0x00, 0x00, 0x00, 0x00, 0x00, 0x00, 0x00, 0x00, 0x00, 0x00, 0x00, 0x00, 
.................... 0x00, 0x00, 0x00, 0x00, 0x00, 0x00, 0x00, 0x00, 0x00, 0x00, 0x00, 0x00, 0x00, 0x00, 0x00, 0x00, 
.................... 0x00, 0x00, 0x00, 0x00, 0x00, 0x00, 0x00, 0x00, 0x00, 0x00, 0x00, 0x00, 0x00, 0x00, 0x00, 0x00, 
.................... 0x00, 0x00, 0x00, 0x00, 0x00, 0x00, 0x00, 0x00, 0x00, 0x00, 0x00, 0x00, 0x00, 0x00, 0x00, 0x00, 
.................... 0x00, 0x00, 0x00, 0x00, 0x00, 0x00, 0x00, 0x00, 0x00, 0x00, 0x00, 0x00, 0x00, 0x00, 0x00, 0x00, 
.................... 0x00, 0x00, 0x00, 0x00, 0x00, 0x00, 0x00, 0x00, 0x00, 0x00, 0x00, 0x00, 0x00, 0x00, 0x00, 0x00, 
.................... 0x00, 0x00, 0x00, 0x00, 0x00, 0x00, 0x00, 0x00, 0x00, 0x00, 0x00, 0x00, 0x00, 0x00, 0x00, 0x00, 
.................... 0x00, 0x00, 0x00, 0x00, 0x00, 0x00, 0x00, 0x00, 0x00, 0x00, 0x00, 0x00, 0x00, 0x00, 0x00, 0x00, 
.................... 0x00, 0x00, 0x00, 0x00, 0x00, 0x00, 0x00, 0x00, 0x00, 0x00, 0x00, 0x00, 0x00, 0x00, 0x00, 0x00, 
.................... 0x00, 0x00, 0x00, 0x00, 0x00, 0x00, 0x00, 0x00, 0x00, 0x00, 0x00, 0x00, 0x00, 0x00, 0x00, 0x00, 
.................... 0x00, 0x00, 0x00, 0x00, 0x00, 0x00, 0x00, 0x00, 0x00, 0x00, 0x00, 0x00, 0x00, 0x00, 0x00, 0x00, 
.................... 0x00, 0x00, 0x00, 0x00, 0x00, 0x00, 0x00, 0x00, 0x00, 0x00, 0x00, 0x00, 0x00, 0x00, 0x00, 0x00, 
.................... 0x00, 0x00, 0x00, 0x00, 0x00, 0x00, 0x00, 0x00, 0x00, 0x00, 0x00, 0x00, 0x00, 0x00, 0x00, 0x00, 
.................... 0x00, 0x00, 0x00, 0x00, 0x00, 0x00, 0x00, 0x00, 0x00, 0x00, 0x00, 0x00, 0x00, 0x00, 0x00, 0x00, 
.................... 0x00, 0x00, 0x00, 0x00, 0x00, 0x00, 0x00, 0x00, 0x00, 0x00, 0x00, 0x00, 0x00, 0x00, 0x00, 0x00, 
.................... 0x00, 0x00, 0x00, 0x00, 0x00, 0x00, 0x00, 0x00, 0x00, 0x00, 0x00, 0x00, 0x00, 0x00, 0x00, 0x00, 
.................... 0x00, 0x00, 0x00, 0x00, 0x00, 0x00, 0x00, 0x00, 0x00, 0x00, 0x00, 0x00, 0x00, 0x00, 0x00, 0x00, 
.................... 0x00, 0x00, 0x00, 0x00, 0x00, 0x00, 0x00, 0x00, 0x00, 0x00, 0x00, 0x00, 0x00, 0x00, 0x00, 0x00, 
.................... 0x00, 0x00, 0x00, 0x00, 0x00, 0x00, 0x00, 0x00, 0x00, 0x00, 0x00, 0x00, 0x00, 0x00, 0x00, 0x00, 
.................... 0x00, 0x00, 0x00, 0x00, 0x00, 0x00, 0x00, 0x00, 0x00, 0x00, 0x00, 0x00, 0x00, 0x00, 0x00, 0x00 
.................... }; 
....................  
.................... const int8 Tomai [64][16] = { 
.................... 0x00, 0x00, 0x00, 0x00, 0x00, 0x00, 0x00, 0x00, 0x00, 0x00, 0x00, 0x00, 0x00, 0x00, 0x00, 0x00, 
.................... 0x00, 0x00, 0x00, 0x00, 0x00, 0x00, 0x00, 0x00, 0x00, 0x00, 0x00, 0x00, 0x00, 0x00, 0x00, 0x00, 
.................... 0x00, 0x00, 0x00, 0x00, 0x00, 0x00, 0x00, 0x00, 0x00, 0x00, 0x00, 0x00, 0x00, 0x00, 0x00, 0x00, 
.................... 0x00, 0x00, 0x00, 0x00, 0x00, 0x00, 0x00, 0x00, 0x00, 0x00, 0x00, 0x00, 0x00, 0x00, 0x00, 0x00, 
.................... 0x00, 0x00, 0x00, 0x00, 0x00, 0x00, 0x00, 0x00, 0x00, 0x00, 0x00, 0x00, 0x00, 0x00, 0x00, 0x00, 
.................... 0x00, 0x00, 0x00, 0x00, 0x00, 0x00, 0x00, 0x00, 0x00, 0x00, 0x00, 0x00, 0x00, 0x00, 0x00, 0x00, 
.................... 0x00, 0x00, 0x00, 0x00, 0x00, 0x00, 0x00, 0x00, 0x00, 0x00, 0x00, 0x00, 0x00, 0x00, 0x00, 0x00, 
.................... 0x00, 0x00, 0x00, 0x00, 0x00, 0x00, 0x00, 0x00, 0x00, 0x00, 0x00, 0x00, 0x00, 0x00, 0x00, 0x00, 
.................... 0x00, 0x00, 0x00, 0x00, 0x00, 0x00, 0x00, 0x00, 0x00, 0x00, 0x00, 0x00, 0x00, 0x00, 0x00, 0x00, 
.................... 0x00, 0x00, 0x00, 0x00, 0x00, 0x00, 0x00, 0x00, 0x00, 0x00, 0x00, 0x00, 0x00, 0x00, 0x00, 0x00, 
.................... 0x00, 0x00, 0x00, 0x00, 0x00, 0x00, 0x00, 0x00, 0x00, 0x00, 0x00, 0x00, 0x00, 0x00, 0x00, 0x00, 
.................... 0x00, 0x00, 0x00, 0x00, 0x00, 0x00, 0x00, 0x00, 0x00, 0x00, 0x00, 0x00, 0x00, 0x00, 0x00, 0x00, 
.................... 0x00, 0x00, 0x00, 0x00, 0x00, 0x00, 0x00, 0x00, 0x00, 0x00, 0x00, 0x00, 0x00, 0x00, 0x00, 0x00, 
.................... 0x00, 0x00, 0x00, 0x00, 0x00, 0x00, 0x00, 0x00, 0x00, 0x00, 0x00, 0x00, 0x00, 0x00, 0x00, 0x00, 
.................... 0x00, 0x00, 0x00, 0x00, 0x00, 0x00, 0x00, 0x00, 0x00, 0x00, 0x00, 0x00, 0x00, 0x00, 0x00, 0x00, 
.................... 0x00, 0x00, 0x00, 0x00, 0x00, 0x00, 0x00, 0x00, 0x00, 0x00, 0x00, 0x00, 0x00, 0x00, 0x00, 0x00, 
.................... 0x00, 0x00, 0x00, 0x00, 0x00, 0x00, 0x00, 0x00, 0x00, 0x00, 0x00, 0x00, 0x00, 0x00, 0x00, 0x00, 
.................... 0x00, 0x00, 0x00, 0x00, 0x00, 0x00, 0x00, 0x00, 0x00, 0x00, 0x00, 0x00, 0x00, 0x00, 0x00, 0x00, 
.................... 0x00, 0x00, 0x00, 0x00, 0x00, 0x00, 0x00, 0x00, 0x00, 0x00, 0x00, 0x00, 0x00, 0x00, 0x00, 0x00, 
.................... 0x00, 0x00, 0x00, 0x00, 0x00, 0x00, 0x00, 0x00, 0x00, 0x00, 0x00, 0x00, 0x00, 0x00, 0x00, 0x00, 
.................... 0x00, 0x00, 0x00, 0x00, 0x00, 0x00, 0x00, 0x00, 0x00, 0x00, 0x00, 0x00, 0x00, 0x00, 0x00, 0x00, 
.................... 0x00, 0x00, 0x00, 0x00, 0x00, 0x00, 0x00, 0x00, 0x00, 0x00, 0x00, 0x00, 0x00, 0x00, 0x00, 0x00, 
.................... 0x00, 0x00, 0x00, 0x00, 0x00, 0x00, 0x00, 0x00, 0x00, 0x00, 0x00, 0x00, 0x00, 0x00, 0x00, 0x00, 
.................... 0x00, 0x00, 0x00, 0x00, 0x00, 0x00, 0x00, 0x00, 0x00, 0x00, 0x00, 0x00, 0x00, 0x00, 0x00, 0x00, 
.................... 0x00, 0x00, 0x00, 0x00, 0x00, 0x00, 0x00, 0x00, 0x00, 0x00, 0x00, 0x00, 0x00, 0x00, 0x00, 0x00, 
.................... 0x00, 0x00, 0x00, 0x00, 0x00, 0x00, 0x00, 0x00, 0x00, 0x00, 0x00, 0x00, 0x00, 0x00, 0x00, 0x00, 
.................... 0x00, 0x00, 0x00, 0x00, 0x00, 0x00, 0x00, 0x00, 0x00, 0x00, 0x00, 0x00, 0x00, 0x00, 0x00, 0x00, 
.................... 0x00, 0x00, 0x00, 0x00, 0x00, 0x00, 0x00, 0x00, 0x00, 0x00, 0x00, 0x00, 0x00, 0x00, 0x00, 0x00, 
.................... 0x00, 0x00, 0x00, 0x00, 0x00, 0x00, 0x00, 0x00, 0x00, 0x00, 0x00, 0x00, 0x00, 0x00, 0x00, 0x00, 
.................... 0x00, 0x00, 0x00, 0x00, 0x00, 0x00, 0x00, 0x00, 0x00, 0x00, 0x00, 0x00, 0x00, 0x00, 0x00, 0x00, 
.................... 0x00, 0x00, 0x00, 0x00, 0x00, 0x00, 0x00, 0x00, 0x00, 0x00, 0x00, 0x00, 0x00, 0x7F, 0xFF, 0xF8, 
.................... 0x00, 0x00, 0x00, 0x00, 0x00, 0x00, 0x00, 0x00, 0x00, 0x00, 0x00, 0x00, 0x00, 0x40, 0x00, 0x08, 
.................... 0x00, 0x00, 0x00, 0x00, 0x00, 0x00, 0x00, 0x00, 0x00, 0x00, 0x00, 0x00, 0x00, 0x47, 0x03, 0x88, 
.................... 0x00, 0x00, 0x00, 0x00, 0x00, 0x00, 0x00, 0x00, 0x00, 0x00, 0x00, 0x00, 0x00, 0x45, 0x02, 0x88, 
.................... 0x00, 0x00, 0x00, 0x00, 0x00, 0x00, 0x00, 0x00, 0x00, 0x00, 0x00, 0x00, 0x00, 0x45, 0x02, 0x88, 
.................... 0x00, 0x00, 0x00, 0x00, 0x00, 0x00, 0x00, 0x00, 0x00, 0x00, 0x00, 0x00, 0x00, 0x45, 0x02, 0x88, 
.................... 0x00, 0x00, 0x00, 0x00, 0x00, 0x00, 0x00, 0x00, 0x00, 0x00, 0x00, 0x00, 0x00, 0x45, 0x02, 0x88, 
.................... 0x00, 0x00, 0x00, 0x00, 0x00, 0x00, 0x00, 0x00, 0x00, 0x00, 0x00, 0x00, 0x00, 0x47, 0x03, 0x88, 
.................... 0x00, 0x00, 0x00, 0x00, 0x00, 0x00, 0x00, 0x00, 0x00, 0x00, 0x00, 0x00, 0x00, 0x40, 0x00, 0x08, 
.................... 0x00, 0x00, 0x00, 0x00, 0x00, 0x00, 0x00, 0x00, 0x00, 0x00, 0x00, 0x00, 0x00, 0x40, 0xFC, 0x08, 
.................... 0x00, 0x00, 0x00, 0x00, 0x00, 0x00, 0x00, 0x00, 0x00, 0x00, 0x00, 0x00, 0x00, 0x40, 0x84, 0x08, 
.................... 0x00, 0x00, 0x00, 0x00, 0x00, 0x00, 0x00, 0x00, 0x00, 0x00, 0x00, 0x00, 0x00, 0x40, 0x84, 0x08, 
.................... 0x00, 0x00, 0x00, 0x00, 0x00, 0x00, 0x00, 0x00, 0x00, 0x00, 0x00, 0x00, 0x00, 0x40, 0xFC, 0x08, 
.................... 0x00, 0x00, 0x00, 0x00, 0x00, 0x00, 0x00, 0x00, 0x00, 0x00, 0x00, 0x00, 0x00, 0x40, 0x00, 0x08, 
.................... 0x00, 0x00, 0x00, 0x00, 0x00, 0x00, 0x00, 0x00, 0x00, 0x00, 0x00, 0x00, 0x00, 0x7F, 0xFF, 0xF8, 
.................... 0x00, 0x00, 0x00, 0x00, 0x00, 0x00, 0x00, 0x00, 0x00, 0x00, 0x00, 0x00, 0x00, 0x00, 0x00, 0x00, 
.................... 0x00, 0x00, 0x00, 0x00, 0x00, 0x00, 0x00, 0x00, 0x00, 0x00, 0x00, 0x00, 0x00, 0x00, 0x00, 0x00, 
.................... 0x00, 0x00, 0x00, 0x00, 0x00, 0x00, 0x00, 0x00, 0x00, 0x00, 0x00, 0x00, 0x00, 0x00, 0x00, 0x00, 
.................... 0x00, 0x00, 0x00, 0x00, 0x00, 0x00, 0x00, 0x00, 0x00, 0x00, 0x00, 0x00, 0x00, 0x00, 0x00, 0x00, 
.................... 0x00, 0x00, 0x00, 0x00, 0x00, 0x00, 0x00, 0x00, 0x00, 0x00, 0x00, 0x00, 0x00, 0x00, 0x00, 0x00, 
.................... 0x00, 0x00, 0x00, 0x00, 0x00, 0x00, 0x00, 0x00, 0x00, 0x00, 0x00, 0x00, 0x00, 0x00, 0x00, 0x00, 
.................... 0x00, 0x00, 0x00, 0x00, 0x00, 0x00, 0x00, 0x00, 0x00, 0x00, 0x00, 0x00, 0x00, 0x00, 0x00, 0x00, 
.................... 0x00, 0x00, 0x00, 0x00, 0x00, 0x00, 0x00, 0x00, 0x00, 0x00, 0x00, 0x00, 0x00, 0x00, 0x00, 0x00, 
.................... 0x00, 0x00, 0x00, 0x00, 0x00, 0x00, 0x00, 0x00, 0x00, 0x00, 0x00, 0x00, 0x00, 0x00, 0x00, 0x00, 
.................... 0x00, 0x00, 0x00, 0x00, 0x00, 0x00, 0x00, 0x00, 0x00, 0x00, 0x00, 0x00, 0x00, 0x00, 0x00, 0x00, 
.................... 0x00, 0x00, 0x00, 0x00, 0x00, 0x00, 0x00, 0x00, 0x00, 0x00, 0x00, 0x00, 0x00, 0x00, 0x00, 0x00, 
.................... 0x00, 0x00, 0x00, 0x00, 0x00, 0x00, 0x00, 0x00, 0x00, 0x00, 0x00, 0x00, 0x00, 0x00, 0x00, 0x00, 
.................... 0x00, 0x00, 0x00, 0x00, 0x00, 0x00, 0x00, 0x00, 0x00, 0x00, 0x00, 0x00, 0x00, 0x00, 0x00, 0x00, 
.................... 0x00, 0x00, 0x00, 0x00, 0x00, 0x00, 0x00, 0x00, 0x00, 0x00, 0x00, 0x00, 0x00, 0x00, 0x00, 0x00, 
.................... 0x00, 0x00, 0x00, 0x00, 0x00, 0x00, 0x00, 0x00, 0x00, 0x00, 0x00, 0x00, 0x00, 0x00, 0x00, 0x00, 
.................... 0x00, 0x00, 0x00, 0x00, 0x00, 0x00, 0x00, 0x00, 0x00, 0x00, 0x00, 0x00, 0x00, 0x00, 0x00, 0x00, 
.................... 0x00, 0x00, 0x00, 0x00, 0x00, 0x00, 0x00, 0x00, 0x00, 0x00, 0x00, 0x00, 0x00, 0x00, 0x00, 0x00, 
.................... 0x00, 0x00, 0x00, 0x00, 0x00, 0x00, 0x00, 0x00, 0x00, 0x00, 0x00, 0x00, 0x00, 0x00, 0x00, 0x00, 
.................... 0x00, 0x00, 0x00, 0x00, 0x00, 0x00, 0x00, 0x00, 0x00, 0x00, 0x00, 0x00, 0x00, 0x00, 0x00, 0x00 
.................... }; 
....................  
.................... const int8 Ventilador [64][16] = { 
.................... 0x00, 0x00, 0x00, 0x00, 0x00, 0x00, 0x00, 0x00, 0x00, 0x00, 0x00, 0x00, 0x00, 0x00, 0x00, 0x00, 
.................... 0x00, 0x00, 0x00, 0x00, 0x00, 0x00, 0x00, 0x00, 0x00, 0x00, 0x00, 0x00, 0x00, 0x00, 0x00, 0x00, 
.................... 0x00, 0x00, 0x00, 0x00, 0x00, 0x00, 0x00, 0x00, 0x00, 0x00, 0x00, 0x00, 0x00, 0x00, 0x00, 0x00, 
.................... 0x00, 0x00, 0x00, 0x00, 0x00, 0x00, 0x00, 0x00, 0x00, 0x00, 0x00, 0x00, 0x00, 0x00, 0x00, 0x00, 
.................... 0x00, 0x00, 0x00, 0x00, 0x00, 0x00, 0x00, 0x00, 0x00, 0x00, 0x00, 0x00, 0x00, 0x00, 0x00, 0x00, 
.................... 0x00, 0x00, 0x00, 0x00, 0x00, 0x00, 0x00, 0x00, 0x00, 0x00, 0x00, 0x00, 0x00, 0x00, 0x00, 0x00, 
.................... 0x00, 0x00, 0x00, 0x00, 0x00, 0x00, 0x00, 0x00, 0x00, 0x00, 0x00, 0x00, 0x00, 0x00, 0x00, 0x00, 
.................... 0x00, 0x00, 0x00, 0x00, 0x00, 0x00, 0x00, 0x00, 0x00, 0x00, 0x00, 0x00, 0x00, 0x00, 0x00, 0x00, 
.................... 0x00, 0x00, 0x00, 0x00, 0x00, 0x00, 0x00, 0x00, 0x00, 0x00, 0x00, 0x00, 0x00, 0x00, 0x00, 0x00, 
.................... 0x00, 0x00, 0x00, 0x00, 0x00, 0x00, 0x00, 0x00, 0x00, 0x00, 0x00, 0x00, 0x00, 0x00, 0x00, 0x00, 
.................... 0x00, 0x00, 0x00, 0x00, 0x00, 0x00, 0x00, 0x00, 0x00, 0x00, 0x00, 0x00, 0x00, 0x00, 0x00, 0x00, 
.................... 0x00, 0x00, 0x00, 0x00, 0x00, 0x00, 0x00, 0x00, 0x00, 0x00, 0x00, 0x00, 0x00, 0x00, 0x00, 0x00, 
.................... 0x00, 0x00, 0x00, 0x00, 0x00, 0x00, 0x00, 0x00, 0x00, 0x00, 0x00, 0x00, 0x00, 0x00, 0x00, 0x00, 
.................... 0x00, 0x00, 0x00, 0x00, 0x00, 0x00, 0x00, 0x00, 0x00, 0x00, 0x00, 0x00, 0x00, 0x00, 0x00, 0x00, 
.................... 0x00, 0x00, 0x00, 0x00, 0x00, 0x00, 0x00, 0x00, 0x00, 0x00, 0x00, 0x00, 0x00, 0x00, 0x00, 0x00, 
.................... 0x00, 0x00, 0x00, 0x00, 0x00, 0x00, 0x00, 0x00, 0x00, 0x00, 0x00, 0x00, 0x00, 0x00, 0x00, 0x00, 
.................... 0x00, 0x00, 0x00, 0x00, 0x00, 0x00, 0x00, 0x00, 0x00, 0x00, 0x00, 0x00, 0x00, 0x00, 0x00, 0x00, 
.................... 0x00, 0x00, 0x00, 0x00, 0x00, 0x00, 0x00, 0x00, 0x00, 0x00, 0x00, 0x00, 0x00, 0x00, 0x00, 0x00, 
.................... 0x00, 0x00, 0x00, 0x00, 0x00, 0x00, 0x00, 0x00, 0x00, 0x00, 0x00, 0x00, 0x00, 0x00, 0x00, 0x00, 
.................... 0x00, 0x00, 0x00, 0x00, 0x00, 0x00, 0x00, 0x00, 0x00, 0x00, 0x00, 0x00, 0x00, 0x00, 0x00, 0x00, 
.................... 0x00, 0x00, 0x00, 0x00, 0x00, 0x00, 0x00, 0x00, 0x00, 0x00, 0x00, 0x00, 0x00, 0x00, 0x00, 0x00, 
.................... 0x00, 0x00, 0x00, 0x00, 0x00, 0x00, 0x00, 0x00, 0x00, 0x00, 0x00, 0x00, 0x00, 0x00, 0x00, 0x00, 
.................... 0x00, 0x00, 0x00, 0x00, 0x00, 0x00, 0x00, 0x00, 0x00, 0x00, 0x00, 0x00, 0x00, 0x00, 0x00, 0x00, 
.................... 0x00, 0x00, 0x00, 0x00, 0x00, 0x00, 0x00, 0x00, 0x00, 0x00, 0x00, 0x00, 0x00, 0x00, 0x00, 0x00, 
.................... 0x00, 0x00, 0x00, 0x00, 0x00, 0x00, 0x00, 0x00, 0x00, 0x00, 0x00, 0x00, 0x00, 0x00, 0x00, 0x00, 
.................... 0x00, 0x00, 0x00, 0x00, 0x00, 0x00, 0x00, 0x00, 0x00, 0x00, 0x00, 0x00, 0x00, 0x00, 0x00, 0x00, 
.................... 0x00, 0x00, 0x00, 0x00, 0x00, 0x00, 0x00, 0x00, 0x00, 0x00, 0x00, 0x00, 0x00, 0x00, 0x00, 0x00, 
.................... 0x00, 0x00, 0x00, 0x00, 0x00, 0x00, 0x00, 0x00, 0x00, 0x00, 0x00, 0x00, 0x00, 0x00, 0x00, 0x00, 
.................... 0x00, 0x00, 0x00, 0x00, 0x00, 0x00, 0x00, 0x00, 0x00, 0x00, 0x00, 0x00, 0x00, 0x00, 0x00, 0x00, 
.................... 0x00, 0x00, 0x00, 0x00, 0x00, 0x00, 0x00, 0x00, 0x00, 0x00, 0x00, 0x00, 0x00, 0x00, 0x00, 0x00, 
.................... 0x00, 0x00, 0x00, 0x00, 0x00, 0x00, 0x00, 0x00, 0x00, 0x00, 0x00, 0x00, 0x00, 0x00, 0x00, 0x00, 
.................... 0x00, 0x00, 0x00, 0x00, 0x00, 0x00, 0x00, 0x00, 0x00, 0x00, 0x00, 0x00, 0x00, 0x00, 0x00, 0x00, 
.................... 0x00, 0x00, 0x00, 0x00, 0x00, 0x00, 0x00, 0x00, 0x00, 0x00, 0x00, 0x00, 0x00, 0x00, 0x00, 0x00, 
.................... 0x00, 0x00, 0x00, 0x00, 0x00, 0x00, 0x00, 0x00, 0x00, 0x00, 0x00, 0x00, 0x00, 0x00, 0x00, 0x00, 
.................... 0x00, 0x00, 0x00, 0x00, 0x00, 0x00, 0x00, 0x00, 0x00, 0x00, 0x00, 0x00, 0x00, 0x00, 0x00, 0x00, 
.................... 0x00, 0x00, 0x00, 0x00, 0x00, 0x00, 0x00, 0x00, 0x00, 0x00, 0x00, 0x00, 0x00, 0x00, 0x00, 0x00, 
.................... 0x00, 0x00, 0x00, 0x00, 0x00, 0x00, 0x00, 0x00, 0x00, 0x00, 0x00, 0x00, 0x00, 0x00, 0x00, 0x00, 
.................... 0x00, 0x00, 0x00, 0x00, 0x00, 0x00, 0x00, 0x00, 0x00, 0x00, 0x00, 0x00, 0x00, 0x00, 0x00, 0x00, 
.................... 0x00, 0x00, 0x00, 0x00, 0x00, 0x00, 0x00, 0x00, 0x00, 0x00, 0x00, 0x00, 0x00, 0x00, 0x00, 0x00, 
.................... 0x00, 0x00, 0x00, 0x00, 0x00, 0x00, 0x00, 0x00, 0x00, 0x00, 0x00, 0x00, 0x00, 0x00, 0x00, 0x00, 
.................... 0x00, 0x00, 0x00, 0x00, 0x00, 0x00, 0x00, 0x00, 0x00, 0x00, 0x00, 0x00, 0x00, 0x00, 0x00, 0x00, 
.................... 0x00, 0x00, 0x00, 0x00, 0x00, 0x00, 0x00, 0x00, 0x00, 0x00, 0x00, 0x00, 0x00, 0x00, 0x00, 0x00, 
.................... 0x00, 0x00, 0x00, 0x00, 0x00, 0x00, 0x00, 0x00, 0x00, 0x00, 0x00, 0x00, 0x00, 0x00, 0x00, 0x00, 
.................... 0x00, 0x00, 0x00, 0x00, 0x00, 0x00, 0x00, 0x00, 0x00, 0x00, 0x00, 0x00, 0x00, 0x00, 0x00, 0x00, 
.................... 0x00, 0x00, 0x00, 0x00, 0x00, 0x00, 0x00, 0x00, 0x00, 0x00, 0x00, 0x00, 0x00, 0x00, 0x00, 0x00, 
.................... 0x00, 0x00, 0x00, 0x00, 0x00, 0x00, 0x00, 0x00, 0x00, 0x00, 0x00, 0x00, 0x00, 0x00, 0x00, 0x00, 
.................... 0x00, 0x00, 0x00, 0x00, 0x00, 0x00, 0x00, 0x00, 0x00, 0x00, 0x00, 0x00, 0x00, 0x00, 0x60, 0x00, 
.................... 0x00, 0x00, 0x00, 0x00, 0x00, 0x00, 0x00, 0x00, 0x00, 0x00, 0x00, 0x00, 0x00, 0x00, 0xF0, 0x00, 
.................... 0x00, 0x00, 0x00, 0x00, 0x00, 0x00, 0x00, 0x00, 0x00, 0x00, 0x00, 0x00, 0x00, 0x01, 0xF8, 0x00, 
.................... 0x00, 0x00, 0x00, 0x00, 0x00, 0x00, 0x00, 0x00, 0x00, 0x00, 0x00, 0x00, 0x00, 0x01, 0xF8, 0x00, 
.................... 0x00, 0x00, 0x00, 0x00, 0x00, 0x00, 0x00, 0x00, 0x00, 0x00, 0x00, 0x00, 0x00, 0x01, 0xF8, 0x00, 
.................... 0x00, 0x00, 0x00, 0x00, 0x00, 0x00, 0x00, 0x00, 0x00, 0x00, 0x00, 0x00, 0x00, 0x00, 0xF0, 0x00, 
.................... 0x00, 0x00, 0x00, 0x00, 0x00, 0x00, 0x00, 0x00, 0x00, 0x00, 0x00, 0x00, 0x00, 0x38, 0x71, 0xC0, 
.................... 0x00, 0x00, 0x00, 0x00, 0x00, 0x00, 0x00, 0x00, 0x00, 0x00, 0x00, 0x00, 0x00, 0x7C, 0x93, 0xE0, 
.................... 0x00, 0x00, 0x00, 0x00, 0x00, 0x00, 0x00, 0x00, 0x00, 0x00, 0x00, 0x00, 0x00, 0xFF, 0x0F, 0xF0, 
.................... 0x00, 0x00, 0x00, 0x00, 0x00, 0x00, 0x00, 0x00, 0x00, 0x00, 0x00, 0x00, 0x00, 0xFF, 0x0F, 0xF0, 
.................... 0x00, 0x00, 0x00, 0x00, 0x00, 0x00, 0x00, 0x00, 0x00, 0x00, 0x00, 0x00, 0x00, 0x7D, 0x93, 0xE0, 
.................... 0x00, 0x00, 0x00, 0x00, 0x00, 0x00, 0x00, 0x00, 0x00, 0x00, 0x00, 0x00, 0x00, 0x38, 0x61, 0xC0, 
.................... 0x00, 0x00, 0x00, 0x00, 0x00, 0x00, 0x00, 0x00, 0x00, 0x00, 0x00, 0x00, 0x00, 0x00, 0xF0, 0x00, 
.................... 0x00, 0x00, 0x00, 0x00, 0x00, 0x00, 0x00, 0x00, 0x00, 0x00, 0x00, 0x00, 0x00, 0x01, 0xF8, 0x00, 
.................... 0x00, 0x00, 0x00, 0x00, 0x00, 0x00, 0x00, 0x00, 0x00, 0x00, 0x00, 0x00, 0x00, 0x01, 0xF8, 0x00, 
.................... 0x00, 0x00, 0x00, 0x00, 0x00, 0x00, 0x00, 0x00, 0x00, 0x00, 0x00, 0x00, 0x00, 0x01, 0xF8, 0x00, 
.................... 0x00, 0x00, 0x00, 0x00, 0x00, 0x00, 0x00, 0x00, 0x00, 0x00, 0x00, 0x00, 0x00, 0x00, 0xF0, 0x00, 
.................... 0x00, 0x00, 0x00, 0x00, 0x00, 0x00, 0x00, 0x00, 0x00, 0x00, 0x00, 0x00, 0x00, 0x00, 0x60, 0x00 
.................... }; 
....................  
....................  
.................... #define   UP               !input(PIN_A4) 
.................... #define   DOWN             !input(PIN_A5) 
.................... #define   RIGHT            !input(PIN_E0) 
.................... #define   LEFT             !input(PIN_E1) 
.................... #define   VIDRIOUP         input(PIN_A3) 
.................... #define   VIDRIODN         input(PIN_A2) 
....................  
.................... #define   Display_on          output_bit(PIN_B1,1) 
.................... #define   Display_off         output_bit(PIN_B1,0) 
.................... #define   Toma_on             output_bit(PIN_C0,0) 
.................... #define   Toma_off            output_bit(PIN_C0,1) 
.................... #define   Alarma_on           output_bit(PIN_C1,1) 
.................... #define   Alarma_off          output_bit(PIN_C1,0) 
.................... #define   LuzBlanca_on        output_bit(PIN_C2,0) 
.................... #define   LuzBlanca_off       output_bit(PIN_C2,1) 
.................... #define   LuzUV_on            output_bit(PIN_C3,0) 
.................... #define   LuzUV_off           output_bit(PIN_C3,1) 
....................  
.................... #define   Motor1L_on          output_bit(PIN_C4,1) 
.................... #define   Motor1L_off         output_bit(PIN_C4,0) 
.................... #define   Motor1H_on          output_bit(PIN_C5,1) 
.................... #define   Motor1H_off         output_bit(PIN_C5,0) 
....................  
.................... #define   Motor2L_on          output_bit(PIN_C6,1) 
.................... #define   Motor2L_off         output_bit(PIN_C6,0) 
.................... #define   Motor2H_on          output_bit(PIN_C7,1) 
.................... #define   Motor2H_off         output_bit(PIN_C7,0) 
....................  
.................... #define   ExFlow       0 
.................... #define   PresDownFlow 1 
....................  
....................  
.................... //**Variables----------------------------------------------// 
.................... int16 tiempos=0; 
.................... int8 i=0; 
.................... short Flanco=0,Flanco1=0,Flanco2=0,Flanco3=0,Flanco4=0,Flanco5=0,Flanco6=0,imprimir=0,flag_uv=0,flag_blower=0,flag_toma=0,flag_luz=0,flag_alarma=0,w=0; 
.................... short tiempo_purga=0,tiempo_uv=0,tiempo_trabajo=0,tiempo_postpurga=0,Latencia=0,flag_latencia=0; 
.................... short guardauv=0,guardatrabajo=0,Lectura=0,n=0,flag_alarma2=0; 
.................... char  JP[] = "JP Inglobal", Cabina[] = "Cabina Bioseguridad",tiempo_est[]="T est=", Dos_puntos[]=":"; 
.................... char  Clase[] = "Clase A2", Tiempo[] = "Tiempo de Purga", UV[]="UV"; 
.................... char  Baje_Vidrio[] = "!!Ubique Vidrio!!",Inflowt[] = "Exflow(m/s):",Downflowt[] = "Dnflow(m/s):", ZF[] = "Fabrica:207.0", ZA[] = "Actual:",AJ[]="Ajuste:"; 
.................... char  Vida_UV[] = "UVLife:",Vida_Filtro[] = "Filter:",ZFP[] = "Fabrica:235.0", Perdida[]="!Flujo Bajo!"; 
.................... char Ahorro[] = "Modo ECO"; 
.................... int8 Menu=200, unidad=1, Opcion=1,inicie=0,negativo=10,G_l=0,G_h=0,tiemporeset=0,minutos_uv=0,Pinicial=0,Pfinal=0; 
.................... int8 q=0,r=0,l=0,h=0,Entero=0,Decimal1=0,LuzUV=10,Motor=10,Alarma=10,Alarma2=10,UV2=0,e=0,m=0,VelMotor=0; 
.................... unsigned int16 Inflow_adc=0,Filtro_Downflow_adc=0,Temporal1=0; 
.................... int16 t_latencia=0,segundos_uv=0,minutos_trabajo=0,G16=0; 
.................... signed int  Tpurga[4]={0,0,0,0};       // Tiempo de Purga transcurrido 
.................... signed int  Tpurgap[4]={9,0,0,0};      // Tiempo de Purga programado 
.................... signed int  Tppurga[4]={0,0,0,0};      // Tiempo de Post-Purga transcurrido 
.................... signed int  Tppurgap[4]={9,0,0,0};     // Tiempo de Post-Purga programado 
.................... signed int  Tuv[4]={0,0,0,0};          // Tiempo de UV transcurrido(en Horas) 
.................... signed int  Tempouv[4]={0,0,0,0};         // Tiempo de UV transcurrido 
.................... signed int  Tempouvp[4]={0,0,0,0};        // Tiempo de UV transcurrido 
.................... signed int  Ttrabajo[4]={0,0,0,0};        // Tiempo de trabajo transcurrido (en Horas) 
.................... signed int  Contrasena[4]={0,0,0,0};      // Contrasena de 4 digitos 
.................... signed int  Password[4]={0,0,0,0};        // Contrasena Almacenada de 4 digitos 
.................... float Inflow=0.0,Downflow=0.0,Filtro_Downflow=0.0,Diferencia=0.0,barra=0.0,barra_old=0.0,barra2=0.0,barra_old2=0.0; 
.................... float Velocidad=0.0,x_uno=0.0,x_cuadrado=0.0,x_cubo=0.0,Ajuste1=0.0,Ajuste2=0.0; 
.................... float ADC=0,Temporal=0.0,Temporal2=0.0,Pini=0.0,Pfin=0.0; 
.................... float a=0.0000001418633343546420,b=-0.00009476749001431169,c= 0.040182822903506,d= -5.354852229527197;//Sensor 2 Posible bueno 
.................... //float a=-0.000021424,b=0.013616,c=-2.8520,d=196.96;//Ecuacion con Hilo Caliente Patron 
.................... float promedio[8]={0.0,0.0,0.0,0.0,0.0,0.0,0.0,0.0}; 
.................... float PromPresion[8]={0.0,0.0,0.0,0.0,0.0,0.0,0.0,0.0}; 
.................... float Flujo=0.0,zero_fabrica=203.0,zero_actual=0.0; 
.................... float V1=0.0,Presion=0.0,G=2.0,UVTime=0.0,Relacion=0.57; 
.................... int16 Vector[40]; 
.................... //**---------------------------------------------------------// 
.................... #include "Funciones.h" 
.................... typedef struct{ 
....................    char Letra[20]; 
.................... }MENUU; 
....................  
.................... MENUU Menus; 
....................  
.................... // Funcion para conversor analogo-digital 
.................... unsigned int16 sensores(int x){ 
.................... unsigned int16 y;set_adc_channel(x);delay_ms(1);y=read_adc();return (y); 
*
0309E:  MOVLB  6
030A0:  RLCF   x57,W
030A2:  MOVWF  00
030A4:  RLCF   00,F
030A6:  MOVLW  FC
030A8:  ANDWF  00,F
030AA:  MOVFF  00,01
030AE:  MOVF   FC2,W
030B0:  ANDLW  C3
030B2:  IORWF  00,W
030B4:  MOVWF  FC2
030B6:  MOVLW  01
030B8:  MOVWF  x5B
030BA:  MOVLB  0
030BC:  CALL   16D4
030C0:  BSF    FC2.1
030C2:  BTFSC  FC2.1
030C4:  BRA    30C2
030C6:  MOVFF  FC4,659
030CA:  MOVLB  6
030CC:  MOVFF  FC3,658
030D0:  MOVFF  658,01
030D4:  MOVFF  659,02
.................... } 
030D8:  MOVLB  0
030DA:  RETLW  00
....................  
.................... void glcd_imagen(int8 x) 
.................... { 
....................    char i,j; 
....................    signed char k;  
....................       
....................    if(x==3){ 
*
0486A:  MOVLB  6
0486C:  MOVF   x52,W
0486E:  SUBLW  03
04870:  BNZ   4914
....................    for( i = 0 ; i < 64 ; i ++ ) 
04872:  CLRF   x53
04874:  MOVF   x53,W
04876:  SUBLW  3F
04878:  BNC   4914
....................    {  for( j = 0 ; j < 16 ; j ++) 
0487A:  CLRF   x54
0487C:  MOVF   x54,W
0487E:  SUBLW  0F
04880:  BNC   4910
....................       {  for(k=7;k>-1;k--) 
04882:  MOVLW  07
04884:  MOVWF  x55
04886:  MOVF   x55,W
04888:  XORLW  80
0488A:  SUBLW  7F
0488C:  BC    490C
....................          {       
....................             if( bit_test(Bombillo[i][j] ,7-k ))  
0488E:  CLRF   x57
04890:  MOVFF  653,656
04894:  CLRF   x59
04896:  MOVLW  10
04898:  MOVWF  x58
0489A:  MOVLB  0
0489C:  RCALL  4848
0489E:  MOVFF  02,657
048A2:  MOVFF  01,656
048A6:  MOVLB  6
048A8:  MOVF   x54,W
048AA:  ADDWF  01,W
048AC:  MOVWF  01
048AE:  MOVLW  00
048B0:  ADDWFC 02,W
048B2:  MOVWF  03
048B4:  MOVF   01,W
048B6:  MOVFF  FF2,656
048BA:  BCF    FF2.7
048BC:  MOVFF  03,FF7
048C0:  MOVLB  0
048C2:  CALL   02B6
048C6:  MOVLB  6
048C8:  BTFSC  x56.7
048CA:  BSF    FF2.7
048CC:  MOVWF  x56
048CE:  MOVLW  07
048D0:  BSF    FD8.0
048D2:  SUBFWB x55,W
048D4:  MOVWF  x57
048D6:  MOVFF  656,00
048DA:  MOVF   x57,W
048DC:  MOVWF  01
048DE:  BZ    48E8
048E0:  BCF    FD8.0
048E2:  RRCF   00,F
048E4:  DECFSZ 01,F
048E6:  BRA    48E0
048E8:  BTFSS  00.0
048EA:  BRA    4908
....................                glcd_pixel( j*8+k,i, ON ); 
048EC:  MOVF   x54,W
048EE:  MULLW  08
048F0:  MOVF   FF3,W
048F2:  ADDWF  x55,W
048F4:  MOVWF  x56
048F6:  MOVWF  x86
048F8:  MOVFF  653,687
048FC:  MOVLW  01
048FE:  MOVWF  x88
04900:  MOVLB  0
04902:  CALL   38D8
04906:  MOVLB  6
....................          }   
04908:  DECF   x55,F
0490A:  BRA    4886
....................       } 
0490C:  INCF   x54,F
0490E:  BRA    487C
....................    } 
04910:  INCF   x53,F
04912:  BRA    4874
....................    } 
....................     
....................    if(x==4){ 
04914:  MOVF   x52,W
04916:  SUBLW  04
04918:  BNZ   49BC
....................    for( i = 0 ; i < 64 ; i ++ ) 
0491A:  CLRF   x53
0491C:  MOVF   x53,W
0491E:  SUBLW  3F
04920:  BNC   49BC
....................    {  for( j = 0 ; j < 16 ; j ++) 
04922:  CLRF   x54
04924:  MOVF   x54,W
04926:  SUBLW  0F
04928:  BNC   49B8
....................       {  for(k=7;k>-1;k--) 
0492A:  MOVLW  07
0492C:  MOVWF  x55
0492E:  MOVF   x55,W
04930:  XORLW  80
04932:  SUBLW  7F
04934:  BC    49B4
....................          {       
....................             if( bit_test(Tomai[i][j] ,7-k ))  
04936:  CLRF   x57
04938:  MOVFF  653,656
0493C:  CLRF   x59
0493E:  MOVLW  10
04940:  MOVWF  x58
04942:  MOVLB  0
04944:  RCALL  4848
04946:  MOVFF  02,657
0494A:  MOVFF  01,656
0494E:  MOVLB  6
04950:  MOVF   x54,W
04952:  ADDWF  01,W
04954:  MOVWF  01
04956:  MOVLW  00
04958:  ADDWFC 02,W
0495A:  MOVWF  03
0495C:  MOVF   01,W
0495E:  MOVFF  FF2,656
04962:  BCF    FF2.7
04964:  MOVFF  03,FF7
04968:  MOVLB  0
0496A:  CALL   06D2
0496E:  MOVLB  6
04970:  BTFSC  x56.7
04972:  BSF    FF2.7
04974:  MOVWF  x56
04976:  MOVLW  07
04978:  BSF    FD8.0
0497A:  SUBFWB x55,W
0497C:  MOVWF  x57
0497E:  MOVFF  656,00
04982:  MOVF   x57,W
04984:  MOVWF  01
04986:  BZ    4990
04988:  BCF    FD8.0
0498A:  RRCF   00,F
0498C:  DECFSZ 01,F
0498E:  BRA    4988
04990:  BTFSS  00.0
04992:  BRA    49B0
....................                glcd_pixel( j*8+k,i, ON ); 
04994:  MOVF   x54,W
04996:  MULLW  08
04998:  MOVF   FF3,W
0499A:  ADDWF  x55,W
0499C:  MOVWF  x56
0499E:  MOVWF  x86
049A0:  MOVFF  653,687
049A4:  MOVLW  01
049A6:  MOVWF  x88
049A8:  MOVLB  0
049AA:  CALL   38D8
049AE:  MOVLB  6
....................          }   
049B0:  DECF   x55,F
049B2:  BRA    492E
....................       } 
049B4:  INCF   x54,F
049B6:  BRA    4924
....................    } 
049B8:  INCF   x53,F
049BA:  BRA    491C
....................    } 
....................     
....................    if(x==5){ 
049BC:  MOVF   x52,W
049BE:  SUBLW  05
049C0:  BNZ   4A64
....................    for( i = 0 ; i < 64 ; i ++ ) 
049C2:  CLRF   x53
049C4:  MOVF   x53,W
049C6:  SUBLW  3F
049C8:  BNC   4A64
....................    {  for( j = 0 ; j < 16 ; j ++) 
049CA:  CLRF   x54
049CC:  MOVF   x54,W
049CE:  SUBLW  0F
049D0:  BNC   4A60
....................       {  for(k=7;k>-1;k--) 
049D2:  MOVLW  07
049D4:  MOVWF  x55
049D6:  MOVF   x55,W
049D8:  XORLW  80
049DA:  SUBLW  7F
049DC:  BC    4A5C
....................          {       
....................             if( bit_test(Ventilador[i][j] ,7-k ))  
049DE:  CLRF   x57
049E0:  MOVFF  653,656
049E4:  CLRF   x59
049E6:  MOVLW  10
049E8:  MOVWF  x58
049EA:  MOVLB  0
049EC:  RCALL  4848
049EE:  MOVFF  02,657
049F2:  MOVFF  01,656
049F6:  MOVLB  6
049F8:  MOVF   x54,W
049FA:  ADDWF  01,W
049FC:  MOVWF  01
049FE:  MOVLW  00
04A00:  ADDWFC 02,W
04A02:  MOVWF  03
04A04:  MOVF   01,W
04A06:  MOVFF  FF2,656
04A0A:  BCF    FF2.7
04A0C:  MOVFF  03,FF7
04A10:  MOVLB  0
04A12:  CALL   0AEE
04A16:  MOVLB  6
04A18:  BTFSC  x56.7
04A1A:  BSF    FF2.7
04A1C:  MOVWF  x56
04A1E:  MOVLW  07
04A20:  BSF    FD8.0
04A22:  SUBFWB x55,W
04A24:  MOVWF  x57
04A26:  MOVFF  656,00
04A2A:  MOVF   x57,W
04A2C:  MOVWF  01
04A2E:  BZ    4A38
04A30:  BCF    FD8.0
04A32:  RRCF   00,F
04A34:  DECFSZ 01,F
04A36:  BRA    4A30
04A38:  BTFSS  00.0
04A3A:  BRA    4A58
....................                glcd_pixel( j*8+k,i, ON ); 
04A3C:  MOVF   x54,W
04A3E:  MULLW  08
04A40:  MOVF   FF3,W
04A42:  ADDWF  x55,W
04A44:  MOVWF  x56
04A46:  MOVWF  x86
04A48:  MOVFF  653,687
04A4C:  MOVLW  01
04A4E:  MOVWF  x88
04A50:  MOVLB  0
04A52:  CALL   38D8
04A56:  MOVLB  6
....................          }   
04A58:  DECF   x55,F
04A5A:  BRA    49D6
....................       } 
04A5C:  INCF   x54,F
04A5E:  BRA    49CC
....................    } 
04A60:  INCF   x53,F
04A62:  BRA    49C4
....................    } 
.................... } 
04A64:  MOVLB  0
04A66:  RETLW  00
....................  
....................  
.................... void mensajes(int8 x,y){// Funcion para imprimir mensajes de Menu Principal. 
....................   if(x==1) 
....................    {glcd_text57(7, y, tiempo_est, 1, ON);} 
.................... } 
....................   
.................... void displayContrasena(int digito, int x, int y, int sombreado) 
.................... { 
....................    char voltage[9]; 
....................    sprintf(voltage, "%i", digito); 
*
03D4C:  MOVLW  06
03D4E:  MOVLB  6
03D50:  MOVWF  x51
03D52:  MOVLW  60
03D54:  MOVWF  x50
03D56:  MOVFF  65C,669
03D5A:  MOVLW  1F
03D5C:  MOVWF  x6A
03D5E:  MOVLB  0
03D60:  RCALL  37FA
....................     
....................    if(sombreado==1) 
03D62:  MOVLB  6
03D64:  DECFSZ x5F,W
03D66:  BRA    3DB6
....................       {glcd_rect(x, y, x+18, y+24, YES, ON);glcd_text57(x+2, y+1, voltage, 2, OFF);} 
03D68:  MOVLW  12
03D6A:  ADDWF  x5D,W
03D6C:  MOVWF  x69
03D6E:  MOVLW  18
03D70:  ADDWF  x5E,W
03D72:  MOVWF  x6A
03D74:  MOVFF  65D,66B
03D78:  MOVFF  65E,66C
03D7C:  MOVFF  669,66D
03D80:  MOVWF  x6E
03D82:  MOVLW  01
03D84:  MOVWF  x6F
03D86:  MOVWF  x70
03D88:  MOVLB  0
03D8A:  RCALL  3AD2
03D8C:  MOVLW  02
03D8E:  MOVLB  6
03D90:  ADDWF  x5D,W
03D92:  MOVWF  x69
03D94:  MOVLW  01
03D96:  ADDWF  x5E,W
03D98:  MOVWF  x6A
03D9A:  MOVFF  669,66B
03D9E:  MOVWF  x6C
03DA0:  MOVLW  06
03DA2:  MOVWF  x6E
03DA4:  MOVLW  60
03DA6:  MOVWF  x6D
03DA8:  MOVLW  02
03DAA:  MOVWF  x6F
03DAC:  CLRF   x70
03DAE:  MOVLB  0
03DB0:  RCALL  3B94
....................    else    
03DB2:  BRA    3E00
03DB4:  MOVLB  6
....................       {glcd_rect(x, y, x+18, y+24, NO, OFF);glcd_text57(x+2, y+1, voltage, 2, ON);} 
03DB6:  MOVLW  12
03DB8:  ADDWF  x5D,W
03DBA:  MOVWF  x69
03DBC:  MOVLW  18
03DBE:  ADDWF  x5E,W
03DC0:  MOVWF  x6A
03DC2:  MOVFF  65D,66B
03DC6:  MOVFF  65E,66C
03DCA:  MOVFF  669,66D
03DCE:  MOVWF  x6E
03DD0:  CLRF   x6F
03DD2:  CLRF   x70
03DD4:  MOVLB  0
03DD6:  RCALL  3AD2
03DD8:  MOVLW  02
03DDA:  MOVLB  6
03DDC:  ADDWF  x5D,W
03DDE:  MOVWF  x69
03DE0:  MOVLW  01
03DE2:  ADDWF  x5E,W
03DE4:  MOVWF  x6A
03DE6:  MOVFF  669,66B
03DEA:  MOVWF  x6C
03DEC:  MOVLW  06
03DEE:  MOVWF  x6E
03DF0:  MOVLW  60
03DF2:  MOVWF  x6D
03DF4:  MOVLW  02
03DF6:  MOVWF  x6F
03DF8:  MOVLW  01
03DFA:  MOVWF  x70
03DFC:  MOVLB  0
03DFE:  RCALL  3B94
....................  
.................... } 
03E00:  RETLW  00
....................  
.................... void displayTiempo(int digito, int x, int y, int sombreado, int tamano) 
.................... { 
....................    char voltage[9]; 
....................    sprintf(voltage, "%i", digito); 
*
0467A:  MOVLW  06
0467C:  MOVLB  6
0467E:  MOVWF  x51
04680:  MOVLW  57
04682:  MOVWF  x50
04684:  MOVFF  652,669
04688:  MOVLW  1F
0468A:  MOVWF  x6A
0468C:  MOVLB  0
0468E:  CALL   37FA
....................     
....................    if(sombreado==1) 
04692:  MOVLB  6
04694:  DECFSZ x55,W
04696:  BRA    46F0
....................       {glcd_rect(x, y, x+(tamano*6), y+(tamano*8), YES, ON);glcd_text57(x+2, y+1, voltage, tamano, OFF);} 
04698:  MOVF   x56,W
0469A:  MULLW  06
0469C:  MOVF   FF3,W
0469E:  ADDWF  x53,W
046A0:  MOVWF  x60
046A2:  MOVF   x56,W
046A4:  MULLW  08
046A6:  MOVF   FF3,W
046A8:  ADDWF  x54,W
046AA:  MOVWF  x61
046AC:  MOVFF  653,66B
046B0:  MOVFF  654,66C
046B4:  MOVFF  660,66D
046B8:  MOVWF  x6E
046BA:  MOVLW  01
046BC:  MOVWF  x6F
046BE:  MOVWF  x70
046C0:  MOVLB  0
046C2:  CALL   3AD2
046C6:  MOVLW  02
046C8:  MOVLB  6
046CA:  ADDWF  x53,W
046CC:  MOVWF  x60
046CE:  MOVLW  01
046D0:  ADDWF  x54,W
046D2:  MOVWF  x61
046D4:  MOVFF  660,66B
046D8:  MOVWF  x6C
046DA:  MOVLW  06
046DC:  MOVWF  x6E
046DE:  MOVLW  57
046E0:  MOVWF  x6D
046E2:  MOVFF  656,66F
046E6:  CLRF   x70
046E8:  MOVLB  0
046EA:  CALL   3B94
046EE:  MOVLB  6
....................    if(sombreado==0) 
046F0:  MOVF   x55,F
046F2:  BNZ   474E
....................       {glcd_rect(x, y, x+(tamano*6), y+(tamano*8), YES, OFF);glcd_text57(x+2, y+1, voltage, tamano, ON);} 
046F4:  MOVF   x56,W
046F6:  MULLW  06
046F8:  MOVF   FF3,W
046FA:  ADDWF  x53,W
046FC:  MOVWF  x60
046FE:  MOVF   x56,W
04700:  MULLW  08
04702:  MOVF   FF3,W
04704:  ADDWF  x54,W
04706:  MOVWF  x61
04708:  MOVFF  653,66B
0470C:  MOVFF  654,66C
04710:  MOVFF  660,66D
04714:  MOVWF  x6E
04716:  MOVLW  01
04718:  MOVWF  x6F
0471A:  CLRF   x70
0471C:  MOVLB  0
0471E:  CALL   3AD2
04722:  MOVLW  02
04724:  MOVLB  6
04726:  ADDWF  x53,W
04728:  MOVWF  x60
0472A:  MOVLW  01
0472C:  ADDWF  x54,W
0472E:  MOVWF  x61
04730:  MOVFF  660,66B
04734:  MOVWF  x6C
04736:  MOVLW  06
04738:  MOVWF  x6E
0473A:  MOVLW  57
0473C:  MOVWF  x6D
0473E:  MOVFF  656,66F
04742:  MOVLW  01
04744:  MOVWF  x70
04746:  MOVLB  0
04748:  CALL   3B94
0474C:  MOVLB  6
....................  
.................... } 
0474E:  MOVLB  0
04750:  RETLW  00
....................  
.................... void displayMenu(char palabra[100], int x, int y, int sombreado, int tamano) 
.................... { 
....................    strcpy(Menus.Letra,palabra); 
*
03E02:  MOVLB  6
03E04:  MOVFF  65A,01
03E08:  MOVFF  65B,03
03E0C:  MOVFF  65A,660
03E10:  MOVFF  65B,661
03E14:  MOVLW  06
03E16:  MOVWF  FEA
03E18:  MOVLW  3C
03E1A:  MOVWF  FE9
03E1C:  MOVFF  65B,FE2
03E20:  MOVFF  65A,FE1
03E24:  MOVF   FE7,F
03E26:  MOVFF  FE6,FEE
03E2A:  BNZ   3E24
....................    if(sombreado==1) 
03E2C:  DECFSZ x5E,W
03E2E:  BRA    3E7A
....................       {glcd_rect(0, y, 127, y+(tamano*8), YES, ON);glcd_text57(x+1, y+1, Menus.Letra, tamano, OFF);} 
03E30:  MOVF   x5F,W
03E32:  MULLW  08
03E34:  MOVF   FF3,W
03E36:  ADDWF  x5D,W
03E38:  MOVWF  x60
03E3A:  CLRF   x6B
03E3C:  MOVFF  65D,66C
03E40:  MOVLW  7F
03E42:  MOVWF  x6D
03E44:  MOVFF  660,66E
03E48:  MOVLW  01
03E4A:  MOVWF  x6F
03E4C:  MOVWF  x70
03E4E:  MOVLB  0
03E50:  RCALL  3AD2
03E52:  MOVLW  01
03E54:  MOVLB  6
03E56:  ADDWF  x5C,W
03E58:  MOVWF  x60
03E5A:  MOVLW  01
03E5C:  ADDWF  x5D,W
03E5E:  MOVWF  x61
03E60:  MOVFF  660,66B
03E64:  MOVWF  x6C
03E66:  MOVLW  06
03E68:  MOVWF  x6E
03E6A:  MOVLW  3C
03E6C:  MOVWF  x6D
03E6E:  MOVFF  65F,66F
03E72:  CLRF   x70
03E74:  MOVLB  0
03E76:  RCALL  3B94
03E78:  MOVLB  6
....................    if(sombreado==0) 
03E7A:  MOVF   x5E,F
03E7C:  BNZ   3ECA
....................       {glcd_rect(0, y, 127, y+(tamano*8), YES, OFF);glcd_text57(x+1, y+1, Menus.Letra, tamano, ON);} 
03E7E:  MOVF   x5F,W
03E80:  MULLW  08
03E82:  MOVF   FF3,W
03E84:  ADDWF  x5D,W
03E86:  MOVWF  x60
03E88:  CLRF   x6B
03E8A:  MOVFF  65D,66C
03E8E:  MOVLW  7F
03E90:  MOVWF  x6D
03E92:  MOVFF  660,66E
03E96:  MOVLW  01
03E98:  MOVWF  x6F
03E9A:  CLRF   x70
03E9C:  MOVLB  0
03E9E:  RCALL  3AD2
03EA0:  MOVLW  01
03EA2:  MOVLB  6
03EA4:  ADDWF  x5C,W
03EA6:  MOVWF  x60
03EA8:  MOVLW  01
03EAA:  ADDWF  x5D,W
03EAC:  MOVWF  x61
03EAE:  MOVFF  660,66B
03EB2:  MOVWF  x6C
03EB4:  MOVLW  06
03EB6:  MOVWF  x6E
03EB8:  MOVLW  3C
03EBA:  MOVWF  x6D
03EBC:  MOVFF  65F,66F
03EC0:  MOVLW  01
03EC2:  MOVWF  x70
03EC4:  MOVLB  0
03EC6:  RCALL  3B94
03EC8:  MOVLB  6
....................  
.................... } 
03ECA:  MOVLB  0
03ECC:  RETLW  00
....................  
.................... void displayfloat(float adc,int x,int y,int sombreado, int tamano) { 
....................    char voltage[9];     
....................       sprintf(voltage, "%1.2f",adc); // Converts adc to text 
*
04CE2:  MOVLW  06
04CE4:  MOVLB  6
04CE6:  MOVWF  x51
04CE8:  MOVLW  5E
04CEA:  MOVWF  x50
04CEC:  MOVLW  89
04CEE:  MOVWF  FE9
04CF0:  MOVFF  659,66A
04CF4:  MOVFF  658,669
04CF8:  MOVFF  657,668
04CFC:  MOVFF  656,667
04D00:  MOVLW  02
04D02:  MOVWF  x6B
04D04:  MOVLB  0
04D06:  BRA    4B2C
....................        
....................    if(sombreado==1) 
04D08:  MOVLB  6
04D0A:  DECFSZ x5C,W
04D0C:  BRA    4D66
....................       {glcd_rect(x, y, x+(tamano*48), y+(tamano*8), YES, ON);glcd_text57(x+2, y+1, voltage, tamano, OFF);} 
04D0E:  MOVF   x5D,W
04D10:  MULLW  30
04D12:  MOVF   FF3,W
04D14:  ADDWF  x5A,W
04D16:  MOVWF  x67
04D18:  MOVF   x5D,W
04D1A:  MULLW  08
04D1C:  MOVF   FF3,W
04D1E:  ADDWF  x5B,W
04D20:  MOVWF  x68
04D22:  MOVFF  65A,66B
04D26:  MOVFF  65B,66C
04D2A:  MOVFF  667,66D
04D2E:  MOVWF  x6E
04D30:  MOVLW  01
04D32:  MOVWF  x6F
04D34:  MOVWF  x70
04D36:  MOVLB  0
04D38:  CALL   3AD2
04D3C:  MOVLW  02
04D3E:  MOVLB  6
04D40:  ADDWF  x5A,W
04D42:  MOVWF  x67
04D44:  MOVLW  01
04D46:  ADDWF  x5B,W
04D48:  MOVWF  x68
04D4A:  MOVFF  667,66B
04D4E:  MOVWF  x6C
04D50:  MOVLW  06
04D52:  MOVWF  x6E
04D54:  MOVLW  5E
04D56:  MOVWF  x6D
04D58:  MOVFF  65D,66F
04D5C:  CLRF   x70
04D5E:  MOVLB  0
04D60:  CALL   3B94
04D64:  MOVLB  6
....................    if(sombreado==0) 
04D66:  MOVF   x5C,F
04D68:  BNZ   4DC4
....................       {glcd_rect(x, y, x+(tamano*48), y+(tamano*8), YES, OFF);glcd_text57(x+2, y+1, voltage, tamano, ON);} 
04D6A:  MOVF   x5D,W
04D6C:  MULLW  30
04D6E:  MOVF   FF3,W
04D70:  ADDWF  x5A,W
04D72:  MOVWF  x67
04D74:  MOVF   x5D,W
04D76:  MULLW  08
04D78:  MOVF   FF3,W
04D7A:  ADDWF  x5B,W
04D7C:  MOVWF  x68
04D7E:  MOVFF  65A,66B
04D82:  MOVFF  65B,66C
04D86:  MOVFF  667,66D
04D8A:  MOVWF  x6E
04D8C:  MOVLW  01
04D8E:  MOVWF  x6F
04D90:  CLRF   x70
04D92:  MOVLB  0
04D94:  CALL   3AD2
04D98:  MOVLW  02
04D9A:  MOVLB  6
04D9C:  ADDWF  x5A,W
04D9E:  MOVWF  x67
04DA0:  MOVLW  01
04DA2:  ADDWF  x5B,W
04DA4:  MOVWF  x68
04DA6:  MOVFF  667,66B
04DAA:  MOVWF  x6C
04DAC:  MOVLW  06
04DAE:  MOVWF  x6E
04DB0:  MOVLW  5E
04DB2:  MOVWF  x6D
04DB4:  MOVFF  65D,66F
04DB8:  MOVLW  01
04DBA:  MOVWF  x70
04DBC:  MOVLB  0
04DBE:  CALL   3B94
04DC2:  MOVLB  6
....................        
.................... } 
04DC4:  MOVLB  0
04DC6:  RETLW  00
....................  
.................... Float LeerFlujoInFlow(int media) 
.................... { 
....................     InFlow_adc=sensores(ExFlow); 
*
031D2:  MOVLB  6
031D4:  CLRF   x57
031D6:  MOVLB  0
031D8:  RCALL  309E
031DA:  MOVFF  02,4FB
031DE:  MOVFF  01,4FA
....................        
....................     if(negativo==10) 
031E2:  MOVLB  4
031E4:  MOVF   xE5,W
031E6:  SUBLW  0A
031E8:  BNZ   3230
....................     { 
....................       x_uno=Inflow_adc+Diferencia; 
031EA:  MOVFF  4FB,658
031EE:  MOVFF  4FA,657
031F2:  MOVLB  0
031F4:  CALL   16FC
031F8:  BCF    FD8.1
031FA:  MOVFF  03,65E
031FE:  MOVFF  02,65D
03202:  MOVFF  01,65C
03206:  MOVFF  00,65B
0320A:  MOVFF  53F,662
0320E:  MOVFF  53E,661
03212:  MOVFF  53D,660
03216:  MOVFF  53C,65F
0321A:  CALL   1890
0321E:  MOVFF  03,557
03222:  MOVFF  02,556
03226:  MOVFF  01,555
0322A:  MOVFF  00,554
0322E:  MOVLB  4
....................     } 
....................     if(negativo==20) 
03230:  MOVF   xE5,W
03232:  SUBLW  14
03234:  BNZ   327A
....................     { 
....................       x_uno=Inflow_adc-Diferencia; 
03236:  MOVFF  4FB,658
0323A:  MOVFF  4FA,657
0323E:  MOVLB  0
03240:  CALL   16FC
03244:  BSF    FD8.1
03246:  MOVFF  03,65E
0324A:  MOVFF  02,65D
0324E:  MOVFF  01,65C
03252:  MOVFF  00,65B
03256:  MOVFF  53F,662
0325A:  MOVFF  53E,661
0325E:  MOVFF  53D,660
03262:  MOVFF  53C,65F
03266:  CALL   1890
0326A:  MOVFF  03,557
0326E:  MOVFF  02,556
03272:  MOVFF  01,555
03276:  MOVFF  00,554
....................     } 
....................     x_cuadrado=x_uno*x_uno; 
0327A:  MOVFF  557,677
0327E:  MOVFF  556,676
03282:  MOVFF  555,675
03286:  MOVFF  554,674
0328A:  MOVFF  557,67B
0328E:  MOVFF  556,67A
03292:  MOVFF  555,679
03296:  MOVFF  554,678
0329A:  MOVLB  0
0329C:  RCALL  30DC
0329E:  MOVFF  03,55B
032A2:  MOVFF  02,55A
032A6:  MOVFF  01,559
032AA:  MOVFF  00,558
....................     x_cubo=x_uno*x_cuadrado; 
032AE:  MOVFF  557,677
032B2:  MOVFF  556,676
032B6:  MOVFF  555,675
032BA:  MOVFF  554,674
032BE:  MOVFF  55B,67B
032C2:  MOVFF  55A,67A
032C6:  MOVFF  559,679
032CA:  MOVFF  558,678
032CE:  RCALL  30DC
032D0:  MOVFF  03,55F
032D4:  MOVFF  02,55E
032D8:  MOVFF  01,55D
032DC:  MOVFF  00,55C
....................     Velocidad=(x_cubo*a)+(x_cuadrado*b)+(x_uno*c)+d;  
032E0:  MOVFF  55F,677
032E4:  MOVFF  55E,676
032E8:  MOVFF  55D,675
032EC:  MOVFF  55C,674
032F0:  MOVFF  57F,67B
032F4:  MOVFF  57E,67A
032F8:  MOVFF  57D,679
032FC:  MOVFF  57C,678
03300:  RCALL  30DC
03302:  MOVFF  00,653
03306:  MOVFF  01,654
0330A:  MOVFF  02,655
0330E:  MOVFF  03,656
03312:  MOVFF  55B,677
03316:  MOVFF  55A,676
0331A:  MOVFF  559,675
0331E:  MOVFF  558,674
03322:  MOVFF  583,67B
03326:  MOVFF  582,67A
0332A:  MOVFF  581,679
0332E:  MOVFF  580,678
03332:  RCALL  30DC
03334:  BCF    FD8.1
03336:  MOVFF  656,65E
0333A:  MOVFF  655,65D
0333E:  MOVFF  654,65C
03342:  MOVFF  653,65B
03346:  MOVFF  03,662
0334A:  MOVFF  02,661
0334E:  MOVFF  01,660
03352:  MOVFF  00,65F
03356:  CALL   1890
0335A:  MOVFF  00,653
0335E:  MOVFF  01,654
03362:  MOVFF  02,655
03366:  MOVFF  03,656
0336A:  MOVFF  557,677
0336E:  MOVFF  556,676
03372:  MOVFF  555,675
03376:  MOVFF  554,674
0337A:  MOVFF  587,67B
0337E:  MOVFF  586,67A
03382:  MOVFF  585,679
03386:  MOVFF  584,678
0338A:  RCALL  30DC
0338C:  BCF    FD8.1
0338E:  MOVFF  656,65E
03392:  MOVFF  655,65D
03396:  MOVFF  654,65C
0339A:  MOVFF  653,65B
0339E:  MOVFF  03,662
033A2:  MOVFF  02,661
033A6:  MOVFF  01,660
033AA:  MOVFF  00,65F
033AE:  CALL   1890
033B2:  MOVFF  00,653
033B6:  MOVFF  01,654
033BA:  MOVFF  02,655
033BE:  MOVFF  03,656
033C2:  BCF    FD8.1
033C4:  MOVFF  03,65E
033C8:  MOVFF  02,65D
033CC:  MOVFF  01,65C
033D0:  MOVFF  00,65B
033D4:  MOVFF  58B,662
033D8:  MOVFF  58A,661
033DC:  MOVFF  589,660
033E0:  MOVFF  588,65F
033E4:  CALL   1890
033E8:  MOVFF  03,553
033EC:  MOVFF  02,552
033F0:  MOVFF  01,551
033F4:  MOVFF  00,550
....................     //Velocidad=Velocidad*correccion;//Ajuste de Temperatura 
....................     Velocidad=Velocidad-0.08; 
033F8:  BSF    FD8.1
033FA:  MOVFF  553,65E
033FE:  MOVFF  552,65D
03402:  MOVFF  551,65C
03406:  MOVFF  550,65B
0340A:  MOVLW  0A
0340C:  MOVLB  6
0340E:  MOVWF  x62
03410:  MOVLW  D7
03412:  MOVWF  x61
03414:  MOVLW  23
03416:  MOVWF  x60
03418:  MOVLW  7B
0341A:  MOVWF  x5F
0341C:  MOVLB  0
0341E:  CALL   1890
03422:  MOVFF  03,553
03426:  MOVFF  02,552
0342A:  MOVFF  01,551
0342E:  MOVFF  00,550
....................     if(Velocidad<0.0) 
03432:  MOVFF  553,65A
03436:  MOVFF  552,659
0343A:  MOVFF  551,658
0343E:  MOVFF  550,657
03442:  MOVLB  6
03444:  CLRF   x5E
03446:  CLRF   x5D
03448:  CLRF   x5C
0344A:  CLRF   x5B
0344C:  MOVLB  0
0344E:  CALL   23B2
03452:  BNC   345E
....................      {Velocidad=0.0;} 
03454:  MOVLB  5
03456:  CLRF   x53
03458:  CLRF   x52
0345A:  CLRF   x51
0345C:  CLRF   x50
....................       
....................      if(l>=media) 
0345E:  MOVLB  6
03460:  MOVF   x52,W
03462:  MOVLB  4
03464:  SUBWF  xEE,W
03466:  BNC   346A
....................        {l=0;} 
03468:  CLRF   xEE
....................       
....................      promedio[l]=Velocidad;l++; 
0346A:  MOVF   xEE,W
0346C:  MULLW  04
0346E:  MOVF   FF3,W
03470:  CLRF   03
03472:  ADDLW  8C
03474:  MOVWF  FE9
03476:  MOVLW  05
03478:  ADDWFC 03,W
0347A:  MOVWF  FEA
0347C:  MOVFF  550,FEF
03480:  MOVFF  551,FEC
03484:  MOVFF  552,FEC
03488:  MOVFF  553,FEC
0348C:  INCF   xEE,F
....................      Flujo=0; 
0348E:  MOVLB  5
03490:  CLRF   xCF
03492:  CLRF   xCE
03494:  CLRF   xCD
03496:  CLRF   xCC
....................         for(h=0;h<=(media-1);h++) 
03498:  MOVLB  4
0349A:  CLRF   xEF
0349C:  MOVLW  01
0349E:  MOVLB  6
034A0:  SUBWF  x52,W
034A2:  MOVLB  4
034A4:  SUBWF  xEF,W
034A6:  BZ    34AA
034A8:  BC    351A
....................         { 
....................            Flujo+=promedio[h]; 
034AA:  MOVF   xEF,W
034AC:  MULLW  04
034AE:  MOVF   FF3,W
034B0:  CLRF   03
034B2:  ADDLW  8C
034B4:  MOVWF  FE9
034B6:  MOVLW  05
034B8:  ADDWFC 03,W
034BA:  MOVWF  FEA
034BC:  MOVFF  FEF,00
034C0:  MOVFF  FEC,01
034C4:  MOVFF  FEC,02
034C8:  MOVFF  FEC,03
034CC:  MOVFF  FEA,654
034D0:  MOVFF  FE9,653
034D4:  BCF    FD8.1
034D6:  MOVFF  5CF,65E
034DA:  MOVFF  5CE,65D
034DE:  MOVFF  5CD,65C
034E2:  MOVFF  5CC,65B
034E6:  MOVFF  03,662
034EA:  MOVFF  02,661
034EE:  MOVFF  01,660
034F2:  MOVFF  00,65F
034F6:  MOVLB  0
034F8:  CALL   1890
034FC:  MOVFF  654,FEA
03500:  MOVFF  653,FE9
03504:  MOVFF  03,5CF
03508:  MOVFF  02,5CE
0350C:  MOVFF  01,5CD
03510:  MOVFF  00,5CC
....................         }  
03514:  MOVLB  4
03516:  INCF   xEF,F
03518:  BRA    349C
....................            Flujo=(Flujo/media)*Ajuste1;  
0351A:  MOVLB  6
0351C:  CLRF   x58
0351E:  MOVFF  652,657
03522:  MOVLB  0
03524:  CALL   16FC
03528:  MOVFF  5CF,65A
0352C:  MOVFF  5CE,659
03530:  MOVFF  5CD,658
03534:  MOVFF  5CC,657
03538:  MOVFF  03,65E
0353C:  MOVFF  02,65D
03540:  MOVFF  01,65C
03544:  MOVFF  00,65B
03548:  CALL   1732
0354C:  MOVFF  00,653
03550:  MOVFF  01,654
03554:  MOVFF  02,655
03558:  MOVFF  03,656
0355C:  MOVFF  03,677
03560:  MOVFF  02,676
03564:  MOVFF  01,675
03568:  MOVFF  00,674
0356C:  MOVFF  563,67B
03570:  MOVFF  562,67A
03574:  MOVFF  561,679
03578:  MOVFF  560,678
0357C:  RCALL  30DC
0357E:  MOVFF  03,5CF
03582:  MOVFF  02,5CE
03586:  MOVFF  01,5CD
0358A:  MOVFF  00,5CC
....................            return Flujo; 
0358E:  MOVFF  5CC,00
03592:  MOVFF  5CD,01
03596:  MOVFF  5CE,02
0359A:  MOVFF  5CF,03
.................... } 
0359E:  GOTO   53DC (RETURN)
....................  
.................... float Leer_Sensor_Presion(int media){ 
035A2:  MOVLB  6
035A4:  CLRF   x56
035A6:  CLRF   x55
035A8:  CLRF   x54
035AA:  CLRF   x53
....................    float promediopresion=0.0; 
....................     
....................    Filtro_Downflow_adc=sensores(PresDownFlow); 
035AC:  MOVLW  01
035AE:  MOVWF  x57
035B0:  MOVLB  0
035B2:  RCALL  309E
035B4:  MOVFF  02,4FD
035B8:  MOVFF  01,4FC
....................    V1=Filtro_Downflow_adc;  
035BC:  MOVFF  4FD,658
035C0:  MOVFF  4FC,657
035C4:  CALL   16FC
035C8:  MOVFF  03,5DB
035CC:  MOVFF  02,5DA
035D0:  MOVFF  01,5D9
035D4:  MOVFF  00,5D8
....................    //V1 = (x_uno*5.0)/1023.0;   //Lectura de Divisor de Voltaje de PT100 con resistencia de 1k (+-10%) 
....................    Presion=(V1/G)-1.0;// Presion=(Voltaje/Ganancia)-1 
035D8:  MOVFF  5DB,65A
035DC:  MOVFF  5DA,659
035E0:  MOVFF  5D9,658
035E4:  MOVFF  5D8,657
035E8:  MOVFF  5E3,65E
035EC:  MOVFF  5E2,65D
035F0:  MOVFF  5E1,65C
035F4:  MOVFF  5E0,65B
035F8:  CALL   1732
035FC:  MOVFF  00,657
03600:  MOVFF  01,658
03604:  MOVFF  02,659
03608:  MOVFF  03,65A
0360C:  BSF    FD8.1
0360E:  MOVFF  03,65E
03612:  MOVFF  02,65D
03616:  MOVFF  01,65C
0361A:  MOVFF  00,65B
0361E:  MOVLB  6
03620:  CLRF   x62
03622:  CLRF   x61
03624:  CLRF   x60
03626:  MOVLW  7F
03628:  MOVWF  x5F
0362A:  MOVLB  0
0362C:  CALL   1890
03630:  MOVFF  03,5DF
03634:  MOVFF  02,5DE
03638:  MOVFF  01,5DD
0363C:  MOVFF  00,5DC
....................     
....................    if(Presion<0.0) 
03640:  MOVFF  5DF,65A
03644:  MOVFF  5DE,659
03648:  MOVFF  5DD,658
0364C:  MOVFF  5DC,657
03650:  MOVLB  6
03652:  CLRF   x5E
03654:  CLRF   x5D
03656:  CLRF   x5C
03658:  CLRF   x5B
0365A:  MOVLB  0
0365C:  CALL   23B2
03660:  BNC   366C
....................    { 
....................       Presion=0.0; 
03662:  MOVLB  5
03664:  CLRF   xDF
03666:  CLRF   xDE
03668:  CLRF   xDD
0366A:  CLRF   xDC
....................    } 
....................  
....................    if(r>media-1) 
0366C:  MOVLW  01
0366E:  MOVLB  6
03670:  SUBWF  x52,W
03672:  MOVLB  4
03674:  SUBWF  xED,W
03676:  BZ    367C
03678:  BNC   367C
....................    {r=0;} 
0367A:  CLRF   xED
....................    PromPresion[r]=Presion*4.02;r++; 
0367C:  MOVF   xED,W
0367E:  MULLW  04
03680:  MOVF   FF3,W
03682:  CLRF   03
03684:  ADDLW  AC
03686:  MOVWF  FE9
03688:  MOVLW  05
0368A:  ADDWFC 03,W
0368C:  MOVWF  FEA
0368E:  MOVFF  5DF,677
03692:  MOVFF  5DE,676
03696:  MOVFF  5DD,675
0369A:  MOVFF  5DC,674
0369E:  MOVLW  D7
036A0:  MOVLB  6
036A2:  MOVWF  x7B
036A4:  MOVLW  A3
036A6:  MOVWF  x7A
036A8:  CLRF   x79
036AA:  MOVLW  81
036AC:  MOVWF  x78
036AE:  MOVLB  0
036B0:  RCALL  30DC
036B2:  MOVFF  00,FEF
036B6:  MOVFF  01,FEC
036BA:  MOVFF  02,FEC
036BE:  MOVFF  03,FEC
036C2:  MOVLB  4
036C4:  INCF   xED,F
....................           
....................    for(q=0;q<=(media-1);q++) 
036C6:  CLRF   xEC
036C8:  MOVLW  01
036CA:  MOVLB  6
036CC:  SUBWF  x52,W
036CE:  MOVLB  4
036D0:  SUBWF  xEC,W
036D2:  BZ    36D6
036D4:  BC    3746
....................    { 
....................       promediopresion+=PromPresion[q]; 
036D6:  MOVF   xEC,W
036D8:  MULLW  04
036DA:  MOVF   FF3,W
036DC:  CLRF   03
036DE:  ADDLW  AC
036E0:  MOVWF  FE9
036E2:  MOVLW  05
036E4:  ADDWFC 03,W
036E6:  MOVWF  FEA
036E8:  MOVFF  FEF,00
036EC:  MOVFF  FEC,01
036F0:  MOVFF  FEC,02
036F4:  MOVFF  FEC,03
036F8:  MOVFF  FEA,658
036FC:  MOVFF  FE9,657
03700:  BCF    FD8.1
03702:  MOVFF  656,65E
03706:  MOVFF  655,65D
0370A:  MOVFF  654,65C
0370E:  MOVFF  653,65B
03712:  MOVFF  03,662
03716:  MOVFF  02,661
0371A:  MOVFF  01,660
0371E:  MOVFF  00,65F
03722:  MOVLB  0
03724:  CALL   1890
03728:  MOVFF  658,FEA
0372C:  MOVFF  657,FE9
03730:  MOVFF  03,656
03734:  MOVFF  02,655
03738:  MOVFF  01,654
0373C:  MOVFF  00,653
....................    }  
03740:  MOVLB  4
03742:  INCF   xEC,F
03744:  BRA    36C8
....................    promediopresion=promediopresion/media;    
03746:  MOVLB  6
03748:  CLRF   x58
0374A:  MOVFF  652,657
0374E:  MOVLB  0
03750:  CALL   16FC
03754:  MOVFF  656,65A
03758:  MOVFF  655,659
0375C:  MOVFF  654,658
03760:  MOVFF  653,657
03764:  MOVFF  03,65E
03768:  MOVFF  02,65D
0376C:  MOVFF  01,65C
03770:  MOVFF  00,65B
03774:  CALL   1732
03778:  MOVFF  03,656
0377C:  MOVFF  02,655
03780:  MOVFF  01,654
03784:  MOVFF  00,653
....................     
....................    return promediopresion*Ajuste2; 
03788:  MOVFF  656,677
0378C:  MOVFF  655,676
03790:  MOVFF  654,675
03794:  MOVFF  653,674
03798:  MOVFF  567,67B
0379C:  MOVFF  566,67A
037A0:  MOVFF  565,679
037A4:  MOVFF  564,678
037A8:  RCALL  30DC
.................... } 
037AA:  GOTO   53F8 (RETURN)
....................  
.................... void LeeEEPROM(void){ 
....................    Password[0]=read_eeprom(0); 
*
01B08:  MOVFF  FF2,652
01B0C:  BCF    FF2.7
01B0E:  CLRF   FAA
01B10:  CLRF   FA9
01B12:  BCF    FA6.6
01B14:  BCF    FA6.7
01B16:  BSF    FA6.0
01B18:  MOVF   FA8,W
01B1A:  MOVLB  6
01B1C:  BTFSC  x52.7
01B1E:  BSF    FF2.7
01B20:  MOVLB  5
01B22:  MOVWF  x2C
....................    delay_ms(10); 
01B24:  MOVLW  0A
01B26:  MOVLB  6
01B28:  MOVWF  x5B
01B2A:  MOVLB  0
01B2C:  RCALL  16D4
....................    Password[1]=read_eeprom(1); 
01B2E:  MOVFF  FF2,652
01B32:  BCF    FF2.7
01B34:  CLRF   FAA
01B36:  MOVLW  01
01B38:  MOVWF  FA9
01B3A:  BCF    FA6.6
01B3C:  BCF    FA6.7
01B3E:  BSF    FA6.0
01B40:  MOVF   FA8,W
01B42:  MOVLB  6
01B44:  BTFSC  x52.7
01B46:  BSF    FF2.7
01B48:  MOVLB  5
01B4A:  MOVWF  x2D
....................    delay_ms(10); 
01B4C:  MOVLW  0A
01B4E:  MOVLB  6
01B50:  MOVWF  x5B
01B52:  MOVLB  0
01B54:  RCALL  16D4
....................    Password[2]=read_eeprom(2); 
01B56:  MOVFF  FF2,652
01B5A:  BCF    FF2.7
01B5C:  CLRF   FAA
01B5E:  MOVLW  02
01B60:  MOVWF  FA9
01B62:  BCF    FA6.6
01B64:  BCF    FA6.7
01B66:  BSF    FA6.0
01B68:  MOVF   FA8,W
01B6A:  MOVLB  6
01B6C:  BTFSC  x52.7
01B6E:  BSF    FF2.7
01B70:  MOVLB  5
01B72:  MOVWF  x2E
....................    delay_ms(10); 
01B74:  MOVLW  0A
01B76:  MOVLB  6
01B78:  MOVWF  x5B
01B7A:  MOVLB  0
01B7C:  RCALL  16D4
....................    Password[3]=read_eeprom(3); 
01B7E:  MOVFF  FF2,652
01B82:  BCF    FF2.7
01B84:  CLRF   FAA
01B86:  MOVLW  03
01B88:  MOVWF  FA9
01B8A:  BCF    FA6.6
01B8C:  BCF    FA6.7
01B8E:  BSF    FA6.0
01B90:  MOVF   FA8,W
01B92:  MOVLB  6
01B94:  BTFSC  x52.7
01B96:  BSF    FF2.7
01B98:  MOVLB  5
01B9A:  MOVWF  x2F
....................    delay_ms(10); 
01B9C:  MOVLW  0A
01B9E:  MOVLB  6
01BA0:  MOVWF  x5B
01BA2:  MOVLB  0
01BA4:  RCALL  16D4
....................    Tpurgap[0]=read_eeprom(4); 
01BA6:  MOVFF  FF2,652
01BAA:  BCF    FF2.7
01BAC:  CLRF   FAA
01BAE:  MOVLW  04
01BB0:  MOVWF  FA9
01BB2:  BCF    FA6.6
01BB4:  BCF    FA6.7
01BB6:  BSF    FA6.0
01BB8:  MOVF   FA8,W
01BBA:  MOVLB  6
01BBC:  BTFSC  x52.7
01BBE:  BSF    FF2.7
01BC0:  MOVLB  5
01BC2:  MOVWF  x0C
....................    delay_ms(10); 
01BC4:  MOVLW  0A
01BC6:  MOVLB  6
01BC8:  MOVWF  x5B
01BCA:  MOVLB  0
01BCC:  RCALL  16D4
....................    Tpurgap[1]=read_eeprom(5); 
01BCE:  MOVFF  FF2,652
01BD2:  BCF    FF2.7
01BD4:  CLRF   FAA
01BD6:  MOVLW  05
01BD8:  MOVWF  FA9
01BDA:  BCF    FA6.6
01BDC:  BCF    FA6.7
01BDE:  BSF    FA6.0
01BE0:  MOVF   FA8,W
01BE2:  MOVLB  6
01BE4:  BTFSC  x52.7
01BE6:  BSF    FF2.7
01BE8:  MOVLB  5
01BEA:  MOVWF  x0D
....................    delay_ms(10); 
01BEC:  MOVLW  0A
01BEE:  MOVLB  6
01BF0:  MOVWF  x5B
01BF2:  MOVLB  0
01BF4:  RCALL  16D4
....................    Tpurgap[2]=read_eeprom(6); 
01BF6:  MOVFF  FF2,652
01BFA:  BCF    FF2.7
01BFC:  CLRF   FAA
01BFE:  MOVLW  06
01C00:  MOVWF  FA9
01C02:  BCF    FA6.6
01C04:  BCF    FA6.7
01C06:  BSF    FA6.0
01C08:  MOVF   FA8,W
01C0A:  MOVLB  6
01C0C:  BTFSC  x52.7
01C0E:  BSF    FF2.7
01C10:  MOVLB  5
01C12:  MOVWF  x0E
....................    delay_ms(10); 
01C14:  MOVLW  0A
01C16:  MOVLB  6
01C18:  MOVWF  x5B
01C1A:  MOVLB  0
01C1C:  RCALL  16D4
....................    Tpurgap[3]=read_eeprom(7); 
01C1E:  MOVFF  FF2,652
01C22:  BCF    FF2.7
01C24:  CLRF   FAA
01C26:  MOVLW  07
01C28:  MOVWF  FA9
01C2A:  BCF    FA6.6
01C2C:  BCF    FA6.7
01C2E:  BSF    FA6.0
01C30:  MOVF   FA8,W
01C32:  MOVLB  6
01C34:  BTFSC  x52.7
01C36:  BSF    FF2.7
01C38:  MOVLB  5
01C3A:  MOVWF  x0F
....................    delay_ms(10); 
01C3C:  MOVLW  0A
01C3E:  MOVLB  6
01C40:  MOVWF  x5B
01C42:  MOVLB  0
01C44:  RCALL  16D4
....................    Tppurgap[0]=read_eeprom(8); 
01C46:  MOVFF  FF2,652
01C4A:  BCF    FF2.7
01C4C:  CLRF   FAA
01C4E:  MOVLW  08
01C50:  MOVWF  FA9
01C52:  BCF    FA6.6
01C54:  BCF    FA6.7
01C56:  BSF    FA6.0
01C58:  MOVF   FA8,W
01C5A:  MOVLB  6
01C5C:  BTFSC  x52.7
01C5E:  BSF    FF2.7
01C60:  MOVLB  5
01C62:  MOVWF  x14
....................    delay_ms(10); 
01C64:  MOVLW  0A
01C66:  MOVLB  6
01C68:  MOVWF  x5B
01C6A:  MOVLB  0
01C6C:  RCALL  16D4
....................    Tppurgap[1]=read_eeprom(9); 
01C6E:  MOVFF  FF2,652
01C72:  BCF    FF2.7
01C74:  CLRF   FAA
01C76:  MOVLW  09
01C78:  MOVWF  FA9
01C7A:  BCF    FA6.6
01C7C:  BCF    FA6.7
01C7E:  BSF    FA6.0
01C80:  MOVF   FA8,W
01C82:  MOVLB  6
01C84:  BTFSC  x52.7
01C86:  BSF    FF2.7
01C88:  MOVLB  5
01C8A:  MOVWF  x15
....................    delay_ms(10); 
01C8C:  MOVLW  0A
01C8E:  MOVLB  6
01C90:  MOVWF  x5B
01C92:  MOVLB  0
01C94:  RCALL  16D4
....................    Tppurgap[2]=read_eeprom(10); 
01C96:  MOVFF  FF2,652
01C9A:  BCF    FF2.7
01C9C:  CLRF   FAA
01C9E:  MOVLW  0A
01CA0:  MOVWF  FA9
01CA2:  BCF    FA6.6
01CA4:  BCF    FA6.7
01CA6:  BSF    FA6.0
01CA8:  MOVF   FA8,W
01CAA:  MOVLB  6
01CAC:  BTFSC  x52.7
01CAE:  BSF    FF2.7
01CB0:  MOVLB  5
01CB2:  MOVWF  x16
....................    delay_ms(10); 
01CB4:  MOVLW  0A
01CB6:  MOVLB  6
01CB8:  MOVWF  x5B
01CBA:  MOVLB  0
01CBC:  RCALL  16D4
....................    Tppurgap[3]=read_eeprom(11); 
01CBE:  MOVFF  FF2,652
01CC2:  BCF    FF2.7
01CC4:  CLRF   FAA
01CC6:  MOVLW  0B
01CC8:  MOVWF  FA9
01CCA:  BCF    FA6.6
01CCC:  BCF    FA6.7
01CCE:  BSF    FA6.0
01CD0:  MOVF   FA8,W
01CD2:  MOVLB  6
01CD4:  BTFSC  x52.7
01CD6:  BSF    FF2.7
01CD8:  MOVLB  5
01CDA:  MOVWF  x17
....................    delay_ms(10); 
01CDC:  MOVLW  0A
01CDE:  MOVLB  6
01CE0:  MOVWF  x5B
01CE2:  MOVLB  0
01CE4:  RCALL  16D4
....................    Tuv[0]=read_eeprom(12); 
01CE6:  MOVFF  FF2,652
01CEA:  BCF    FF2.7
01CEC:  CLRF   FAA
01CEE:  MOVLW  0C
01CF0:  MOVWF  FA9
01CF2:  BCF    FA6.6
01CF4:  BCF    FA6.7
01CF6:  BSF    FA6.0
01CF8:  MOVF   FA8,W
01CFA:  MOVLB  6
01CFC:  BTFSC  x52.7
01CFE:  BSF    FF2.7
01D00:  MOVLB  5
01D02:  MOVWF  x18
....................    delay_ms(10); 
01D04:  MOVLW  0A
01D06:  MOVLB  6
01D08:  MOVWF  x5B
01D0A:  MOVLB  0
01D0C:  RCALL  16D4
....................    Tuv[1]=read_eeprom(13); 
01D0E:  MOVFF  FF2,652
01D12:  BCF    FF2.7
01D14:  CLRF   FAA
01D16:  MOVLW  0D
01D18:  MOVWF  FA9
01D1A:  BCF    FA6.6
01D1C:  BCF    FA6.7
01D1E:  BSF    FA6.0
01D20:  MOVF   FA8,W
01D22:  MOVLB  6
01D24:  BTFSC  x52.7
01D26:  BSF    FF2.7
01D28:  MOVLB  5
01D2A:  MOVWF  x19
....................    delay_ms(10); 
01D2C:  MOVLW  0A
01D2E:  MOVLB  6
01D30:  MOVWF  x5B
01D32:  MOVLB  0
01D34:  RCALL  16D4
....................    Tuv[2]=read_eeprom(14); 
01D36:  MOVFF  FF2,652
01D3A:  BCF    FF2.7
01D3C:  CLRF   FAA
01D3E:  MOVLW  0E
01D40:  MOVWF  FA9
01D42:  BCF    FA6.6
01D44:  BCF    FA6.7
01D46:  BSF    FA6.0
01D48:  MOVF   FA8,W
01D4A:  MOVLB  6
01D4C:  BTFSC  x52.7
01D4E:  BSF    FF2.7
01D50:  MOVLB  5
01D52:  MOVWF  x1A
....................    delay_ms(10); 
01D54:  MOVLW  0A
01D56:  MOVLB  6
01D58:  MOVWF  x5B
01D5A:  MOVLB  0
01D5C:  RCALL  16D4
....................    Tuv[3]=read_eeprom(15); 
01D5E:  MOVFF  FF2,652
01D62:  BCF    FF2.7
01D64:  CLRF   FAA
01D66:  MOVLW  0F
01D68:  MOVWF  FA9
01D6A:  BCF    FA6.6
01D6C:  BCF    FA6.7
01D6E:  BSF    FA6.0
01D70:  MOVF   FA8,W
01D72:  MOVLB  6
01D74:  BTFSC  x52.7
01D76:  BSF    FF2.7
01D78:  MOVLB  5
01D7A:  MOVWF  x1B
....................    delay_ms(10); 
01D7C:  MOVLW  0A
01D7E:  MOVLB  6
01D80:  MOVWF  x5B
01D82:  MOVLB  0
01D84:  RCALL  16D4
....................    Ttrabajo[0]=read_eeprom(16); 
01D86:  MOVFF  FF2,652
01D8A:  BCF    FF2.7
01D8C:  CLRF   FAA
01D8E:  MOVLW  10
01D90:  MOVWF  FA9
01D92:  BCF    FA6.6
01D94:  BCF    FA6.7
01D96:  BSF    FA6.0
01D98:  MOVF   FA8,W
01D9A:  MOVLB  6
01D9C:  BTFSC  x52.7
01D9E:  BSF    FF2.7
01DA0:  MOVLB  5
01DA2:  MOVWF  x24
....................    delay_ms(10); 
01DA4:  MOVLW  0A
01DA6:  MOVLB  6
01DA8:  MOVWF  x5B
01DAA:  MOVLB  0
01DAC:  RCALL  16D4
....................    Ttrabajo[1]=read_eeprom(17); 
01DAE:  MOVFF  FF2,652
01DB2:  BCF    FF2.7
01DB4:  CLRF   FAA
01DB6:  MOVLW  11
01DB8:  MOVWF  FA9
01DBA:  BCF    FA6.6
01DBC:  BCF    FA6.7
01DBE:  BSF    FA6.0
01DC0:  MOVF   FA8,W
01DC2:  MOVLB  6
01DC4:  BTFSC  x52.7
01DC6:  BSF    FF2.7
01DC8:  MOVLB  5
01DCA:  MOVWF  x25
....................    delay_ms(10); 
01DCC:  MOVLW  0A
01DCE:  MOVLB  6
01DD0:  MOVWF  x5B
01DD2:  MOVLB  0
01DD4:  RCALL  16D4
....................    Ttrabajo[2]=read_eeprom(18); 
01DD6:  MOVFF  FF2,652
01DDA:  BCF    FF2.7
01DDC:  CLRF   FAA
01DDE:  MOVLW  12
01DE0:  MOVWF  FA9
01DE2:  BCF    FA6.6
01DE4:  BCF    FA6.7
01DE6:  BSF    FA6.0
01DE8:  MOVF   FA8,W
01DEA:  MOVLB  6
01DEC:  BTFSC  x52.7
01DEE:  BSF    FF2.7
01DF0:  MOVLB  5
01DF2:  MOVWF  x26
....................    delay_ms(10); 
01DF4:  MOVLW  0A
01DF6:  MOVLB  6
01DF8:  MOVWF  x5B
01DFA:  MOVLB  0
01DFC:  RCALL  16D4
....................    Ttrabajo[3]=read_eeprom(19); 
01DFE:  MOVFF  FF2,652
01E02:  BCF    FF2.7
01E04:  CLRF   FAA
01E06:  MOVLW  13
01E08:  MOVWF  FA9
01E0A:  BCF    FA6.6
01E0C:  BCF    FA6.7
01E0E:  BSF    FA6.0
01E10:  MOVF   FA8,W
01E12:  MOVLB  6
01E14:  BTFSC  x52.7
01E16:  BSF    FF2.7
01E18:  MOVLB  5
01E1A:  MOVWF  x27
....................    delay_ms(10); 
01E1C:  MOVLW  0A
01E1E:  MOVLB  6
01E20:  MOVWF  x5B
01E22:  MOVLB  0
01E24:  RCALL  16D4
....................    //flag_alarma=read_eeprom(20); 
....................    //delay_ms(10); 
....................    Tempouvp[0]=read_eeprom(21); 
01E26:  MOVFF  FF2,652
01E2A:  BCF    FF2.7
01E2C:  CLRF   FAA
01E2E:  MOVLW  15
01E30:  MOVWF  FA9
01E32:  BCF    FA6.6
01E34:  BCF    FA6.7
01E36:  BSF    FA6.0
01E38:  MOVF   FA8,W
01E3A:  MOVLB  6
01E3C:  BTFSC  x52.7
01E3E:  BSF    FF2.7
01E40:  MOVLB  5
01E42:  MOVWF  x20
....................    delay_ms(10); 
01E44:  MOVLW  0A
01E46:  MOVLB  6
01E48:  MOVWF  x5B
01E4A:  MOVLB  0
01E4C:  RCALL  16D4
....................    Tempouvp[1]=read_eeprom(22); 
01E4E:  MOVFF  FF2,652
01E52:  BCF    FF2.7
01E54:  CLRF   FAA
01E56:  MOVLW  16
01E58:  MOVWF  FA9
01E5A:  BCF    FA6.6
01E5C:  BCF    FA6.7
01E5E:  BSF    FA6.0
01E60:  MOVF   FA8,W
01E62:  MOVLB  6
01E64:  BTFSC  x52.7
01E66:  BSF    FF2.7
01E68:  MOVLB  5
01E6A:  MOVWF  x21
....................    delay_ms(10); 
01E6C:  MOVLW  0A
01E6E:  MOVLB  6
01E70:  MOVWF  x5B
01E72:  MOVLB  0
01E74:  RCALL  16D4
....................    Tempouvp[2]=read_eeprom(23); 
01E76:  MOVFF  FF2,652
01E7A:  BCF    FF2.7
01E7C:  CLRF   FAA
01E7E:  MOVLW  17
01E80:  MOVWF  FA9
01E82:  BCF    FA6.6
01E84:  BCF    FA6.7
01E86:  BSF    FA6.0
01E88:  MOVF   FA8,W
01E8A:  MOVLB  6
01E8C:  BTFSC  x52.7
01E8E:  BSF    FF2.7
01E90:  MOVLB  5
01E92:  MOVWF  x22
....................    delay_ms(10); 
01E94:  MOVLW  0A
01E96:  MOVLB  6
01E98:  MOVWF  x5B
01E9A:  MOVLB  0
01E9C:  RCALL  16D4
....................    Tempouvp[3]=read_eeprom(24); 
01E9E:  MOVFF  FF2,652
01EA2:  BCF    FF2.7
01EA4:  CLRF   FAA
01EA6:  MOVLW  18
01EA8:  MOVWF  FA9
01EAA:  BCF    FA6.6
01EAC:  BCF    FA6.7
01EAE:  BSF    FA6.0
01EB0:  MOVF   FA8,W
01EB2:  MOVLB  6
01EB4:  BTFSC  x52.7
01EB6:  BSF    FF2.7
01EB8:  MOVLB  5
01EBA:  MOVWF  x23
....................     
....................    delay_ms(10); 
01EBC:  MOVLW  0A
01EBE:  MOVLB  6
01EC0:  MOVWF  x5B
01EC2:  MOVLB  0
01EC4:  RCALL  16D4
....................    Entero=read_eeprom(25);//Decimal1=read_eeprom(26); 
01EC6:  MOVFF  FF2,652
01ECA:  BCF    FF2.7
01ECC:  CLRF   FAA
01ECE:  MOVLW  19
01ED0:  MOVWF  FA9
01ED2:  BCF    FA6.6
01ED4:  BCF    FA6.7
01ED6:  BSF    FA6.0
01ED8:  MOVF   FA8,W
01EDA:  MOVLB  6
01EDC:  BTFSC  x52.7
01EDE:  BSF    FF2.7
01EE0:  MOVLB  4
01EE2:  MOVWF  xF0
....................    delay_ms(10); 
01EE4:  MOVLW  0A
01EE6:  MOVLB  6
01EE8:  MOVWF  x5B
01EEA:  MOVLB  0
01EEC:  CALL   16D4
....................    Temporal=read_eeprom(26); 
01EF0:  MOVFF  FF2,652
01EF4:  BCF    FF2.7
01EF6:  CLRF   FAA
01EF8:  MOVLW  1A
01EFA:  MOVWF  FA9
01EFC:  BCF    FA6.6
01EFE:  BCF    FA6.7
01F00:  BSF    FA6.0
01F02:  MOVF   FA8,W
01F04:  MOVLB  6
01F06:  BTFSC  x52.7
01F08:  BSF    FF2.7
01F0A:  CLRF   x58
01F0C:  MOVWF  x57
01F0E:  MOVLB  0
01F10:  CALL   16FC
01F14:  MOVFF  03,56F
01F18:  MOVFF  02,56E
01F1C:  MOVFF  01,56D
01F20:  MOVFF  00,56C
....................    delay_ms(10); 
01F24:  MOVLW  0A
01F26:  MOVLB  6
01F28:  MOVWF  x5B
01F2A:  MOVLB  0
01F2C:  CALL   16D4
....................    Temporal=Temporal/100.0; 
01F30:  MOVFF  56F,65A
01F34:  MOVFF  56E,659
01F38:  MOVFF  56D,658
01F3C:  MOVFF  56C,657
01F40:  MOVLB  6
01F42:  CLRF   x5E
01F44:  CLRF   x5D
01F46:  MOVLW  48
01F48:  MOVWF  x5C
01F4A:  MOVLW  85
01F4C:  MOVWF  x5B
01F4E:  MOVLB  0
01F50:  CALL   1732
01F54:  MOVFF  03,56F
01F58:  MOVFF  02,56E
01F5C:  MOVFF  01,56D
01F60:  MOVFF  00,56C
....................    Ajuste1=Entero+Temporal; 
01F64:  MOVLB  6
01F66:  CLRF   x58
01F68:  MOVFF  4F0,657
01F6C:  MOVLB  0
01F6E:  CALL   16FC
01F72:  BCF    FD8.1
01F74:  MOVFF  03,65E
01F78:  MOVFF  02,65D
01F7C:  MOVFF  01,65C
01F80:  MOVFF  00,65B
01F84:  MOVFF  56F,662
01F88:  MOVFF  56E,661
01F8C:  MOVFF  56D,660
01F90:  MOVFF  56C,65F
01F94:  RCALL  1890
01F96:  MOVFF  03,563
01F9A:  MOVFF  02,562
01F9E:  MOVFF  01,561
01FA2:  MOVFF  00,560
....................     
....................     
....................    Entero=read_eeprom(27);//Decimal1=read_eeprom(26); 
01FA6:  MOVFF  FF2,652
01FAA:  BCF    FF2.7
01FAC:  CLRF   FAA
01FAE:  MOVLW  1B
01FB0:  MOVWF  FA9
01FB2:  BCF    FA6.6
01FB4:  BCF    FA6.7
01FB6:  BSF    FA6.0
01FB8:  MOVF   FA8,W
01FBA:  MOVLB  6
01FBC:  BTFSC  x52.7
01FBE:  BSF    FF2.7
01FC0:  MOVLB  4
01FC2:  MOVWF  xF0
....................    delay_ms(10); 
01FC4:  MOVLW  0A
01FC6:  MOVLB  6
01FC8:  MOVWF  x5B
01FCA:  MOVLB  0
01FCC:  CALL   16D4
....................    Temporal=read_eeprom(28); 
01FD0:  MOVFF  FF2,652
01FD4:  BCF    FF2.7
01FD6:  CLRF   FAA
01FD8:  MOVLW  1C
01FDA:  MOVWF  FA9
01FDC:  BCF    FA6.6
01FDE:  BCF    FA6.7
01FE0:  BSF    FA6.0
01FE2:  MOVF   FA8,W
01FE4:  MOVLB  6
01FE6:  BTFSC  x52.7
01FE8:  BSF    FF2.7
01FEA:  CLRF   x58
01FEC:  MOVWF  x57
01FEE:  MOVLB  0
01FF0:  CALL   16FC
01FF4:  MOVFF  03,56F
01FF8:  MOVFF  02,56E
01FFC:  MOVFF  01,56D
02000:  MOVFF  00,56C
....................    delay_ms(10); 
02004:  MOVLW  0A
02006:  MOVLB  6
02008:  MOVWF  x5B
0200A:  MOVLB  0
0200C:  CALL   16D4
....................    Temporal=Temporal/10.0; 
02010:  MOVFF  56F,65A
02014:  MOVFF  56E,659
02018:  MOVFF  56D,658
0201C:  MOVFF  56C,657
02020:  MOVLB  6
02022:  CLRF   x5E
02024:  CLRF   x5D
02026:  MOVLW  20
02028:  MOVWF  x5C
0202A:  MOVLW  82
0202C:  MOVWF  x5B
0202E:  MOVLB  0
02030:  CALL   1732
02034:  MOVFF  03,56F
02038:  MOVFF  02,56E
0203C:  MOVFF  01,56D
02040:  MOVFF  00,56C
....................    Ajuste2=Entero+Temporal; 
02044:  MOVLB  6
02046:  CLRF   x58
02048:  MOVFF  4F0,657
0204C:  MOVLB  0
0204E:  CALL   16FC
02052:  BCF    FD8.1
02054:  MOVFF  03,65E
02058:  MOVFF  02,65D
0205C:  MOVFF  01,65C
02060:  MOVFF  00,65B
02064:  MOVFF  56F,662
02068:  MOVFF  56E,661
0206C:  MOVFF  56D,660
02070:  MOVFF  56C,65F
02074:  RCALL  1890
02076:  MOVFF  03,567
0207A:  MOVFF  02,566
0207E:  MOVFF  01,565
02082:  MOVFF  00,564
....................     
....................    zero_actual=make16(read_eeprom(30),read_eeprom(29)); 
02086:  MOVFF  FF2,652
0208A:  BCF    FF2.7
0208C:  CLRF   FAA
0208E:  MOVLW  1E
02090:  MOVWF  FA9
02092:  BCF    FA6.6
02094:  BCF    FA6.7
02096:  BSF    FA6.0
02098:  MOVF   FA8,W
0209A:  MOVLB  6
0209C:  BTFSC  x52.7
0209E:  BSF    FF2.7
020A0:  MOVWF  x53
020A2:  MOVFF  FF2,654
020A6:  BCF    FF2.7
020A8:  CLRF   FAA
020AA:  MOVLW  1D
020AC:  MOVWF  FA9
020AE:  BCF    FA6.6
020B0:  BCF    FA6.7
020B2:  BSF    FA6.0
020B4:  MOVF   FA8,W
020B6:  BTFSC  x54.7
020B8:  BSF    FF2.7
020BA:  MOVWF  x55
020BC:  MOVFF  653,03
020C0:  MOVF   x55,W
020C2:  MOVWF  x57
020C4:  MOVFF  03,658
020C8:  MOVLB  0
020CA:  CALL   16FC
020CE:  MOVFF  03,5D7
020D2:  MOVFF  02,5D6
020D6:  MOVFF  01,5D5
020DA:  MOVFF  00,5D4
....................    delay_ms(10); 
020DE:  MOVLW  0A
020E0:  MOVLB  6
020E2:  MOVWF  x5B
020E4:  MOVLB  0
020E6:  CALL   16D4
....................    minutos_trabajo=make16(read_eeprom(34),read_eeprom(33)); 
020EA:  MOVFF  FF2,652
020EE:  BCF    FF2.7
020F0:  CLRF   FAA
020F2:  MOVLW  22
020F4:  MOVWF  FA9
020F6:  BCF    FA6.6
020F8:  BCF    FA6.7
020FA:  BSF    FA6.0
020FC:  MOVF   FA8,W
020FE:  MOVLB  6
02100:  BTFSC  x52.7
02102:  BSF    FF2.7
02104:  MOVWF  x53
02106:  MOVFF  FF2,654
0210A:  BCF    FF2.7
0210C:  CLRF   FAA
0210E:  MOVLW  21
02110:  MOVWF  FA9
02112:  BCF    FA6.6
02114:  BCF    FA6.7
02116:  BSF    FA6.0
02118:  MOVF   FA8,W
0211A:  BTFSC  x54.7
0211C:  BSF    FF2.7
0211E:  MOVWF  x55
02120:  MOVFF  653,505
02124:  MOVFF  655,504
....................    delay_ms(10); 
02128:  MOVLW  0A
0212A:  MOVWF  x5B
0212C:  MOVLB  0
0212E:  CALL   16D4
....................    minutos_uv=read_eeprom(31); 
02132:  MOVFF  FF2,652
02136:  BCF    FF2.7
02138:  CLRF   FAA
0213A:  MOVLW  1F
0213C:  MOVWF  FA9
0213E:  BCF    FA6.6
02140:  BCF    FA6.7
02142:  BSF    FA6.0
02144:  MOVF   FA8,W
02146:  MOVLB  6
02148:  BTFSC  x52.7
0214A:  BSF    FF2.7
0214C:  MOVLB  4
0214E:  MOVWF  xE9
....................    delay_ms(10); 
02150:  MOVLW  0A
02152:  MOVLB  6
02154:  MOVWF  x5B
02156:  MOVLB  0
02158:  CALL   16D4
....................    VelMotor=read_eeprom(32); 
0215C:  MOVFF  FF2,652
02160:  BCF    FF2.7
02162:  CLRF   FAA
02164:  MOVLW  20
02166:  MOVWF  FA9
02168:  BCF    FA6.6
0216A:  BCF    FA6.7
0216C:  BSF    FA6.0
0216E:  MOVF   FA8,W
02170:  MOVLB  6
02172:  BTFSC  x52.7
02174:  BSF    FF2.7
02176:  MOVLB  4
02178:  MOVWF  xF9
....................    delay_ms(10); 
0217A:  MOVLW  0A
0217C:  MOVLB  6
0217E:  MOVWF  x5B
02180:  MOVLB  0
02182:  CALL   16D4
....................     
....................    Entero=read_eeprom(35); 
02186:  MOVFF  FF2,652
0218A:  BCF    FF2.7
0218C:  CLRF   FAA
0218E:  MOVLW  23
02190:  MOVWF  FA9
02192:  BCF    FA6.6
02194:  BCF    FA6.7
02196:  BSF    FA6.0
02198:  MOVF   FA8,W
0219A:  MOVLB  6
0219C:  BTFSC  x52.7
0219E:  BSF    FF2.7
021A0:  MOVLB  4
021A2:  MOVWF  xF0
....................    delay_ms(10); 
021A4:  MOVLW  0A
021A6:  MOVLB  6
021A8:  MOVWF  x5B
021AA:  MOVLB  0
021AC:  CALL   16D4
....................    Temporal=read_eeprom(36); 
021B0:  MOVFF  FF2,652
021B4:  BCF    FF2.7
021B6:  CLRF   FAA
021B8:  MOVLW  24
021BA:  MOVWF  FA9
021BC:  BCF    FA6.6
021BE:  BCF    FA6.7
021C0:  BSF    FA6.0
021C2:  MOVF   FA8,W
021C4:  MOVLB  6
021C6:  BTFSC  x52.7
021C8:  BSF    FF2.7
021CA:  CLRF   x58
021CC:  MOVWF  x57
021CE:  MOVLB  0
021D0:  CALL   16FC
021D4:  MOVFF  03,56F
021D8:  MOVFF  02,56E
021DC:  MOVFF  01,56D
021E0:  MOVFF  00,56C
....................    delay_ms(10); 
021E4:  MOVLW  0A
021E6:  MOVLB  6
021E8:  MOVWF  x5B
021EA:  MOVLB  0
021EC:  CALL   16D4
....................    Temporal=Temporal/100.0; 
021F0:  MOVFF  56F,65A
021F4:  MOVFF  56E,659
021F8:  MOVFF  56D,658
021FC:  MOVFF  56C,657
02200:  MOVLB  6
02202:  CLRF   x5E
02204:  CLRF   x5D
02206:  MOVLW  48
02208:  MOVWF  x5C
0220A:  MOVLW  85
0220C:  MOVWF  x5B
0220E:  MOVLB  0
02210:  CALL   1732
02214:  MOVFF  03,56F
02218:  MOVFF  02,56E
0221C:  MOVFF  01,56D
02220:  MOVFF  00,56C
....................    Relacion=Entero+Temporal; 
02224:  MOVLB  6
02226:  CLRF   x58
02228:  MOVFF  4F0,657
0222C:  MOVLB  0
0222E:  CALL   16FC
02232:  BCF    FD8.1
02234:  MOVFF  03,65E
02238:  MOVFF  02,65D
0223C:  MOVFF  01,65C
02240:  MOVFF  00,65B
02244:  MOVFF  56F,662
02248:  MOVFF  56E,661
0224C:  MOVFF  56D,660
02250:  MOVFF  56C,65F
02254:  CALL   1890
02258:  MOVFF  03,5EB
0225C:  MOVFF  02,5EA
02260:  MOVFF  01,5E9
02264:  MOVFF  00,5E8
....................     
....................    Pinicial=read_eeprom(40); 
02268:  MOVFF  FF2,652
0226C:  BCF    FF2.7
0226E:  CLRF   FAA
02270:  MOVLW  28
02272:  MOVWF  FA9
02274:  BCF    FA6.6
02276:  BCF    FA6.7
02278:  BSF    FA6.0
0227A:  MOVF   FA8,W
0227C:  MOVLB  6
0227E:  BTFSC  x52.7
02280:  BSF    FF2.7
02282:  MOVLB  4
02284:  MOVWF  xEA
....................    delay_ms(10); 
02286:  MOVLW  0A
02288:  MOVLB  6
0228A:  MOVWF  x5B
0228C:  MOVLB  0
0228E:  CALL   16D4
....................    Pfinal=read_eeprom(41); 
02292:  MOVFF  FF2,652
02296:  BCF    FF2.7
02298:  CLRF   FAA
0229A:  MOVLW  29
0229C:  MOVWF  FA9
0229E:  BCF    FA6.6
022A0:  BCF    FA6.7
022A2:  BSF    FA6.0
022A4:  MOVF   FA8,W
022A6:  MOVLB  6
022A8:  BTFSC  x52.7
022AA:  BSF    FF2.7
022AC:  MOVLB  4
022AE:  MOVWF  xEB
....................    delay_ms(10); 
022B0:  MOVLW  0A
022B2:  MOVLB  6
022B4:  MOVWF  x5B
022B6:  MOVLB  0
022B8:  CALL   16D4
....................     
....................    Diferencia=make16(read_eeprom(61),read_eeprom(60)); 
022BC:  MOVFF  FF2,652
022C0:  BCF    FF2.7
022C2:  CLRF   FAA
022C4:  MOVLW  3D
022C6:  MOVWF  FA9
022C8:  BCF    FA6.6
022CA:  BCF    FA6.7
022CC:  BSF    FA6.0
022CE:  MOVF   FA8,W
022D0:  MOVLB  6
022D2:  BTFSC  x52.7
022D4:  BSF    FF2.7
022D6:  MOVWF  x53
022D8:  MOVFF  FF2,654
022DC:  BCF    FF2.7
022DE:  CLRF   FAA
022E0:  MOVLW  3C
022E2:  MOVWF  FA9
022E4:  BCF    FA6.6
022E6:  BCF    FA6.7
022E8:  BSF    FA6.0
022EA:  MOVF   FA8,W
022EC:  BTFSC  x54.7
022EE:  BSF    FF2.7
022F0:  MOVWF  x55
022F2:  MOVFF  653,03
022F6:  MOVF   x55,W
022F8:  MOVWF  x57
022FA:  MOVFF  03,658
022FE:  MOVLB  0
02300:  CALL   16FC
02304:  MOVFF  03,53F
02308:  MOVFF  02,53E
0230C:  MOVFF  01,53D
02310:  MOVFF  00,53C
....................    delay_ms(10); 
02314:  MOVLW  0A
02316:  MOVLB  6
02318:  MOVWF  x5B
0231A:  MOVLB  0
0231C:  CALL   16D4
....................    G=make16(read_eeprom(63),read_eeprom(62)); 
02320:  MOVFF  FF2,652
02324:  BCF    FF2.7
02326:  CLRF   FAA
02328:  MOVLW  3F
0232A:  MOVWF  FA9
0232C:  BCF    FA6.6
0232E:  BCF    FA6.7
02330:  BSF    FA6.0
02332:  MOVF   FA8,W
02334:  MOVLB  6
02336:  BTFSC  x52.7
02338:  BSF    FF2.7
0233A:  MOVWF  x53
0233C:  MOVFF  FF2,654
02340:  BCF    FF2.7
02342:  CLRF   FAA
02344:  MOVLW  3E
02346:  MOVWF  FA9
02348:  BCF    FA6.6
0234A:  BCF    FA6.7
0234C:  BSF    FA6.0
0234E:  MOVF   FA8,W
02350:  BTFSC  x54.7
02352:  BSF    FF2.7
02354:  MOVWF  x55
02356:  MOVFF  653,03
0235A:  MOVF   x55,W
0235C:  MOVWF  x57
0235E:  MOVFF  03,658
02362:  MOVLB  0
02364:  CALL   16FC
02368:  MOVFF  03,5E3
0236C:  MOVFF  02,5E2
02370:  MOVFF  01,5E1
02374:  MOVFF  00,5E0
....................    delay_ms(10); 
02378:  MOVLW  0A
0237A:  MOVLB  6
0237C:  MOVWF  x5B
0237E:  MOVLB  0
02380:  CALL   16D4
....................    negativo=read_eeprom(50); 
02384:  MOVFF  FF2,652
02388:  BCF    FF2.7
0238A:  CLRF   FAA
0238C:  MOVLW  32
0238E:  MOVWF  FA9
02390:  BCF    FA6.6
02392:  BCF    FA6.7
02394:  BSF    FA6.0
02396:  MOVF   FA8,W
02398:  MOVLB  6
0239A:  BTFSC  x52.7
0239C:  BSF    FF2.7
0239E:  MOVLB  4
023A0:  MOVWF  xE5
....................    delay_ms(10); 
023A2:  MOVLW  0A
023A4:  MOVLB  6
023A6:  MOVWF  x5B
023A8:  MOVLB  0
023AA:  CALL   16D4
....................  
.................... } 
023AE:  GOTO   53B4 (RETURN)
....................  
.................... void LimitaValores(void){ 
....................    if(Password[0]>9 || Password[0]<0){ 
*
0242C:  MOVLB  5
0242E:  BTFSC  x2C.7
02430:  BRA    2438
02432:  MOVF   x2C,W
02434:  SUBLW  09
02436:  BNC   243E
02438:  BTFSC  x2C.7
0243A:  BRA    243E
0243C:  BRA    246A
....................       Password[0]=0;write_eeprom(0,0); 
0243E:  CLRF   x2C
02440:  CLRF   FAA
02442:  CLRF   FA9
02444:  CLRF   FA8
02446:  BCF    FA6.6
02448:  BCF    FA6.7
0244A:  BSF    FA6.2
0244C:  MOVF   FF2,W
0244E:  MOVWF  00
02450:  BCF    FF2.7
02452:  MOVLB  F
02454:  MOVLW  55
02456:  MOVWF  FA7
02458:  MOVLW  AA
0245A:  MOVWF  FA7
0245C:  BSF    FA6.1
0245E:  BTFSC  FA6.1
02460:  BRA    245E
02462:  BCF    FA6.2
02464:  MOVF   00,W
02466:  IORWF  FF2,F
02468:  MOVLB  5
....................    } 
....................    if(Password[1]>9 || Password[1]<0){ 
0246A:  BTFSC  x2D.7
0246C:  BRA    2474
0246E:  MOVF   x2D,W
02470:  SUBLW  09
02472:  BNC   247A
02474:  BTFSC  x2D.7
02476:  BRA    247A
02478:  BRA    24A8
....................       Password[1]=0;write_eeprom(1,0); 
0247A:  CLRF   x2D
0247C:  CLRF   FAA
0247E:  MOVLW  01
02480:  MOVWF  FA9
02482:  CLRF   FA8
02484:  BCF    FA6.6
02486:  BCF    FA6.7
02488:  BSF    FA6.2
0248A:  MOVF   FF2,W
0248C:  MOVWF  00
0248E:  BCF    FF2.7
02490:  MOVLB  F
02492:  MOVLW  55
02494:  MOVWF  FA7
02496:  MOVLW  AA
02498:  MOVWF  FA7
0249A:  BSF    FA6.1
0249C:  BTFSC  FA6.1
0249E:  BRA    249C
024A0:  BCF    FA6.2
024A2:  MOVF   00,W
024A4:  IORWF  FF2,F
024A6:  MOVLB  5
....................    } 
....................    if(Password[2]>9 || Password[2]<0){ 
024A8:  BTFSC  x2E.7
024AA:  BRA    24B2
024AC:  MOVF   x2E,W
024AE:  SUBLW  09
024B0:  BNC   24B8
024B2:  BTFSC  x2E.7
024B4:  BRA    24B8
024B6:  BRA    24E6
....................       Password[2]=0;write_eeprom(2,0); 
024B8:  CLRF   x2E
024BA:  CLRF   FAA
024BC:  MOVLW  02
024BE:  MOVWF  FA9
024C0:  CLRF   FA8
024C2:  BCF    FA6.6
024C4:  BCF    FA6.7
024C6:  BSF    FA6.2
024C8:  MOVF   FF2,W
024CA:  MOVWF  00
024CC:  BCF    FF2.7
024CE:  MOVLB  F
024D0:  MOVLW  55
024D2:  MOVWF  FA7
024D4:  MOVLW  AA
024D6:  MOVWF  FA7
024D8:  BSF    FA6.1
024DA:  BTFSC  FA6.1
024DC:  BRA    24DA
024DE:  BCF    FA6.2
024E0:  MOVF   00,W
024E2:  IORWF  FF2,F
024E4:  MOVLB  5
....................    } 
....................    if(Password[3]>9 || Password[3]<0){ 
024E6:  BTFSC  x2F.7
024E8:  BRA    24F0
024EA:  MOVF   x2F,W
024EC:  SUBLW  09
024EE:  BNC   24F6
024F0:  BTFSC  x2F.7
024F2:  BRA    24F6
024F4:  BRA    2524
....................       Password[3]=0;write_eeprom(3,0); 
024F6:  CLRF   x2F
024F8:  CLRF   FAA
024FA:  MOVLW  03
024FC:  MOVWF  FA9
024FE:  CLRF   FA8
02500:  BCF    FA6.6
02502:  BCF    FA6.7
02504:  BSF    FA6.2
02506:  MOVF   FF2,W
02508:  MOVWF  00
0250A:  BCF    FF2.7
0250C:  MOVLB  F
0250E:  MOVLW  55
02510:  MOVWF  FA7
02512:  MOVLW  AA
02514:  MOVWF  FA7
02516:  BSF    FA6.1
02518:  BTFSC  FA6.1
0251A:  BRA    2518
0251C:  BCF    FA6.2
0251E:  MOVF   00,W
02520:  IORWF  FF2,F
02522:  MOVLB  5
....................    } 
....................    if(Tpurgap[0]>9 || Tpurgap[0]<0){ 
02524:  BTFSC  x0C.7
02526:  BRA    252E
02528:  MOVF   x0C,W
0252A:  SUBLW  09
0252C:  BNC   2534
0252E:  BTFSC  x0C.7
02530:  BRA    2534
02532:  BRA    2562
....................       Tpurgap[0]=0;write_eeprom(4,0); 
02534:  CLRF   x0C
02536:  CLRF   FAA
02538:  MOVLW  04
0253A:  MOVWF  FA9
0253C:  CLRF   FA8
0253E:  BCF    FA6.6
02540:  BCF    FA6.7
02542:  BSF    FA6.2
02544:  MOVF   FF2,W
02546:  MOVWF  00
02548:  BCF    FF2.7
0254A:  MOVLB  F
0254C:  MOVLW  55
0254E:  MOVWF  FA7
02550:  MOVLW  AA
02552:  MOVWF  FA7
02554:  BSF    FA6.1
02556:  BTFSC  FA6.1
02558:  BRA    2556
0255A:  BCF    FA6.2
0255C:  MOVF   00,W
0255E:  IORWF  FF2,F
02560:  MOVLB  5
....................    } 
....................    if(Tpurgap[1]>9 || Tpurgap[1]<0){ 
02562:  BTFSC  x0D.7
02564:  BRA    256C
02566:  MOVF   x0D,W
02568:  SUBLW  09
0256A:  BNC   2572
0256C:  BTFSC  x0D.7
0256E:  BRA    2572
02570:  BRA    25A0
....................       Tpurgap[1]=0;write_eeprom(5,0); 
02572:  CLRF   x0D
02574:  CLRF   FAA
02576:  MOVLW  05
02578:  MOVWF  FA9
0257A:  CLRF   FA8
0257C:  BCF    FA6.6
0257E:  BCF    FA6.7
02580:  BSF    FA6.2
02582:  MOVF   FF2,W
02584:  MOVWF  00
02586:  BCF    FF2.7
02588:  MOVLB  F
0258A:  MOVLW  55
0258C:  MOVWF  FA7
0258E:  MOVLW  AA
02590:  MOVWF  FA7
02592:  BSF    FA6.1
02594:  BTFSC  FA6.1
02596:  BRA    2594
02598:  BCF    FA6.2
0259A:  MOVF   00,W
0259C:  IORWF  FF2,F
0259E:  MOVLB  5
....................    } 
....................    if(Tpurgap[2]>9 || Tpurgap[2]<0){ 
025A0:  BTFSC  x0E.7
025A2:  BRA    25AA
025A4:  MOVF   x0E,W
025A6:  SUBLW  09
025A8:  BNC   25B0
025AA:  BTFSC  x0E.7
025AC:  BRA    25B0
025AE:  BRA    25E2
....................       Tpurgap[2]=2;write_eeprom(6,2); 
025B0:  MOVLW  02
025B2:  MOVWF  x0E
025B4:  CLRF   FAA
025B6:  MOVLW  06
025B8:  MOVWF  FA9
025BA:  MOVLW  02
025BC:  MOVWF  FA8
025BE:  BCF    FA6.6
025C0:  BCF    FA6.7
025C2:  BSF    FA6.2
025C4:  MOVF   FF2,W
025C6:  MOVWF  00
025C8:  BCF    FF2.7
025CA:  MOVLB  F
025CC:  MOVLW  55
025CE:  MOVWF  FA7
025D0:  MOVLW  AA
025D2:  MOVWF  FA7
025D4:  BSF    FA6.1
025D6:  BTFSC  FA6.1
025D8:  BRA    25D6
025DA:  BCF    FA6.2
025DC:  MOVF   00,W
025DE:  IORWF  FF2,F
025E0:  MOVLB  5
....................    } 
....................    if(Tpurgap[3]>9 || Tpurgap[3]<0){ 
025E2:  BTFSC  x0F.7
025E4:  BRA    25EC
025E6:  MOVF   x0F,W
025E8:  SUBLW  09
025EA:  BNC   25F2
025EC:  BTFSC  x0F.7
025EE:  BRA    25F2
025F0:  BRA    2620
....................       Tpurgap[3]=0;write_eeprom(7,0); 
025F2:  CLRF   x0F
025F4:  CLRF   FAA
025F6:  MOVLW  07
025F8:  MOVWF  FA9
025FA:  CLRF   FA8
025FC:  BCF    FA6.6
025FE:  BCF    FA6.7
02600:  BSF    FA6.2
02602:  MOVF   FF2,W
02604:  MOVWF  00
02606:  BCF    FF2.7
02608:  MOVLB  F
0260A:  MOVLW  55
0260C:  MOVWF  FA7
0260E:  MOVLW  AA
02610:  MOVWF  FA7
02612:  BSF    FA6.1
02614:  BTFSC  FA6.1
02616:  BRA    2614
02618:  BCF    FA6.2
0261A:  MOVF   00,W
0261C:  IORWF  FF2,F
0261E:  MOVLB  5
....................    } 
....................    if(Tppurgap[0]>9 || Tppurgap[0]<0){ 
02620:  BTFSC  x14.7
02622:  BRA    262A
02624:  MOVF   x14,W
02626:  SUBLW  09
02628:  BNC   2630
0262A:  BTFSC  x14.7
0262C:  BRA    2630
0262E:  BRA    265E
....................       Tppurgap[0]=0;write_eeprom(8,0); 
02630:  CLRF   x14
02632:  CLRF   FAA
02634:  MOVLW  08
02636:  MOVWF  FA9
02638:  CLRF   FA8
0263A:  BCF    FA6.6
0263C:  BCF    FA6.7
0263E:  BSF    FA6.2
02640:  MOVF   FF2,W
02642:  MOVWF  00
02644:  BCF    FF2.7
02646:  MOVLB  F
02648:  MOVLW  55
0264A:  MOVWF  FA7
0264C:  MOVLW  AA
0264E:  MOVWF  FA7
02650:  BSF    FA6.1
02652:  BTFSC  FA6.1
02654:  BRA    2652
02656:  BCF    FA6.2
02658:  MOVF   00,W
0265A:  IORWF  FF2,F
0265C:  MOVLB  5
....................    } 
....................    if(Tppurgap[1]>9 || Tppurgap[1]<0){ 
0265E:  BTFSC  x15.7
02660:  BRA    2668
02662:  MOVF   x15,W
02664:  SUBLW  09
02666:  BNC   266E
02668:  BTFSC  x15.7
0266A:  BRA    266E
0266C:  BRA    269C
....................       Tppurgap[1]=0;write_eeprom(9,0); 
0266E:  CLRF   x15
02670:  CLRF   FAA
02672:  MOVLW  09
02674:  MOVWF  FA9
02676:  CLRF   FA8
02678:  BCF    FA6.6
0267A:  BCF    FA6.7
0267C:  BSF    FA6.2
0267E:  MOVF   FF2,W
02680:  MOVWF  00
02682:  BCF    FF2.7
02684:  MOVLB  F
02686:  MOVLW  55
02688:  MOVWF  FA7
0268A:  MOVLW  AA
0268C:  MOVWF  FA7
0268E:  BSF    FA6.1
02690:  BTFSC  FA6.1
02692:  BRA    2690
02694:  BCF    FA6.2
02696:  MOVF   00,W
02698:  IORWF  FF2,F
0269A:  MOVLB  5
....................    } 
....................    if(Tppurgap[2]>9 || Tppurgap[2]<0){ 
0269C:  BTFSC  x16.7
0269E:  BRA    26A6
026A0:  MOVF   x16,W
026A2:  SUBLW  09
026A4:  BNC   26AC
026A6:  BTFSC  x16.7
026A8:  BRA    26AC
026AA:  BRA    26DE
....................       Tppurgap[2]=2;write_eeprom(10,2); 
026AC:  MOVLW  02
026AE:  MOVWF  x16
026B0:  CLRF   FAA
026B2:  MOVLW  0A
026B4:  MOVWF  FA9
026B6:  MOVLW  02
026B8:  MOVWF  FA8
026BA:  BCF    FA6.6
026BC:  BCF    FA6.7
026BE:  BSF    FA6.2
026C0:  MOVF   FF2,W
026C2:  MOVWF  00
026C4:  BCF    FF2.7
026C6:  MOVLB  F
026C8:  MOVLW  55
026CA:  MOVWF  FA7
026CC:  MOVLW  AA
026CE:  MOVWF  FA7
026D0:  BSF    FA6.1
026D2:  BTFSC  FA6.1
026D4:  BRA    26D2
026D6:  BCF    FA6.2
026D8:  MOVF   00,W
026DA:  IORWF  FF2,F
026DC:  MOVLB  5
....................    } 
....................    if(Tppurgap[3]>9 || Tppurgap[3]<0){ 
026DE:  BTFSC  x17.7
026E0:  BRA    26E8
026E2:  MOVF   x17,W
026E4:  SUBLW  09
026E6:  BNC   26EE
026E8:  BTFSC  x17.7
026EA:  BRA    26EE
026EC:  BRA    271C
....................       Tppurgap[3]=0;write_eeprom(11,0); 
026EE:  CLRF   x17
026F0:  CLRF   FAA
026F2:  MOVLW  0B
026F4:  MOVWF  FA9
026F6:  CLRF   FA8
026F8:  BCF    FA6.6
026FA:  BCF    FA6.7
026FC:  BSF    FA6.2
026FE:  MOVF   FF2,W
02700:  MOVWF  00
02702:  BCF    FF2.7
02704:  MOVLB  F
02706:  MOVLW  55
02708:  MOVWF  FA7
0270A:  MOVLW  AA
0270C:  MOVWF  FA7
0270E:  BSF    FA6.1
02710:  BTFSC  FA6.1
02712:  BRA    2710
02714:  BCF    FA6.2
02716:  MOVF   00,W
02718:  IORWF  FF2,F
0271A:  MOVLB  5
....................    } 
....................    if(Tuv[0]>9 || Tuv[0]<0){ 
0271C:  BTFSC  x18.7
0271E:  BRA    2726
02720:  MOVF   x18,W
02722:  SUBLW  09
02724:  BNC   272C
02726:  BTFSC  x18.7
02728:  BRA    272C
0272A:  BRA    275A
....................       Tuv[0]=0;write_eeprom(12,0); 
0272C:  CLRF   x18
0272E:  CLRF   FAA
02730:  MOVLW  0C
02732:  MOVWF  FA9
02734:  CLRF   FA8
02736:  BCF    FA6.6
02738:  BCF    FA6.7
0273A:  BSF    FA6.2
0273C:  MOVF   FF2,W
0273E:  MOVWF  00
02740:  BCF    FF2.7
02742:  MOVLB  F
02744:  MOVLW  55
02746:  MOVWF  FA7
02748:  MOVLW  AA
0274A:  MOVWF  FA7
0274C:  BSF    FA6.1
0274E:  BTFSC  FA6.1
02750:  BRA    274E
02752:  BCF    FA6.2
02754:  MOVF   00,W
02756:  IORWF  FF2,F
02758:  MOVLB  5
....................    } 
....................    if(Tuv[1]>9 || Tuv[1]<0){ 
0275A:  BTFSC  x19.7
0275C:  BRA    2764
0275E:  MOVF   x19,W
02760:  SUBLW  09
02762:  BNC   276A
02764:  BTFSC  x19.7
02766:  BRA    276A
02768:  BRA    2798
....................       Tuv[1]=0;write_eeprom(13,0); 
0276A:  CLRF   x19
0276C:  CLRF   FAA
0276E:  MOVLW  0D
02770:  MOVWF  FA9
02772:  CLRF   FA8
02774:  BCF    FA6.6
02776:  BCF    FA6.7
02778:  BSF    FA6.2
0277A:  MOVF   FF2,W
0277C:  MOVWF  00
0277E:  BCF    FF2.7
02780:  MOVLB  F
02782:  MOVLW  55
02784:  MOVWF  FA7
02786:  MOVLW  AA
02788:  MOVWF  FA7
0278A:  BSF    FA6.1
0278C:  BTFSC  FA6.1
0278E:  BRA    278C
02790:  BCF    FA6.2
02792:  MOVF   00,W
02794:  IORWF  FF2,F
02796:  MOVLB  5
....................    } 
....................    if(Tuv[2]>9 || Tuv[2]<0){ 
02798:  BTFSC  x1A.7
0279A:  BRA    27A2
0279C:  MOVF   x1A,W
0279E:  SUBLW  09
027A0:  BNC   27A8
027A2:  BTFSC  x1A.7
027A4:  BRA    27A8
027A6:  BRA    27D6
....................       Tuv[2]=0;write_eeprom(14,0); 
027A8:  CLRF   x1A
027AA:  CLRF   FAA
027AC:  MOVLW  0E
027AE:  MOVWF  FA9
027B0:  CLRF   FA8
027B2:  BCF    FA6.6
027B4:  BCF    FA6.7
027B6:  BSF    FA6.2
027B8:  MOVF   FF2,W
027BA:  MOVWF  00
027BC:  BCF    FF2.7
027BE:  MOVLB  F
027C0:  MOVLW  55
027C2:  MOVWF  FA7
027C4:  MOVLW  AA
027C6:  MOVWF  FA7
027C8:  BSF    FA6.1
027CA:  BTFSC  FA6.1
027CC:  BRA    27CA
027CE:  BCF    FA6.2
027D0:  MOVF   00,W
027D2:  IORWF  FF2,F
027D4:  MOVLB  5
....................    } 
....................    if(Tuv[3]>9 || Tuv[3]<0){ 
027D6:  BTFSC  x1B.7
027D8:  BRA    27E0
027DA:  MOVF   x1B,W
027DC:  SUBLW  09
027DE:  BNC   27E6
027E0:  BTFSC  x1B.7
027E2:  BRA    27E6
027E4:  BRA    2814
....................       Tuv[3]=0;write_eeprom(15,0); 
027E6:  CLRF   x1B
027E8:  CLRF   FAA
027EA:  MOVLW  0F
027EC:  MOVWF  FA9
027EE:  CLRF   FA8
027F0:  BCF    FA6.6
027F2:  BCF    FA6.7
027F4:  BSF    FA6.2
027F6:  MOVF   FF2,W
027F8:  MOVWF  00
027FA:  BCF    FF2.7
027FC:  MOVLB  F
027FE:  MOVLW  55
02800:  MOVWF  FA7
02802:  MOVLW  AA
02804:  MOVWF  FA7
02806:  BSF    FA6.1
02808:  BTFSC  FA6.1
0280A:  BRA    2808
0280C:  BCF    FA6.2
0280E:  MOVF   00,W
02810:  IORWF  FF2,F
02812:  MOVLB  5
....................    } 
....................    if(Ttrabajo[0]>9 || Ttrabajo[0]<0){ 
02814:  BTFSC  x24.7
02816:  BRA    281E
02818:  MOVF   x24,W
0281A:  SUBLW  09
0281C:  BNC   2824
0281E:  BTFSC  x24.7
02820:  BRA    2824
02822:  BRA    2852
....................       Ttrabajo[0]=0;write_eeprom(16,0); 
02824:  CLRF   x24
02826:  CLRF   FAA
02828:  MOVLW  10
0282A:  MOVWF  FA9
0282C:  CLRF   FA8
0282E:  BCF    FA6.6
02830:  BCF    FA6.7
02832:  BSF    FA6.2
02834:  MOVF   FF2,W
02836:  MOVWF  00
02838:  BCF    FF2.7
0283A:  MOVLB  F
0283C:  MOVLW  55
0283E:  MOVWF  FA7
02840:  MOVLW  AA
02842:  MOVWF  FA7
02844:  BSF    FA6.1
02846:  BTFSC  FA6.1
02848:  BRA    2846
0284A:  BCF    FA6.2
0284C:  MOVF   00,W
0284E:  IORWF  FF2,F
02850:  MOVLB  5
....................    } 
....................    if(Ttrabajo[1]>9 || Ttrabajo[1]<0){ 
02852:  BTFSC  x25.7
02854:  BRA    285C
02856:  MOVF   x25,W
02858:  SUBLW  09
0285A:  BNC   2862
0285C:  BTFSC  x25.7
0285E:  BRA    2862
02860:  BRA    2890
....................       Ttrabajo[1]=0;write_eeprom(17,0); 
02862:  CLRF   x25
02864:  CLRF   FAA
02866:  MOVLW  11
02868:  MOVWF  FA9
0286A:  CLRF   FA8
0286C:  BCF    FA6.6
0286E:  BCF    FA6.7
02870:  BSF    FA6.2
02872:  MOVF   FF2,W
02874:  MOVWF  00
02876:  BCF    FF2.7
02878:  MOVLB  F
0287A:  MOVLW  55
0287C:  MOVWF  FA7
0287E:  MOVLW  AA
02880:  MOVWF  FA7
02882:  BSF    FA6.1
02884:  BTFSC  FA6.1
02886:  BRA    2884
02888:  BCF    FA6.2
0288A:  MOVF   00,W
0288C:  IORWF  FF2,F
0288E:  MOVLB  5
....................    } 
....................    if(Ttrabajo[2]>9 || Ttrabajo[2]<0){ 
02890:  BTFSC  x26.7
02892:  BRA    289A
02894:  MOVF   x26,W
02896:  SUBLW  09
02898:  BNC   28A0
0289A:  BTFSC  x26.7
0289C:  BRA    28A0
0289E:  BRA    28CE
....................       Ttrabajo[2]=0;write_eeprom(18,0); 
028A0:  CLRF   x26
028A2:  CLRF   FAA
028A4:  MOVLW  12
028A6:  MOVWF  FA9
028A8:  CLRF   FA8
028AA:  BCF    FA6.6
028AC:  BCF    FA6.7
028AE:  BSF    FA6.2
028B0:  MOVF   FF2,W
028B2:  MOVWF  00
028B4:  BCF    FF2.7
028B6:  MOVLB  F
028B8:  MOVLW  55
028BA:  MOVWF  FA7
028BC:  MOVLW  AA
028BE:  MOVWF  FA7
028C0:  BSF    FA6.1
028C2:  BTFSC  FA6.1
028C4:  BRA    28C2
028C6:  BCF    FA6.2
028C8:  MOVF   00,W
028CA:  IORWF  FF2,F
028CC:  MOVLB  5
....................    } 
....................    if(Ttrabajo[3]>9 || Ttrabajo[3]<0){ 
028CE:  BTFSC  x27.7
028D0:  BRA    28D8
028D2:  MOVF   x27,W
028D4:  SUBLW  09
028D6:  BNC   28DE
028D8:  BTFSC  x27.7
028DA:  BRA    28DE
028DC:  BRA    290C
....................       Ttrabajo[3]=0;write_eeprom(19,0); 
028DE:  CLRF   x27
028E0:  CLRF   FAA
028E2:  MOVLW  13
028E4:  MOVWF  FA9
028E6:  CLRF   FA8
028E8:  BCF    FA6.6
028EA:  BCF    FA6.7
028EC:  BSF    FA6.2
028EE:  MOVF   FF2,W
028F0:  MOVWF  00
028F2:  BCF    FF2.7
028F4:  MOVLB  F
028F6:  MOVLW  55
028F8:  MOVWF  FA7
028FA:  MOVLW  AA
028FC:  MOVWF  FA7
028FE:  BSF    FA6.1
02900:  BTFSC  FA6.1
02902:  BRA    2900
02904:  BCF    FA6.2
02906:  MOVF   00,W
02908:  IORWF  FF2,F
0290A:  MOVLB  5
....................    } 
....................    if(Tempouvp[0]>9 || Tempouvp[0]<0){ 
0290C:  BTFSC  x20.7
0290E:  BRA    2916
02910:  MOVF   x20,W
02912:  SUBLW  09
02914:  BNC   291C
02916:  BTFSC  x20.7
02918:  BRA    291C
0291A:  BRA    294A
....................       Tempouvp[0]=0;write_eeprom(21,0); 
0291C:  CLRF   x20
0291E:  CLRF   FAA
02920:  MOVLW  15
02922:  MOVWF  FA9
02924:  CLRF   FA8
02926:  BCF    FA6.6
02928:  BCF    FA6.7
0292A:  BSF    FA6.2
0292C:  MOVF   FF2,W
0292E:  MOVWF  00
02930:  BCF    FF2.7
02932:  MOVLB  F
02934:  MOVLW  55
02936:  MOVWF  FA7
02938:  MOVLW  AA
0293A:  MOVWF  FA7
0293C:  BSF    FA6.1
0293E:  BTFSC  FA6.1
02940:  BRA    293E
02942:  BCF    FA6.2
02944:  MOVF   00,W
02946:  IORWF  FF2,F
02948:  MOVLB  5
....................    } 
....................    if(Tempouvp[1]>9 || Tempouvp[1]<0){ 
0294A:  BTFSC  x21.7
0294C:  BRA    2954
0294E:  MOVF   x21,W
02950:  SUBLW  09
02952:  BNC   295A
02954:  BTFSC  x21.7
02956:  BRA    295A
02958:  BRA    2988
....................       Tempouvp[1]=0;write_eeprom(22,0); 
0295A:  CLRF   x21
0295C:  CLRF   FAA
0295E:  MOVLW  16
02960:  MOVWF  FA9
02962:  CLRF   FA8
02964:  BCF    FA6.6
02966:  BCF    FA6.7
02968:  BSF    FA6.2
0296A:  MOVF   FF2,W
0296C:  MOVWF  00
0296E:  BCF    FF2.7
02970:  MOVLB  F
02972:  MOVLW  55
02974:  MOVWF  FA7
02976:  MOVLW  AA
02978:  MOVWF  FA7
0297A:  BSF    FA6.1
0297C:  BTFSC  FA6.1
0297E:  BRA    297C
02980:  BCF    FA6.2
02982:  MOVF   00,W
02984:  IORWF  FF2,F
02986:  MOVLB  5
....................    } 
....................    if(Tempouvp[2]>9 || Tempouvp[2]<0){ 
02988:  BTFSC  x22.7
0298A:  BRA    2992
0298C:  MOVF   x22,W
0298E:  SUBLW  09
02990:  BNC   2998
02992:  BTFSC  x22.7
02994:  BRA    2998
02996:  BRA    29C6
....................       Tempouvp[2]=0;write_eeprom(23,0); 
02998:  CLRF   x22
0299A:  CLRF   FAA
0299C:  MOVLW  17
0299E:  MOVWF  FA9
029A0:  CLRF   FA8
029A2:  BCF    FA6.6
029A4:  BCF    FA6.7
029A6:  BSF    FA6.2
029A8:  MOVF   FF2,W
029AA:  MOVWF  00
029AC:  BCF    FF2.7
029AE:  MOVLB  F
029B0:  MOVLW  55
029B2:  MOVWF  FA7
029B4:  MOVLW  AA
029B6:  MOVWF  FA7
029B8:  BSF    FA6.1
029BA:  BTFSC  FA6.1
029BC:  BRA    29BA
029BE:  BCF    FA6.2
029C0:  MOVF   00,W
029C2:  IORWF  FF2,F
029C4:  MOVLB  5
....................    } 
....................    if(Tempouvp[3]>9 || Tempouvp[3]<0){ 
029C6:  BTFSC  x23.7
029C8:  BRA    29D0
029CA:  MOVF   x23,W
029CC:  SUBLW  09
029CE:  BNC   29D6
029D0:  BTFSC  x23.7
029D2:  BRA    29D6
029D4:  BRA    2A06
....................       Tempouvp[3]=1;write_eeprom(24,1); 
029D6:  MOVLW  01
029D8:  MOVWF  x23
029DA:  CLRF   FAA
029DC:  MOVLW  18
029DE:  MOVWF  FA9
029E0:  MOVLW  01
029E2:  MOVWF  FA8
029E4:  BCF    FA6.6
029E6:  BCF    FA6.7
029E8:  BSF    FA6.2
029EA:  MOVF   FF2,W
029EC:  MOVWF  00
029EE:  BCF    FF2.7
029F0:  MOVLB  F
029F2:  MOVLW  55
029F4:  MOVWF  FA7
029F6:  MOVLW  AA
029F8:  MOVWF  FA7
029FA:  BSF    FA6.1
029FC:  BTFSC  FA6.1
029FE:  BRA    29FC
02A00:  BCF    FA6.2
02A02:  MOVF   00,W
02A04:  IORWF  FF2,F
....................    } 
....................    if(Ajuste1>4.0){ 
02A06:  MOVLB  6
02A08:  CLRF   x5A
02A0A:  CLRF   x59
02A0C:  CLRF   x58
02A0E:  MOVLW  81
02A10:  MOVWF  x57
02A12:  MOVFF  563,65E
02A16:  MOVFF  562,65D
02A1A:  MOVFF  561,65C
02A1E:  MOVFF  560,65B
02A22:  MOVLB  0
02A24:  RCALL  23B2
02A26:  BNC   2A8E
....................       Ajuste1=0.6;write_eeprom(25,0);write_eeprom(26,60); 
02A28:  MOVLW  9A
02A2A:  MOVLB  5
02A2C:  MOVWF  x63
02A2E:  MOVLW  99
02A30:  MOVWF  x62
02A32:  MOVLW  19
02A34:  MOVWF  x61
02A36:  MOVLW  7E
02A38:  MOVWF  x60
02A3A:  CLRF   FAA
02A3C:  MOVLW  19
02A3E:  MOVWF  FA9
02A40:  CLRF   FA8
02A42:  BCF    FA6.6
02A44:  BCF    FA6.7
02A46:  BSF    FA6.2
02A48:  MOVF   FF2,W
02A4A:  MOVWF  00
02A4C:  BCF    FF2.7
02A4E:  MOVLB  F
02A50:  MOVLW  55
02A52:  MOVWF  FA7
02A54:  MOVLW  AA
02A56:  MOVWF  FA7
02A58:  BSF    FA6.1
02A5A:  BTFSC  FA6.1
02A5C:  BRA    2A5A
02A5E:  BCF    FA6.2
02A60:  MOVF   00,W
02A62:  IORWF  FF2,F
02A64:  CLRF   FAA
02A66:  MOVLW  1A
02A68:  MOVWF  FA9
02A6A:  MOVLW  3C
02A6C:  MOVWF  FA8
02A6E:  BCF    FA6.6
02A70:  BCF    FA6.7
02A72:  BSF    FA6.2
02A74:  MOVF   FF2,W
02A76:  MOVWF  00
02A78:  BCF    FF2.7
02A7A:  MOVLW  55
02A7C:  MOVWF  FA7
02A7E:  MOVLW  AA
02A80:  MOVWF  FA7
02A82:  BSF    FA6.1
02A84:  BTFSC  FA6.1
02A86:  BRA    2A84
02A88:  BCF    FA6.2
02A8A:  MOVF   00,W
02A8C:  IORWF  FF2,F
....................    } 
....................    if(Ajuste2>4.0){ 
02A8E:  MOVLB  6
02A90:  CLRF   x5A
02A92:  CLRF   x59
02A94:  CLRF   x58
02A96:  MOVLW  81
02A98:  MOVWF  x57
02A9A:  MOVFF  567,65E
02A9E:  MOVFF  566,65D
02AA2:  MOVFF  565,65C
02AA6:  MOVFF  564,65B
02AAA:  MOVLB  0
02AAC:  RCALL  23B2
02AAE:  BNC   2B10
....................       Ajuste2=1.0;write_eeprom(27,1);write_eeprom(28,0); 
02AB0:  MOVLB  5
02AB2:  CLRF   x67
02AB4:  CLRF   x66
02AB6:  CLRF   x65
02AB8:  MOVLW  7F
02ABA:  MOVWF  x64
02ABC:  CLRF   FAA
02ABE:  MOVLW  1B
02AC0:  MOVWF  FA9
02AC2:  MOVLW  01
02AC4:  MOVWF  FA8
02AC6:  BCF    FA6.6
02AC8:  BCF    FA6.7
02ACA:  BSF    FA6.2
02ACC:  MOVF   FF2,W
02ACE:  MOVWF  00
02AD0:  BCF    FF2.7
02AD2:  MOVLB  F
02AD4:  MOVLW  55
02AD6:  MOVWF  FA7
02AD8:  MOVLW  AA
02ADA:  MOVWF  FA7
02ADC:  BSF    FA6.1
02ADE:  BTFSC  FA6.1
02AE0:  BRA    2ADE
02AE2:  BCF    FA6.2
02AE4:  MOVF   00,W
02AE6:  IORWF  FF2,F
02AE8:  CLRF   FAA
02AEA:  MOVLW  1C
02AEC:  MOVWF  FA9
02AEE:  CLRF   FA8
02AF0:  BCF    FA6.6
02AF2:  BCF    FA6.7
02AF4:  BSF    FA6.2
02AF6:  MOVF   FF2,W
02AF8:  MOVWF  00
02AFA:  BCF    FF2.7
02AFC:  MOVLW  55
02AFE:  MOVWF  FA7
02B00:  MOVLW  AA
02B02:  MOVWF  FA7
02B04:  BSF    FA6.1
02B06:  BTFSC  FA6.1
02B08:  BRA    2B06
02B0A:  BCF    FA6.2
02B0C:  MOVF   00,W
02B0E:  IORWF  FF2,F
....................    } 
....................    if(zero_actual>240){ 
02B10:  MOVLB  6
02B12:  CLRF   x5A
02B14:  CLRF   x59
02B16:  MOVLW  70
02B18:  MOVWF  x58
02B1A:  MOVLW  86
02B1C:  MOVWF  x57
02B1E:  MOVFF  5D7,65E
02B22:  MOVFF  5D6,65D
02B26:  MOVFF  5D5,65C
02B2A:  MOVFF  5D4,65B
02B2E:  MOVLB  0
02B30:  RCALL  23B2
02B32:  BNC   2B96
....................       zero_actual=203;write_eeprom(29,203);write_eeprom(30,0); 
02B34:  MOVLB  5
02B36:  CLRF   xD7
02B38:  CLRF   xD6
02B3A:  MOVLW  4B
02B3C:  MOVWF  xD5
02B3E:  MOVLW  86
02B40:  MOVWF  xD4
02B42:  CLRF   FAA
02B44:  MOVLW  1D
02B46:  MOVWF  FA9
02B48:  MOVLW  CB
02B4A:  MOVWF  FA8
02B4C:  BCF    FA6.6
02B4E:  BCF    FA6.7
02B50:  BSF    FA6.2
02B52:  MOVF   FF2,W
02B54:  MOVWF  00
02B56:  BCF    FF2.7
02B58:  MOVLB  F
02B5A:  MOVLW  55
02B5C:  MOVWF  FA7
02B5E:  MOVLW  AA
02B60:  MOVWF  FA7
02B62:  BSF    FA6.1
02B64:  BTFSC  FA6.1
02B66:  BRA    2B64
02B68:  BCF    FA6.2
02B6A:  MOVF   00,W
02B6C:  IORWF  FF2,F
02B6E:  CLRF   FAA
02B70:  MOVLW  1E
02B72:  MOVWF  FA9
02B74:  CLRF   FA8
02B76:  BCF    FA6.6
02B78:  BCF    FA6.7
02B7A:  BSF    FA6.2
02B7C:  MOVF   FF2,W
02B7E:  MOVWF  00
02B80:  BCF    FF2.7
02B82:  MOVLW  55
02B84:  MOVWF  FA7
02B86:  MOVLW  AA
02B88:  MOVWF  FA7
02B8A:  BSF    FA6.1
02B8C:  BTFSC  FA6.1
02B8E:  BRA    2B8C
02B90:  BCF    FA6.2
02B92:  MOVF   00,W
02B94:  IORWF  FF2,F
....................    } 
....................    if(minutos_uv>60){ 
02B96:  MOVLB  4
02B98:  MOVF   xE9,W
02B9A:  SUBLW  3C
02B9C:  BC    2BCC
....................       minutos_uv=0;write_eeprom(31,0); 
02B9E:  CLRF   xE9
02BA0:  CLRF   FAA
02BA2:  MOVLW  1F
02BA4:  MOVWF  FA9
02BA6:  CLRF   FA8
02BA8:  BCF    FA6.6
02BAA:  BCF    FA6.7
02BAC:  BSF    FA6.2
02BAE:  MOVF   FF2,W
02BB0:  MOVWF  00
02BB2:  BCF    FF2.7
02BB4:  MOVLB  F
02BB6:  MOVLW  55
02BB8:  MOVWF  FA7
02BBA:  MOVLW  AA
02BBC:  MOVWF  FA7
02BBE:  BSF    FA6.1
02BC0:  BTFSC  FA6.1
02BC2:  BRA    2BC0
02BC4:  BCF    FA6.2
02BC6:  MOVF   00,W
02BC8:  IORWF  FF2,F
02BCA:  MOVLB  4
....................    } 
....................    if(VelMotor>6){ 
02BCC:  MOVF   xF9,W
02BCE:  SUBLW  06
02BD0:  BC    2C02
....................       VelMotor=2;write_eeprom(32,2); 
02BD2:  MOVLW  02
02BD4:  MOVWF  xF9
02BD6:  CLRF   FAA
02BD8:  MOVLW  20
02BDA:  MOVWF  FA9
02BDC:  MOVLW  02
02BDE:  MOVWF  FA8
02BE0:  BCF    FA6.6
02BE2:  BCF    FA6.7
02BE4:  BSF    FA6.2
02BE6:  MOVF   FF2,W
02BE8:  MOVWF  00
02BEA:  BCF    FF2.7
02BEC:  MOVLB  F
02BEE:  MOVLW  55
02BF0:  MOVWF  FA7
02BF2:  MOVLW  AA
02BF4:  MOVWF  FA7
02BF6:  BSF    FA6.1
02BF8:  BTFSC  FA6.1
02BFA:  BRA    2BF8
02BFC:  BCF    FA6.2
02BFE:  MOVF   00,W
02C00:  IORWF  FF2,F
....................    }    
....................    if(minutos_trabajo>3600){ 
02C02:  MOVLB  5
02C04:  MOVF   x05,W
02C06:  SUBLW  0D
02C08:  BC    2C6A
02C0A:  XORLW  FF
02C0C:  BNZ   2C14
02C0E:  MOVF   x04,W
02C10:  SUBLW  10
02C12:  BC    2C6A
....................       minutos_trabajo=0;write_eeprom(33,0);write_eeprom(34,0); 
02C14:  CLRF   x05
02C16:  CLRF   x04
02C18:  CLRF   FAA
02C1A:  MOVLW  21
02C1C:  MOVWF  FA9
02C1E:  CLRF   FA8
02C20:  BCF    FA6.6
02C22:  BCF    FA6.7
02C24:  BSF    FA6.2
02C26:  MOVF   FF2,W
02C28:  MOVWF  00
02C2A:  BCF    FF2.7
02C2C:  MOVLB  F
02C2E:  MOVLW  55
02C30:  MOVWF  FA7
02C32:  MOVLW  AA
02C34:  MOVWF  FA7
02C36:  BSF    FA6.1
02C38:  BTFSC  FA6.1
02C3A:  BRA    2C38
02C3C:  BCF    FA6.2
02C3E:  MOVF   00,W
02C40:  IORWF  FF2,F
02C42:  CLRF   FAA
02C44:  MOVLW  22
02C46:  MOVWF  FA9
02C48:  CLRF   FA8
02C4A:  BCF    FA6.6
02C4C:  BCF    FA6.7
02C4E:  BSF    FA6.2
02C50:  MOVF   FF2,W
02C52:  MOVWF  00
02C54:  BCF    FF2.7
02C56:  MOVLW  55
02C58:  MOVWF  FA7
02C5A:  MOVLW  AA
02C5C:  MOVWF  FA7
02C5E:  BSF    FA6.1
02C60:  BTFSC  FA6.1
02C62:  BRA    2C60
02C64:  BCF    FA6.2
02C66:  MOVF   00,W
02C68:  IORWF  FF2,F
....................    } 
....................    if(Relacion>1.0){ 
02C6A:  MOVLB  6
02C6C:  CLRF   x5A
02C6E:  CLRF   x59
02C70:  CLRF   x58
02C72:  MOVLW  7F
02C74:  MOVWF  x57
02C76:  MOVFF  5EB,65E
02C7A:  MOVFF  5EA,65D
02C7E:  MOVFF  5E9,65C
02C82:  MOVFF  5E8,65B
02C86:  MOVLB  0
02C88:  CALL   23B2
02C8C:  BNC   2CF4
....................       Relacion=0.77;write_eeprom(35,0);write_eeprom(36,77); 
02C8E:  MOVLW  B8
02C90:  MOVLB  5
02C92:  MOVWF  xEB
02C94:  MOVLW  1E
02C96:  MOVWF  xEA
02C98:  MOVLW  45
02C9A:  MOVWF  xE9
02C9C:  MOVLW  7E
02C9E:  MOVWF  xE8
02CA0:  CLRF   FAA
02CA2:  MOVLW  23
02CA4:  MOVWF  FA9
02CA6:  CLRF   FA8
02CA8:  BCF    FA6.6
02CAA:  BCF    FA6.7
02CAC:  BSF    FA6.2
02CAE:  MOVF   FF2,W
02CB0:  MOVWF  00
02CB2:  BCF    FF2.7
02CB4:  MOVLB  F
02CB6:  MOVLW  55
02CB8:  MOVWF  FA7
02CBA:  MOVLW  AA
02CBC:  MOVWF  FA7
02CBE:  BSF    FA6.1
02CC0:  BTFSC  FA6.1
02CC2:  BRA    2CC0
02CC4:  BCF    FA6.2
02CC6:  MOVF   00,W
02CC8:  IORWF  FF2,F
02CCA:  CLRF   FAA
02CCC:  MOVLW  24
02CCE:  MOVWF  FA9
02CD0:  MOVLW  4D
02CD2:  MOVWF  FA8
02CD4:  BCF    FA6.6
02CD6:  BCF    FA6.7
02CD8:  BSF    FA6.2
02CDA:  MOVF   FF2,W
02CDC:  MOVWF  00
02CDE:  BCF    FF2.7
02CE0:  MOVLW  55
02CE2:  MOVWF  FA7
02CE4:  MOVLW  AA
02CE6:  MOVWF  FA7
02CE8:  BSF    FA6.1
02CEA:  BTFSC  FA6.1
02CEC:  BRA    2CEA
02CEE:  BCF    FA6.2
02CF0:  MOVF   00,W
02CF2:  IORWF  FF2,F
....................    } 
....................    if(Pinicial>100){ 
02CF4:  MOVLB  4
02CF6:  MOVF   xEA,W
02CF8:  SUBLW  64
02CFA:  BC    2D2E
....................       Pinicial=50;write_eeprom(40,50); 
02CFC:  MOVLW  32
02CFE:  MOVWF  xEA
02D00:  CLRF   FAA
02D02:  MOVLW  28
02D04:  MOVWF  FA9
02D06:  MOVLW  32
02D08:  MOVWF  FA8
02D0A:  BCF    FA6.6
02D0C:  BCF    FA6.7
02D0E:  BSF    FA6.2
02D10:  MOVF   FF2,W
02D12:  MOVWF  00
02D14:  BCF    FF2.7
02D16:  MOVLB  F
02D18:  MOVLW  55
02D1A:  MOVWF  FA7
02D1C:  MOVLW  AA
02D1E:  MOVWF  FA7
02D20:  BSF    FA6.1
02D22:  BTFSC  FA6.1
02D24:  BRA    2D22
02D26:  BCF    FA6.2
02D28:  MOVF   00,W
02D2A:  IORWF  FF2,F
02D2C:  MOVLB  4
....................    } 
....................    if(Pfinal>100){ 
02D2E:  MOVF   xEB,W
02D30:  SUBLW  64
02D32:  BC    2D64
....................       Pfinal=20;write_eeprom(41,20); 
02D34:  MOVLW  14
02D36:  MOVWF  xEB
02D38:  CLRF   FAA
02D3A:  MOVLW  29
02D3C:  MOVWF  FA9
02D3E:  MOVLW  14
02D40:  MOVWF  FA8
02D42:  BCF    FA6.6
02D44:  BCF    FA6.7
02D46:  BSF    FA6.2
02D48:  MOVF   FF2,W
02D4A:  MOVWF  00
02D4C:  BCF    FF2.7
02D4E:  MOVLB  F
02D50:  MOVLW  55
02D52:  MOVWF  FA7
02D54:  MOVLW  AA
02D56:  MOVWF  FA7
02D58:  BSF    FA6.1
02D5A:  BTFSC  FA6.1
02D5C:  BRA    2D5A
02D5E:  BCF    FA6.2
02D60:  MOVF   00,W
02D62:  IORWF  FF2,F
....................    } 
....................    if(Diferencia>50){ 
02D64:  MOVLB  6
02D66:  CLRF   x5A
02D68:  CLRF   x59
02D6A:  MOVLW  48
02D6C:  MOVWF  x58
02D6E:  MOVLW  84
02D70:  MOVWF  x57
02D72:  MOVFF  53F,65E
02D76:  MOVFF  53E,65D
02D7A:  MOVFF  53D,65C
02D7E:  MOVFF  53C,65B
02D82:  MOVLB  0
02D84:  CALL   23B2
02D88:  BNC   2DE6
....................       Diferencia=0;write_eeprom(60,0);write_eeprom(61,0); 
02D8A:  MOVLB  5
02D8C:  CLRF   x3F
02D8E:  CLRF   x3E
02D90:  CLRF   x3D
02D92:  CLRF   x3C
02D94:  CLRF   FAA
02D96:  MOVLW  3C
02D98:  MOVWF  FA9
02D9A:  CLRF   FA8
02D9C:  BCF    FA6.6
02D9E:  BCF    FA6.7
02DA0:  BSF    FA6.2
02DA2:  MOVF   FF2,W
02DA4:  MOVWF  00
02DA6:  BCF    FF2.7
02DA8:  MOVLB  F
02DAA:  MOVLW  55
02DAC:  MOVWF  FA7
02DAE:  MOVLW  AA
02DB0:  MOVWF  FA7
02DB2:  BSF    FA6.1
02DB4:  BTFSC  FA6.1
02DB6:  BRA    2DB4
02DB8:  BCF    FA6.2
02DBA:  MOVF   00,W
02DBC:  IORWF  FF2,F
02DBE:  CLRF   FAA
02DC0:  MOVLW  3D
02DC2:  MOVWF  FA9
02DC4:  CLRF   FA8
02DC6:  BCF    FA6.6
02DC8:  BCF    FA6.7
02DCA:  BSF    FA6.2
02DCC:  MOVF   FF2,W
02DCE:  MOVWF  00
02DD0:  BCF    FF2.7
02DD2:  MOVLW  55
02DD4:  MOVWF  FA7
02DD6:  MOVLW  AA
02DD8:  MOVWF  FA7
02DDA:  BSF    FA6.1
02DDC:  BTFSC  FA6.1
02DDE:  BRA    2DDC
02DE0:  BCF    FA6.2
02DE2:  MOVF   00,W
02DE4:  IORWF  FF2,F
....................    } 
....................    if(G>250){ 
02DE6:  MOVLB  6
02DE8:  CLRF   x5A
02DEA:  CLRF   x59
02DEC:  MOVLW  7A
02DEE:  MOVWF  x58
02DF0:  MOVLW  86
02DF2:  MOVWF  x57
02DF4:  MOVFF  5E3,65E
02DF8:  MOVFF  5E2,65D
02DFC:  MOVFF  5E1,65C
02E00:  MOVFF  5E0,65B
02E04:  MOVLB  0
02E06:  CALL   23B2
02E0A:  BNC   2E6E
....................       G=240;write_eeprom(62,240);write_eeprom(63,0); 
02E0C:  MOVLB  5
02E0E:  CLRF   xE3
02E10:  CLRF   xE2
02E12:  MOVLW  70
02E14:  MOVWF  xE1
02E16:  MOVLW  86
02E18:  MOVWF  xE0
02E1A:  CLRF   FAA
02E1C:  MOVLW  3E
02E1E:  MOVWF  FA9
02E20:  MOVLW  F0
02E22:  MOVWF  FA8
02E24:  BCF    FA6.6
02E26:  BCF    FA6.7
02E28:  BSF    FA6.2
02E2A:  MOVF   FF2,W
02E2C:  MOVWF  00
02E2E:  BCF    FF2.7
02E30:  MOVLB  F
02E32:  MOVLW  55
02E34:  MOVWF  FA7
02E36:  MOVLW  AA
02E38:  MOVWF  FA7
02E3A:  BSF    FA6.1
02E3C:  BTFSC  FA6.1
02E3E:  BRA    2E3C
02E40:  BCF    FA6.2
02E42:  MOVF   00,W
02E44:  IORWF  FF2,F
02E46:  CLRF   FAA
02E48:  MOVLW  3F
02E4A:  MOVWF  FA9
02E4C:  CLRF   FA8
02E4E:  BCF    FA6.6
02E50:  BCF    FA6.7
02E52:  BSF    FA6.2
02E54:  MOVF   FF2,W
02E56:  MOVWF  00
02E58:  BCF    FF2.7
02E5A:  MOVLW  55
02E5C:  MOVWF  FA7
02E5E:  MOVLW  AA
02E60:  MOVWF  FA7
02E62:  BSF    FA6.1
02E64:  BTFSC  FA6.1
02E66:  BRA    2E64
02E68:  BCF    FA6.2
02E6A:  MOVF   00,W
02E6C:  IORWF  FF2,F
....................    } 
....................    if(negativo>20){ 
02E6E:  MOVLB  4
02E70:  MOVF   xE5,W
02E72:  SUBLW  14
02E74:  BC    2EA8
....................       negativo=10;write_eeprom(50,10); 
02E76:  MOVLW  0A
02E78:  MOVWF  xE5
02E7A:  CLRF   FAA
02E7C:  MOVLW  32
02E7E:  MOVWF  FA9
02E80:  MOVLW  0A
02E82:  MOVWF  FA8
02E84:  BCF    FA6.6
02E86:  BCF    FA6.7
02E88:  BSF    FA6.2
02E8A:  MOVF   FF2,W
02E8C:  MOVWF  00
02E8E:  BCF    FF2.7
02E90:  MOVLB  F
02E92:  MOVLW  55
02E94:  MOVWF  FA7
02E96:  MOVLW  AA
02E98:  MOVWF  FA7
02E9A:  BSF    FA6.1
02E9C:  BTFSC  FA6.1
02E9E:  BRA    2E9C
02EA0:  BCF    FA6.2
02EA2:  MOVF   00,W
02EA4:  IORWF  FF2,F
02EA6:  MOVLB  4
....................    } 
.................... } 
02EA8:  MOVLB  0
02EAA:  GOTO   53B8 (RETURN)
....................  
.................... void VelocidadMotor(int8 Vel){ 
....................    if(Vel==0){ 
*
045D2:  MOVLB  6
045D4:  MOVF   x52,F
045D6:  BNZ   45EA
....................       Motor1L_off; 
045D8:  BCF    F8B.4
045DA:  BCF    F94.4
....................       Motor1H_off; 
045DC:  BCF    F8B.5
045DE:  BCF    F94.5
....................       Motor2L_off; 
045E0:  BCF    F8B.6
045E2:  BCF    F94.6
....................       Motor2H_off; 
045E4:  BCF    F8B.7
045E6:  BCF    F94.7
....................    }else if(Vel==3){ 
045E8:  BRA    4676
045EA:  MOVF   x52,W
045EC:  SUBLW  03
045EE:  BNZ   4602
....................       Motor1L_on; 
045F0:  BSF    F8B.4
045F2:  BCF    F94.4
....................       Motor1H_off; 
045F4:  BCF    F8B.5
045F6:  BCF    F94.5
....................       Motor2L_on; 
045F8:  BSF    F8B.6
045FA:  BCF    F94.6
....................       Motor2H_off; 
045FC:  BCF    F8B.7
045FE:  BCF    F94.7
....................    }else if(Vel==2){ 
04600:  BRA    4676
04602:  MOVF   x52,W
04604:  SUBLW  02
04606:  BNZ   461A
....................       Motor1L_off; 
04608:  BCF    F8B.4
0460A:  BCF    F94.4
....................       Motor1H_on; 
0460C:  BSF    F8B.5
0460E:  BCF    F94.5
....................       Motor2L_off; 
04610:  BCF    F8B.6
04612:  BCF    F94.6
....................       Motor2H_on; 
04614:  BSF    F8B.7
04616:  BCF    F94.7
....................    }else if(Vel==1){ 
04618:  BRA    4676
0461A:  DECFSZ x52,W
0461C:  BRA    4630
....................       Motor1L_on; 
0461E:  BSF    F8B.4
04620:  BCF    F94.4
....................       Motor1H_off; 
04622:  BCF    F8B.5
04624:  BCF    F94.5
....................       Motor2L_off; 
04626:  BCF    F8B.6
04628:  BCF    F94.6
....................       Motor2H_off; 
0462A:  BCF    F8B.7
0462C:  BCF    F94.7
....................    }else if(Vel==4){ 
0462E:  BRA    4676
04630:  MOVF   x52,W
04632:  SUBLW  04
04634:  BNZ   4648
....................       Motor1L_off; 
04636:  BCF    F8B.4
04638:  BCF    F94.4
....................       Motor1H_on; 
0463A:  BSF    F8B.5
0463C:  BCF    F94.5
....................       Motor2L_off; 
0463E:  BCF    F8B.6
04640:  BCF    F94.6
....................       Motor2H_off; 
04642:  BCF    F8B.7
04644:  BCF    F94.7
....................    }else if(Vel==5){ 
04646:  BRA    4676
04648:  MOVF   x52,W
0464A:  SUBLW  05
0464C:  BNZ   4660
....................       Motor1L_off; 
0464E:  BCF    F8B.4
04650:  BCF    F94.4
....................       Motor1H_off; 
04652:  BCF    F8B.5
04654:  BCF    F94.5
....................       Motor2L_on; 
04656:  BSF    F8B.6
04658:  BCF    F94.6
....................       Motor2H_off; 
0465A:  BCF    F8B.7
0465C:  BCF    F94.7
....................    }else if(Vel==6){ 
0465E:  BRA    4676
04660:  MOVF   x52,W
04662:  SUBLW  06
04664:  BNZ   4676
....................       Motor1L_off; 
04666:  BCF    F8B.4
04668:  BCF    F94.4
....................       Motor1H_off; 
0466A:  BCF    F8B.5
0466C:  BCF    F94.5
....................       Motor2L_off; 
0466E:  BCF    F8B.6
04670:  BCF    F94.6
....................       Motor2H_on; 
04672:  BSF    F8B.7
04674:  BCF    F94.7
....................    } 
.................... } 
04676:  MOVLB  0
04678:  RETLW  00
....................  
.................... short PidePassword(int8 MenuAnt, int8 MenuActual, int8 MenuPost, int8 clave0,int8 clave1, int8 clave2,int8 clave3){ 
....................       if(n==0) 
*
03ECE:  MOVLB  4
03ED0:  BTFSC  x1C.7
03ED2:  BRA    3F6A
....................       { 
....................          displayContrasena(Contrasena[0],20,30,1);displayContrasena(Contrasena[1],40,30,0); 
03ED4:  MOVFF  528,65C
03ED8:  MOVLW  14
03EDA:  MOVLB  6
03EDC:  MOVWF  x5D
03EDE:  MOVLW  1E
03EE0:  MOVWF  x5E
03EE2:  MOVLW  01
03EE4:  MOVWF  x5F
03EE6:  MOVLB  0
03EE8:  RCALL  3D4C
03EEA:  MOVFF  529,65C
03EEE:  MOVLW  28
03EF0:  MOVLB  6
03EF2:  MOVWF  x5D
03EF4:  MOVLW  1E
03EF6:  MOVWF  x5E
03EF8:  CLRF   x5F
03EFA:  MOVLB  0
03EFC:  RCALL  3D4C
....................          displayContrasena(Contrasena[2],60,30,0);displayContrasena(Contrasena[0],80,30,0); 
03EFE:  MOVFF  52A,65C
03F02:  MOVLW  3C
03F04:  MOVLB  6
03F06:  MOVWF  x5D
03F08:  MOVLW  1E
03F0A:  MOVWF  x5E
03F0C:  CLRF   x5F
03F0E:  MOVLB  0
03F10:  RCALL  3D4C
03F12:  MOVFF  528,65C
03F16:  MOVLW  50
03F18:  MOVLB  6
03F1A:  MOVWF  x5D
03F1C:  MOVLW  1E
03F1E:  MOVWF  x5E
03F20:  CLRF   x5F
03F22:  MOVLB  0
03F24:  RCALL  3D4C
....................          strcpy(Menus.Letra,"Clave"); 
03F26:  MOVLW  06
03F28:  MOVWF  FEA
03F2A:  MOVLW  3C
03F2C:  MOVWF  FE9
03F2E:  MOVFF  FF2,65A
03F32:  BCF    FF2.7
03F34:  MOVLW  00
03F36:  CALL   0F0A
03F3A:  TBLRD*-
03F3C:  TBLRD*+
03F3E:  MOVF   FF5,W
03F40:  MOVWF  FEE
03F42:  IORLW  00
03F44:  BNZ   3F3C
03F46:  MOVLB  6
03F48:  BTFSC  x5A.7
03F4A:  BSF    FF2.7
....................          displayMenu(Menus.Letra,20,0,1,3); 
03F4C:  MOVLW  06
03F4E:  MOVWF  x5B
03F50:  MOVLW  3C
03F52:  MOVWF  x5A
03F54:  MOVLW  14
03F56:  MOVWF  x5C
03F58:  CLRF   x5D
03F5A:  MOVLW  01
03F5C:  MOVWF  x5E
03F5E:  MOVLW  03
03F60:  MOVWF  x5F
03F62:  MOVLB  0
03F64:  RCALL  3E02
....................          n=1; 
03F66:  MOVLB  4
03F68:  BSF    x1C.7
....................       } 
....................        
....................       if(UP){ 
03F6A:  BSF    F92.4
03F6C:  BTFSC  F80.4
03F6E:  BRA    404A
....................          flag_latencia=0;t_latencia=0; 
03F70:  BCF    x1C.3
03F72:  MOVLB  5
03F74:  CLRF   x01
03F76:  CLRF   x00
....................          if(Flanco == 0){ 
03F78:  MOVLB  4
03F7A:  BTFSC  x1A.0
03F7C:  BRA    4048
....................             Flanco = 1;delay_ms(5); 
03F7E:  BSF    x1A.0
03F80:  MOVLW  05
03F82:  MOVLB  6
03F84:  MOVWF  x5B
03F86:  MOVLB  0
03F88:  CALL   16D4
....................             for(i=1;i<=4;i++){ 
03F8C:  MOVLW  01
03F8E:  MOVLB  4
03F90:  MOVWF  x19
03F92:  MOVF   x19,W
03F94:  SUBLW  04
03F96:  BNC   4048
....................                if(unidad==i){ 
03F98:  MOVF   x19,W
03F9A:  SUBWF  xE2,W
03F9C:  BNZ   4012
....................                   Contrasena[i-1]++; 
03F9E:  MOVLW  01
03FA0:  SUBWF  x19,W
03FA2:  CLRF   03
03FA4:  ADDLW  28
03FA6:  MOVWF  FE9
03FA8:  MOVLW  05
03FAA:  ADDWFC 03,W
03FAC:  MOVWF  FEA
03FAE:  INCF   FEF,F
....................                   if(Contrasena[i-1]>9){ 
03FB0:  MOVLW  01
03FB2:  SUBWF  x19,W
03FB4:  CLRF   03
03FB6:  ADDLW  28
03FB8:  MOVWF  FE9
03FBA:  MOVLW  05
03FBC:  ADDWFC 03,W
03FBE:  MOVWF  FEA
03FC0:  BTFSC  FEF.7
03FC2:  BRA    3FDC
03FC4:  MOVF   FEF,W
03FC6:  SUBLW  09
03FC8:  BC    3FDC
....................                      Contrasena[i-1]=0; 
03FCA:  MOVLW  01
03FCC:  SUBWF  x19,W
03FCE:  CLRF   03
03FD0:  ADDLW  28
03FD2:  MOVWF  FE9
03FD4:  MOVLW  05
03FD6:  ADDWFC 03,W
03FD8:  MOVWF  FEA
03FDA:  CLRF   FEF
....................                   } 
....................                   displayContrasena(Contrasena[i-1],i*20,30,1); 
03FDC:  MOVLW  01
03FDE:  SUBWF  x19,W
03FE0:  CLRF   03
03FE2:  ADDLW  28
03FE4:  MOVWF  FE9
03FE6:  MOVLW  05
03FE8:  ADDWFC 03,W
03FEA:  MOVWF  FEA
03FEC:  MOVFF  FEF,65A
03FF0:  MOVF   x19,W
03FF2:  MULLW  14
03FF4:  MOVFF  FF3,65B
03FF8:  MOVLB  6
03FFA:  MOVFF  65A,65C
03FFE:  MOVFF  65B,65D
04002:  MOVLW  1E
04004:  MOVWF  x5E
04006:  MOVLW  01
04008:  MOVWF  x5F
0400A:  MOVLB  0
0400C:  RCALL  3D4C
....................                }else{ 
0400E:  BRA    4042
04010:  MOVLB  4
....................                   displayContrasena(Contrasena[i-1],i*20,30,0); 
04012:  MOVLW  01
04014:  SUBWF  x19,W
04016:  CLRF   03
04018:  ADDLW  28
0401A:  MOVWF  FE9
0401C:  MOVLW  05
0401E:  ADDWFC 03,W
04020:  MOVWF  FEA
04022:  MOVFF  FEF,65A
04026:  MOVF   x19,W
04028:  MULLW  14
0402A:  MOVFF  FF3,65B
0402E:  MOVLB  6
04030:  MOVFF  65A,65C
04034:  MOVFF  65B,65D
04038:  MOVLW  1E
0403A:  MOVWF  x5E
0403C:  CLRF   x5F
0403E:  MOVLB  0
04040:  RCALL  3D4C
....................                } 
....................             } 
04042:  MOVLB  4
04044:  INCF   x19,F
04046:  BRA    3F92
....................          } 
....................       }else{ 
04048:  BRA    404C
....................          Flanco = 0; 
0404A:  BCF    x1A.0
....................       } 
....................              
....................       if(DOWN){ 
0404C:  BSF    F92.5
0404E:  BTFSC  F80.5
04050:  BRA    412A
....................          flag_latencia=0;t_latencia=0; 
04052:  BCF    x1C.3
04054:  MOVLB  5
04056:  CLRF   x01
04058:  CLRF   x00
....................          if(Flanco2 == 0){ 
0405A:  MOVLB  4
0405C:  BTFSC  x1A.2
0405E:  BRA    4128
....................             Flanco2 = 1;delay_ms(5); 
04060:  BSF    x1A.2
04062:  MOVLW  05
04064:  MOVLB  6
04066:  MOVWF  x5B
04068:  MOVLB  0
0406A:  CALL   16D4
....................             for(i=1;i<=4;i++){ 
0406E:  MOVLW  01
04070:  MOVLB  4
04072:  MOVWF  x19
04074:  MOVF   x19,W
04076:  SUBLW  04
04078:  BNC   4128
....................                if(unidad==i){ 
0407A:  MOVF   x19,W
0407C:  SUBWF  xE2,W
0407E:  BNZ   40F2
....................                   Contrasena[i-1]--; 
04080:  MOVLW  01
04082:  SUBWF  x19,W
04084:  CLRF   03
04086:  ADDLW  28
04088:  MOVWF  FE9
0408A:  MOVLW  05
0408C:  ADDWFC 03,W
0408E:  MOVWF  FEA
04090:  DECF   FEF,F
....................                   if(Contrasena[i-1]<0){ 
04092:  MOVLW  01
04094:  SUBWF  x19,W
04096:  CLRF   03
04098:  ADDLW  28
0409A:  MOVWF  FE9
0409C:  MOVLW  05
0409E:  ADDWFC 03,W
040A0:  MOVWF  FEA
040A2:  BTFSC  FEF.7
040A4:  BRA    40A8
040A6:  BRA    40BC
....................                      Contrasena[i-1]=9; 
040A8:  MOVLW  01
040AA:  SUBWF  x19,W
040AC:  CLRF   03
040AE:  ADDLW  28
040B0:  MOVWF  FE9
040B2:  MOVLW  05
040B4:  ADDWFC 03,W
040B6:  MOVWF  FEA
040B8:  MOVLW  09
040BA:  MOVWF  FEF
....................                   } 
....................                   displayContrasena(Contrasena[i-1],i*20,30,1); 
040BC:  MOVLW  01
040BE:  SUBWF  x19,W
040C0:  CLRF   03
040C2:  ADDLW  28
040C4:  MOVWF  FE9
040C6:  MOVLW  05
040C8:  ADDWFC 03,W
040CA:  MOVWF  FEA
040CC:  MOVFF  FEF,65A
040D0:  MOVF   x19,W
040D2:  MULLW  14
040D4:  MOVFF  FF3,65B
040D8:  MOVLB  6
040DA:  MOVFF  65A,65C
040DE:  MOVFF  65B,65D
040E2:  MOVLW  1E
040E4:  MOVWF  x5E
040E6:  MOVLW  01
040E8:  MOVWF  x5F
040EA:  MOVLB  0
040EC:  RCALL  3D4C
....................                }else{ 
040EE:  BRA    4122
040F0:  MOVLB  4
....................                   displayContrasena(Contrasena[i-1],i*20,30,0); 
040F2:  MOVLW  01
040F4:  SUBWF  x19,W
040F6:  CLRF   03
040F8:  ADDLW  28
040FA:  MOVWF  FE9
040FC:  MOVLW  05
040FE:  ADDWFC 03,W
04100:  MOVWF  FEA
04102:  MOVFF  FEF,65A
04106:  MOVF   x19,W
04108:  MULLW  14
0410A:  MOVFF  FF3,65B
0410E:  MOVLB  6
04110:  MOVFF  65A,65C
04114:  MOVFF  65B,65D
04118:  MOVLW  1E
0411A:  MOVWF  x5E
0411C:  CLRF   x5F
0411E:  MOVLB  0
04120:  RCALL  3D4C
....................                } 
....................             }       
04122:  MOVLB  4
04124:  INCF   x19,F
04126:  BRA    4074
....................          }      
....................       }else{ 
04128:  BRA    412C
....................          Flanco2 = 0; 
0412A:  BCF    x1A.2
....................       } 
....................              
....................       if(RIGHT){ 
0412C:  BSF    F96.0
0412E:  BTFSC  F84.0
04130:  BRA    41D0
....................          flag_latencia=0;t_latencia=0; 
04132:  BCF    x1C.3
04134:  MOVLB  5
04136:  CLRF   x01
04138:  CLRF   x00
....................          if(Flanco1 == 0){ 
0413A:  MOVLB  4
0413C:  BTFSC  x1A.1
0413E:  BRA    41CE
....................             Flanco1 = 1;delay_ms(5);unidad++; 
04140:  BSF    x1A.1
04142:  MOVLW  05
04144:  MOVLB  6
04146:  MOVWF  x5B
04148:  MOVLB  0
0414A:  CALL   16D4
0414E:  MOVLB  4
04150:  INCF   xE2,F
....................             for(i=1;i<=4;i++){ 
04152:  MOVLW  01
04154:  MOVWF  x19
04156:  MOVF   x19,W
04158:  SUBLW  04
0415A:  BNC   41CE
....................                if(unidad==i){ 
0415C:  MOVF   x19,W
0415E:  SUBWF  xE2,W
04160:  BNZ   4198
....................                   displayContrasena(Contrasena[i-1],i*20,30,1); 
04162:  MOVLW  01
04164:  SUBWF  x19,W
04166:  CLRF   03
04168:  ADDLW  28
0416A:  MOVWF  FE9
0416C:  MOVLW  05
0416E:  ADDWFC 03,W
04170:  MOVWF  FEA
04172:  MOVFF  FEF,65A
04176:  MOVF   x19,W
04178:  MULLW  14
0417A:  MOVFF  FF3,65B
0417E:  MOVLB  6
04180:  MOVFF  65A,65C
04184:  MOVFF  65B,65D
04188:  MOVLW  1E
0418A:  MOVWF  x5E
0418C:  MOVLW  01
0418E:  MOVWF  x5F
04190:  MOVLB  0
04192:  RCALL  3D4C
....................                }else{ 
04194:  BRA    41C8
04196:  MOVLB  4
....................                   displayContrasena(Contrasena[i-1],i*20,30,0); 
04198:  MOVLW  01
0419A:  SUBWF  x19,W
0419C:  CLRF   03
0419E:  ADDLW  28
041A0:  MOVWF  FE9
041A2:  MOVLW  05
041A4:  ADDWFC 03,W
041A6:  MOVWF  FEA
041A8:  MOVFF  FEF,65A
041AC:  MOVF   x19,W
041AE:  MULLW  14
041B0:  MOVFF  FF3,65B
041B4:  MOVLB  6
041B6:  MOVFF  65A,65C
041BA:  MOVFF  65B,65D
041BE:  MOVLW  1E
041C0:  MOVWF  x5E
041C2:  CLRF   x5F
041C4:  MOVLB  0
041C6:  RCALL  3D4C
....................                } 
....................             } 
041C8:  MOVLB  4
041CA:  INCF   x19,F
041CC:  BRA    4156
....................          } 
....................       }else{ 
041CE:  BRA    41D2
....................          Flanco1 = 0; 
041D0:  BCF    x1A.1
....................       } 
....................        
....................       if(LEFT){ 
041D2:  BSF    F96.1
041D4:  BTFSC  F84.1
041D6:  BRA    4222
....................          delay_ms(100); 
041D8:  MOVLW  64
041DA:  MOVLB  6
041DC:  MOVWF  x5B
041DE:  MOVLB  0
041E0:  CALL   16D4
....................          if(LEFT){ 
041E4:  BSF    F96.1
041E6:  BTFSC  F84.1
041E8:  BRA    4220
....................             Menu=MenuAnt;glcd_fillScreen(OFF);n=0;Opcion=1;unidad=1; 
041EA:  MOVFF  653,4E1
041EE:  MOVLB  6
041F0:  CLRF   x5A
041F2:  MOVLB  0
041F4:  CALL   2EE4
041F8:  MOVLB  4
041FA:  BCF    x1C.7
041FC:  MOVLW  01
041FE:  MOVWF  xE3
04200:  MOVWF  xE2
....................             Contrasena[0]=0;Contrasena[1]=0;Contrasena[2]=0;Contrasena[3]=0; 
04202:  MOVLB  5
04204:  CLRF   x28
04206:  CLRF   x29
04208:  CLRF   x2A
0420A:  CLRF   x2B
....................             glcd_fillScreen(OFF);glcd_update(); 
0420C:  MOVLB  6
0420E:  CLRF   x5A
04210:  MOVLB  0
04212:  CALL   2EE4
04216:  CALL   2F3E
....................             return 1; 
0421A:  MOVLW  01
0421C:  MOVWF  01
0421E:  BRA    45CC
04220:  MOVLB  4
....................          } 
....................       } 
....................      
....................       if(unidad>4){ 
04222:  MOVF   xE2,W
04224:  SUBLW  04
04226:  BTFSC  FD8.0
04228:  BRA    45CE
....................          glcd_fillScreen(OFF);unidad=1;flag_latencia=0;t_latencia=0; 
0422A:  MOVLB  6
0422C:  CLRF   x5A
0422E:  MOVLB  0
04230:  CALL   2EE4
04234:  MOVLW  01
04236:  MOVLB  4
04238:  MOVWF  xE2
0423A:  BCF    x1C.3
0423C:  MOVLB  5
0423E:  CLRF   x01
04240:  CLRF   x00
....................           
....................          if(Contrasena[0]==3&&Contrasena[1]==8&&Contrasena[2]==9&&Contrasena[3]==2 && MenuActual==0){ // Si Ingresa clave para reset general del sistema. 
04242:  MOVF   x28,W
04244:  SUBLW  03
04246:  BTFSS  FD8.2
04248:  BRA    4342
0424A:  MOVF   x29,W
0424C:  SUBLW  08
0424E:  BTFSS  FD8.2
04250:  BRA    4342
04252:  MOVF   x2A,W
04254:  SUBLW  09
04256:  BNZ   4342
04258:  MOVF   x2B,W
0425A:  SUBLW  02
0425C:  BNZ   4342
0425E:  MOVLB  6
04260:  MOVF   x54,F
04262:  BTFSC  FD8.2
04264:  BRA    426A
04266:  MOVLB  5
04268:  BRA    4342
....................             write_eeprom(0,0);delay_ms(20);write_eeprom(1,0);delay_ms(20);// Reestablece a contrasea de Fabrica y reinicia Programa. 
0426A:  CLRF   FAA
0426C:  CLRF   FA9
0426E:  CLRF   FA8
04270:  BCF    FA6.6
04272:  BCF    FA6.7
04274:  BSF    FA6.2
04276:  MOVF   FF2,W
04278:  MOVWF  00
0427A:  BCF    FF2.7
0427C:  MOVLB  F
0427E:  MOVLW  55
04280:  MOVWF  FA7
04282:  MOVLW  AA
04284:  MOVWF  FA7
04286:  BSF    FA6.1
04288:  BTFSC  FA6.1
0428A:  BRA    4288
0428C:  BCF    FA6.2
0428E:  MOVF   00,W
04290:  IORWF  FF2,F
04292:  MOVLW  14
04294:  MOVLB  6
04296:  MOVWF  x5B
04298:  MOVLB  0
0429A:  CALL   16D4
0429E:  CLRF   FAA
042A0:  MOVLW  01
042A2:  MOVWF  FA9
042A4:  CLRF   FA8
042A6:  BCF    FA6.6
042A8:  BCF    FA6.7
042AA:  BSF    FA6.2
042AC:  MOVF   FF2,W
042AE:  MOVWF  00
042B0:  BCF    FF2.7
042B2:  MOVLB  F
042B4:  MOVLW  55
042B6:  MOVWF  FA7
042B8:  MOVLW  AA
042BA:  MOVWF  FA7
042BC:  BSF    FA6.1
042BE:  BTFSC  FA6.1
042C0:  BRA    42BE
042C2:  BCF    FA6.2
042C4:  MOVF   00,W
042C6:  IORWF  FF2,F
042C8:  MOVLW  14
042CA:  MOVLB  6
042CC:  MOVWF  x5B
042CE:  MOVLB  0
042D0:  CALL   16D4
....................             write_eeprom(2,0);delay_ms(20);write_eeprom(3,0);delay_ms(20); 
042D4:  CLRF   FAA
042D6:  MOVLW  02
042D8:  MOVWF  FA9
042DA:  CLRF   FA8
042DC:  BCF    FA6.6
042DE:  BCF    FA6.7
042E0:  BSF    FA6.2
042E2:  MOVF   FF2,W
042E4:  MOVWF  00
042E6:  BCF    FF2.7
042E8:  MOVLB  F
042EA:  MOVLW  55
042EC:  MOVWF  FA7
042EE:  MOVLW  AA
042F0:  MOVWF  FA7
042F2:  BSF    FA6.1
042F4:  BTFSC  FA6.1
042F6:  BRA    42F4
042F8:  BCF    FA6.2
042FA:  MOVF   00,W
042FC:  IORWF  FF2,F
042FE:  MOVLW  14
04300:  MOVLB  6
04302:  MOVWF  x5B
04304:  MOVLB  0
04306:  CALL   16D4
0430A:  CLRF   FAA
0430C:  MOVLW  03
0430E:  MOVWF  FA9
04310:  CLRF   FA8
04312:  BCF    FA6.6
04314:  BCF    FA6.7
04316:  BSF    FA6.2
04318:  MOVF   FF2,W
0431A:  MOVWF  00
0431C:  BCF    FF2.7
0431E:  MOVLB  F
04320:  MOVLW  55
04322:  MOVWF  FA7
04324:  MOVLW  AA
04326:  MOVWF  FA7
04328:  BSF    FA6.1
0432A:  BTFSC  FA6.1
0432C:  BRA    432A
0432E:  BCF    FA6.2
04330:  MOVF   00,W
04332:  IORWF  FF2,F
04334:  MOVLW  14
04336:  MOVLB  6
04338:  MOVWF  x5B
0433A:  MOVLB  0
0433C:  CALL   16D4
....................             reset_cpu(); 
04340:  RESET
....................          } 
....................        
....................          if((Contrasena[0]==clave0)&&(Contrasena[1]==clave1)&&(Contrasena[2]==clave2)&&(Contrasena[3]==clave3)){ 
04342:  MOVLB  6
04344:  MOVF   x56,W
04346:  MOVLB  5
04348:  SUBWF  x28,W
0434A:  BTFSS  FD8.2
0434C:  BRA    4440
0434E:  MOVLB  6
04350:  MOVF   x57,W
04352:  MOVLB  5
04354:  SUBWF  x29,W
04356:  BTFSS  FD8.2
04358:  BRA    4440
0435A:  MOVLB  6
0435C:  MOVF   x58,W
0435E:  MOVLB  5
04360:  SUBWF  x2A,W
04362:  BNZ   4440
04364:  MOVLB  6
04366:  MOVF   x59,W
04368:  MOVLB  5
0436A:  SUBWF  x2B,W
0436C:  BNZ   4440
....................             glcd_fillScreen(OFF); 
0436E:  MOVLB  6
04370:  CLRF   x5A
04372:  MOVLB  0
04374:  CALL   2EE4
....................             strcpy(Menus.Letra,"Clave"); 
04378:  MOVLW  06
0437A:  MOVWF  FEA
0437C:  MOVLW  3C
0437E:  MOVWF  FE9
04380:  MOVFF  FF2,65A
04384:  BCF    FF2.7
04386:  MOVLW  00
04388:  CALL   0F0A
0438C:  TBLRD*-
0438E:  TBLRD*+
04390:  MOVF   FF5,W
04392:  MOVWF  FEE
04394:  IORLW  00
04396:  BNZ   438E
04398:  MOVLB  6
0439A:  BTFSC  x5A.7
0439C:  BSF    FF2.7
....................             displayMenu(Menus.Letra,30,0,0,2); 
0439E:  MOVLW  06
043A0:  MOVWF  x5B
043A2:  MOVLW  3C
043A4:  MOVWF  x5A
043A6:  MOVLW  1E
043A8:  MOVWF  x5C
043AA:  CLRF   x5D
043AC:  CLRF   x5E
043AE:  MOVLW  02
043B0:  MOVWF  x5F
043B2:  MOVLB  0
043B4:  RCALL  3E02
....................             strcpy(Menus.Letra,"Correcta"); 
043B6:  MOVLW  06
043B8:  MOVWF  FEA
043BA:  MOVLW  3C
043BC:  MOVWF  FE9
043BE:  MOVFF  FF2,65A
043C2:  BCF    FF2.7
043C4:  MOVLW  00
043C6:  CALL   0F2E
043CA:  TBLRD*-
043CC:  TBLRD*+
043CE:  MOVF   FF5,W
043D0:  MOVWF  FEE
043D2:  IORLW  00
043D4:  BNZ   43CC
043D6:  MOVLB  6
043D8:  BTFSC  x5A.7
043DA:  BSF    FF2.7
....................             displayMenu(Menus.Letra,15,30,0,2); 
043DC:  MOVLW  06
043DE:  MOVWF  x5B
043E0:  MOVLW  3C
043E2:  MOVWF  x5A
043E4:  MOVLW  0F
043E6:  MOVWF  x5C
043E8:  MOVLW  1E
043EA:  MOVWF  x5D
043EC:  CLRF   x5E
043EE:  MOVLW  02
043F0:  MOVWF  x5F
043F2:  MOVLB  0
043F4:  RCALL  3E02
....................             Menu=MenuPost;glcd_update();delay_ms(1000);glcd_fillScreen(OFF); 
043F6:  MOVFF  655,4E1
043FA:  CALL   2F3E
043FE:  MOVLW  04
04400:  MOVLB  6
04402:  MOVWF  x5A
04404:  MOVLW  FA
04406:  MOVWF  x5B
04408:  MOVLB  0
0440A:  CALL   16D4
0440E:  MOVLB  6
04410:  DECFSZ x5A,F
04412:  BRA    4404
04414:  CLRF   x5A
04416:  MOVLB  0
04418:  CALL   2EE4
....................             Contrasena[0]=0;Contrasena[1]=0;Contrasena[2]=0;Contrasena[3]=0; 
0441C:  MOVLB  5
0441E:  CLRF   x28
04420:  CLRF   x29
04422:  CLRF   x2A
04424:  CLRF   x2B
....................             if(MenuActual==0)tiempo_purga=1;n=0; 
04426:  MOVLB  6
04428:  MOVF   x54,F
0442A:  BNZ   4430
0442C:  MOVLB  4
0442E:  BSF    x1B.6
04430:  MOVLB  4
04432:  BCF    x1C.7
....................             return 1; 
04434:  MOVLW  01
04436:  MOVWF  01
04438:  MOVLB  0
0443A:  BRA    45CC
....................          }else{ 
0443C:  BRA    45CC
0443E:  MOVLB  5
....................             glcd_fillScreen(OFF); 
04440:  MOVLB  6
04442:  CLRF   x5A
04444:  MOVLB  0
04446:  CALL   2EE4
....................             strcpy(Menus.Letra,"Clave"); 
0444A:  MOVLW  06
0444C:  MOVWF  FEA
0444E:  MOVLW  3C
04450:  MOVWF  FE9
04452:  MOVFF  FF2,65A
04456:  BCF    FF2.7
04458:  MOVLW  00
0445A:  CALL   0F0A
0445E:  TBLRD*-
04460:  TBLRD*+
04462:  MOVF   FF5,W
04464:  MOVWF  FEE
04466:  IORLW  00
04468:  BNZ   4460
0446A:  MOVLB  6
0446C:  BTFSC  x5A.7
0446E:  BSF    FF2.7
....................             displayMenu(Menus.Letra,30,0,0,2); 
04470:  MOVLW  06
04472:  MOVWF  x5B
04474:  MOVLW  3C
04476:  MOVWF  x5A
04478:  MOVLW  1E
0447A:  MOVWF  x5C
0447C:  CLRF   x5D
0447E:  CLRF   x5E
04480:  MOVLW  02
04482:  MOVWF  x5F
04484:  MOVLB  0
04486:  RCALL  3E02
....................             strcpy(Menus.Letra,"Incorrecta"); 
04488:  MOVLW  06
0448A:  MOVWF  FEA
0448C:  MOVLW  3C
0448E:  MOVWF  FE9
04490:  MOVFF  FF2,65A
04494:  BCF    FF2.7
04496:  MOVLW  00
04498:  CALL   0F56
0449C:  TBLRD*-
0449E:  TBLRD*+
044A0:  MOVF   FF5,W
044A2:  MOVWF  FEE
044A4:  IORLW  00
044A6:  BNZ   449E
044A8:  MOVLB  6
044AA:  BTFSC  x5A.7
044AC:  BSF    FF2.7
....................             displayMenu(Menus.Letra,0,30,0,2); 
044AE:  MOVLW  06
044B0:  MOVWF  x5B
044B2:  MOVLW  3C
044B4:  MOVWF  x5A
044B6:  CLRF   x5C
044B8:  MOVLW  1E
044BA:  MOVWF  x5D
044BC:  CLRF   x5E
044BE:  MOVLW  02
044C0:  MOVWF  x5F
044C2:  MOVLB  0
044C4:  RCALL  3E02
....................             unidad=1;glcd_update();delay_ms(1000);Contrasena[0]=0;Contrasena[1]=0;Contrasena[2]=0;Contrasena[3]=0;glcd_fillScreen(OFF); 
044C6:  MOVLW  01
044C8:  MOVLB  4
044CA:  MOVWF  xE2
044CC:  MOVLB  0
044CE:  CALL   2F3E
044D2:  MOVLW  04
044D4:  MOVLB  6
044D6:  MOVWF  x5A
044D8:  MOVLW  FA
044DA:  MOVWF  x5B
044DC:  MOVLB  0
044DE:  CALL   16D4
044E2:  MOVLB  6
044E4:  DECFSZ x5A,F
044E6:  BRA    44D8
044E8:  MOVLB  5
044EA:  CLRF   x28
044EC:  CLRF   x29
044EE:  CLRF   x2A
044F0:  CLRF   x2B
044F2:  MOVLB  6
044F4:  CLRF   x5A
044F6:  MOVLB  0
044F8:  CALL   2EE4
....................             glcd_rect(0, 0, 127, 25, YES, ON);strcpy(Menus.Letra,"Clave");glcd_text57(25, 1, Menus.Letra, 3, OFF);displayContrasena(Contrasena[0],20,30,1); 
044FC:  MOVLB  6
044FE:  CLRF   x6B
04500:  CLRF   x6C
04502:  MOVLW  7F
04504:  MOVWF  x6D
04506:  MOVLW  19
04508:  MOVWF  x6E
0450A:  MOVLW  01
0450C:  MOVWF  x6F
0450E:  MOVWF  x70
04510:  MOVLB  0
04512:  CALL   3AD2
04516:  MOVLW  06
04518:  MOVWF  FEA
0451A:  MOVLW  3C
0451C:  MOVWF  FE9
0451E:  MOVFF  FF2,65A
04522:  BCF    FF2.7
04524:  MOVLW  00
04526:  CALL   0F0A
0452A:  TBLRD*-
0452C:  TBLRD*+
0452E:  MOVF   FF5,W
04530:  MOVWF  FEE
04532:  IORLW  00
04534:  BNZ   452C
04536:  MOVLB  6
04538:  BTFSC  x5A.7
0453A:  BSF    FF2.7
0453C:  MOVLW  19
0453E:  MOVWF  x6B
04540:  MOVLW  01
04542:  MOVWF  x6C
04544:  MOVLW  06
04546:  MOVWF  x6E
04548:  MOVLW  3C
0454A:  MOVWF  x6D
0454C:  MOVLW  03
0454E:  MOVWF  x6F
04550:  CLRF   x70
04552:  MOVLB  0
04554:  CALL   3B94
04558:  MOVFF  528,65C
0455C:  MOVLW  14
0455E:  MOVLB  6
04560:  MOVWF  x5D
04562:  MOVLW  1E
04564:  MOVWF  x5E
04566:  MOVLW  01
04568:  MOVWF  x5F
0456A:  MOVLB  0
0456C:  CALL   3D4C
....................             displayContrasena(Contrasena[1],40,30,0);displayContrasena(Contrasena[2],60,30,0);displayContrasena(Contrasena[0],80,30,0); 
04570:  MOVFF  529,65C
04574:  MOVLW  28
04576:  MOVLB  6
04578:  MOVWF  x5D
0457A:  MOVLW  1E
0457C:  MOVWF  x5E
0457E:  CLRF   x5F
04580:  MOVLB  0
04582:  CALL   3D4C
04586:  MOVFF  52A,65C
0458A:  MOVLW  3C
0458C:  MOVLB  6
0458E:  MOVWF  x5D
04590:  MOVLW  1E
04592:  MOVWF  x5E
04594:  CLRF   x5F
04596:  MOVLB  0
04598:  CALL   3D4C
0459C:  MOVFF  528,65C
045A0:  MOVLW  50
045A2:  MOVLB  6
045A4:  MOVWF  x5D
045A6:  MOVLW  1E
045A8:  MOVWF  x5E
045AA:  CLRF   x5F
045AC:  MOVLB  0
045AE:  CALL   3D4C
....................             Menu=MenuAnt;glcd_fillScreen(OFF);n=0; 
045B2:  MOVFF  653,4E1
045B6:  MOVLB  6
045B8:  CLRF   x5A
045BA:  MOVLB  0
045BC:  CALL   2EE4
045C0:  MOVLB  4
045C2:  BCF    x1C.7
....................             return 0; 
045C4:  MOVLW  00
045C6:  MOVWF  01
045C8:  MOVLB  0
045CA:  BRA    45CC
045CC:  MOVLB  4
....................          } 
....................       } 
.................... } 
045CE:  MOVLB  0
045D0:  RETLW  00
....................  
....................  
.................... //---Interrupcin TIMER0---// 
.................... #int_TIMER1 
.................... void temp1s(void){ 
....................    set_timer1(40536); 
*
01596:  MOVLW  9E
01598:  MOVWF  FCF
0159A:  MOVLW  58
0159C:  MOVWF  FCE
....................    tiempos++; 
0159E:  MOVLB  4
015A0:  INCF   x17,F
015A2:  BTFSC  FD8.2
015A4:  INCF   x18,F
....................     
....................    if(flag_latencia==1)    
015A6:  BTFSS  x1C.3
015A8:  BRA    15B2
....................       t_latencia++;          
015AA:  MOVLB  5
015AC:  INCF   x00,F
015AE:  BTFSC  FD8.2
015B0:  INCF   x01,F
....................     
....................    if(t_latencia>=3000) 
015B2:  MOVLB  5
015B4:  MOVF   x01,W
015B6:  SUBLW  0A
015B8:  BC    15C8
015BA:  XORLW  FF
015BC:  BNZ   15C4
015BE:  MOVF   x00,W
015C0:  SUBLW  B7
015C2:  BC    15C8
....................       Latencia=1; 
015C4:  MOVLB  4
015C6:  BSF    x1C.2
....................                  
....................    if(tiempos>=200){ 
015C8:  MOVLB  4
015CA:  MOVF   x18,F
015CC:  BNZ   15D6
015CE:  MOVF   x17,W
015D0:  SUBLW  C7
015D2:  BTFSC  FD8.0
015D4:  BRA    16CC
....................       tiempos=0;imprimir=1;inicie++;Lectura=1;tiemporeset++; 
015D6:  CLRF   x18
015D8:  CLRF   x17
015DA:  BSF    x1A.7
015DC:  INCF   xE4,F
015DE:  BSF    x1C.6
015E0:  INCF   xE8,F
....................        
....................       if(Alarma==5 || Alarma2==5){ 
015E2:  MOVF   xF4,W
015E4:  SUBLW  05
015E6:  BZ    15EE
015E8:  MOVF   xF5,W
015EA:  SUBLW  05
015EC:  BNZ   15F4
....................          output_toggle(PIN_C1); 
015EE:  BCF    F94.1
015F0:  BTG    F8B.1
....................          /* 
....................          if(flag_alarma2==0){ 
....................             Alarma_on; 
....................             flag_alarma2=1; 
....................          }else{ 
....................             Alarma_off; 
....................             flag_alarma2=0; 
....................          } 
....................          */ 
....................       }else{ 
015F2:  BRA    15F8
....................          Alarma_off; 
015F4:  BCF    F8B.1
015F6:  BCF    F94.1
....................       } 
....................     
....................       if(tiempo_postpurga){ 
015F8:  BTFSS  x1C.1
015FA:  BRA    1638
....................          Tppurga[0]++; 
015FC:  MOVLB  5
015FE:  INCF   x10,F
....................          if(Tppurga[0]>9){ 
01600:  BTFSC  x10.7
01602:  BRA    160E
01604:  MOVF   x10,W
01606:  SUBLW  09
01608:  BC    160E
....................             Tppurga[0]=0; 
0160A:  CLRF   x10
....................             Tppurga[1]++; 
0160C:  INCF   x11,F
....................          } 
....................          if(Tppurga[1]>5){   
0160E:  BTFSC  x11.7
01610:  BRA    161C
01612:  MOVF   x11,W
01614:  SUBLW  05
01616:  BC    161C
....................             Tppurga[1]=0; 
01618:  CLRF   x11
....................             Tppurga[2]++; 
0161A:  INCF   x12,F
....................          } 
....................          if(Tppurga[2]>9){ 
0161C:  BTFSC  x12.7
0161E:  BRA    162A
01620:  MOVF   x12,W
01622:  SUBLW  09
01624:  BC    162A
....................             Tppurga[2]=0; 
01626:  CLRF   x12
....................             Tppurga[3]++; 
01628:  INCF   x13,F
....................          } 
....................          if(Tppurga[3]>5){ 
0162A:  BTFSC  x13.7
0162C:  BRA    1636
0162E:  MOVF   x13,W
01630:  SUBLW  05
01632:  BC    1636
....................             Tppurga[3]=0; 
01634:  CLRF   x13
01636:  MOVLB  4
....................          } 
....................       } 
....................     
....................       if(tiempo_uv==1){ 
01638:  BTFSS  x1B.7
0163A:  BRA    167E
....................          segundos_uv++; 
0163C:  MOVLB  5
0163E:  INCF   x02,F
01640:  BTFSC  FD8.2
01642:  INCF   x03,F
....................        
....................          Tempouv[0]++; 
01644:  INCF   x1C,F
....................          if(Tempouv[0]>9){ 
01646:  BTFSC  x1C.7
01648:  BRA    1654
0164A:  MOVF   x1C,W
0164C:  SUBLW  09
0164E:  BC    1654
....................             Tempouv[0]=0; 
01650:  CLRF   x1C
....................             Tempouv[1]++; 
01652:  INCF   x1D,F
....................          } 
....................          if(Tempouv[1]>5){ 
01654:  BTFSC  x1D.7
01656:  BRA    1662
01658:  MOVF   x1D,W
0165A:  SUBLW  05
0165C:  BC    1662
....................             Tempouv[1]=0; 
0165E:  CLRF   x1D
....................             Tempouv[2]++; 
01660:  INCF   x1E,F
....................          } 
....................          if(Tempouv[2]>9){ 
01662:  BTFSC  x1E.7
01664:  BRA    1670
01666:  MOVF   x1E,W
01668:  SUBLW  09
0166A:  BC    1670
....................             Tempouv[2]=0; 
0166C:  CLRF   x1E
....................             Tempouv[3]++; 
0166E:  INCF   x1F,F
....................          } 
....................          if(Tempouv[3]>5){ 
01670:  BTFSC  x1F.7
01672:  BRA    167C
01674:  MOVF   x1F,W
01676:  SUBLW  05
01678:  BC    167C
....................             Tempouv[3]=0; 
0167A:  CLRF   x1F
0167C:  MOVLB  4
....................          }      
....................       } 
....................     
....................       if(flag_blower==1) 
0167E:  BTFSS  x1B.1
01680:  BRA    168C
....................          minutos_trabajo++;  
01682:  MOVLB  5
01684:  INCF   x04,F
01686:  BTFSC  FD8.2
01688:  INCF   x05,F
0168A:  MOVLB  4
....................    
....................       if(tiempo_purga==1){                   
0168C:  BTFSS  x1B.6
0168E:  BRA    16CC
....................          Tpurga[0]++; 
01690:  MOVLB  5
01692:  INCF   x08,F
....................          if(Tpurga[0]>9){ 
01694:  BTFSC  x08.7
01696:  BRA    16A2
01698:  MOVF   x08,W
0169A:  SUBLW  09
0169C:  BC    16A2
....................             Tpurga[0]=0; 
0169E:  CLRF   x08
....................             Tpurga[1]++; 
016A0:  INCF   x09,F
....................          } 
....................          if(Tpurga[1]>5){ 
016A2:  BTFSC  x09.7
016A4:  BRA    16B0
016A6:  MOVF   x09,W
016A8:  SUBLW  05
016AA:  BC    16B0
....................             Tpurga[1]=0; 
016AC:  CLRF   x09
....................             Tpurga[2]++; 
016AE:  INCF   x0A,F
....................          } 
....................          if(Tpurga[2]>9){ 
016B0:  BTFSC  x0A.7
016B2:  BRA    16BE
016B4:  MOVF   x0A,W
016B6:  SUBLW  09
016B8:  BC    16BE
....................             Tpurga[2]=0; 
016BA:  CLRF   x0A
....................             Tpurga[3]++; 
016BC:  INCF   x0B,F
....................          } 
....................          if(Tpurga[3]>5) 
016BE:  BTFSC  x0B.7
016C0:  BRA    16CA
016C2:  MOVF   x0B,W
016C4:  SUBLW  05
016C6:  BC    16CA
....................             Tpurga[3]=0; 
016C8:  CLRF   x0B
016CA:  MOVLB  4
....................       }          
....................    } 
.................... } 
....................  
016CC:  BCF    F9E.0
016CE:  MOVLB  0
016D0:  GOTO   0058
.................... void main(){ 
*
04E04:  CLRF   FF8
04E06:  BCF    FD0.7
04E08:  BSF    07.7
04E0A:  CLRF   FEA
04E0C:  CLRF   FE9
04E0E:  MOVLB  4
04E10:  CLRF   x18
04E12:  CLRF   x17
04E14:  CLRF   x19
04E16:  BCF    x1A.0
04E18:  BCF    x1A.1
04E1A:  BCF    x1A.2
04E1C:  BCF    x1A.3
04E1E:  BCF    x1A.4
04E20:  BCF    x1A.5
04E22:  BCF    x1A.6
04E24:  BCF    x1A.7
04E26:  BCF    x1B.0
04E28:  BCF    x1B.1
04E2A:  BCF    x1B.2
04E2C:  BCF    x1B.3
04E2E:  BCF    x1B.4
04E30:  BCF    x1B.5
04E32:  BCF    x1B.6
04E34:  BCF    x1B.7
04E36:  BCF    x1C.0
04E38:  BCF    x1C.1
04E3A:  BCF    x1C.2
04E3C:  BCF    x1C.3
04E3E:  BCF    x1C.4
04E40:  BCF    x1C.5
04E42:  BCF    x1C.6
04E44:  BCF    x1C.7
04E46:  BCF    x1D.0
04E48:  MOVLW  C8
04E4A:  MOVWF  xE1
04E4C:  MOVLW  01
04E4E:  MOVWF  xE2
04E50:  MOVWF  xE3
04E52:  CLRF   xE4
04E54:  MOVLW  0A
04E56:  MOVWF  xE5
04E58:  CLRF   xE6
04E5A:  CLRF   xE7
04E5C:  CLRF   xE8
04E5E:  CLRF   xE9
04E60:  CLRF   xEA
04E62:  CLRF   xEB
04E64:  CLRF   xEC
04E66:  CLRF   xED
04E68:  CLRF   xEE
04E6A:  CLRF   xEF
04E6C:  CLRF   xF0
04E6E:  CLRF   xF1
04E70:  MOVWF  xF2
04E72:  MOVWF  xF3
04E74:  MOVWF  xF4
04E76:  MOVWF  xF5
04E78:  CLRF   xF6
04E7A:  CLRF   xF7
04E7C:  CLRF   xF8
04E7E:  CLRF   xF9
04E80:  CLRF   xFB
04E82:  CLRF   xFA
04E84:  CLRF   xFD
04E86:  CLRF   xFC
04E88:  CLRF   xFF
04E8A:  CLRF   xFE
04E8C:  MOVLB  5
04E8E:  CLRF   x01
04E90:  CLRF   x00
04E92:  CLRF   x03
04E94:  CLRF   x02
04E96:  CLRF   x05
04E98:  CLRF   x04
04E9A:  CLRF   x07
04E9C:  CLRF   x06
04E9E:  CLRF   x33
04EA0:  CLRF   x32
04EA2:  CLRF   x31
04EA4:  CLRF   x30
04EA6:  CLRF   x37
04EA8:  CLRF   x36
04EAA:  CLRF   x35
04EAC:  CLRF   x34
04EAE:  CLRF   x3B
04EB0:  CLRF   x3A
04EB2:  CLRF   x39
04EB4:  CLRF   x38
04EB6:  CLRF   x3F
04EB8:  CLRF   x3E
04EBA:  CLRF   x3D
04EBC:  CLRF   x3C
04EBE:  CLRF   x43
04EC0:  CLRF   x42
04EC2:  CLRF   x41
04EC4:  CLRF   x40
04EC6:  CLRF   x47
04EC8:  CLRF   x46
04ECA:  CLRF   x45
04ECC:  CLRF   x44
04ECE:  CLRF   x4B
04ED0:  CLRF   x4A
04ED2:  CLRF   x49
04ED4:  CLRF   x48
04ED6:  CLRF   x4F
04ED8:  CLRF   x4E
04EDA:  CLRF   x4D
04EDC:  CLRF   x4C
04EDE:  CLRF   x53
04EE0:  CLRF   x52
04EE2:  CLRF   x51
04EE4:  CLRF   x50
04EE6:  CLRF   x57
04EE8:  CLRF   x56
04EEA:  CLRF   x55
04EEC:  CLRF   x54
04EEE:  CLRF   x5B
04EF0:  CLRF   x5A
04EF2:  CLRF   x59
04EF4:  CLRF   x58
04EF6:  CLRF   x5F
04EF8:  CLRF   x5E
04EFA:  CLRF   x5D
04EFC:  CLRF   x5C
04EFE:  CLRF   x63
04F00:  CLRF   x62
04F02:  CLRF   x61
04F04:  CLRF   x60
04F06:  CLRF   x67
04F08:  CLRF   x66
04F0A:  CLRF   x65
04F0C:  CLRF   x64
04F0E:  CLRF   x6B
04F10:  CLRF   x6A
04F12:  CLRF   x69
04F14:  CLRF   x68
04F16:  CLRF   x6F
04F18:  CLRF   x6E
04F1A:  CLRF   x6D
04F1C:  CLRF   x6C
04F1E:  CLRF   x73
04F20:  CLRF   x72
04F22:  CLRF   x71
04F24:  CLRF   x70
04F26:  CLRF   x77
04F28:  CLRF   x76
04F2A:  CLRF   x75
04F2C:  CLRF   x74
04F2E:  CLRF   x7B
04F30:  CLRF   x7A
04F32:  CLRF   x79
04F34:  CLRF   x78
04F36:  MOVLW  19
04F38:  MOVWF  x7F
04F3A:  MOVLW  53
04F3C:  MOVWF  x7E
04F3E:  MOVLW  18
04F40:  MOVWF  x7D
04F42:  MOVLW  68
04F44:  MOVWF  x7C
04F46:  MOVLW  E9
04F48:  MOVWF  x83
04F4A:  MOVLW  BD
04F4C:  MOVWF  x82
04F4E:  MOVLW  C6
04F50:  MOVWF  x81
04F52:  MOVLW  71
04F54:  MOVWF  x80
04F56:  MOVLW  BE
04F58:  MOVWF  x87
04F5A:  MOVLW  96
04F5C:  MOVWF  x86
04F5E:  MOVLW  24
04F60:  MOVWF  x85
04F62:  MOVLW  7A
04F64:  MOVWF  x84
04F66:  MOVLW  F3
04F68:  MOVWF  x8B
04F6A:  MOVLW  5A
04F6C:  MOVWF  x8A
04F6E:  MOVLW  AB
04F70:  MOVWF  x89
04F72:  MOVLW  81
04F74:  MOVWF  x88
04F76:  CLRF   xCF
04F78:  CLRF   xCE
04F7A:  CLRF   xCD
04F7C:  CLRF   xCC
04F7E:  CLRF   xD3
04F80:  CLRF   xD2
04F82:  MOVLW  4B
04F84:  MOVWF  xD1
04F86:  MOVLW  86
04F88:  MOVWF  xD0
04F8A:  CLRF   xD7
04F8C:  CLRF   xD6
04F8E:  CLRF   xD5
04F90:  CLRF   xD4
04F92:  CLRF   xDB
04F94:  CLRF   xDA
04F96:  CLRF   xD9
04F98:  CLRF   xD8
04F9A:  CLRF   xDF
04F9C:  CLRF   xDE
04F9E:  CLRF   xDD
04FA0:  CLRF   xDC
04FA2:  CLRF   xE3
04FA4:  CLRF   xE2
04FA6:  CLRF   xE1
04FA8:  MOVLW  80
04FAA:  MOVWF  xE0
04FAC:  CLRF   xE7
04FAE:  CLRF   xE6
04FB0:  CLRF   xE5
04FB2:  CLRF   xE4
04FB4:  MOVLW  85
04FB6:  MOVWF  xEB
04FB8:  MOVLW  EB
04FBA:  MOVWF  xEA
04FBC:  MOVLW  11
04FBE:  MOVWF  xE9
04FC0:  MOVLW  7E
04FC2:  MOVWF  xE8
04FC4:  MOVF   FC1,W
04FC6:  ANDLW  C0
04FC8:  IORLW  0F
04FCA:  MOVWF  FC1
04FCC:  MOVLW  07
04FCE:  MOVWF  FB4
04FD0:  MOVLW  4A
04FD2:  MOVLB  4
04FD4:  MOVWF  x1E
04FD6:  MOVLW  50
04FD8:  MOVWF  x1F
04FDA:  MOVLW  20
04FDC:  MOVWF  x20
04FDE:  MOVLW  49
04FE0:  MOVWF  x21
04FE2:  MOVLW  6E
04FE4:  MOVWF  x22
04FE6:  MOVLW  67
04FE8:  MOVWF  x23
04FEA:  MOVLW  6C
04FEC:  MOVWF  x24
04FEE:  MOVLW  6F
04FF0:  MOVWF  x25
04FF2:  MOVLW  62
04FF4:  MOVWF  x26
04FF6:  MOVLW  61
04FF8:  MOVWF  x27
04FFA:  MOVLW  6C
04FFC:  MOVWF  x28
04FFE:  CLRF   x29
05000:  MOVLW  43
05002:  MOVWF  x2A
05004:  MOVLW  61
05006:  MOVWF  x2B
05008:  MOVLW  62
0500A:  MOVWF  x2C
0500C:  MOVLW  69
0500E:  MOVWF  x2D
05010:  MOVLW  6E
05012:  MOVWF  x2E
05014:  MOVLW  61
05016:  MOVWF  x2F
05018:  MOVLW  20
0501A:  MOVWF  x30
0501C:  MOVLW  42
0501E:  MOVWF  x31
05020:  MOVLW  69
05022:  MOVWF  x32
05024:  MOVLW  6F
05026:  MOVWF  x33
05028:  MOVLW  73
0502A:  MOVWF  x34
0502C:  MOVLW  65
0502E:  MOVWF  x35
05030:  MOVLW  67
05032:  MOVWF  x36
05034:  MOVLW  75
05036:  MOVWF  x37
05038:  MOVLW  72
0503A:  MOVWF  x38
0503C:  MOVLW  69
0503E:  MOVWF  x39
05040:  MOVLW  64
05042:  MOVWF  x3A
05044:  MOVLW  61
05046:  MOVWF  x3B
05048:  MOVLW  64
0504A:  MOVWF  x3C
0504C:  CLRF   x3D
0504E:  MOVLW  54
05050:  MOVWF  x3E
05052:  MOVLW  20
05054:  MOVWF  x3F
05056:  MOVLW  65
05058:  MOVWF  x40
0505A:  MOVLW  73
0505C:  MOVWF  x41
0505E:  MOVLW  74
05060:  MOVWF  x42
05062:  MOVLW  3D
05064:  MOVWF  x43
05066:  CLRF   x44
05068:  MOVLW  3A
0506A:  MOVWF  x45
0506C:  CLRF   x46
0506E:  MOVLW  43
05070:  MOVWF  x47
05072:  MOVLW  6C
05074:  MOVWF  x48
05076:  MOVLW  61
05078:  MOVWF  x49
0507A:  MOVLW  73
0507C:  MOVWF  x4A
0507E:  MOVLW  65
05080:  MOVWF  x4B
05082:  MOVLW  20
05084:  MOVWF  x4C
05086:  MOVLW  41
05088:  MOVWF  x4D
0508A:  MOVLW  32
0508C:  MOVWF  x4E
0508E:  CLRF   x4F
05090:  MOVLW  54
05092:  MOVWF  x50
05094:  MOVLW  69
05096:  MOVWF  x51
05098:  MOVLW  65
0509A:  MOVWF  x52
0509C:  MOVLW  6D
0509E:  MOVWF  x53
050A0:  MOVLW  70
050A2:  MOVWF  x54
050A4:  MOVLW  6F
050A6:  MOVWF  x55
050A8:  MOVLW  20
050AA:  MOVWF  x56
050AC:  MOVLW  64
050AE:  MOVWF  x57
050B0:  MOVLW  65
050B2:  MOVWF  x58
050B4:  MOVLW  20
050B6:  MOVWF  x59
050B8:  MOVLW  50
050BA:  MOVWF  x5A
050BC:  MOVLW  75
050BE:  MOVWF  x5B
050C0:  MOVLW  72
050C2:  MOVWF  x5C
050C4:  MOVLW  67
050C6:  MOVWF  x5D
050C8:  MOVLW  61
050CA:  MOVWF  x5E
050CC:  CLRF   x5F
050CE:  MOVLW  55
050D0:  MOVWF  x60
050D2:  MOVLW  56
050D4:  MOVWF  x61
050D6:  CLRF   x62
050D8:  MOVLW  21
050DA:  MOVWF  x63
050DC:  MOVWF  x64
050DE:  MOVLW  55
050E0:  MOVWF  x65
050E2:  MOVLW  62
050E4:  MOVWF  x66
050E6:  MOVLW  69
050E8:  MOVWF  x67
050EA:  MOVLW  71
050EC:  MOVWF  x68
050EE:  MOVLW  75
050F0:  MOVWF  x69
050F2:  MOVLW  65
050F4:  MOVWF  x6A
050F6:  MOVLW  20
050F8:  MOVWF  x6B
050FA:  MOVLW  56
050FC:  MOVWF  x6C
050FE:  MOVLW  69
05100:  MOVWF  x6D
05102:  MOVLW  64
05104:  MOVWF  x6E
05106:  MOVLW  72
05108:  MOVWF  x6F
0510A:  MOVLW  69
0510C:  MOVWF  x70
0510E:  MOVLW  6F
05110:  MOVWF  x71
05112:  MOVLW  21
05114:  MOVWF  x72
05116:  MOVWF  x73
05118:  CLRF   x74
0511A:  MOVLW  45
0511C:  MOVWF  x75
0511E:  MOVLW  78
05120:  MOVWF  x76
05122:  MOVLW  66
05124:  MOVWF  x77
05126:  MOVLW  6C
05128:  MOVWF  x78
0512A:  MOVLW  6F
0512C:  MOVWF  x79
0512E:  MOVLW  77
05130:  MOVWF  x7A
05132:  MOVLW  28
05134:  MOVWF  x7B
05136:  MOVLW  6D
05138:  MOVWF  x7C
0513A:  MOVLW  2F
0513C:  MOVWF  x7D
0513E:  MOVLW  73
05140:  MOVWF  x7E
05142:  MOVLW  29
05144:  MOVWF  x7F
05146:  MOVLW  3A
05148:  MOVWF  x80
0514A:  CLRF   x81
0514C:  MOVLW  44
0514E:  MOVWF  x82
05150:  MOVLW  6E
05152:  MOVWF  x83
05154:  MOVLW  66
05156:  MOVWF  x84
05158:  MOVLW  6C
0515A:  MOVWF  x85
0515C:  MOVLW  6F
0515E:  MOVWF  x86
05160:  MOVLW  77
05162:  MOVWF  x87
05164:  MOVLW  28
05166:  MOVWF  x88
05168:  MOVLW  6D
0516A:  MOVWF  x89
0516C:  MOVLW  2F
0516E:  MOVWF  x8A
05170:  MOVLW  73
05172:  MOVWF  x8B
05174:  MOVLW  29
05176:  MOVWF  x8C
05178:  MOVLW  3A
0517A:  MOVWF  x8D
0517C:  CLRF   x8E
0517E:  MOVLW  46
05180:  MOVWF  x8F
05182:  MOVLW  61
05184:  MOVWF  x90
05186:  MOVLW  62
05188:  MOVWF  x91
0518A:  MOVLW  72
0518C:  MOVWF  x92
0518E:  MOVLW  69
05190:  MOVWF  x93
05192:  MOVLW  63
05194:  MOVWF  x94
05196:  MOVLW  61
05198:  MOVWF  x95
0519A:  MOVLW  3A
0519C:  MOVWF  x96
0519E:  MOVLW  32
051A0:  MOVWF  x97
051A2:  MOVLW  30
051A4:  MOVWF  x98
051A6:  MOVLW  37
051A8:  MOVWF  x99
051AA:  MOVLW  2E
051AC:  MOVWF  x9A
051AE:  MOVLW  30
051B0:  MOVWF  x9B
051B2:  CLRF   x9C
051B4:  MOVLW  41
051B6:  MOVWF  x9D
051B8:  MOVLW  63
051BA:  MOVWF  x9E
051BC:  MOVLW  74
051BE:  MOVWF  x9F
051C0:  MOVLW  75
051C2:  MOVWF  xA0
051C4:  MOVLW  61
051C6:  MOVWF  xA1
051C8:  MOVLW  6C
051CA:  MOVWF  xA2
051CC:  MOVLW  3A
051CE:  MOVWF  xA3
051D0:  CLRF   xA4
051D2:  MOVLW  41
051D4:  MOVWF  xA5
051D6:  MOVLW  6A
051D8:  MOVWF  xA6
051DA:  MOVLW  75
051DC:  MOVWF  xA7
051DE:  MOVLW  73
051E0:  MOVWF  xA8
051E2:  MOVLW  74
051E4:  MOVWF  xA9
051E6:  MOVLW  65
051E8:  MOVWF  xAA
051EA:  MOVLW  3A
051EC:  MOVWF  xAB
051EE:  CLRF   xAC
051F0:  MOVLW  55
051F2:  MOVWF  xAD
051F4:  MOVLW  56
051F6:  MOVWF  xAE
051F8:  MOVLW  4C
051FA:  MOVWF  xAF
051FC:  MOVLW  69
051FE:  MOVWF  xB0
05200:  MOVLW  66
05202:  MOVWF  xB1
05204:  MOVLW  65
05206:  MOVWF  xB2
05208:  MOVLW  3A
0520A:  MOVWF  xB3
0520C:  CLRF   xB4
0520E:  MOVLW  46
05210:  MOVWF  xB5
05212:  MOVLW  69
05214:  MOVWF  xB6
05216:  MOVLW  6C
05218:  MOVWF  xB7
0521A:  MOVLW  74
0521C:  MOVWF  xB8
0521E:  MOVLW  65
05220:  MOVWF  xB9
05222:  MOVLW  72
05224:  MOVWF  xBA
05226:  MOVLW  3A
05228:  MOVWF  xBB
0522A:  CLRF   xBC
0522C:  MOVLW  46
0522E:  MOVWF  xBD
05230:  MOVLW  61
05232:  MOVWF  xBE
05234:  MOVLW  62
05236:  MOVWF  xBF
05238:  MOVLW  72
0523A:  MOVWF  xC0
0523C:  MOVLW  69
0523E:  MOVWF  xC1
05240:  MOVLW  63
05242:  MOVWF  xC2
05244:  MOVLW  61
05246:  MOVWF  xC3
05248:  MOVLW  3A
0524A:  MOVWF  xC4
0524C:  MOVLW  32
0524E:  MOVWF  xC5
05250:  MOVLW  33
05252:  MOVWF  xC6
05254:  MOVLW  35
05256:  MOVWF  xC7
05258:  MOVLW  2E
0525A:  MOVWF  xC8
0525C:  MOVLW  30
0525E:  MOVWF  xC9
05260:  CLRF   xCA
05262:  MOVLW  21
05264:  MOVWF  xCB
05266:  MOVLW  46
05268:  MOVWF  xCC
0526A:  MOVLW  6C
0526C:  MOVWF  xCD
0526E:  MOVLW  75
05270:  MOVWF  xCE
05272:  MOVLW  6A
05274:  MOVWF  xCF
05276:  MOVLW  6F
05278:  MOVWF  xD0
0527A:  MOVLW  20
0527C:  MOVWF  xD1
0527E:  MOVLW  42
05280:  MOVWF  xD2
05282:  MOVLW  61
05284:  MOVWF  xD3
05286:  MOVLW  6A
05288:  MOVWF  xD4
0528A:  MOVLW  6F
0528C:  MOVWF  xD5
0528E:  MOVLW  21
05290:  MOVWF  xD6
05292:  CLRF   xD7
05294:  MOVLW  4D
05296:  MOVWF  xD8
05298:  MOVLW  6F
0529A:  MOVWF  xD9
0529C:  MOVLW  64
0529E:  MOVWF  xDA
052A0:  MOVLW  6F
052A2:  MOVWF  xDB
052A4:  MOVLW  20
052A6:  MOVWF  xDC
052A8:  MOVLW  45
052AA:  MOVWF  xDD
052AC:  MOVLW  43
052AE:  MOVWF  xDE
052B0:  MOVLW  4F
052B2:  MOVWF  xDF
052B4:  CLRF   xE0
052B6:  MOVLB  5
052B8:  CLRF   x08
052BA:  CLRF   x09
052BC:  CLRF   x0A
052BE:  CLRF   x0B
052C0:  MOVLW  09
052C2:  MOVWF  x0C
052C4:  CLRF   x0D
052C6:  CLRF   x0E
052C8:  CLRF   x0F
052CA:  CLRF   x10
052CC:  CLRF   x11
052CE:  CLRF   x12
052D0:  CLRF   x13
052D2:  MOVWF  x14
052D4:  CLRF   x15
052D6:  CLRF   x16
052D8:  CLRF   x17
052DA:  CLRF   x18
052DC:  CLRF   x19
052DE:  CLRF   x1A
052E0:  CLRF   x1B
052E2:  CLRF   x1C
052E4:  CLRF   x1D
052E6:  CLRF   x1E
052E8:  CLRF   x1F
052EA:  CLRF   x20
052EC:  CLRF   x21
052EE:  CLRF   x22
052F0:  CLRF   x23
052F2:  CLRF   x24
052F4:  CLRF   x25
052F6:  CLRF   x26
052F8:  CLRF   x27
052FA:  CLRF   x28
052FC:  CLRF   x29
052FE:  CLRF   x2A
05300:  CLRF   x2B
05302:  CLRF   x2C
05304:  CLRF   x2D
05306:  CLRF   x2E
05308:  CLRF   x2F
0530A:  CLRF   x8C
0530C:  CLRF   x8D
0530E:  CLRF   x8E
05310:  CLRF   x8F
05312:  CLRF   x90
05314:  CLRF   x91
05316:  CLRF   x92
05318:  CLRF   x93
0531A:  CLRF   x94
0531C:  CLRF   x95
0531E:  CLRF   x96
05320:  CLRF   x97
05322:  CLRF   x98
05324:  CLRF   x99
05326:  CLRF   x9A
05328:  CLRF   x9B
0532A:  CLRF   x9C
0532C:  CLRF   x9D
0532E:  CLRF   x9E
05330:  CLRF   x9F
05332:  CLRF   xA0
05334:  CLRF   xA1
05336:  CLRF   xA2
05338:  CLRF   xA3
0533A:  CLRF   xA4
0533C:  CLRF   xA5
0533E:  CLRF   xA6
05340:  CLRF   xA7
05342:  CLRF   xA8
05344:  CLRF   xA9
05346:  CLRF   xAA
05348:  CLRF   xAB
0534A:  CLRF   xAC
0534C:  CLRF   xAD
0534E:  CLRF   xAE
05350:  CLRF   xAF
05352:  CLRF   xB0
05354:  CLRF   xB1
05356:  CLRF   xB2
05358:  CLRF   xB3
0535A:  CLRF   xB4
0535C:  CLRF   xB5
0535E:  CLRF   xB6
05360:  CLRF   xB7
05362:  CLRF   xB8
05364:  CLRF   xB9
05366:  CLRF   xBA
05368:  CLRF   xBB
0536A:  CLRF   xBC
0536C:  CLRF   xBD
0536E:  CLRF   xBE
05370:  CLRF   xBF
05372:  CLRF   xC0
05374:  CLRF   xC1
05376:  CLRF   xC2
05378:  CLRF   xC3
0537A:  CLRF   xC4
0537C:  CLRF   xC5
0537E:  CLRF   xC6
05380:  CLRF   xC7
05382:  CLRF   xC8
05384:  CLRF   xC9
05386:  CLRF   xCA
05388:  CLRF   xCB
0538A:  MOVLB  6
0538C:  CLRF   x50
0538E:  CLRF   x51
....................  
....................    setup_timer_1(T1_INTERNAL|T1_DIV_BY_1);    
05390:  MOVLW  85
05392:  MOVWF  FCD
....................    enable_interrupts(INT_TIMER1); 
05394:  BSF    F9D.0
....................    setup_adc_ports(AN0_TO_AN1); 
05396:  MOVF   FC1,W
05398:  ANDLW  C0
0539A:  IORLW  0D
0539C:  MOVWF  FC1
....................    setup_adc(ADC_CLOCK_DIV_32 ); 
0539E:  MOVF   FC0,W
053A0:  ANDLW  C0
053A2:  IORLW  02
053A4:  MOVWF  FC0
053A6:  BSF    FC0.7
053A8:  BSF    FC2.0
....................    enable_interrupts(global);    
053AA:  MOVLW  C0
053AC:  IORWF  FF2,F
....................     
....................    LeeEEPROM(); // Lectura de variables almacenadas en la EEPROM 
053AE:  MOVLB  0
053B0:  GOTO   1B08
....................     
....................    LimitaValores(); 
053B4:  GOTO   242C
....................    glcd_init(ON); 
053B8:  MOVLW  01
053BA:  MOVLB  6
053BC:  MOVWF  x52
053BE:  MOVLB  0
053C0:  CALL   2FF6
....................     
....................    while(true){ 
....................     
....................    glcd_update(); 
053C4:  CALL   2F3E
....................  
.................... //**Actualizacin de Lectura de Sensores**// 
....................    if(Lectura==1){ 
053C8:  MOVLB  4
053CA:  BTFSS  x1C.6
053CC:  BRA    5408
....................       Lectura=0; 
053CE:  BCF    x1C.6
....................       InFlow=LeerFlujoInFlow(8); 
053D0:  MOVLW  08
053D2:  MOVLB  6
053D4:  MOVWF  x52
053D6:  MOVLB  0
053D8:  GOTO   31D2
053DC:  MOVFF  03,533
053E0:  MOVFF  02,532
053E4:  MOVFF  01,531
053E8:  MOVFF  00,530
....................       Filtro_DownFlow=Leer_Sensor_Presion(8); 
053EC:  MOVLW  08
053EE:  MOVLB  6
053F0:  MOVWF  x52
053F2:  MOVLB  0
053F4:  GOTO   35A2
053F8:  MOVFF  03,53B
053FC:  MOVFF  02,53A
05400:  MOVFF  01,539
05404:  MOVFF  00,538
....................    } 
.................... //----------------------------------------// 
....................  
.................... //**Contador de Tiempo de Trabajo del filtro**// 
....................    if(minutos_trabajo>=3600){ // Tiempo de Trabajo 
05408:  MOVLB  5
0540A:  MOVF   x05,W
0540C:  SUBLW  0D
0540E:  BTFSC  FD8.0
05410:  BRA    55B8
05412:  XORLW  FF
05414:  BNZ   541E
05416:  MOVF   x04,W
05418:  SUBLW  0F
0541A:  BTFSC  FD8.0
0541C:  BRA    55B8
....................       minutos_trabajo=0; //Minutos Trabajo realmente son segundos. 
0541E:  CLRF   x05
05420:  CLRF   x04
....................       write_eeprom(33,make8(minutos_trabajo,0)); 
05422:  MOVFF  504,652
05426:  CLRF   FAA
05428:  MOVLW  21
0542A:  MOVWF  FA9
0542C:  MOVFF  652,FA8
05430:  BCF    FA6.6
05432:  BCF    FA6.7
05434:  BSF    FA6.2
05436:  MOVF   FF2,W
05438:  MOVWF  00
0543A:  BCF    FF2.7
0543C:  MOVLB  F
0543E:  MOVLW  55
05440:  MOVWF  FA7
05442:  MOVLW  AA
05444:  MOVWF  FA7
05446:  BSF    FA6.1
05448:  BTFSC  FA6.1
0544A:  BRA    5448
0544C:  BCF    FA6.2
0544E:  MOVF   00,W
05450:  IORWF  FF2,F
....................       delay_ms(20); 
05452:  MOVLW  14
05454:  MOVLB  6
05456:  MOVWF  x5B
05458:  MOVLB  0
0545A:  CALL   16D4
....................       write_eeprom(34,make8(minutos_trabajo,1)); 
0545E:  MOVFF  505,652
05462:  CLRF   FAA
05464:  MOVLW  22
05466:  MOVWF  FA9
05468:  MOVFF  652,FA8
0546C:  BCF    FA6.6
0546E:  BCF    FA6.7
05470:  BSF    FA6.2
05472:  MOVF   FF2,W
05474:  MOVWF  00
05476:  BCF    FF2.7
05478:  MOVLB  F
0547A:  MOVLW  55
0547C:  MOVWF  FA7
0547E:  MOVLW  AA
05480:  MOVWF  FA7
05482:  BSF    FA6.1
05484:  BTFSC  FA6.1
05486:  BRA    5484
05488:  BCF    FA6.2
0548A:  MOVF   00,W
0548C:  IORWF  FF2,F
....................       delay_ms(20); 
0548E:  MOVLW  14
05490:  MOVLB  6
05492:  MOVWF  x5B
05494:  MOVLB  0
05496:  CALL   16D4
....................       Ttrabajo[0]++; 
0549A:  MOVLB  5
0549C:  INCF   x24,F
....................       if(Ttrabajo[0]>9){ 
0549E:  BTFSC  x24.7
054A0:  BRA    54AC
054A2:  MOVF   x24,W
054A4:  SUBLW  09
054A6:  BC    54AC
....................          Ttrabajo[0]=0; 
054A8:  CLRF   x24
....................          Ttrabajo[1]++; 
054AA:  INCF   x25,F
....................       } 
....................       if(Ttrabajo[1]>9){ 
054AC:  BTFSC  x25.7
054AE:  BRA    54BA
054B0:  MOVF   x25,W
054B2:  SUBLW  09
054B4:  BC    54BA
....................          Ttrabajo[1]=0; 
054B6:  CLRF   x25
....................          Ttrabajo[2]++; 
054B8:  INCF   x26,F
....................       } 
....................       if(Ttrabajo[2]>9){ 
054BA:  BTFSC  x26.7
054BC:  BRA    54C8
054BE:  MOVF   x26,W
054C0:  SUBLW  09
054C2:  BC    54C8
....................          Ttrabajo[2]=0; 
054C4:  CLRF   x26
....................          Ttrabajo[3]++; 
054C6:  INCF   x27,F
....................       } 
....................       if(Ttrabajo[3]>9){ 
054C8:  BTFSC  x27.7
054CA:  BRA    54D4
054CC:  MOVF   x27,W
054CE:  SUBLW  09
054D0:  BC    54D4
....................          Ttrabajo[3]=0; 
054D2:  CLRF   x27
....................       } 
....................       write_eeprom(16,Ttrabajo[0]); 
054D4:  CLRF   FAA
054D6:  MOVLW  10
054D8:  MOVWF  FA9
054DA:  MOVFF  524,FA8
054DE:  BCF    FA6.6
054E0:  BCF    FA6.7
054E2:  BSF    FA6.2
054E4:  MOVF   FF2,W
054E6:  MOVWF  00
054E8:  BCF    FF2.7
054EA:  MOVLB  F
054EC:  MOVLW  55
054EE:  MOVWF  FA7
054F0:  MOVLW  AA
054F2:  MOVWF  FA7
054F4:  BSF    FA6.1
054F6:  BTFSC  FA6.1
054F8:  BRA    54F6
054FA:  BCF    FA6.2
054FC:  MOVF   00,W
054FE:  IORWF  FF2,F
....................       delay_ms(20); 
05500:  MOVLW  14
05502:  MOVLB  6
05504:  MOVWF  x5B
05506:  MOVLB  0
05508:  CALL   16D4
....................       write_eeprom(17,Ttrabajo[1]); 
0550C:  CLRF   FAA
0550E:  MOVLW  11
05510:  MOVWF  FA9
05512:  MOVFF  525,FA8
05516:  BCF    FA6.6
05518:  BCF    FA6.7
0551A:  BSF    FA6.2
0551C:  MOVF   FF2,W
0551E:  MOVWF  00
05520:  BCF    FF2.7
05522:  MOVLB  F
05524:  MOVLW  55
05526:  MOVWF  FA7
05528:  MOVLW  AA
0552A:  MOVWF  FA7
0552C:  BSF    FA6.1
0552E:  BTFSC  FA6.1
05530:  BRA    552E
05532:  BCF    FA6.2
05534:  MOVF   00,W
05536:  IORWF  FF2,F
....................       delay_ms(20); 
05538:  MOVLW  14
0553A:  MOVLB  6
0553C:  MOVWF  x5B
0553E:  MOVLB  0
05540:  CALL   16D4
....................       write_eeprom(18,Ttrabajo[2]); 
05544:  CLRF   FAA
05546:  MOVLW  12
05548:  MOVWF  FA9
0554A:  MOVFF  526,FA8
0554E:  BCF    FA6.6
05550:  BCF    FA6.7
05552:  BSF    FA6.2
05554:  MOVF   FF2,W
05556:  MOVWF  00
05558:  BCF    FF2.7
0555A:  MOVLB  F
0555C:  MOVLW  55
0555E:  MOVWF  FA7
05560:  MOVLW  AA
05562:  MOVWF  FA7
05564:  BSF    FA6.1
05566:  BTFSC  FA6.1
05568:  BRA    5566
0556A:  BCF    FA6.2
0556C:  MOVF   00,W
0556E:  IORWF  FF2,F
....................       delay_ms(20); 
05570:  MOVLW  14
05572:  MOVLB  6
05574:  MOVWF  x5B
05576:  MOVLB  0
05578:  CALL   16D4
....................       write_eeprom(19,Ttrabajo[3]); 
0557C:  CLRF   FAA
0557E:  MOVLW  13
05580:  MOVWF  FA9
05582:  MOVFF  527,FA8
05586:  BCF    FA6.6
05588:  BCF    FA6.7
0558A:  BSF    FA6.2
0558C:  MOVF   FF2,W
0558E:  MOVWF  00
05590:  BCF    FF2.7
05592:  MOVLB  F
05594:  MOVLW  55
05596:  MOVWF  FA7
05598:  MOVLW  AA
0559A:  MOVWF  FA7
0559C:  BSF    FA6.1
0559E:  BTFSC  FA6.1
055A0:  BRA    559E
055A2:  BCF    FA6.2
055A4:  MOVF   00,W
055A6:  IORWF  FF2,F
....................       delay_ms(20); 
055A8:  MOVLW  14
055AA:  MOVLB  6
055AC:  MOVWF  x5B
055AE:  MOVLB  0
055B0:  CALL   16D4
....................    }else if(minutos_trabajo==900 || minutos_trabajo==1800 || minutos_trabajo==2700 ){ 
055B4:  BRA    5654
055B6:  MOVLB  5
055B8:  MOVF   x04,W
055BA:  SUBLW  84
055BC:  BNZ   55C4
055BE:  MOVF   x05,W
055C0:  SUBLW  03
055C2:  BZ    55DC
055C4:  MOVF   x04,W
055C6:  SUBLW  08
055C8:  BNZ   55D0
055CA:  MOVF   x05,W
055CC:  SUBLW  07
055CE:  BZ    55DC
055D0:  MOVF   x04,W
055D2:  SUBLW  8C
055D4:  BNZ   5656
055D6:  MOVF   x05,W
055D8:  SUBLW  0A
055DA:  BNZ   5656
....................       write_eeprom(33,make8(minutos_trabajo,0)); 
055DC:  MOVFF  504,652
055E0:  CLRF   FAA
055E2:  MOVLW  21
055E4:  MOVWF  FA9
055E6:  MOVFF  652,FA8
055EA:  BCF    FA6.6
055EC:  BCF    FA6.7
055EE:  BSF    FA6.2
055F0:  MOVF   FF2,W
055F2:  MOVWF  00
055F4:  BCF    FF2.7
055F6:  MOVLB  F
055F8:  MOVLW  55
055FA:  MOVWF  FA7
055FC:  MOVLW  AA
055FE:  MOVWF  FA7
05600:  BSF    FA6.1
05602:  BTFSC  FA6.1
05604:  BRA    5602
05606:  BCF    FA6.2
05608:  MOVF   00,W
0560A:  IORWF  FF2,F
....................       delay_ms(20); 
0560C:  MOVLW  14
0560E:  MOVLB  6
05610:  MOVWF  x5B
05612:  MOVLB  0
05614:  CALL   16D4
....................       write_eeprom(34,make8(minutos_trabajo,1)); 
05618:  MOVFF  505,652
0561C:  CLRF   FAA
0561E:  MOVLW  22
05620:  MOVWF  FA9
05622:  MOVFF  652,FA8
05626:  BCF    FA6.6
05628:  BCF    FA6.7
0562A:  BSF    FA6.2
0562C:  MOVF   FF2,W
0562E:  MOVWF  00
05630:  BCF    FF2.7
05632:  MOVLB  F
05634:  MOVLW  55
05636:  MOVWF  FA7
05638:  MOVLW  AA
0563A:  MOVWF  FA7
0563C:  BSF    FA6.1
0563E:  BTFSC  FA6.1
05640:  BRA    563E
05642:  BCF    FA6.2
05644:  MOVF   00,W
05646:  IORWF  FF2,F
....................       delay_ms(20); 
05648:  MOVLW  14
0564A:  MOVLB  6
0564C:  MOVWF  x5B
0564E:  MOVLB  0
05650:  CALL   16D4
05654:  MOVLB  5
....................    } 
.................... //----------------------------------------// 
....................  
.................... //**Contador de Tiempo de Trabajo de UV**// 
....................          if(segundos_uv>=60){ 
05656:  MOVF   x03,F
05658:  BNZ   5660
0565A:  MOVF   x02,W
0565C:  SUBLW  3B
0565E:  BC    5668
....................             segundos_uv=0; 
05660:  CLRF   x03
05662:  CLRF   x02
....................             minutos_uv++; 
05664:  MOVLB  4
05666:  INCF   xE9,F
....................          } 
....................           
....................          if(minutos_uv>=60){ 
05668:  MOVLB  4
0566A:  MOVF   xE9,W
0566C:  SUBLW  3B
0566E:  BTFSC  FD8.0
05670:  BRA    57CA
....................             minutos_uv=0; 
05672:  CLRF   xE9
....................             Tuv[0]++; 
05674:  MOVLB  5
05676:  INCF   x18,F
....................             if(Tuv[0]>9){ 
05678:  BTFSC  x18.7
0567A:  BRA    5686
0567C:  MOVF   x18,W
0567E:  SUBLW  09
05680:  BC    5686
....................                Tuv[0]=0; 
05682:  CLRF   x18
....................                Tuv[1]++; 
05684:  INCF   x19,F
....................             } 
....................             if(Tuv[1]>9){ 
05686:  BTFSC  x19.7
05688:  BRA    5694
0568A:  MOVF   x19,W
0568C:  SUBLW  09
0568E:  BC    5694
....................                Tuv[1]=0; 
05690:  CLRF   x19
....................                Tuv[2]++; 
05692:  INCF   x1A,F
....................             } 
....................             if(Tuv[2]>9){ 
05694:  BTFSC  x1A.7
05696:  BRA    56A2
05698:  MOVF   x1A,W
0569A:  SUBLW  09
0569C:  BC    56A2
....................                Tuv[2]=0; 
0569E:  CLRF   x1A
....................                Tuv[3]++; 
056A0:  INCF   x1B,F
....................             } 
....................             if(Tuv[3]>9){ 
056A2:  BTFSC  x1B.7
056A4:  BRA    56AE
056A6:  MOVF   x1B,W
056A8:  SUBLW  09
056AA:  BC    56AE
....................                Tuv[3]=0; 
056AC:  CLRF   x1B
....................             } 
....................             write_eeprom(31,minutos_uv); 
056AE:  CLRF   FAA
056B0:  MOVLW  1F
056B2:  MOVWF  FA9
056B4:  MOVFF  4E9,FA8
056B8:  BCF    FA6.6
056BA:  BCF    FA6.7
056BC:  BSF    FA6.2
056BE:  MOVF   FF2,W
056C0:  MOVWF  00
056C2:  BCF    FF2.7
056C4:  MOVLB  F
056C6:  MOVLW  55
056C8:  MOVWF  FA7
056CA:  MOVLW  AA
056CC:  MOVWF  FA7
056CE:  BSF    FA6.1
056D0:  BTFSC  FA6.1
056D2:  BRA    56D0
056D4:  BCF    FA6.2
056D6:  MOVF   00,W
056D8:  IORWF  FF2,F
....................             delay_ms(20); 
056DA:  MOVLW  14
056DC:  MOVLB  6
056DE:  MOVWF  x5B
056E0:  MOVLB  0
056E2:  CALL   16D4
....................             write_eeprom(12,Tuv[0]); 
056E6:  CLRF   FAA
056E8:  MOVLW  0C
056EA:  MOVWF  FA9
056EC:  MOVFF  518,FA8
056F0:  BCF    FA6.6
056F2:  BCF    FA6.7
056F4:  BSF    FA6.2
056F6:  MOVF   FF2,W
056F8:  MOVWF  00
056FA:  BCF    FF2.7
056FC:  MOVLB  F
056FE:  MOVLW  55
05700:  MOVWF  FA7
05702:  MOVLW  AA
05704:  MOVWF  FA7
05706:  BSF    FA6.1
05708:  BTFSC  FA6.1
0570A:  BRA    5708
0570C:  BCF    FA6.2
0570E:  MOVF   00,W
05710:  IORWF  FF2,F
....................             delay_ms(20); 
05712:  MOVLW  14
05714:  MOVLB  6
05716:  MOVWF  x5B
05718:  MOVLB  0
0571A:  CALL   16D4
....................             write_eeprom(13,Tuv[1]); 
0571E:  CLRF   FAA
05720:  MOVLW  0D
05722:  MOVWF  FA9
05724:  MOVFF  519,FA8
05728:  BCF    FA6.6
0572A:  BCF    FA6.7
0572C:  BSF    FA6.2
0572E:  MOVF   FF2,W
05730:  MOVWF  00
05732:  BCF    FF2.7
05734:  MOVLB  F
05736:  MOVLW  55
05738:  MOVWF  FA7
0573A:  MOVLW  AA
0573C:  MOVWF  FA7
0573E:  BSF    FA6.1
05740:  BTFSC  FA6.1
05742:  BRA    5740
05744:  BCF    FA6.2
05746:  MOVF   00,W
05748:  IORWF  FF2,F
....................             delay_ms(20); 
0574A:  MOVLW  14
0574C:  MOVLB  6
0574E:  MOVWF  x5B
05750:  MOVLB  0
05752:  CALL   16D4
....................             write_eeprom(14,Tuv[2]); 
05756:  CLRF   FAA
05758:  MOVLW  0E
0575A:  MOVWF  FA9
0575C:  MOVFF  51A,FA8
05760:  BCF    FA6.6
05762:  BCF    FA6.7
05764:  BSF    FA6.2
05766:  MOVF   FF2,W
05768:  MOVWF  00
0576A:  BCF    FF2.7
0576C:  MOVLB  F
0576E:  MOVLW  55
05770:  MOVWF  FA7
05772:  MOVLW  AA
05774:  MOVWF  FA7
05776:  BSF    FA6.1
05778:  BTFSC  FA6.1
0577A:  BRA    5778
0577C:  BCF    FA6.2
0577E:  MOVF   00,W
05780:  IORWF  FF2,F
....................             delay_ms(20); 
05782:  MOVLW  14
05784:  MOVLB  6
05786:  MOVWF  x5B
05788:  MOVLB  0
0578A:  CALL   16D4
....................             write_eeprom(15,Tuv[3]); 
0578E:  CLRF   FAA
05790:  MOVLW  0F
05792:  MOVWF  FA9
05794:  MOVFF  51B,FA8
05798:  BCF    FA6.6
0579A:  BCF    FA6.7
0579C:  BSF    FA6.2
0579E:  MOVF   FF2,W
057A0:  MOVWF  00
057A2:  BCF    FF2.7
057A4:  MOVLB  F
057A6:  MOVLW  55
057A8:  MOVWF  FA7
057AA:  MOVLW  AA
057AC:  MOVWF  FA7
057AE:  BSF    FA6.1
057B0:  BTFSC  FA6.1
057B2:  BRA    57B0
057B4:  BCF    FA6.2
057B6:  MOVF   00,W
057B8:  IORWF  FF2,F
....................             delay_ms(20); 
057BA:  MOVLW  14
057BC:  MOVLB  6
057BE:  MOVWF  x5B
057C0:  MOVLB  0
057C2:  CALL   16D4
....................          }else if(minutos_uv==15 || minutos_uv==30 || minutos_uv==45){ 
057C6:  BRA    5814
057C8:  MOVLB  4
057CA:  MOVF   xE9,W
057CC:  SUBLW  0F
057CE:  BZ    57DC
057D0:  MOVF   xE9,W
057D2:  SUBLW  1E
057D4:  BZ    57DC
057D6:  MOVF   xE9,W
057D8:  SUBLW  2D
057DA:  BNZ   5816
....................             write_eeprom(31,minutos_uv); 
057DC:  CLRF   FAA
057DE:  MOVLW  1F
057E0:  MOVWF  FA9
057E2:  MOVFF  4E9,FA8
057E6:  BCF    FA6.6
057E8:  BCF    FA6.7
057EA:  BSF    FA6.2
057EC:  MOVF   FF2,W
057EE:  MOVWF  00
057F0:  BCF    FF2.7
057F2:  MOVLB  F
057F4:  MOVLW  55
057F6:  MOVWF  FA7
057F8:  MOVLW  AA
057FA:  MOVWF  FA7
057FC:  BSF    FA6.1
057FE:  BTFSC  FA6.1
05800:  BRA    57FE
05802:  BCF    FA6.2
05804:  MOVF   00,W
05806:  IORWF  FF2,F
....................             delay_ms(20); 
05808:  MOVLW  14
0580A:  MOVLB  6
0580C:  MOVWF  x5B
0580E:  MOVLB  0
05810:  CALL   16D4
05814:  MOVLB  4
....................          } 
.................... //----------------------------------------// 
....................  
....................    if(Menu!=2){ // Si no esta en el menu de estados apaga la alarma 
05816:  MOVF   xE1,W
05818:  SUBLW  02
0581A:  BZ    5826
....................       Alarma_off; 
0581C:  BCF    F8B.1
0581E:  BCF    F94.1
....................       Alarma=10; 
05820:  MOVLW  0A
05822:  MOVWF  xF4
....................       Alarma2=10; 
05824:  MOVWF  xF5
....................    } 
.................... //_-------------------------------------------------------------------------------------------------------------------------------------------------------- 
....................    if(Menu==0){ //Menu de Contrasea. 
05826:  MOVF   xE1,F
05828:  BNZ   5872
....................       flag_latencia=1; 
0582A:  BSF    x1C.3
....................       if(Latencia==1){ 
0582C:  BTFSS  x1C.2
0582E:  BRA    5850
....................          glcd_fillScreen(OFF);glcd_init(OFF);Display_off;Menu=200;reset_cpu(); 
05830:  MOVLB  6
05832:  CLRF   x5A
05834:  MOVLB  0
05836:  CALL   2EE4
0583A:  MOVLB  6
0583C:  CLRF   x52
0583E:  MOVLB  0
05840:  CALL   2FF6
05844:  BCF    F8A.1
05846:  BCF    F93.1
05848:  MOVLW  C8
0584A:  MOVLB  4
0584C:  MOVWF  xE1
0584E:  RESET
....................       } 
....................        
....................       PidePassword(0,0,1,Password[0],Password[1],Password[2],Password[3]); 
05850:  MOVLB  6
05852:  CLRF   x53
05854:  CLRF   x54
05856:  MOVLW  01
05858:  MOVWF  x55
0585A:  MOVFF  52C,656
0585E:  MOVFF  52D,657
05862:  MOVFF  52E,658
05866:  MOVFF  52F,659
0586A:  MOVLB  0
0586C:  CALL   3ECE
05870:  MOVLB  4
....................    } 
.................... //_--------------------------------------------------------------------------------------------------------------------------------------------------------        
....................  
.................... //_-------------------------------------------------------------------------------------------------------------------------------------------------------- 
....................       if(Menu==1)//Menu de Purga. 
05872:  DECFSZ xE1,W
05874:  BRA    5A1E
....................       {  
....................          glcd_text57(15, 1, Tiempo, 1, ON); 
05876:  MOVLW  0F
05878:  MOVLB  6
0587A:  MOVWF  x6B
0587C:  MOVLW  01
0587E:  MOVWF  x6C
05880:  MOVLW  04
05882:  MOVWF  x6E
05884:  MOVLW  50
05886:  MOVWF  x6D
05888:  MOVLW  01
0588A:  MOVWF  x6F
0588C:  MOVWF  x70
0588E:  MOVLB  0
05890:  CALL   3B94
....................          // Para que inicie el tiempo de purga se debe tener el vidrio en la altura adecuada. 
....................          // Una vez ubicado el vidrio se debe encender la Luz Blanca y el Ventilador e iniciar el Tiempo de purga. 
....................          //Motor(1); 
....................          if(!VIDRIOUP){ 
05894:  BSF    F92.3
05896:  BTFSC  F80.3
05898:  BRA    58D6
....................             tiempo_purga=1;LuzBlanca_off;LuzUV_off;Toma_off;Alarma_off;VelocidadMotor(VelMotor); 
0589A:  MOVLB  4
0589C:  BSF    x1B.6
0589E:  BSF    F8B.2
058A0:  BCF    F94.2
058A2:  BSF    F8B.3
058A4:  BCF    F94.3
058A6:  BSF    F8B.0
058A8:  BCF    F94.0
058AA:  BCF    F8B.1
058AC:  BCF    F94.1
058AE:  MOVFF  4F9,652
058B2:  MOVLB  0
058B4:  CALL   45D2
....................             glcd_rect(9, 54, 120, 64, YES, OFF); 
058B8:  MOVLW  09
058BA:  MOVLB  6
058BC:  MOVWF  x6B
058BE:  MOVLW  36
058C0:  MOVWF  x6C
058C2:  MOVLW  78
058C4:  MOVWF  x6D
058C6:  MOVLW  40
058C8:  MOVWF  x6E
058CA:  MOVLW  01
058CC:  MOVWF  x6F
058CE:  CLRF   x70
058D0:  MOVLB  0
058D2:  CALL   3AD2
....................          }  
....................          if(VIDRIOUP){ 
058D6:  BSF    F92.3
058D8:  BTFSS  F80.3
058DA:  BRA    5906
....................             VelocidadMotor(VelMotor);tiempo_purga=0;glcd_text57(10,55, Baje_Vidrio, 1, ON); 
058DC:  MOVFF  4F9,652
058E0:  CALL   45D2
058E4:  MOVLB  4
058E6:  BCF    x1B.6
058E8:  MOVLW  0A
058EA:  MOVLB  6
058EC:  MOVWF  x6B
058EE:  MOVLW  37
058F0:  MOVWF  x6C
058F2:  MOVLW  04
058F4:  MOVWF  x6E
058F6:  MOVLW  63
058F8:  MOVWF  x6D
058FA:  MOVLW  01
058FC:  MOVWF  x6F
058FE:  MOVWF  x70
05900:  MOVLB  0
05902:  CALL   3B94
....................          } 
....................        
....................          displayTiempo(Tpurga[3],20,20,0,2);displayTiempo(Tpurga[2],40,20,0,2);glcd_text57(60, 22, Dos_puntos, 2, ON); 
05906:  MOVFF  50B,652
0590A:  MOVLW  14
0590C:  MOVLB  6
0590E:  MOVWF  x53
05910:  MOVWF  x54
05912:  CLRF   x55
05914:  MOVLW  02
05916:  MOVWF  x56
05918:  MOVLB  0
0591A:  CALL   467A
0591E:  MOVFF  50A,652
05922:  MOVLW  28
05924:  MOVLB  6
05926:  MOVWF  x53
05928:  MOVLW  14
0592A:  MOVWF  x54
0592C:  CLRF   x55
0592E:  MOVLW  02
05930:  MOVWF  x56
05932:  MOVLB  0
05934:  CALL   467A
05938:  MOVLW  3C
0593A:  MOVLB  6
0593C:  MOVWF  x6B
0593E:  MOVLW  16
05940:  MOVWF  x6C
05942:  MOVLW  04
05944:  MOVWF  x6E
05946:  MOVLW  45
05948:  MOVWF  x6D
0594A:  MOVLW  02
0594C:  MOVWF  x6F
0594E:  MOVLW  01
05950:  MOVWF  x70
05952:  MOVLB  0
05954:  CALL   3B94
....................          displayTiempo(Tpurga[1],70,20,0,2);displayTiempo(Tpurga[0],90,20,0,2);         
05958:  MOVFF  509,652
0595C:  MOVLW  46
0595E:  MOVLB  6
05960:  MOVWF  x53
05962:  MOVLW  14
05964:  MOVWF  x54
05966:  CLRF   x55
05968:  MOVLW  02
0596A:  MOVWF  x56
0596C:  MOVLB  0
0596E:  CALL   467A
05972:  MOVFF  508,652
05976:  MOVLW  5A
05978:  MOVLB  6
0597A:  MOVWF  x53
0597C:  MOVLW  14
0597E:  MOVWF  x54
05980:  CLRF   x55
05982:  MOVLW  02
05984:  MOVWF  x56
05986:  MOVLB  0
05988:  CALL   467A
....................        
....................          if(RIGHT){ // Modo de saltarse el tiempo de purga. 
0598C:  BSF    F96.0
0598E:  BTFSC  F84.0
05990:  BRA    59C0
....................             delay_ms(1000); 
05992:  MOVLW  04
05994:  MOVLB  6
05996:  MOVWF  x52
05998:  MOVLW  FA
0599A:  MOVWF  x5B
0599C:  MOVLB  0
0599E:  CALL   16D4
059A2:  MOVLB  6
059A4:  DECFSZ x52,F
059A6:  BRA    5998
....................             if(RIGHT){ 
059A8:  BSF    F96.0
059AA:  BTFSC  F84.0
059AC:  BRA    59C2
....................                tiempo_purga=0;Menu=2;glcd_fillScreen(OFF); 
059AE:  MOVLB  4
059B0:  BCF    x1B.6
059B2:  MOVLW  02
059B4:  MOVWF  xE1
059B6:  MOVLB  6
059B8:  CLRF   x5A
059BA:  MOVLB  0
059BC:  CALL   2EE4
059C0:  MOVLB  6
....................             } 
....................          } 
....................         
....................          if((Tpurga[0]>=Tpurgap[0])&&(Tpurga[1]>=Tpurgap[1])&&(Tpurga[2]>=Tpurgap[2])&&(Tpurga[3]>=Tpurgap[3])){//Si cumplio el tiempo 
059C2:  MOVLB  5
059C4:  MOVF   x0C,W
059C6:  XORLW  80
059C8:  MOVWF  00
059CA:  MOVF   x08,W
059CC:  XORLW  80
059CE:  SUBWF  00,W
059D0:  BZ    59D4
059D2:  BC    5A20
059D4:  MOVF   x0D,W
059D6:  XORLW  80
059D8:  MOVWF  00
059DA:  MOVF   x09,W
059DC:  XORLW  80
059DE:  SUBWF  00,W
059E0:  BZ    59E4
059E2:  BC    5A20
059E4:  MOVF   x0E,W
059E6:  XORLW  80
059E8:  MOVWF  00
059EA:  MOVF   x0A,W
059EC:  XORLW  80
059EE:  SUBWF  00,W
059F0:  BZ    59F4
059F2:  BC    5A20
059F4:  MOVF   x0F,W
059F6:  XORLW  80
059F8:  MOVWF  00
059FA:  MOVF   x0B,W
059FC:  XORLW  80
059FE:  SUBWF  00,W
05A00:  BZ    5A04
05A02:  BC    5A20
....................             tiempo_purga=0;Menu=2;glcd_fillScreen(OFF);flag_luz=!flag_luz;flag_blower=1;flag_toma=1; 
05A04:  MOVLB  4
05A06:  BCF    x1B.6
05A08:  MOVLW  02
05A0A:  MOVWF  xE1
05A0C:  MOVLB  6
05A0E:  CLRF   x5A
05A10:  MOVLB  0
05A12:  CALL   2EE4
05A16:  MOVLB  4
05A18:  BTG    x1B.3
05A1A:  BSF    x1B.1
05A1C:  BSF    x1B.2
05A1E:  MOVLB  5
....................          }       
....................       } 
.................... //_--------------------------------------------------------------------------------------------------------------------------------------------------------        
....................  
.................... //_-------------------------------------------------------------------------------------------------------------------------------------------------------- 
....................       if(Menu==2) //Menu General. 
05A20:  MOVLB  4
05A22:  MOVF   xE1,W
05A24:  SUBLW  02
05A26:  BTFSS  FD8.2
05A28:  GOTO   695A
....................       {          
....................          w=0; 
05A2C:  BCF    x1B.5
....................          glcd_text57(0, 1, Inflowt, 1, ON); 
05A2E:  MOVLB  6
05A30:  CLRF   x6B
05A32:  MOVLW  01
05A34:  MOVWF  x6C
05A36:  MOVLW  04
05A38:  MOVWF  x6E
05A3A:  MOVLW  75
05A3C:  MOVWF  x6D
05A3E:  MOVLW  01
05A40:  MOVWF  x6F
05A42:  MOVWF  x70
05A44:  MOVLB  0
05A46:  CALL   3B94
....................          glcd_text57(0, 15, Downflowt, 1, ON); 
05A4A:  MOVLB  6
05A4C:  CLRF   x6B
05A4E:  MOVLW  0F
05A50:  MOVWF  x6C
05A52:  MOVLW  04
05A54:  MOVWF  x6E
05A56:  MOVLW  82
05A58:  MOVWF  x6D
05A5A:  MOVLW  01
05A5C:  MOVWF  x6F
05A5E:  MOVWF  x70
05A60:  MOVLB  0
05A62:  CALL   3B94
....................          glcd_text57(0, 29, Vida_Filtro, 1, ON); 
05A66:  MOVLB  6
05A68:  CLRF   x6B
05A6A:  MOVLW  1D
05A6C:  MOVWF  x6C
05A6E:  MOVLW  04
05A70:  MOVWF  x6E
05A72:  MOVLW  B5
05A74:  MOVWF  x6D
05A76:  MOVLW  01
05A78:  MOVWF  x6F
05A7A:  MOVWF  x70
05A7C:  MOVLB  0
05A7E:  CALL   3B94
....................          glcd_text57(0, 43, Vida_UV, 1, ON); 
05A82:  MOVLB  6
05A84:  CLRF   x6B
05A86:  MOVLW  2B
05A88:  MOVWF  x6C
05A8A:  MOVLW  04
05A8C:  MOVWF  x6E
05A8E:  MOVLW  AD
05A90:  MOVWF  x6D
05A92:  MOVLW  01
05A94:  MOVWF  x6F
05A96:  MOVWF  x70
05A98:  MOVLB  0
05A9A:  CALL   3B94
....................          UVTime=Tuv[0]+(Tuv[1]*10)+(Tuv[2]*100)+(Tuv[3]*1000);          
05A9E:  MOVFF  519,653
05AA2:  MOVLW  0A
05AA4:  MOVLB  6
05AA6:  MOVWF  x54
05AA8:  MOVLB  0
05AAA:  CALL   4752
05AAE:  MOVF   01,W
05AB0:  MOVLB  5
05AB2:  ADDWF  x18,W
05AB4:  MOVLB  6
05AB6:  MOVWF  x52
05AB8:  MOVFF  51A,653
05ABC:  MOVLW  64
05ABE:  MOVWF  x54
05AC0:  MOVLB  0
05AC2:  CALL   4752
05AC6:  MOVF   01,W
05AC8:  MOVLB  6
05ACA:  ADDWF  x52,F
05ACC:  CLRF   03
05ACE:  MOVLB  5
05AD0:  MOVF   x1B,W
05AD2:  MOVWF  00
05AD4:  BTFSC  FE8.7
05AD6:  DECF   03,F
05AD8:  MOVLB  6
05ADA:  MOVWF  x53
05ADC:  MOVFF  03,654
05AE0:  MOVFF  03,656
05AE4:  MOVWF  x55
05AE6:  MOVLW  03
05AE8:  MOVWF  x58
05AEA:  MOVLW  E8
05AEC:  MOVWF  x57
05AEE:  MOVLB  0
05AF0:  GOTO   47A0
05AF4:  MOVFF  02,03
05AF8:  MOVF   01,W
05AFA:  MOVLB  6
05AFC:  ADDWF  x52,W
05AFE:  MOVWF  01
05B00:  MOVLW  00
05B02:  ADDWFC 03,F
05B04:  MOVFF  01,652
05B08:  MOVFF  03,653
05B0C:  MOVLB  0
05B0E:  GOTO   47F6
05B12:  MOVFF  03,5E7
05B16:  MOVFF  02,5E6
05B1A:  MOVFF  01,5E5
05B1E:  MOVFF  00,5E4
....................           
....................          if(flag_blower==1){ 
05B22:  MOVLB  4
05B24:  BTFSS  x1B.1
05B26:  BRA    5CC8
....................             glcd_imagen(5);tiempo_trabajo=1;VelocidadMotor(VelMotor); 
05B28:  MOVLW  05
05B2A:  MOVLB  6
05B2C:  MOVWF  x52
05B2E:  MOVLB  0
05B30:  CALL   486A
05B34:  MOVLB  4
05B36:  BSF    x1C.0
05B38:  MOVFF  4F9,652
05B3C:  MOVLB  0
05B3E:  CALL   45D2
....................             if(guardatrabajo==1){ 
05B42:  MOVLB  4
05B44:  BTFSS  x1C.5
05B46:  BRA    5CC6
....................                guardatrabajo=0; 
05B48:  BCF    x1C.5
....................                write_eeprom(33,make8(minutos_trabajo,0)); 
05B4A:  MOVFF  504,652
05B4E:  CLRF   FAA
05B50:  MOVLW  21
05B52:  MOVWF  FA9
05B54:  MOVFF  652,FA8
05B58:  BCF    FA6.6
05B5A:  BCF    FA6.7
05B5C:  BSF    FA6.2
05B5E:  MOVF   FF2,W
05B60:  MOVWF  00
05B62:  BCF    FF2.7
05B64:  MOVLB  F
05B66:  MOVLW  55
05B68:  MOVWF  FA7
05B6A:  MOVLW  AA
05B6C:  MOVWF  FA7
05B6E:  BSF    FA6.1
05B70:  BTFSC  FA6.1
05B72:  BRA    5B70
05B74:  BCF    FA6.2
05B76:  MOVF   00,W
05B78:  IORWF  FF2,F
....................                delay_ms(20); 
05B7A:  MOVLW  14
05B7C:  MOVLB  6
05B7E:  MOVWF  x5B
05B80:  MOVLB  0
05B82:  CALL   16D4
....................                write_eeprom(34,make8(minutos_trabajo,1)); 
05B86:  MOVFF  505,652
05B8A:  CLRF   FAA
05B8C:  MOVLW  22
05B8E:  MOVWF  FA9
05B90:  MOVFF  652,FA8
05B94:  BCF    FA6.6
05B96:  BCF    FA6.7
05B98:  BSF    FA6.2
05B9A:  MOVF   FF2,W
05B9C:  MOVWF  00
05B9E:  BCF    FF2.7
05BA0:  MOVLB  F
05BA2:  MOVLW  55
05BA4:  MOVWF  FA7
05BA6:  MOVLW  AA
05BA8:  MOVWF  FA7
05BAA:  BSF    FA6.1
05BAC:  BTFSC  FA6.1
05BAE:  BRA    5BAC
05BB0:  BCF    FA6.2
05BB2:  MOVF   00,W
05BB4:  IORWF  FF2,F
....................                delay_ms(20); 
05BB6:  MOVLW  14
05BB8:  MOVLB  6
05BBA:  MOVWF  x5B
05BBC:  MOVLB  0
05BBE:  CALL   16D4
....................                write_eeprom(16,Ttrabajo[0]); 
05BC2:  CLRF   FAA
05BC4:  MOVLW  10
05BC6:  MOVWF  FA9
05BC8:  MOVFF  524,FA8
05BCC:  BCF    FA6.6
05BCE:  BCF    FA6.7
05BD0:  BSF    FA6.2
05BD2:  MOVF   FF2,W
05BD4:  MOVWF  00
05BD6:  BCF    FF2.7
05BD8:  MOVLB  F
05BDA:  MOVLW  55
05BDC:  MOVWF  FA7
05BDE:  MOVLW  AA
05BE0:  MOVWF  FA7
05BE2:  BSF    FA6.1
05BE4:  BTFSC  FA6.1
05BE6:  BRA    5BE4
05BE8:  BCF    FA6.2
05BEA:  MOVF   00,W
05BEC:  IORWF  FF2,F
....................                delay_ms(20); 
05BEE:  MOVLW  14
05BF0:  MOVLB  6
05BF2:  MOVWF  x5B
05BF4:  MOVLB  0
05BF6:  CALL   16D4
....................                write_eeprom(17,Ttrabajo[1]); 
05BFA:  CLRF   FAA
05BFC:  MOVLW  11
05BFE:  MOVWF  FA9
05C00:  MOVFF  525,FA8
05C04:  BCF    FA6.6
05C06:  BCF    FA6.7
05C08:  BSF    FA6.2
05C0A:  MOVF   FF2,W
05C0C:  MOVWF  00
05C0E:  BCF    FF2.7
05C10:  MOVLB  F
05C12:  MOVLW  55
05C14:  MOVWF  FA7
05C16:  MOVLW  AA
05C18:  MOVWF  FA7
05C1A:  BSF    FA6.1
05C1C:  BTFSC  FA6.1
05C1E:  BRA    5C1C
05C20:  BCF    FA6.2
05C22:  MOVF   00,W
05C24:  IORWF  FF2,F
....................                delay_ms(20); 
05C26:  MOVLW  14
05C28:  MOVLB  6
05C2A:  MOVWF  x5B
05C2C:  MOVLB  0
05C2E:  CALL   16D4
....................                write_eeprom(18,Ttrabajo[2]); 
05C32:  CLRF   FAA
05C34:  MOVLW  12
05C36:  MOVWF  FA9
05C38:  MOVFF  526,FA8
05C3C:  BCF    FA6.6
05C3E:  BCF    FA6.7
05C40:  BSF    FA6.2
05C42:  MOVF   FF2,W
05C44:  MOVWF  00
05C46:  BCF    FF2.7
05C48:  MOVLB  F
05C4A:  MOVLW  55
05C4C:  MOVWF  FA7
05C4E:  MOVLW  AA
05C50:  MOVWF  FA7
05C52:  BSF    FA6.1
05C54:  BTFSC  FA6.1
05C56:  BRA    5C54
05C58:  BCF    FA6.2
05C5A:  MOVF   00,W
05C5C:  IORWF  FF2,F
....................                delay_ms(20); 
05C5E:  MOVLW  14
05C60:  MOVLB  6
05C62:  MOVWF  x5B
05C64:  MOVLB  0
05C66:  CALL   16D4
....................                write_eeprom(19,Ttrabajo[3]); 
05C6A:  CLRF   FAA
05C6C:  MOVLW  13
05C6E:  MOVWF  FA9
05C70:  MOVFF  527,FA8
05C74:  BCF    FA6.6
05C76:  BCF    FA6.7
05C78:  BSF    FA6.2
05C7A:  MOVF   FF2,W
05C7C:  MOVWF  00
05C7E:  BCF    FF2.7
05C80:  MOVLB  F
05C82:  MOVLW  55
05C84:  MOVWF  FA7
05C86:  MOVLW  AA
05C88:  MOVWF  FA7
05C8A:  BSF    FA6.1
05C8C:  BTFSC  FA6.1
05C8E:  BRA    5C8C
05C90:  BCF    FA6.2
05C92:  MOVF   00,W
05C94:  IORWF  FF2,F
....................                delay_ms(500); 
05C96:  MOVLW  02
05C98:  MOVLB  6
05C9A:  MOVWF  x52
05C9C:  MOVLW  FA
05C9E:  MOVWF  x5B
05CA0:  MOVLB  0
05CA2:  CALL   16D4
05CA6:  MOVLB  6
05CA8:  DECFSZ x52,F
05CAA:  BRA    5C9C
....................                glcd_init(ON);             //Inicializa la glcd 
05CAC:  MOVLW  01
05CAE:  MOVWF  x52
05CB0:  MOVLB  0
05CB2:  CALL   2FF6
....................                glcd_fillScreen(OFF);      //Limpia la pantalla 
05CB6:  MOVLB  6
05CB8:  CLRF   x5A
05CBA:  MOVLB  0
05CBC:  CALL   2EE4
....................                glcd_update();   
05CC0:  CALL   2F3E
05CC4:  MOVLB  4
....................             } 
....................          }else{ 
05CC6:  BRA    5E82
....................             Filtro_Downflow=0; 
05CC8:  MOVLB  5
05CCA:  CLRF   x3B
05CCC:  CLRF   x3A
05CCE:  CLRF   x39
05CD0:  CLRF   x38
....................             glcd_rect(102, 45, 127, 64, YES, OFF);tiempo_trabajo=0;VelocidadMotor(0); 
05CD2:  MOVLW  66
05CD4:  MOVLB  6
05CD6:  MOVWF  x6B
05CD8:  MOVLW  2D
05CDA:  MOVWF  x6C
05CDC:  MOVLW  7F
05CDE:  MOVWF  x6D
05CE0:  MOVLW  40
05CE2:  MOVWF  x6E
05CE4:  MOVLW  01
05CE6:  MOVWF  x6F
05CE8:  CLRF   x70
05CEA:  MOVLB  0
05CEC:  CALL   3AD2
05CF0:  MOVLB  4
05CF2:  BCF    x1C.0
05CF4:  MOVLB  6
05CF6:  CLRF   x52
05CF8:  MOVLB  0
05CFA:  CALL   45D2
....................             if(guardatrabajo==0){ 
05CFE:  MOVLB  4
05D00:  BTFSC  x1C.5
05D02:  BRA    5E82
....................                guardatrabajo=1; 
05D04:  BSF    x1C.5
....................                write_eeprom(33,make8(minutos_trabajo,0)); 
05D06:  MOVFF  504,652
05D0A:  CLRF   FAA
05D0C:  MOVLW  21
05D0E:  MOVWF  FA9
05D10:  MOVFF  652,FA8
05D14:  BCF    FA6.6
05D16:  BCF    FA6.7
05D18:  BSF    FA6.2
05D1A:  MOVF   FF2,W
05D1C:  MOVWF  00
05D1E:  BCF    FF2.7
05D20:  MOVLB  F
05D22:  MOVLW  55
05D24:  MOVWF  FA7
05D26:  MOVLW  AA
05D28:  MOVWF  FA7
05D2A:  BSF    FA6.1
05D2C:  BTFSC  FA6.1
05D2E:  BRA    5D2C
05D30:  BCF    FA6.2
05D32:  MOVF   00,W
05D34:  IORWF  FF2,F
....................                delay_ms(20); 
05D36:  MOVLW  14
05D38:  MOVLB  6
05D3A:  MOVWF  x5B
05D3C:  MOVLB  0
05D3E:  CALL   16D4
....................                write_eeprom(34,make8(minutos_trabajo,1)); 
05D42:  MOVFF  505,652
05D46:  CLRF   FAA
05D48:  MOVLW  22
05D4A:  MOVWF  FA9
05D4C:  MOVFF  652,FA8
05D50:  BCF    FA6.6
05D52:  BCF    FA6.7
05D54:  BSF    FA6.2
05D56:  MOVF   FF2,W
05D58:  MOVWF  00
05D5A:  BCF    FF2.7
05D5C:  MOVLB  F
05D5E:  MOVLW  55
05D60:  MOVWF  FA7
05D62:  MOVLW  AA
05D64:  MOVWF  FA7
05D66:  BSF    FA6.1
05D68:  BTFSC  FA6.1
05D6A:  BRA    5D68
05D6C:  BCF    FA6.2
05D6E:  MOVF   00,W
05D70:  IORWF  FF2,F
....................                delay_ms(20); 
05D72:  MOVLW  14
05D74:  MOVLB  6
05D76:  MOVWF  x5B
05D78:  MOVLB  0
05D7A:  CALL   16D4
....................                write_eeprom(16,Ttrabajo[0]); 
05D7E:  CLRF   FAA
05D80:  MOVLW  10
05D82:  MOVWF  FA9
05D84:  MOVFF  524,FA8
05D88:  BCF    FA6.6
05D8A:  BCF    FA6.7
05D8C:  BSF    FA6.2
05D8E:  MOVF   FF2,W
05D90:  MOVWF  00
05D92:  BCF    FF2.7
05D94:  MOVLB  F
05D96:  MOVLW  55
05D98:  MOVWF  FA7
05D9A:  MOVLW  AA
05D9C:  MOVWF  FA7
05D9E:  BSF    FA6.1
05DA0:  BTFSC  FA6.1
05DA2:  BRA    5DA0
05DA4:  BCF    FA6.2
05DA6:  MOVF   00,W
05DA8:  IORWF  FF2,F
....................                delay_ms(20); 
05DAA:  MOVLW  14
05DAC:  MOVLB  6
05DAE:  MOVWF  x5B
05DB0:  MOVLB  0
05DB2:  CALL   16D4
....................                write_eeprom(17,Ttrabajo[1]); 
05DB6:  CLRF   FAA
05DB8:  MOVLW  11
05DBA:  MOVWF  FA9
05DBC:  MOVFF  525,FA8
05DC0:  BCF    FA6.6
05DC2:  BCF    FA6.7
05DC4:  BSF    FA6.2
05DC6:  MOVF   FF2,W
05DC8:  MOVWF  00
05DCA:  BCF    FF2.7
05DCC:  MOVLB  F
05DCE:  MOVLW  55
05DD0:  MOVWF  FA7
05DD2:  MOVLW  AA
05DD4:  MOVWF  FA7
05DD6:  BSF    FA6.1
05DD8:  BTFSC  FA6.1
05DDA:  BRA    5DD8
05DDC:  BCF    FA6.2
05DDE:  MOVF   00,W
05DE0:  IORWF  FF2,F
....................                delay_ms(20); 
05DE2:  MOVLW  14
05DE4:  MOVLB  6
05DE6:  MOVWF  x5B
05DE8:  MOVLB  0
05DEA:  CALL   16D4
....................                write_eeprom(18,Ttrabajo[2]); 
05DEE:  CLRF   FAA
05DF0:  MOVLW  12
05DF2:  MOVWF  FA9
05DF4:  MOVFF  526,FA8
05DF8:  BCF    FA6.6
05DFA:  BCF    FA6.7
05DFC:  BSF    FA6.2
05DFE:  MOVF   FF2,W
05E00:  MOVWF  00
05E02:  BCF    FF2.7
05E04:  MOVLB  F
05E06:  MOVLW  55
05E08:  MOVWF  FA7
05E0A:  MOVLW  AA
05E0C:  MOVWF  FA7
05E0E:  BSF    FA6.1
05E10:  BTFSC  FA6.1
05E12:  BRA    5E10
05E14:  BCF    FA6.2
05E16:  MOVF   00,W
05E18:  IORWF  FF2,F
....................                delay_ms(20); 
05E1A:  MOVLW  14
05E1C:  MOVLB  6
05E1E:  MOVWF  x5B
05E20:  MOVLB  0
05E22:  CALL   16D4
....................                write_eeprom(19,Ttrabajo[3]); 
05E26:  CLRF   FAA
05E28:  MOVLW  13
05E2A:  MOVWF  FA9
05E2C:  MOVFF  527,FA8
05E30:  BCF    FA6.6
05E32:  BCF    FA6.7
05E34:  BSF    FA6.2
05E36:  MOVF   FF2,W
05E38:  MOVWF  00
05E3A:  BCF    FF2.7
05E3C:  MOVLB  F
05E3E:  MOVLW  55
05E40:  MOVWF  FA7
05E42:  MOVLW  AA
05E44:  MOVWF  FA7
05E46:  BSF    FA6.1
05E48:  BTFSC  FA6.1
05E4A:  BRA    5E48
05E4C:  BCF    FA6.2
05E4E:  MOVF   00,W
05E50:  IORWF  FF2,F
....................                delay_ms(500); 
05E52:  MOVLW  02
05E54:  MOVLB  6
05E56:  MOVWF  x52
05E58:  MOVLW  FA
05E5A:  MOVWF  x5B
05E5C:  MOVLB  0
05E5E:  CALL   16D4
05E62:  MOVLB  6
05E64:  DECFSZ x52,F
05E66:  BRA    5E58
....................                glcd_init(ON);             //Inicializa la glcd 
05E68:  MOVLW  01
05E6A:  MOVWF  x52
05E6C:  MOVLB  0
05E6E:  CALL   2FF6
....................                glcd_fillScreen(OFF);      //Limpia la pantalla 
05E72:  MOVLB  6
05E74:  CLRF   x5A
05E76:  MOVLB  0
05E78:  CALL   2EE4
....................                glcd_update();   
05E7C:  CALL   2F3E
05E80:  MOVLB  4
....................             } 
....................          } 
....................           
.................... // Dibujo de barra de estado de filtro                   
....................          //barra=100.0*(Filtro_Downflow/0.75); 
....................          barra=100.0*((Filtro_Downflow-Pini)/Pfin); 
05E82:  BSF    FD8.1
05E84:  MOVFF  53B,65E
05E88:  MOVFF  53A,65D
05E8C:  MOVFF  539,65C
05E90:  MOVFF  538,65B
05E94:  MOVFF  577,662
05E98:  MOVFF  576,661
05E9C:  MOVFF  575,660
05EA0:  MOVFF  574,65F
05EA4:  MOVLB  0
05EA6:  CALL   1890
05EAA:  MOVFF  00,652
05EAE:  MOVFF  01,653
05EB2:  MOVFF  02,654
05EB6:  MOVFF  03,655
05EBA:  MOVFF  03,65A
05EBE:  MOVFF  02,659
05EC2:  MOVFF  01,658
05EC6:  MOVFF  00,657
05ECA:  MOVFF  57B,65E
05ECE:  MOVFF  57A,65D
05ED2:  MOVFF  579,65C
05ED6:  MOVFF  578,65B
05EDA:  CALL   1732
05EDE:  MOVLB  6
05EE0:  CLRF   x77
05EE2:  CLRF   x76
05EE4:  MOVLW  48
05EE6:  MOVWF  x75
05EE8:  MOVLW  85
05EEA:  MOVWF  x74
05EEC:  MOVFF  03,67B
05EF0:  MOVFF  02,67A
05EF4:  MOVFF  01,679
05EF8:  MOVFF  00,678
05EFC:  MOVLB  0
05EFE:  CALL   30DC
05F02:  MOVFF  03,543
05F06:  MOVFF  02,542
05F0A:  MOVFF  01,541
05F0E:  MOVFF  00,540
....................          if(barra>100.0) 
05F12:  MOVLB  6
05F14:  CLRF   x5A
05F16:  CLRF   x59
05F18:  MOVLW  48
05F1A:  MOVWF  x58
05F1C:  MOVLW  85
05F1E:  MOVWF  x57
05F20:  MOVFF  543,65E
05F24:  MOVFF  542,65D
05F28:  MOVFF  541,65C
05F2C:  MOVFF  540,65B
05F30:  MOVLB  0
05F32:  CALL   23B2
05F36:  BNC   5F46
....................             barra=100.0; 
05F38:  MOVLB  5
05F3A:  CLRF   x43
05F3C:  CLRF   x42
05F3E:  MOVLW  48
05F40:  MOVWF  x41
05F42:  MOVLW  85
05F44:  MOVWF  x40
....................          if(barra<0.0) 
05F46:  MOVFF  543,65A
05F4A:  MOVFF  542,659
05F4E:  MOVFF  541,658
05F52:  MOVFF  540,657
05F56:  MOVLB  6
05F58:  CLRF   x5E
05F5A:  CLRF   x5D
05F5C:  CLRF   x5C
05F5E:  CLRF   x5B
05F60:  MOVLB  0
05F62:  CALL   23B2
05F66:  BNC   5F72
....................             barra=0.0; 
05F68:  MOVLB  5
05F6A:  CLRF   x43
05F6C:  CLRF   x42
05F6E:  CLRF   x41
05F70:  CLRF   x40
....................           
....................          if(imprimir==1){ 
05F72:  MOVLB  4
05F74:  BTFSS  x1A.7
05F76:  BRA    602C
....................             Downflow=Inflow*Relacion; 
05F78:  MOVFF  533,677
05F7C:  MOVFF  532,676
05F80:  MOVFF  531,675
05F84:  MOVFF  530,674
05F88:  MOVFF  5EB,67B
05F8C:  MOVFF  5EA,67A
05F90:  MOVFF  5E9,679
05F94:  MOVFF  5E8,678
05F98:  MOVLB  0
05F9A:  CALL   30DC
05F9E:  MOVFF  03,537
05FA2:  MOVFF  02,536
05FA6:  MOVFF  01,535
05FAA:  MOVFF  00,534
....................             displayfloat(Inflow,70,1,0,1); 
05FAE:  MOVFF  533,659
05FB2:  MOVFF  532,658
05FB6:  MOVFF  531,657
05FBA:  MOVFF  530,656
05FBE:  MOVLW  46
05FC0:  MOVLB  6
05FC2:  MOVWF  x5A
05FC4:  MOVLW  01
05FC6:  MOVWF  x5B
05FC8:  CLRF   x5C
05FCA:  MOVWF  x5D
05FCC:  MOVLB  0
05FCE:  CALL   4CE2
....................             displayfloat(Downflow,70,15,0,1);   
05FD2:  MOVFF  537,659
05FD6:  MOVFF  536,658
05FDA:  MOVFF  535,657
05FDE:  MOVFF  534,656
05FE2:  MOVLW  46
05FE4:  MOVLB  6
05FE6:  MOVWF  x5A
05FE8:  MOVLW  0F
05FEA:  MOVWF  x5B
05FEC:  CLRF   x5C
05FEE:  MOVLW  01
05FF0:  MOVWF  x5D
05FF2:  MOVLB  0
05FF4:  CALL   4CE2
....................             imprimir=0; 
05FF8:  MOVLB  4
05FFA:  BCF    x1A.7
....................             if(barra>85){ 
05FFC:  MOVLB  6
05FFE:  CLRF   x5A
06000:  CLRF   x59
06002:  MOVLW  2A
06004:  MOVWF  x58
06006:  MOVLW  85
06008:  MOVWF  x57
0600A:  MOVFF  543,65E
0600E:  MOVFF  542,65D
06012:  MOVFF  541,65C
06016:  MOVFF  540,65B
0601A:  MOVLB  0
0601C:  CALL   23B2
06020:  BNC   6028
....................                output_toggle(PIN_B1); 
06022:  BCF    F93.1
06024:  BTG    F8A.1
....................             }else{ 
06026:  BRA    602C
....................                Display_on; 
06028:  BSF    F8A.1
0602A:  BCF    F93.1
....................             } 
....................          } 
....................           
....................          barra=barra/2; 
0602C:  MOVFF  543,65A
06030:  MOVFF  542,659
06034:  MOVFF  541,658
06038:  MOVFF  540,657
0603C:  MOVLB  6
0603E:  CLRF   x5E
06040:  CLRF   x5D
06042:  CLRF   x5C
06044:  MOVLW  80
06046:  MOVWF  x5B
06048:  MOVLB  0
0604A:  CALL   1732
0604E:  MOVFF  03,543
06052:  MOVFF  02,542
06056:  MOVFF  01,541
0605A:  MOVFF  00,540
....................          glcd_rect(42, 28, (int8)(barra_old)+42, 35, YES, OFF);  // Clears the old bar 
0605E:  MOVFF  547,655
06062:  MOVFF  546,654
06066:  MOVFF  545,653
0606A:  MOVFF  544,652
0606E:  CALL   4DC8
06072:  MOVLW  2A
06074:  ADDWF  01,W
06076:  MOVLB  6
06078:  MOVWF  x52
0607A:  MOVLW  2A
0607C:  MOVWF  x6B
0607E:  MOVLW  1C
06080:  MOVWF  x6C
06082:  MOVFF  652,66D
06086:  MOVLW  23
06088:  MOVWF  x6E
0608A:  MOVLW  01
0608C:  MOVWF  x6F
0608E:  CLRF   x70
06090:  MOVLB  0
06092:  CALL   3AD2
....................          glcd_rect(42, 28, (int8)(barra)+42, 35, YES, ON);             // Draws a new bar 
06096:  MOVFF  543,655
0609A:  MOVFF  542,654
0609E:  MOVFF  541,653
060A2:  MOVFF  540,652
060A6:  CALL   4DC8
060AA:  MOVLW  2A
060AC:  ADDWF  01,W
060AE:  MOVLB  6
060B0:  MOVWF  x52
060B2:  MOVLW  2A
060B4:  MOVWF  x6B
060B6:  MOVLW  1C
060B8:  MOVWF  x6C
060BA:  MOVFF  652,66D
060BE:  MOVLW  23
060C0:  MOVWF  x6E
060C2:  MOVLW  01
060C4:  MOVWF  x6F
060C6:  MOVWF  x70
060C8:  MOVLB  0
060CA:  CALL   3AD2
....................          glcd_rect(40, 26, 94, 37, NO, ON);             // Draws a new bar 
060CE:  MOVLW  28
060D0:  MOVLB  6
060D2:  MOVWF  x6B
060D4:  MOVLW  1A
060D6:  MOVWF  x6C
060D8:  MOVLW  5E
060DA:  MOVWF  x6D
060DC:  MOVLW  25
060DE:  MOVWF  x6E
060E0:  CLRF   x6F
060E2:  MOVLW  01
060E4:  MOVWF  x70
060E6:  MOVLB  0
060E8:  CALL   3AD2
....................          barra_old=barra; 
060EC:  MOVFF  543,547
060F0:  MOVFF  542,546
060F4:  MOVFF  541,545
060F8:  MOVFF  540,544
.................... // Fin de Dibujo de barra de estado de Filtro 
....................  
.................... // Dibujo de barra de estado de Luz UV 
....................          barra2=100.0*(UVTime/1000.0); 
060FC:  MOVFF  5E7,65A
06100:  MOVFF  5E6,659
06104:  MOVFF  5E5,658
06108:  MOVFF  5E4,657
0610C:  MOVLB  6
0610E:  CLRF   x5E
06110:  CLRF   x5D
06112:  MOVLW  7A
06114:  MOVWF  x5C
06116:  MOVLW  88
06118:  MOVWF  x5B
0611A:  MOVLB  0
0611C:  CALL   1732
06120:  MOVLB  6
06122:  CLRF   x77
06124:  CLRF   x76
06126:  MOVLW  48
06128:  MOVWF  x75
0612A:  MOVLW  85
0612C:  MOVWF  x74
0612E:  MOVFF  03,67B
06132:  MOVFF  02,67A
06136:  MOVFF  01,679
0613A:  MOVFF  00,678
0613E:  MOVLB  0
06140:  CALL   30DC
06144:  MOVFF  03,54B
06148:  MOVFF  02,54A
0614C:  MOVFF  01,549
06150:  MOVFF  00,548
....................          if(barra2>100.0) 
06154:  MOVLB  6
06156:  CLRF   x5A
06158:  CLRF   x59
0615A:  MOVLW  48
0615C:  MOVWF  x58
0615E:  MOVLW  85
06160:  MOVWF  x57
06162:  MOVFF  54B,65E
06166:  MOVFF  54A,65D
0616A:  MOVFF  549,65C
0616E:  MOVFF  548,65B
06172:  MOVLB  0
06174:  CALL   23B2
06178:  BNC   6188
....................             barra2=100.0; 
0617A:  MOVLB  5
0617C:  CLRF   x4B
0617E:  CLRF   x4A
06180:  MOVLW  48
06182:  MOVWF  x49
06184:  MOVLW  85
06186:  MOVWF  x48
....................          barra2=barra2/2; 
06188:  MOVFF  54B,65A
0618C:  MOVFF  54A,659
06190:  MOVFF  549,658
06194:  MOVFF  548,657
06198:  MOVLB  6
0619A:  CLRF   x5E
0619C:  CLRF   x5D
0619E:  CLRF   x5C
061A0:  MOVLW  80
061A2:  MOVWF  x5B
061A4:  MOVLB  0
061A6:  CALL   1732
061AA:  MOVFF  03,54B
061AE:  MOVFF  02,54A
061B2:  MOVFF  01,549
061B6:  MOVFF  00,548
....................          glcd_rect(42, 42, (int8)(barra_old2)+42, 49, YES, OFF);  // Clears the old bar 
061BA:  MOVFF  54F,655
061BE:  MOVFF  54E,654
061C2:  MOVFF  54D,653
061C6:  MOVFF  54C,652
061CA:  CALL   4DC8
061CE:  MOVLW  2A
061D0:  ADDWF  01,W
061D2:  MOVLB  6
061D4:  MOVWF  x52
061D6:  MOVLW  2A
061D8:  MOVWF  x6B
061DA:  MOVWF  x6C
061DC:  MOVFF  652,66D
061E0:  MOVLW  31
061E2:  MOVWF  x6E
061E4:  MOVLW  01
061E6:  MOVWF  x6F
061E8:  CLRF   x70
061EA:  MOVLB  0
061EC:  CALL   3AD2
....................          glcd_rect(42, 42, (int8)(barra2)+42, 49, YES, ON);             // Draws a new bar 
061F0:  MOVFF  54B,655
061F4:  MOVFF  54A,654
061F8:  MOVFF  549,653
061FC:  MOVFF  548,652
06200:  CALL   4DC8
06204:  MOVLW  2A
06206:  ADDWF  01,W
06208:  MOVLB  6
0620A:  MOVWF  x52
0620C:  MOVLW  2A
0620E:  MOVWF  x6B
06210:  MOVWF  x6C
06212:  MOVFF  652,66D
06216:  MOVLW  31
06218:  MOVWF  x6E
0621A:  MOVLW  01
0621C:  MOVWF  x6F
0621E:  MOVWF  x70
06220:  MOVLB  0
06222:  CALL   3AD2
....................          glcd_rect(40, 40, 94, 51, NO, ON);             // Draws a new bar 
06226:  MOVLW  28
06228:  MOVLB  6
0622A:  MOVWF  x6B
0622C:  MOVWF  x6C
0622E:  MOVLW  5E
06230:  MOVWF  x6D
06232:  MOVLW  33
06234:  MOVWF  x6E
06236:  CLRF   x6F
06238:  MOVLW  01
0623A:  MOVWF  x70
0623C:  MOVLB  0
0623E:  CALL   3AD2
....................          barra_old2=barra2; 
06242:  MOVFF  54B,54F
06246:  MOVFF  54A,54E
0624A:  MOVFF  549,54D
0624E:  MOVFF  548,54C
.................... // Fin de Dibujo de barra de estado de Luz UV 
....................           
....................  
....................          if(VIDRIODN){ 
06252:  BSF    F92.2
06254:  BTFSS  F80.2
06256:  BRA    6336
....................             if(Downflow<0.25 || Inflow<0.4){ 
06258:  MOVFF  537,65A
0625C:  MOVFF  536,659
06260:  MOVFF  535,658
06264:  MOVFF  534,657
06268:  MOVLB  6
0626A:  CLRF   x5E
0626C:  CLRF   x5D
0626E:  CLRF   x5C
06270:  MOVLW  7D
06272:  MOVWF  x5B
06274:  MOVLB  0
06276:  CALL   23B2
0627A:  BC    62A6
0627C:  MOVFF  533,65A
06280:  MOVFF  532,659
06284:  MOVFF  531,658
06288:  MOVFF  530,657
0628C:  MOVLW  CD
0628E:  MOVLB  6
06290:  MOVWF  x5E
06292:  MOVLW  CC
06294:  MOVWF  x5D
06296:  MOVLW  4C
06298:  MOVWF  x5C
0629A:  MOVLW  7D
0629C:  MOVWF  x5B
0629E:  MOVLB  0
062A0:  CALL   23B2
062A4:  BNC   6306
....................                flag_latencia=1; 
062A6:  MOVLB  4
062A8:  BSF    x1C.3
....................                if(Latencia==1){          
062AA:  BTFSS  x1C.2
062AC:  BRA    6302
....................                   if(Downflow<0.25 || Inflow<0.4){ 
062AE:  MOVFF  537,65A
062B2:  MOVFF  536,659
062B6:  MOVFF  535,658
062BA:  MOVFF  534,657
062BE:  MOVLB  6
062C0:  CLRF   x5E
062C2:  CLRF   x5D
062C4:  CLRF   x5C
062C6:  MOVLW  7D
062C8:  MOVWF  x5B
062CA:  MOVLB  0
062CC:  CALL   23B2
062D0:  BC    62FC
062D2:  MOVFF  533,65A
062D6:  MOVFF  532,659
062DA:  MOVFF  531,658
062DE:  MOVFF  530,657
062E2:  MOVLW  CD
062E4:  MOVLB  6
062E6:  MOVWF  x5E
062E8:  MOVLW  CC
062EA:  MOVWF  x5D
062EC:  MOVLW  4C
062EE:  MOVWF  x5C
062F0:  MOVLW  7D
062F2:  MOVWF  x5B
062F4:  MOVLB  0
062F6:  CALL   23B2
062FA:  BNC   6304
....................                      Alarma=5; 
062FC:  MOVLW  05
062FE:  MOVLB  4
06300:  MOVWF  xF4
06302:  MOVLB  0
....................                   } 
....................                } 
....................             }else{ 
06304:  BRA    6334
....................                Alarma=10; 
06306:  MOVLW  0A
06308:  MOVLB  4
0630A:  MOVWF  xF4
....................                Latencia=0;t_latencia=0;flag_latencia=0; 
0630C:  BCF    x1C.2
0630E:  MOVLB  5
06310:  CLRF   x01
06312:  CLRF   x00
06314:  MOVLB  4
06316:  BCF    x1C.3
....................                glcd_rect(0, 54, 104, 64, YES, OFF); 
06318:  MOVLB  6
0631A:  CLRF   x6B
0631C:  MOVLW  36
0631E:  MOVWF  x6C
06320:  MOVLW  68
06322:  MOVWF  x6D
06324:  MOVLW  40
06326:  MOVWF  x6E
06328:  MOVLW  01
0632A:  MOVWF  x6F
0632C:  CLRF   x70
0632E:  MOVLB  0
06330:  CALL   3AD2
....................             } 
....................          }else{ 
06334:  BRA    6366
....................             Latencia=0;t_latencia=0;flag_latencia=0; 
06336:  MOVLB  4
06338:  BCF    x1C.2
0633A:  MOVLB  5
0633C:  CLRF   x01
0633E:  CLRF   x00
06340:  MOVLB  4
06342:  BCF    x1C.3
....................             glcd_rect(0, 54, 104, 64, YES, OFF);Alarma=10; 
06344:  MOVLB  6
06346:  CLRF   x6B
06348:  MOVLW  36
0634A:  MOVWF  x6C
0634C:  MOVLW  68
0634E:  MOVWF  x6D
06350:  MOVLW  40
06352:  MOVWF  x6E
06354:  MOVLW  01
06356:  MOVWF  x6F
06358:  CLRF   x70
0635A:  MOVLB  0
0635C:  CALL   3AD2
06360:  MOVLW  0A
06362:  MOVLB  4
06364:  MOVWF  xF4
....................          } 
....................        
....................          if(flag_toma==1){ // Si activo Toma 
06366:  MOVLB  4
06368:  BTFSS  x1B.2
0636A:  BRA    6380
....................             glcd_imagen(4);Toma_on; 
0636C:  MOVLW  04
0636E:  MOVLB  6
06370:  MOVWF  x52
06372:  MOVLB  0
06374:  CALL   486A
06378:  BCF    F8B.0
0637A:  BCF    F94.0
....................          }else{// Si desactivo Toma         
0637C:  BRA    63A2
0637E:  MOVLB  4
....................             glcd_rect(102, 28, 127, 44, YES, OFF);Toma_off; 
06380:  MOVLW  66
06382:  MOVLB  6
06384:  MOVWF  x6B
06386:  MOVLW  1C
06388:  MOVWF  x6C
0638A:  MOVLW  7F
0638C:  MOVWF  x6D
0638E:  MOVLW  2C
06390:  MOVWF  x6E
06392:  MOVLW  01
06394:  MOVWF  x6F
06396:  CLRF   x70
06398:  MOVLB  0
0639A:  CALL   3AD2
0639E:  BSF    F8B.0
063A0:  BCF    F94.0
....................          } 
....................        
....................          if(!VIDRIOUP){ // Si el vidrio esta en la posicin correcta          
063A2:  BSF    F92.3
063A4:  BTFSC  F80.3
063A6:  BRA    6402
....................             glcd_rect(0, 55, 100, 63, YES, OFF); 
063A8:  MOVLB  6
063AA:  CLRF   x6B
063AC:  MOVLW  37
063AE:  MOVWF  x6C
063B0:  MOVLW  64
063B2:  MOVWF  x6D
063B4:  MOVLW  3F
063B6:  MOVWF  x6E
063B8:  MOVLW  01
063BA:  MOVWF  x6F
063BC:  CLRF   x70
063BE:  MOVLB  0
063C0:  CALL   3AD2
....................             if(flag_luz==1){ 
063C4:  MOVLB  4
063C6:  BTFSS  x1B.3
063C8:  BRA    63DE
....................                glcd_imagen(3);LuzBlanca_on; 
063CA:  MOVLW  03
063CC:  MOVLB  6
063CE:  MOVWF  x52
063D0:  MOVLB  0
063D2:  CALL   486A
063D6:  BCF    F8B.2
063D8:  BCF    F94.2
....................             }else{ 
063DA:  BRA    6400
063DC:  MOVLB  4
....................                glcd_rect(102, 14, 127, 28, YES, OFF);LuzBlanca_off; 
063DE:  MOVLW  66
063E0:  MOVLB  6
063E2:  MOVWF  x6B
063E4:  MOVLW  0E
063E6:  MOVWF  x6C
063E8:  MOVLW  7F
063EA:  MOVWF  x6D
063EC:  MOVLW  1C
063EE:  MOVWF  x6E
063F0:  MOVLW  01
063F2:  MOVWF  x6F
063F4:  CLRF   x70
063F6:  MOVLB  0
063F8:  CALL   3AD2
063FC:  BSF    F8B.2
063FE:  BCF    F94.2
....................             } 
....................          }else{// Si el vidrio no esta en la posicin correcta 
06400:  BRA    6424
....................             LuzBlanca_off; 
06402:  BSF    F8B.2
06404:  BCF    F94.2
....................             glcd_rect(102, 14, 127, 27, YES, OFF);          
06406:  MOVLW  66
06408:  MOVLB  6
0640A:  MOVWF  x6B
0640C:  MOVLW  0E
0640E:  MOVWF  x6C
06410:  MOVLW  7F
06412:  MOVWF  x6D
06414:  MOVLW  1B
06416:  MOVWF  x6E
06418:  MOVLW  01
0641A:  MOVWF  x6F
0641C:  CLRF   x70
0641E:  MOVLB  0
06420:  CALL   3AD2
....................          } 
....................           
....................          if(!VIDRIODN){             
06424:  BSF    F92.2
06426:  BTFSC  F80.2
06428:  BRA    6708
....................             glcd_rect(0, 55, 100, 63, YES, OFF); 
0642A:  MOVLB  6
0642C:  CLRF   x6B
0642E:  MOVLW  37
06430:  MOVWF  x6C
06432:  MOVLW  64
06434:  MOVWF  x6D
06436:  MOVLW  3F
06438:  MOVWF  x6E
0643A:  MOVLW  01
0643C:  MOVWF  x6F
0643E:  CLRF   x70
06440:  MOVLB  0
06442:  CALL   3AD2
....................             if(flag_blower) 
06446:  MOVLB  4
06448:  BTFSS  x1B.1
0644A:  BRA    646A
....................                glcd_text57(0,55, Ahorro, 1, ON); 
0644C:  MOVLB  6
0644E:  CLRF   x6B
06450:  MOVLW  37
06452:  MOVWF  x6C
06454:  MOVLW  04
06456:  MOVWF  x6E
06458:  MOVLW  D8
0645A:  MOVWF  x6D
0645C:  MOVLW  01
0645E:  MOVWF  x6F
06460:  MOVWF  x70
06462:  MOVLB  0
06464:  CALL   3B94
06468:  MOVLB  4
....................             flag_Luz=0;LuzBlanca_off; 
0646A:  BCF    x1B.3
0646C:  BSF    F8B.2
0646E:  BCF    F94.2
....................             if(UV2==10){ 
06470:  MOVF   xF6,W
06472:  SUBLW  0A
06474:  BTFSS  FD8.2
06476:  BRA    65C0
....................                tiempo_uv=1; 
06478:  BSF    x1B.7
....................                LuzUV_on; 
0647A:  BCF    F8B.3
0647C:  BCF    F94.3
....................                glcd_text57(105, 0, UV, 2, ON); 
0647E:  MOVLW  69
06480:  MOVLB  6
06482:  MOVWF  x6B
06484:  CLRF   x6C
06486:  MOVLW  04
06488:  MOVWF  x6E
0648A:  MOVLW  60
0648C:  MOVWF  x6D
0648E:  MOVLW  02
06490:  MOVWF  x6F
06492:  MOVLW  01
06494:  MOVWF  x70
06496:  MOVLB  0
06498:  CALL   3B94
....................                if(guardauv==1){ 
0649C:  MOVLB  4
0649E:  BTFSS  x1C.4
064A0:  BRA    65BE
....................                   guardauv=0; 
064A2:  BCF    x1C.4
....................                   write_eeprom(31,minutos_uv); 
064A4:  CLRF   FAA
064A6:  MOVLW  1F
064A8:  MOVWF  FA9
064AA:  MOVFF  4E9,FA8
064AE:  BCF    FA6.6
064B0:  BCF    FA6.7
064B2:  BSF    FA6.2
064B4:  MOVF   FF2,W
064B6:  MOVWF  00
064B8:  BCF    FF2.7
064BA:  MOVLB  F
064BC:  MOVLW  55
064BE:  MOVWF  FA7
064C0:  MOVLW  AA
064C2:  MOVWF  FA7
064C4:  BSF    FA6.1
064C6:  BTFSC  FA6.1
064C8:  BRA    64C6
064CA:  BCF    FA6.2
064CC:  MOVF   00,W
064CE:  IORWF  FF2,F
....................                   delay_ms(20); 
064D0:  MOVLW  14
064D2:  MOVLB  6
064D4:  MOVWF  x5B
064D6:  MOVLB  0
064D8:  CALL   16D4
....................                   write_eeprom(12,Tuv[0]); 
064DC:  CLRF   FAA
064DE:  MOVLW  0C
064E0:  MOVWF  FA9
064E2:  MOVFF  518,FA8
064E6:  BCF    FA6.6
064E8:  BCF    FA6.7
064EA:  BSF    FA6.2
064EC:  MOVF   FF2,W
064EE:  MOVWF  00
064F0:  BCF    FF2.7
064F2:  MOVLB  F
064F4:  MOVLW  55
064F6:  MOVWF  FA7
064F8:  MOVLW  AA
064FA:  MOVWF  FA7
064FC:  BSF    FA6.1
064FE:  BTFSC  FA6.1
06500:  BRA    64FE
06502:  BCF    FA6.2
06504:  MOVF   00,W
06506:  IORWF  FF2,F
....................                   delay_ms(20); 
06508:  MOVLW  14
0650A:  MOVLB  6
0650C:  MOVWF  x5B
0650E:  MOVLB  0
06510:  CALL   16D4
....................                   write_eeprom(13,Tuv[1]); 
06514:  CLRF   FAA
06516:  MOVLW  0D
06518:  MOVWF  FA9
0651A:  MOVFF  519,FA8
0651E:  BCF    FA6.6
06520:  BCF    FA6.7
06522:  BSF    FA6.2
06524:  MOVF   FF2,W
06526:  MOVWF  00
06528:  BCF    FF2.7
0652A:  MOVLB  F
0652C:  MOVLW  55
0652E:  MOVWF  FA7
06530:  MOVLW  AA
06532:  MOVWF  FA7
06534:  BSF    FA6.1
06536:  BTFSC  FA6.1
06538:  BRA    6536
0653A:  BCF    FA6.2
0653C:  MOVF   00,W
0653E:  IORWF  FF2,F
....................                   delay_ms(20); 
06540:  MOVLW  14
06542:  MOVLB  6
06544:  MOVWF  x5B
06546:  MOVLB  0
06548:  CALL   16D4
....................                   write_eeprom(14,Tuv[2]); 
0654C:  CLRF   FAA
0654E:  MOVLW  0E
06550:  MOVWF  FA9
06552:  MOVFF  51A,FA8
06556:  BCF    FA6.6
06558:  BCF    FA6.7
0655A:  BSF    FA6.2
0655C:  MOVF   FF2,W
0655E:  MOVWF  00
06560:  BCF    FF2.7
06562:  MOVLB  F
06564:  MOVLW  55
06566:  MOVWF  FA7
06568:  MOVLW  AA
0656A:  MOVWF  FA7
0656C:  BSF    FA6.1
0656E:  BTFSC  FA6.1
06570:  BRA    656E
06572:  BCF    FA6.2
06574:  MOVF   00,W
06576:  IORWF  FF2,F
....................                   delay_ms(20); 
06578:  MOVLW  14
0657A:  MOVLB  6
0657C:  MOVWF  x5B
0657E:  MOVLB  0
06580:  CALL   16D4
....................                   write_eeprom(15,Tuv[3]); 
06584:  CLRF   FAA
06586:  MOVLW  0F
06588:  MOVWF  FA9
0658A:  MOVFF  51B,FA8
0658E:  BCF    FA6.6
06590:  BCF    FA6.7
06592:  BSF    FA6.2
06594:  MOVF   FF2,W
06596:  MOVWF  00
06598:  BCF    FF2.7
0659A:  MOVLB  F
0659C:  MOVLW  55
0659E:  MOVWF  FA7
065A0:  MOVLW  AA
065A2:  MOVWF  FA7
065A4:  BSF    FA6.1
065A6:  BTFSC  FA6.1
065A8:  BRA    65A6
065AA:  BCF    FA6.2
065AC:  MOVF   00,W
065AE:  IORWF  FF2,F
....................                   delay_ms(20); 
065B0:  MOVLW  14
065B2:  MOVLB  6
065B4:  MOVWF  x5B
065B6:  MOVLB  0
065B8:  CALL   16D4
065BC:  MOVLB  4
....................                }                
....................             }else{ 
065BE:  BRA    6704
....................                LuzUV_off;tiempo_uv=0; 
065C0:  BSF    F8B.3
065C2:  BCF    F94.3
065C4:  BCF    x1B.7
....................                glcd_rect(102, 0, 127, 14, YES, OFF); 
065C6:  MOVLW  66
065C8:  MOVLB  6
065CA:  MOVWF  x6B
065CC:  CLRF   x6C
065CE:  MOVLW  7F
065D0:  MOVWF  x6D
065D2:  MOVLW  0E
065D4:  MOVWF  x6E
065D6:  MOVLW  01
065D8:  MOVWF  x6F
065DA:  CLRF   x70
065DC:  MOVLB  0
065DE:  CALL   3AD2
....................                if(guardauv==0){ 
065E2:  MOVLB  4
065E4:  BTFSC  x1C.4
065E6:  BRA    6704
....................                   guardauv=1; 
065E8:  BSF    x1C.4
....................                   write_eeprom(31,minutos_uv); 
065EA:  CLRF   FAA
065EC:  MOVLW  1F
065EE:  MOVWF  FA9
065F0:  MOVFF  4E9,FA8
065F4:  BCF    FA6.6
065F6:  BCF    FA6.7
065F8:  BSF    FA6.2
065FA:  MOVF   FF2,W
065FC:  MOVWF  00
065FE:  BCF    FF2.7
06600:  MOVLB  F
06602:  MOVLW  55
06604:  MOVWF  FA7
06606:  MOVLW  AA
06608:  MOVWF  FA7
0660A:  BSF    FA6.1
0660C:  BTFSC  FA6.1
0660E:  BRA    660C
06610:  BCF    FA6.2
06612:  MOVF   00,W
06614:  IORWF  FF2,F
....................                   delay_ms(20); 
06616:  MOVLW  14
06618:  MOVLB  6
0661A:  MOVWF  x5B
0661C:  MOVLB  0
0661E:  CALL   16D4
....................                   write_eeprom(12,Tuv[0]); 
06622:  CLRF   FAA
06624:  MOVLW  0C
06626:  MOVWF  FA9
06628:  MOVFF  518,FA8
0662C:  BCF    FA6.6
0662E:  BCF    FA6.7
06630:  BSF    FA6.2
06632:  MOVF   FF2,W
06634:  MOVWF  00
06636:  BCF    FF2.7
06638:  MOVLB  F
0663A:  MOVLW  55
0663C:  MOVWF  FA7
0663E:  MOVLW  AA
06640:  MOVWF  FA7
06642:  BSF    FA6.1
06644:  BTFSC  FA6.1
06646:  BRA    6644
06648:  BCF    FA6.2
0664A:  MOVF   00,W
0664C:  IORWF  FF2,F
....................                   delay_ms(20); 
0664E:  MOVLW  14
06650:  MOVLB  6
06652:  MOVWF  x5B
06654:  MOVLB  0
06656:  CALL   16D4
....................                   write_eeprom(13,Tuv[1]); 
0665A:  CLRF   FAA
0665C:  MOVLW  0D
0665E:  MOVWF  FA9
06660:  MOVFF  519,FA8
06664:  BCF    FA6.6
06666:  BCF    FA6.7
06668:  BSF    FA6.2
0666A:  MOVF   FF2,W
0666C:  MOVWF  00
0666E:  BCF    FF2.7
06670:  MOVLB  F
06672:  MOVLW  55
06674:  MOVWF  FA7
06676:  MOVLW  AA
06678:  MOVWF  FA7
0667A:  BSF    FA6.1
0667C:  BTFSC  FA6.1
0667E:  BRA    667C
06680:  BCF    FA6.2
06682:  MOVF   00,W
06684:  IORWF  FF2,F
....................                   delay_ms(20); 
06686:  MOVLW  14
06688:  MOVLB  6
0668A:  MOVWF  x5B
0668C:  MOVLB  0
0668E:  CALL   16D4
....................                   write_eeprom(14,Tuv[2]); 
06692:  CLRF   FAA
06694:  MOVLW  0E
06696:  MOVWF  FA9
06698:  MOVFF  51A,FA8
0669C:  BCF    FA6.6
0669E:  BCF    FA6.7
066A0:  BSF    FA6.2
066A2:  MOVF   FF2,W
066A4:  MOVWF  00
066A6:  BCF    FF2.7
066A8:  MOVLB  F
066AA:  MOVLW  55
066AC:  MOVWF  FA7
066AE:  MOVLW  AA
066B0:  MOVWF  FA7
066B2:  BSF    FA6.1
066B4:  BTFSC  FA6.1
066B6:  BRA    66B4
066B8:  BCF    FA6.2
066BA:  MOVF   00,W
066BC:  IORWF  FF2,F
....................                   delay_ms(20); 
066BE:  MOVLW  14
066C0:  MOVLB  6
066C2:  MOVWF  x5B
066C4:  MOVLB  0
066C6:  CALL   16D4
....................                   write_eeprom(15,Tuv[3]); 
066CA:  CLRF   FAA
066CC:  MOVLW  0F
066CE:  MOVWF  FA9
066D0:  MOVFF  51B,FA8
066D4:  BCF    FA6.6
066D6:  BCF    FA6.7
066D8:  BSF    FA6.2
066DA:  MOVF   FF2,W
066DC:  MOVWF  00
066DE:  BCF    FF2.7
066E0:  MOVLB  F
066E2:  MOVLW  55
066E4:  MOVWF  FA7
066E6:  MOVLW  AA
066E8:  MOVWF  FA7
066EA:  BSF    FA6.1
066EC:  BTFSC  FA6.1
066EE:  BRA    66EC
066F0:  BCF    FA6.2
066F2:  MOVF   00,W
066F4:  IORWF  FF2,F
....................                   delay_ms(20); 
066F6:  MOVLW  14
066F8:  MOVLB  6
066FA:  MOVWF  x5B
066FC:  MOVLB  0
066FE:  CALL   16D4
06702:  MOVLB  4
....................                } 
....................             } 
....................          }else{ 
06704:  BRA    672C
06706:  MOVLB  0
....................             glcd_rect(102, 0, 127, 14, YES, OFF);LuzUV_off;tiempo_uv=0; 
06708:  MOVLW  66
0670A:  MOVLB  6
0670C:  MOVWF  x6B
0670E:  CLRF   x6C
06710:  MOVLW  7F
06712:  MOVWF  x6D
06714:  MOVLW  0E
06716:  MOVWF  x6E
06718:  MOVLW  01
0671A:  MOVWF  x6F
0671C:  CLRF   x70
0671E:  MOVLB  0
06720:  CALL   3AD2
06724:  BSF    F8B.3
06726:  BCF    F94.3
06728:  MOVLB  4
0672A:  BCF    x1B.7
....................          } 
....................           
....................          if(VIDRIODN && VIDRIOUP){    
0672C:  BSF    F92.2
0672E:  BTFSS  F80.2
06730:  BRA    6778
06732:  BSF    F92.3
06734:  BTFSS  F80.3
06736:  BRA    6778
....................             Alarma2=5; 
06738:  MOVLW  05
0673A:  MOVWF  xF5
....................             glcd_rect(0, 55, 100, 63, YES, ON);glcd_text57(0,55, Baje_Vidrio, 1, OFF); 
0673C:  MOVLB  6
0673E:  CLRF   x6B
06740:  MOVLW  37
06742:  MOVWF  x6C
06744:  MOVLW  64
06746:  MOVWF  x6D
06748:  MOVLW  3F
0674A:  MOVWF  x6E
0674C:  MOVLW  01
0674E:  MOVWF  x6F
06750:  MOVWF  x70
06752:  MOVLB  0
06754:  CALL   3AD2
06758:  MOVLB  6
0675A:  CLRF   x6B
0675C:  MOVLW  37
0675E:  MOVWF  x6C
06760:  MOVLW  04
06762:  MOVWF  x6E
06764:  MOVLW  63
06766:  MOVWF  x6D
06768:  MOVLW  01
0676A:  MOVWF  x6F
0676C:  CLRF   x70
0676E:  MOVLB  0
06770:  CALL   3B94
....................          }else{ 
06774:  BRA    67BA
06776:  MOVLB  4
....................             Alarma2=10; 
06778:  MOVLW  0A
0677A:  MOVWF  xF5
....................             if(Alarma==5){ 
0677C:  MOVF   xF4,W
0677E:  SUBLW  05
06780:  BNZ   67BC
....................                glcd_rect(0, 55, 100, 63, YES, OFF); 
06782:  MOVLB  6
06784:  CLRF   x6B
06786:  MOVLW  37
06788:  MOVWF  x6C
0678A:  MOVLW  64
0678C:  MOVWF  x6D
0678E:  MOVLW  3F
06790:  MOVWF  x6E
06792:  MOVLW  01
06794:  MOVWF  x6F
06796:  CLRF   x70
06798:  MOVLB  0
0679A:  CALL   3AD2
....................                glcd_text57(0,55, Perdida, 1, ON); 
0679E:  MOVLB  6
067A0:  CLRF   x6B
067A2:  MOVLW  37
067A4:  MOVWF  x6C
067A6:  MOVLW  04
067A8:  MOVWF  x6E
067AA:  MOVLW  CB
067AC:  MOVWF  x6D
067AE:  MOVLW  01
067B0:  MOVWF  x6F
067B2:  MOVWF  x70
067B4:  MOVLB  0
067B6:  CALL   3B94
067BA:  MOVLB  4
....................             } 
....................          } 
....................              
....................          if(RIGHT){//Si oprime boton de Blower. 
067BC:  BSF    F96.0
067BE:  BTFSC  F84.0
067C0:  BRA    67DA
....................             if(Flanco3 == 0){ 
067C2:  BTFSC  x1A.3
067C4:  BRA    67D8
....................                Flanco3 = 1;delay_ms(1);flag_blower=!flag_blower; 
067C6:  BSF    x1A.3
067C8:  MOVLW  01
067CA:  MOVLB  6
067CC:  MOVWF  x5B
067CE:  MOVLB  0
067D0:  CALL   16D4
067D4:  MOVLB  4
067D6:  BTG    x1B.1
....................             } 
....................          }else{ 
067D8:  BRA    67DC
....................             Flanco3 = 0; 
067DA:  BCF    x1A.3
....................          } 
....................              
....................          if(LEFT){//Si oprime boton de Luz UV.          
067DC:  BSF    F96.1
067DE:  BTFSC  F84.1
067E0:  BRA    6806
....................             if(Flanco4 == 0){ 
067E2:  BTFSC  x1A.4
067E4:  BRA    6804
....................                Flanco4 = 1;delay_ms(1);flag_uv=!flag_uv; 
067E6:  BSF    x1A.4
067E8:  MOVLW  01
067EA:  MOVLB  6
067EC:  MOVWF  x5B
067EE:  MOVLB  0
067F0:  CALL   16D4
067F4:  MOVLB  4
067F6:  BTG    x1B.0
....................                if(UV2==0) 
067F8:  MOVF   xF6,F
067FA:  BNZ   6802
....................                   UV2=10; 
067FC:  MOVLW  0A
067FE:  MOVWF  xF6
....................                else 
06800:  BRA    6804
....................                   UV2=0; 
06802:  CLRF   xF6
....................             } 
....................          }else{ 
06804:  BRA    6808
....................             Flanco4 = 0; 
06806:  BCF    x1A.4
....................          } 
....................              
....................          if(DOWN){//Si oprime boton de Luz Blanca. 
06808:  BSF    F92.5
0680A:  BTFSC  F80.5
0680C:  BRA    6826
....................             if(Flanco5 == 0){ 
0680E:  BTFSC  x1A.5
06810:  BRA    6824
....................                Flanco5 = 1;delay_ms(1);flag_luz=!flag_luz; 
06812:  BSF    x1A.5
06814:  MOVLW  01
06816:  MOVLB  6
06818:  MOVWF  x5B
0681A:  MOVLB  0
0681C:  CALL   16D4
06820:  MOVLB  4
06822:  BTG    x1B.3
....................             } 
....................          } 
....................          else{ 
06824:  BRA    6828
....................             Flanco5 = 0; 
06826:  BCF    x1A.5
....................          } 
....................        
....................          if(UP){//Si oprime boton de Toma.          
06828:  BSF    F92.4
0682A:  BTFSC  F80.4
0682C:  BRA    689E
....................             delay_ms(500); 
0682E:  MOVLW  02
06830:  MOVLB  6
06832:  MOVWF  x52
06834:  MOVLW  FA
06836:  MOVWF  x5B
06838:  MOVLB  0
0683A:  CALL   16D4
0683E:  MOVLB  6
06840:  DECFSZ x52,F
06842:  BRA    6834
....................             if(UP){//Si oprime boton de Toma. 
06844:  BSF    F92.4
06846:  BTFSC  F80.4
06848:  BRA    6880
....................                delay_ms(30);Menu=3;//glcd_fillScreen(OFF); 
0684A:  MOVLW  1E
0684C:  MOVWF  x5B
0684E:  MOVLB  0
06850:  CALL   16D4
06854:  MOVLW  03
06856:  MOVLB  4
06858:  MOVWF  xE1
....................                glcd_init(ON);             //Inicializa la glcd 
0685A:  MOVLW  01
0685C:  MOVLB  6
0685E:  MOVWF  x52
06860:  MOVLB  0
06862:  CALL   2FF6
....................                glcd_fillScreen(OFF);      //Limpia la pantalla 
06866:  MOVLB  6
06868:  CLRF   x5A
0686A:  MOVLB  0
0686C:  CALL   2EE4
....................                glcd_update();   
06870:  CALL   2F3E
....................                LuzBlanca_off;LuzUV_off; 
06874:  BSF    F8B.2
06876:  BCF    F94.2
06878:  BSF    F8B.3
0687A:  BCF    F94.3
....................             }else{ 
0687C:  BRA    689A
0687E:  MOVLB  6
....................                if(Flanco6 == 0){ 
06880:  MOVLB  4
06882:  BTFSC  x1A.6
06884:  BRA    6898
....................                   Flanco6 = 1;delay_ms(30);flag_toma=!flag_toma; 
06886:  BSF    x1A.6
06888:  MOVLW  1E
0688A:  MOVLB  6
0688C:  MOVWF  x5B
0688E:  MOVLB  0
06890:  CALL   16D4
06894:  MOVLB  4
06896:  BTG    x1B.2
06898:  MOVLB  0
....................                } 
....................             } 
....................          }else{ 
0689A:  BRA    68A0
0689C:  MOVLB  4
....................             Flanco6 = 0; 
0689E:  BCF    x1A.6
....................          } 
....................              
....................          if((Tempouv[0]>=Tempouvp[0])&&(Tempouv[1]>=Tempouvp[1])&&(Tempouv[2]>=Tempouvp[2])&&(Tempouv[3]>=Tempouvp[3]))      { 
068A0:  MOVLB  5
068A2:  MOVF   x20,W
068A4:  XORLW  80
068A6:  MOVWF  00
068A8:  MOVF   x1C,W
068AA:  XORLW  80
068AC:  SUBWF  00,W
068AE:  BZ    68B2
068B0:  BC    695C
068B2:  MOVF   x21,W
068B4:  XORLW  80
068B6:  MOVWF  00
068B8:  MOVF   x1D,W
068BA:  XORLW  80
068BC:  SUBWF  00,W
068BE:  BZ    68C2
068C0:  BC    695C
068C2:  MOVF   x22,W
068C4:  XORLW  80
068C6:  MOVWF  00
068C8:  MOVF   x1E,W
068CA:  XORLW  80
068CC:  SUBWF  00,W
068CE:  BZ    68D2
068D0:  BC    695C
068D2:  MOVF   x23,W
068D4:  XORLW  80
068D6:  MOVWF  00
068D8:  MOVF   x1F,W
068DA:  XORLW  80
068DC:  SUBWF  00,W
068DE:  BZ    68E2
068E0:  BC    695C
....................             if((Tempouvp[0]==0)&&(Tempouvp[1]==0)&&(Tempouvp[2]==0)&&(Tempouvp[3]==0)){ 
068E2:  MOVF   x20,F
068E4:  BNZ   68F4
068E6:  MOVF   x21,F
068E8:  BNZ   68F4
068EA:  MOVF   x22,F
068EC:  BNZ   68F4
068EE:  MOVF   x23,F
068F0:  BNZ   68F4
....................             }else{ 
068F2:  BRA    695C
....................                tiempo_uv=0;LuzUV=10;flag_uv=!flag_uv;glcd_rect(102, 0, 127, 14, YES, OFF); 
068F4:  MOVLB  4
068F6:  BCF    x1B.7
068F8:  MOVLW  0A
068FA:  MOVWF  xF2
068FC:  BTG    x1B.0
068FE:  MOVLW  66
06900:  MOVLB  6
06902:  MOVWF  x6B
06904:  CLRF   x6C
06906:  MOVLW  7F
06908:  MOVWF  x6D
0690A:  MOVLW  0E
0690C:  MOVWF  x6E
0690E:  MOVLW  01
06910:  MOVWF  x6F
06912:  CLRF   x70
06914:  MOVLB  0
06916:  CALL   3AD2
....................                Tempouv[0]=0;Tempouv[1]=0;Tempouv[2]=0;Tempouv[3]=0;UV2=0;LuzUV_off; 
0691A:  MOVLB  5
0691C:  CLRF   x1C
0691E:  CLRF   x1D
06920:  CLRF   x1E
06922:  CLRF   x1F
06924:  MOVLB  4
06926:  CLRF   xF6
06928:  BSF    F8B.3
0692A:  BCF    F94.3
....................                for(i=0;i<5;i++){ 
0692C:  CLRF   x19
0692E:  MOVF   x19,W
06930:  SUBLW  04
06932:  BNC   695A
....................                   Alarma_on;delay_ms(200); 
06934:  BSF    F8B.1
06936:  BCF    F94.1
06938:  MOVLW  C8
0693A:  MOVLB  6
0693C:  MOVWF  x5B
0693E:  MOVLB  0
06940:  CALL   16D4
....................                   Alarma_off;delay_ms(200); 
06944:  BCF    F8B.1
06946:  BCF    F94.1
06948:  MOVLW  C8
0694A:  MOVLB  6
0694C:  MOVWF  x5B
0694E:  MOVLB  0
06950:  CALL   16D4
....................                } 
06954:  MOVLB  4
06956:  INCF   x19,F
06958:  BRA    692E
0695A:  MOVLB  5
....................             } 
....................          } 
....................       } 
.................... //_--------------------------------------------------------------------------------------------------------------------------------------------------------        
....................  
.................... //_-------------------------------------------------------------------------------------------------------------------------------------------------------- 
....................       if(Menu==3){ //Menu Principal. 
0695C:  MOVLB  4
0695E:  MOVF   xE1,W
06960:  SUBLW  03
06962:  BTFSS  FD8.2
06964:  BRA    6C4C
....................              
....................       strcpy(Menus.Letra,"Menu"); 
06966:  MOVLW  06
06968:  MOVWF  FEA
0696A:  MOVLW  3C
0696C:  MOVWF  FE9
0696E:  MOVFF  FF2,652
06972:  BCF    FF2.7
06974:  MOVLW  00
06976:  MOVLB  0
06978:  CALL   0F80
0697C:  TBLRD*-
0697E:  TBLRD*+
06980:  MOVF   FF5,W
06982:  MOVWF  FEE
06984:  IORLW  00
06986:  BNZ   697E
06988:  MOVLB  6
0698A:  BTFSC  x52.7
0698C:  BSF    FF2.7
....................       displayMenu(Menus.Letra,40,0,1,2); 
0698E:  MOVLW  06
06990:  MOVWF  x5B
06992:  MOVLW  3C
06994:  MOVWF  x5A
06996:  MOVLW  28
06998:  MOVWF  x5C
0699A:  CLRF   x5D
0699C:  MOVLW  01
0699E:  MOVWF  x5E
069A0:  MOVLW  02
069A2:  MOVWF  x5F
069A4:  MOVLB  0
069A6:  CALL   3E02
....................        
....................       if(Opcion==1){ 
069AA:  MOVLB  4
069AC:  DECFSZ xE3,W
069AE:  BRA    69F6
....................          strcpy(Menus.Letra,"Ajustes"); 
069B0:  MOVLW  06
069B2:  MOVWF  FEA
069B4:  MOVLW  3C
069B6:  MOVWF  FE9
069B8:  MOVFF  FF2,652
069BC:  BCF    FF2.7
069BE:  MOVLW  00
069C0:  MOVLB  0
069C2:  CALL   0FA4
069C6:  TBLRD*-
069C8:  TBLRD*+
069CA:  MOVF   FF5,W
069CC:  MOVWF  FEE
069CE:  IORLW  00
069D0:  BNZ   69C8
069D2:  MOVLB  6
069D4:  BTFSC  x52.7
069D6:  BSF    FF2.7
....................          displayMenu(Menus.Letra,0,19,1,1); 
069D8:  MOVLW  06
069DA:  MOVWF  x5B
069DC:  MOVLW  3C
069DE:  MOVWF  x5A
069E0:  CLRF   x5C
069E2:  MOVLW  13
069E4:  MOVWF  x5D
069E6:  MOVLW  01
069E8:  MOVWF  x5E
069EA:  MOVWF  x5F
069EC:  MOVLB  0
069EE:  CALL   3E02
....................       }else{ 
069F2:  BRA    6A38
069F4:  MOVLB  4
....................          strcpy(Menus.Letra,"Ajustes"); 
069F6:  MOVLW  06
069F8:  MOVWF  FEA
069FA:  MOVLW  3C
069FC:  MOVWF  FE9
069FE:  MOVFF  FF2,652
06A02:  BCF    FF2.7
06A04:  MOVLW  00
06A06:  MOVLB  0
06A08:  CALL   0FA4
06A0C:  TBLRD*-
06A0E:  TBLRD*+
06A10:  MOVF   FF5,W
06A12:  MOVWF  FEE
06A14:  IORLW  00
06A16:  BNZ   6A0E
06A18:  MOVLB  6
06A1A:  BTFSC  x52.7
06A1C:  BSF    FF2.7
....................          displayMenu(Menus.Letra,0,19,0,1); 
06A1E:  MOVLW  06
06A20:  MOVWF  x5B
06A22:  MOVLW  3C
06A24:  MOVWF  x5A
06A26:  CLRF   x5C
06A28:  MOVLW  13
06A2A:  MOVWF  x5D
06A2C:  CLRF   x5E
06A2E:  MOVLW  01
06A30:  MOVWF  x5F
06A32:  MOVLB  0
06A34:  CALL   3E02
....................       } 
....................           
....................       if(Opcion==2){ 
06A38:  MOVLB  4
06A3A:  MOVF   xE3,W
06A3C:  SUBLW  02
06A3E:  BNZ   6A86
....................          strcpy(Menus.Letra,"Cambio de Clave"); 
06A40:  MOVLW  06
06A42:  MOVWF  FEA
06A44:  MOVLW  3C
06A46:  MOVWF  FE9
06A48:  MOVFF  FF2,652
06A4C:  BCF    FF2.7
06A4E:  MOVLW  00
06A50:  MOVLB  0
06A52:  CALL   0FCA
06A56:  TBLRD*-
06A58:  TBLRD*+
06A5A:  MOVF   FF5,W
06A5C:  MOVWF  FEE
06A5E:  IORLW  00
06A60:  BNZ   6A58
06A62:  MOVLB  6
06A64:  BTFSC  x52.7
06A66:  BSF    FF2.7
....................          displayMenu(Menus.Letra,0,35,1,1); 
06A68:  MOVLW  06
06A6A:  MOVWF  x5B
06A6C:  MOVLW  3C
06A6E:  MOVWF  x5A
06A70:  CLRF   x5C
06A72:  MOVLW  23
06A74:  MOVWF  x5D
06A76:  MOVLW  01
06A78:  MOVWF  x5E
06A7A:  MOVWF  x5F
06A7C:  MOVLB  0
06A7E:  CALL   3E02
....................       }else{ 
06A82:  BRA    6AC8
06A84:  MOVLB  4
....................          strcpy(Menus.Letra,"Cambio de Clave"); 
06A86:  MOVLW  06
06A88:  MOVWF  FEA
06A8A:  MOVLW  3C
06A8C:  MOVWF  FE9
06A8E:  MOVFF  FF2,652
06A92:  BCF    FF2.7
06A94:  MOVLW  00
06A96:  MOVLB  0
06A98:  CALL   0FCA
06A9C:  TBLRD*-
06A9E:  TBLRD*+
06AA0:  MOVF   FF5,W
06AA2:  MOVWF  FEE
06AA4:  IORLW  00
06AA6:  BNZ   6A9E
06AA8:  MOVLB  6
06AAA:  BTFSC  x52.7
06AAC:  BSF    FF2.7
....................          displayMenu(Menus.Letra,0,35,0,1); 
06AAE:  MOVLW  06
06AB0:  MOVWF  x5B
06AB2:  MOVLW  3C
06AB4:  MOVWF  x5A
06AB6:  CLRF   x5C
06AB8:  MOVLW  23
06ABA:  MOVWF  x5D
06ABC:  CLRF   x5E
06ABE:  MOVLW  01
06AC0:  MOVWF  x5F
06AC2:  MOVLB  0
06AC4:  CALL   3E02
....................       } 
....................           
....................       if(Opcion==3){ 
06AC8:  MOVLB  4
06ACA:  MOVF   xE3,W
06ACC:  SUBLW  03
06ACE:  BNZ   6B16
....................          strcpy(Menus.Letra,"Modo"); 
06AD0:  MOVLW  06
06AD2:  MOVWF  FEA
06AD4:  MOVLW  3C
06AD6:  MOVWF  FE9
06AD8:  MOVFF  FF2,652
06ADC:  BCF    FF2.7
06ADE:  MOVLW  00
06AE0:  MOVLB  0
06AE2:  CALL   0FF8
06AE6:  TBLRD*-
06AE8:  TBLRD*+
06AEA:  MOVF   FF5,W
06AEC:  MOVWF  FEE
06AEE:  IORLW  00
06AF0:  BNZ   6AE8
06AF2:  MOVLB  6
06AF4:  BTFSC  x52.7
06AF6:  BSF    FF2.7
....................          displayMenu(Menus.Letra,0,51,1,1); 
06AF8:  MOVLW  06
06AFA:  MOVWF  x5B
06AFC:  MOVLW  3C
06AFE:  MOVWF  x5A
06B00:  CLRF   x5C
06B02:  MOVLW  33
06B04:  MOVWF  x5D
06B06:  MOVLW  01
06B08:  MOVWF  x5E
06B0A:  MOVWF  x5F
06B0C:  MOVLB  0
06B0E:  CALL   3E02
....................       }else{ 
06B12:  BRA    6B58
06B14:  MOVLB  4
....................          strcpy(Menus.Letra,"Modo"); 
06B16:  MOVLW  06
06B18:  MOVWF  FEA
06B1A:  MOVLW  3C
06B1C:  MOVWF  FE9
06B1E:  MOVFF  FF2,652
06B22:  BCF    FF2.7
06B24:  MOVLW  00
06B26:  MOVLB  0
06B28:  CALL   0FF8
06B2C:  TBLRD*-
06B2E:  TBLRD*+
06B30:  MOVF   FF5,W
06B32:  MOVWF  FEE
06B34:  IORLW  00
06B36:  BNZ   6B2E
06B38:  MOVLB  6
06B3A:  BTFSC  x52.7
06B3C:  BSF    FF2.7
....................          displayMenu(Menus.Letra,0,51,0,1); 
06B3E:  MOVLW  06
06B40:  MOVWF  x5B
06B42:  MOVLW  3C
06B44:  MOVWF  x5A
06B46:  CLRF   x5C
06B48:  MOVLW  33
06B4A:  MOVWF  x5D
06B4C:  CLRF   x5E
06B4E:  MOVLW  01
06B50:  MOVWF  x5F
06B52:  MOVLB  0
06B54:  CALL   3E02
....................       } 
....................       glcd_update();  
06B58:  CALL   2F3E
....................        
....................       if(w==0){ 
06B5C:  MOVLB  4
06B5E:  BTFSC  x1B.5
06B60:  BRA    6B7C
....................          delay_ms(500);w=1; 
06B62:  MOVLW  02
06B64:  MOVLB  6
06B66:  MOVWF  x52
06B68:  MOVLW  FA
06B6A:  MOVWF  x5B
06B6C:  MOVLB  0
06B6E:  CALL   16D4
06B72:  MOVLB  6
06B74:  DECFSZ x52,F
06B76:  BRA    6B68
06B78:  MOVLB  4
06B7A:  BSF    x1B.5
....................       } 
....................           
....................       if(UP){//Si oprime hacia arriba         
06B7C:  BSF    F92.4
06B7E:  BTFSC  F80.4
06B80:  BRA    6B9A
....................          if(Flanco == 0){ 
06B82:  BTFSC  x1A.0
06B84:  BRA    6B98
....................             Flanco = 1;delay_ms(30);Opcion--; 
06B86:  BSF    x1A.0
06B88:  MOVLW  1E
06B8A:  MOVLB  6
06B8C:  MOVWF  x5B
06B8E:  MOVLB  0
06B90:  CALL   16D4
06B94:  MOVLB  4
06B96:  DECF   xE3,F
....................          } 
....................       }else{ 
06B98:  BRA    6B9C
....................          Flanco = 0; 
06B9A:  BCF    x1A.0
....................       } 
....................              
....................       if(DOWN){//Si oprime hacia abajo 
06B9C:  BSF    F92.5
06B9E:  BTFSC  F80.5
06BA0:  BRA    6BBA
....................          if(Flanco2 == 0){ 
06BA2:  BTFSC  x1A.2
06BA4:  BRA    6BB8
....................             Flanco2 = 1;delay_ms(30);Opcion++; 
06BA6:  BSF    x1A.2
06BA8:  MOVLW  1E
06BAA:  MOVLB  6
06BAC:  MOVWF  x5B
06BAE:  MOVLB  0
06BB0:  CALL   16D4
06BB4:  MOVLB  4
06BB6:  INCF   xE3,F
....................          } 
....................       }else{ 
06BB8:  BRA    6BBC
....................          Flanco2 = 0; 
06BBA:  BCF    x1A.2
....................       } 
....................              
....................       if(RIGHT){//Si oprime SET 
06BBC:  BSF    F96.0
06BBE:  BTFSC  F84.0
06BC0:  BRA    6C0A
....................          if(Flanco1 == 0){ 
06BC2:  BTFSC  x1A.1
06BC4:  BRA    6C08
....................             Flanco1 = 1;delay_ms(500);Menu=Opcion+3;Opcion=1;glcd_fillscreen(OFF);unidad=1; 
06BC6:  BSF    x1A.1
06BC8:  MOVLW  02
06BCA:  MOVLB  6
06BCC:  MOVWF  x52
06BCE:  MOVLW  FA
06BD0:  MOVWF  x5B
06BD2:  MOVLB  0
06BD4:  CALL   16D4
06BD8:  MOVLB  6
06BDA:  DECFSZ x52,F
06BDC:  BRA    6BCE
06BDE:  MOVLW  03
06BE0:  MOVLB  4
06BE2:  ADDWF  xE3,W
06BE4:  MOVWF  xE1
06BE6:  MOVLW  01
06BE8:  MOVWF  xE3
06BEA:  MOVLB  6
06BEC:  CLRF   x5A
06BEE:  MOVLB  0
06BF0:  CALL   2EE4
06BF4:  MOVLW  01
06BF6:  MOVLB  4
06BF8:  MOVWF  xE2
....................             Contrasena[0]=0;Contrasena[1]=0;Contrasena[2]=0;Contrasena[3]=0;n=0; 
06BFA:  MOVLB  5
06BFC:  CLRF   x28
06BFE:  CLRF   x29
06C00:  CLRF   x2A
06C02:  CLRF   x2B
06C04:  MOVLB  4
06C06:  BCF    x1C.7
....................          } 
....................       }else{ 
06C08:  BRA    6C0C
....................          Flanco1 = 0; 
06C0A:  BCF    x1A.1
....................       } 
....................              
....................       if(LEFT){//Si oprime boton de Toma. 
06C0C:  BSF    F96.1
06C0E:  BTFSC  F84.1
06C10:  BRA    6C3A
....................          delay_ms(700);Menu=2;glcd_fillscreen(OFF); 
06C12:  MOVLW  04
06C14:  MOVLB  6
06C16:  MOVWF  x52
06C18:  MOVLW  AF
06C1A:  MOVWF  x5B
06C1C:  MOVLB  0
06C1E:  CALL   16D4
06C22:  MOVLB  6
06C24:  DECFSZ x52,F
06C26:  BRA    6C18
06C28:  MOVLW  02
06C2A:  MOVLB  4
06C2C:  MOVWF  xE1
06C2E:  MOVLB  6
06C30:  CLRF   x5A
06C32:  MOVLB  0
06C34:  CALL   2EE4
06C38:  MOVLB  4
....................       } 
....................              
....................       if(Opcion>3) 
06C3A:  MOVF   xE3,W
06C3C:  SUBLW  03
06C3E:  BC    6C44
....................          Opcion=1; 
06C40:  MOVLW  01
06C42:  MOVWF  xE3
....................       if(Opcion<1) 
06C44:  MOVF   xE3,F
06C46:  BNZ   6C4C
....................          Opcion=3; 
06C48:  MOVLW  03
06C4A:  MOVWF  xE3
....................     } 
.................... //_--------------------------------------------------------------------------------------------------------------------------------------------------------        
....................  
.................... //_-------------------------------------------------------------------------------------------------------------------------------------------------------- 
....................       if(Menu==4){ //Menu de Ajustes. 
06C4C:  MOVF   xE1,W
06C4E:  SUBLW  04
06C50:  BTFSS  FD8.2
06C52:  BRA    6F02
....................        
....................       strcpy(Menus.Letra,"Ajustes"); 
06C54:  MOVLW  06
06C56:  MOVWF  FEA
06C58:  MOVLW  3C
06C5A:  MOVWF  FE9
06C5C:  MOVFF  FF2,652
06C60:  BCF    FF2.7
06C62:  MOVLW  00
06C64:  MOVLB  0
06C66:  CALL   0FA4
06C6A:  TBLRD*-
06C6C:  TBLRD*+
06C6E:  MOVF   FF5,W
06C70:  MOVWF  FEE
06C72:  IORLW  00
06C74:  BNZ   6C6C
06C76:  MOVLB  6
06C78:  BTFSC  x52.7
06C7A:  BSF    FF2.7
....................       displayMenu(Menus.Letra,0,0,1,2); 
06C7C:  MOVLW  06
06C7E:  MOVWF  x5B
06C80:  MOVLW  3C
06C82:  MOVWF  x5A
06C84:  CLRF   x5C
06C86:  CLRF   x5D
06C88:  MOVLW  01
06C8A:  MOVWF  x5E
06C8C:  MOVLW  02
06C8E:  MOVWF  x5F
06C90:  MOVLB  0
06C92:  CALL   3E02
....................        
....................       if(Opcion==1)    
06C96:  MOVLB  4
06C98:  DECFSZ xE3,W
06C9A:  BRA    6CE2
....................          {strcpy(Menus.Letra,"Tiempo Purga"); 
06C9C:  MOVLW  06
06C9E:  MOVWF  FEA
06CA0:  MOVLW  3C
06CA2:  MOVWF  FE9
06CA4:  MOVFF  FF2,652
06CA8:  BCF    FF2.7
06CAA:  MOVLW  00
06CAC:  MOVLB  0
06CAE:  CALL   101C
06CB2:  TBLRD*-
06CB4:  TBLRD*+
06CB6:  MOVF   FF5,W
06CB8:  MOVWF  FEE
06CBA:  IORLW  00
06CBC:  BNZ   6CB4
06CBE:  MOVLB  6
06CC0:  BTFSC  x52.7
06CC2:  BSF    FF2.7
....................          displayMenu(Menus.Letra,0,20,1,1);} 
06CC4:  MOVLW  06
06CC6:  MOVWF  x5B
06CC8:  MOVLW  3C
06CCA:  MOVWF  x5A
06CCC:  CLRF   x5C
06CCE:  MOVLW  14
06CD0:  MOVWF  x5D
06CD2:  MOVLW  01
06CD4:  MOVWF  x5E
06CD6:  MOVWF  x5F
06CD8:  MOVLB  0
06CDA:  CALL   3E02
....................       else 
06CDE:  BRA    6D24
06CE0:  MOVLB  4
....................          {strcpy(Menus.Letra,"Tiempo Purga"); 
06CE2:  MOVLW  06
06CE4:  MOVWF  FEA
06CE6:  MOVLW  3C
06CE8:  MOVWF  FE9
06CEA:  MOVFF  FF2,652
06CEE:  BCF    FF2.7
06CF0:  MOVLW  00
06CF2:  MOVLB  0
06CF4:  CALL   101C
06CF8:  TBLRD*-
06CFA:  TBLRD*+
06CFC:  MOVF   FF5,W
06CFE:  MOVWF  FEE
06D00:  IORLW  00
06D02:  BNZ   6CFA
06D04:  MOVLB  6
06D06:  BTFSC  x52.7
06D08:  BSF    FF2.7
....................          displayMenu(Menus.Letra,0,20,0,1);} 
06D0A:  MOVLW  06
06D0C:  MOVWF  x5B
06D0E:  MOVLW  3C
06D10:  MOVWF  x5A
06D12:  CLRF   x5C
06D14:  MOVLW  14
06D16:  MOVWF  x5D
06D18:  CLRF   x5E
06D1A:  MOVLW  01
06D1C:  MOVWF  x5F
06D1E:  MOVLB  0
06D20:  CALL   3E02
....................           
....................       if(Opcion==2)    
06D24:  MOVLB  4
06D26:  MOVF   xE3,W
06D28:  SUBLW  02
06D2A:  BNZ   6D72
....................          {strcpy(Menus.Letra,"Tiempo Post-Purga"); 
06D2C:  MOVLW  06
06D2E:  MOVWF  FEA
06D30:  MOVLW  3C
06D32:  MOVWF  FE9
06D34:  MOVFF  FF2,652
06D38:  BCF    FF2.7
06D3A:  MOVLW  00
06D3C:  MOVLB  0
06D3E:  CALL   1048
06D42:  TBLRD*-
06D44:  TBLRD*+
06D46:  MOVF   FF5,W
06D48:  MOVWF  FEE
06D4A:  IORLW  00
06D4C:  BNZ   6D44
06D4E:  MOVLB  6
06D50:  BTFSC  x52.7
06D52:  BSF    FF2.7
....................          displayMenu(Menus.Letra,0,35,1,1);} 
06D54:  MOVLW  06
06D56:  MOVWF  x5B
06D58:  MOVLW  3C
06D5A:  MOVWF  x5A
06D5C:  CLRF   x5C
06D5E:  MOVLW  23
06D60:  MOVWF  x5D
06D62:  MOVLW  01
06D64:  MOVWF  x5E
06D66:  MOVWF  x5F
06D68:  MOVLB  0
06D6A:  CALL   3E02
....................       else 
06D6E:  BRA    6DB4
06D70:  MOVLB  4
....................          {strcpy(Menus.Letra,"Tiempo Post-Purga"); 
06D72:  MOVLW  06
06D74:  MOVWF  FEA
06D76:  MOVLW  3C
06D78:  MOVWF  FE9
06D7A:  MOVFF  FF2,652
06D7E:  BCF    FF2.7
06D80:  MOVLW  00
06D82:  MOVLB  0
06D84:  CALL   1048
06D88:  TBLRD*-
06D8A:  TBLRD*+
06D8C:  MOVF   FF5,W
06D8E:  MOVWF  FEE
06D90:  IORLW  00
06D92:  BNZ   6D8A
06D94:  MOVLB  6
06D96:  BTFSC  x52.7
06D98:  BSF    FF2.7
....................          displayMenu(Menus.Letra,0,35,0,1);}    
06D9A:  MOVLW  06
06D9C:  MOVWF  x5B
06D9E:  MOVLW  3C
06DA0:  MOVWF  x5A
06DA2:  CLRF   x5C
06DA4:  MOVLW  23
06DA6:  MOVWF  x5D
06DA8:  CLRF   x5E
06DAA:  MOVLW  01
06DAC:  MOVWF  x5F
06DAE:  MOVLB  0
06DB0:  CALL   3E02
....................           
....................       if(Opcion==3)    
06DB4:  MOVLB  4
06DB6:  MOVF   xE3,W
06DB8:  SUBLW  03
06DBA:  BNZ   6E02
....................          {strcpy(Menus.Letra,"Tempo UV"); 
06DBC:  MOVLW  06
06DBE:  MOVWF  FEA
06DC0:  MOVLW  3C
06DC2:  MOVWF  FE9
06DC4:  MOVFF  FF2,652
06DC8:  BCF    FF2.7
06DCA:  MOVLW  00
06DCC:  MOVLB  0
06DCE:  CALL   1078
06DD2:  TBLRD*-
06DD4:  TBLRD*+
06DD6:  MOVF   FF5,W
06DD8:  MOVWF  FEE
06DDA:  IORLW  00
06DDC:  BNZ   6DD4
06DDE:  MOVLB  6
06DE0:  BTFSC  x52.7
06DE2:  BSF    FF2.7
....................          displayMenu(Menus.Letra,0,50,1,1);} 
06DE4:  MOVLW  06
06DE6:  MOVWF  x5B
06DE8:  MOVLW  3C
06DEA:  MOVWF  x5A
06DEC:  CLRF   x5C
06DEE:  MOVLW  32
06DF0:  MOVWF  x5D
06DF2:  MOVLW  01
06DF4:  MOVWF  x5E
06DF6:  MOVWF  x5F
06DF8:  MOVLB  0
06DFA:  CALL   3E02
....................       else 
06DFE:  BRA    6E44
06E00:  MOVLB  4
....................          {strcpy(Menus.Letra,"Tempo UV"); 
06E02:  MOVLW  06
06E04:  MOVWF  FEA
06E06:  MOVLW  3C
06E08:  MOVWF  FE9
06E0A:  MOVFF  FF2,652
06E0E:  BCF    FF2.7
06E10:  MOVLW  00
06E12:  MOVLB  0
06E14:  CALL   1078
06E18:  TBLRD*-
06E1A:  TBLRD*+
06E1C:  MOVF   FF5,W
06E1E:  MOVWF  FEE
06E20:  IORLW  00
06E22:  BNZ   6E1A
06E24:  MOVLB  6
06E26:  BTFSC  x52.7
06E28:  BSF    FF2.7
....................          displayMenu(Menus.Letra,0,50,0,1);}               
06E2A:  MOVLW  06
06E2C:  MOVWF  x5B
06E2E:  MOVLW  3C
06E30:  MOVWF  x5A
06E32:  CLRF   x5C
06E34:  MOVLW  32
06E36:  MOVWF  x5D
06E38:  CLRF   x5E
06E3A:  MOVLW  01
06E3C:  MOVWF  x5F
06E3E:  MOVLB  0
06E40:  CALL   3E02
....................          
....................       if(UP)//Si oprime hacia arriba 
06E44:  BSF    F92.4
06E46:  BTFSC  F80.4
06E48:  BRA    6E64
....................       {  if(Flanco == 0)  
06E4A:  MOVLB  4
06E4C:  BTFSC  x1A.0
06E4E:  BRA    6E62
....................             {Flanco = 1;delay_ms(30);Opcion--; 
06E50:  BSF    x1A.0
06E52:  MOVLW  1E
06E54:  MOVLB  6
06E56:  MOVWF  x5B
06E58:  MOVLB  0
06E5A:  CALL   16D4
06E5E:  MOVLB  4
06E60:  DECF   xE3,F
....................             } 
....................       } 
....................          else 
06E62:  BRA    6E68
....................             {Flanco = 0;} 
06E64:  MOVLB  4
06E66:  BCF    x1A.0
....................              
....................       if(DOWN)//Si oprime hacia abajo 
06E68:  BSF    F92.5
06E6A:  BTFSC  F80.5
06E6C:  BRA    6E86
....................       {  if(Flanco2 == 0)  
06E6E:  BTFSC  x1A.2
06E70:  BRA    6E84
....................             {Flanco2 = 1;delay_ms(30);Opcion++; 
06E72:  BSF    x1A.2
06E74:  MOVLW  1E
06E76:  MOVLB  6
06E78:  MOVWF  x5B
06E7A:  MOVLB  0
06E7C:  CALL   16D4
06E80:  MOVLB  4
06E82:  INCF   xE3,F
....................             }      
....................       } 
....................          else 
06E84:  BRA    6E88
....................             {Flanco2 = 0;}   
06E86:  BCF    x1A.2
....................              
....................       if(RIGHT)//Si oprime SET 
06E88:  BSF    F96.0
06E8A:  BTFSC  F84.0
06E8C:  BRA    6EC0
....................       {  if(Flanco1 == 0)  
06E8E:  BTFSC  x1A.1
06E90:  BRA    6EBE
....................             {Flanco1 = 1;delay_ms(500);Menu=Opcion+10;glcd_fillScreen(OFF); 
06E92:  BSF    x1A.1
06E94:  MOVLW  02
06E96:  MOVLB  6
06E98:  MOVWF  x52
06E9A:  MOVLW  FA
06E9C:  MOVWF  x5B
06E9E:  MOVLB  0
06EA0:  CALL   16D4
06EA4:  MOVLB  6
06EA6:  DECFSZ x52,F
06EA8:  BRA    6E9A
06EAA:  MOVLW  0A
06EAC:  MOVLB  4
06EAE:  ADDWF  xE3,W
06EB0:  MOVWF  xE1
06EB2:  MOVLB  6
06EB4:  CLRF   x5A
06EB6:  MOVLB  0
06EB8:  CALL   2EE4
06EBC:  MOVLB  4
....................             } 
....................       } 
....................          else 
06EBE:  BRA    6EC2
....................             {Flanco1 = 0;}   
06EC0:  BCF    x1A.1
....................              
....................       if(LEFT)//Si oprime boton de Toma. 
06EC2:  BSF    F96.1
06EC4:  BTFSC  F84.1
06EC6:  BRA    6EF0
....................         {delay_ms(700);Menu=3;glcd_fillscreen(OFF);} 
06EC8:  MOVLW  04
06ECA:  MOVLB  6
06ECC:  MOVWF  x52
06ECE:  MOVLW  AF
06ED0:  MOVWF  x5B
06ED2:  MOVLB  0
06ED4:  CALL   16D4
06ED8:  MOVLB  6
06EDA:  DECFSZ x52,F
06EDC:  BRA    6ECE
06EDE:  MOVLW  03
06EE0:  MOVLB  4
06EE2:  MOVWF  xE1
06EE4:  MOVLB  6
06EE6:  CLRF   x5A
06EE8:  MOVLB  0
06EEA:  CALL   2EE4
06EEE:  MOVLB  4
....................        
....................       if(Opcion>3) 
06EF0:  MOVF   xE3,W
06EF2:  SUBLW  03
06EF4:  BC    6EFA
....................       {Opcion=1;} 
06EF6:  MOVLW  01
06EF8:  MOVWF  xE3
....................       if(Opcion<1) 
06EFA:  MOVF   xE3,F
06EFC:  BNZ   6F02
....................       {Opcion=3;} 
06EFE:  MOVLW  03
06F00:  MOVWF  xE3
....................      
....................     } 
.................... //_--------------------------------------------------------------------------------------------------------------------------------------------------------        
.................... //_-------------------------------------------------------------------------------------------------------------------------------------------------------- 
....................       if(Menu==6){ //Menu de Modo. 
06F02:  MOVF   xE1,W
06F04:  SUBLW  06
06F06:  BTFSS  FD8.2
06F08:  BRA    71C0
....................        
....................       strcpy(Menus.Letra,"Modo"); 
06F0A:  MOVLW  06
06F0C:  MOVWF  FEA
06F0E:  MOVLW  3C
06F10:  MOVWF  FE9
06F12:  MOVFF  FF2,652
06F16:  BCF    FF2.7
06F18:  MOVLW  00
06F1A:  MOVLB  0
06F1C:  CALL   0FF8
06F20:  TBLRD*-
06F22:  TBLRD*+
06F24:  MOVF   FF5,W
06F26:  MOVWF  FEE
06F28:  IORLW  00
06F2A:  BNZ   6F22
06F2C:  MOVLB  6
06F2E:  BTFSC  x52.7
06F30:  BSF    FF2.7
....................       displayMenu(Menus.Letra,40,0,1,2); 
06F32:  MOVLW  06
06F34:  MOVWF  x5B
06F36:  MOVLW  3C
06F38:  MOVWF  x5A
06F3A:  MOVLW  28
06F3C:  MOVWF  x5C
06F3E:  CLRF   x5D
06F40:  MOVLW  01
06F42:  MOVWF  x5E
06F44:  MOVLW  02
06F46:  MOVWF  x5F
06F48:  MOVLB  0
06F4A:  CALL   3E02
....................           
....................       if(Opcion==1)    
06F4E:  MOVLB  4
06F50:  DECFSZ xE3,W
06F52:  BRA    6F9A
....................          {strcpy(Menus.Letra,"Mantenimiento"); 
06F54:  MOVLW  06
06F56:  MOVWF  FEA
06F58:  MOVLW  3C
06F5A:  MOVWF  FE9
06F5C:  MOVFF  FF2,652
06F60:  BCF    FF2.7
06F62:  MOVLW  00
06F64:  MOVLB  0
06F66:  CALL   10A0
06F6A:  TBLRD*-
06F6C:  TBLRD*+
06F6E:  MOVF   FF5,W
06F70:  MOVWF  FEE
06F72:  IORLW  00
06F74:  BNZ   6F6C
06F76:  MOVLB  6
06F78:  BTFSC  x52.7
06F7A:  BSF    FF2.7
....................          displayMenu(Menus.Letra,0,19,1,1);} 
06F7C:  MOVLW  06
06F7E:  MOVWF  x5B
06F80:  MOVLW  3C
06F82:  MOVWF  x5A
06F84:  CLRF   x5C
06F86:  MOVLW  13
06F88:  MOVWF  x5D
06F8A:  MOVLW  01
06F8C:  MOVWF  x5E
06F8E:  MOVWF  x5F
06F90:  MOVLB  0
06F92:  CALL   3E02
....................       else 
06F96:  BRA    6FDC
06F98:  MOVLB  4
....................          {strcpy(Menus.Letra,"Mantenimiento"); 
06F9A:  MOVLW  06
06F9C:  MOVWF  FEA
06F9E:  MOVLW  3C
06FA0:  MOVWF  FE9
06FA2:  MOVFF  FF2,652
06FA6:  BCF    FF2.7
06FA8:  MOVLW  00
06FAA:  MOVLB  0
06FAC:  CALL   10A0
06FB0:  TBLRD*-
06FB2:  TBLRD*+
06FB4:  MOVF   FF5,W
06FB6:  MOVWF  FEE
06FB8:  IORLW  00
06FBA:  BNZ   6FB2
06FBC:  MOVLB  6
06FBE:  BTFSC  x52.7
06FC0:  BSF    FF2.7
....................          displayMenu(Menus.Letra,0,19,0,1);}    
06FC2:  MOVLW  06
06FC4:  MOVWF  x5B
06FC6:  MOVLW  3C
06FC8:  MOVWF  x5A
06FCA:  CLRF   x5C
06FCC:  MOVLW  13
06FCE:  MOVWF  x5D
06FD0:  CLRF   x5E
06FD2:  MOVLW  01
06FD4:  MOVWF  x5F
06FD6:  MOVLB  0
06FD8:  CALL   3E02
....................           
....................       if(Opcion==2)    
06FDC:  MOVLB  4
06FDE:  MOVF   xE3,W
06FE0:  SUBLW  02
06FE2:  BNZ   702A
....................          {strcpy(Menus.Letra,"Servicio"); 
06FE4:  MOVLW  06
06FE6:  MOVWF  FEA
06FE8:  MOVLW  3C
06FEA:  MOVWF  FE9
06FEC:  MOVFF  FF2,652
06FF0:  BCF    FF2.7
06FF2:  MOVLW  00
06FF4:  MOVLB  0
06FF6:  CALL   10CC
06FFA:  TBLRD*-
06FFC:  TBLRD*+
06FFE:  MOVF   FF5,W
07000:  MOVWF  FEE
07002:  IORLW  00
07004:  BNZ   6FFC
07006:  MOVLB  6
07008:  BTFSC  x52.7
0700A:  BSF    FF2.7
....................          displayMenu(Menus.Letra,0,35,1,1);} 
0700C:  MOVLW  06
0700E:  MOVWF  x5B
07010:  MOVLW  3C
07012:  MOVWF  x5A
07014:  CLRF   x5C
07016:  MOVLW  23
07018:  MOVWF  x5D
0701A:  MOVLW  01
0701C:  MOVWF  x5E
0701E:  MOVWF  x5F
07020:  MOVLB  0
07022:  CALL   3E02
....................       else 
07026:  BRA    706C
07028:  MOVLB  4
....................          {strcpy(Menus.Letra,"Servicio"); 
0702A:  MOVLW  06
0702C:  MOVWF  FEA
0702E:  MOVLW  3C
07030:  MOVWF  FE9
07032:  MOVFF  FF2,652
07036:  BCF    FF2.7
07038:  MOVLW  00
0703A:  MOVLB  0
0703C:  CALL   10CC
07040:  TBLRD*-
07042:  TBLRD*+
07044:  MOVF   FF5,W
07046:  MOVWF  FEE
07048:  IORLW  00
0704A:  BNZ   7042
0704C:  MOVLB  6
0704E:  BTFSC  x52.7
07050:  BSF    FF2.7
....................          displayMenu(Menus.Letra,0,35,0,1);} 
07052:  MOVLW  06
07054:  MOVWF  x5B
07056:  MOVLW  3C
07058:  MOVWF  x5A
0705A:  CLRF   x5C
0705C:  MOVLW  23
0705E:  MOVWF  x5D
07060:  CLRF   x5E
07062:  MOVLW  01
07064:  MOVWF  x5F
07066:  MOVLB  0
07068:  CALL   3E02
....................           
....................       if(Opcion==3)    
0706C:  MOVLB  4
0706E:  MOVF   xE3,W
07070:  SUBLW  03
07072:  BNZ   70BA
....................          {strcpy(Menus.Letra,"Apagado"); 
07074:  MOVLW  06
07076:  MOVWF  FEA
07078:  MOVLW  3C
0707A:  MOVWF  FE9
0707C:  MOVFF  FF2,652
07080:  BCF    FF2.7
07082:  MOVLW  00
07084:  MOVLB  0
07086:  CALL   10F4
0708A:  TBLRD*-
0708C:  TBLRD*+
0708E:  MOVF   FF5,W
07090:  MOVWF  FEE
07092:  IORLW  00
07094:  BNZ   708C
07096:  MOVLB  6
07098:  BTFSC  x52.7
0709A:  BSF    FF2.7
....................          displayMenu(Menus.Letra,0,51,1,1);} 
0709C:  MOVLW  06
0709E:  MOVWF  x5B
070A0:  MOVLW  3C
070A2:  MOVWF  x5A
070A4:  CLRF   x5C
070A6:  MOVLW  33
070A8:  MOVWF  x5D
070AA:  MOVLW  01
070AC:  MOVWF  x5E
070AE:  MOVWF  x5F
070B0:  MOVLB  0
070B2:  CALL   3E02
....................       else 
070B6:  BRA    70FC
070B8:  MOVLB  4
....................          {strcpy(Menus.Letra,"Apagado"); 
070BA:  MOVLW  06
070BC:  MOVWF  FEA
070BE:  MOVLW  3C
070C0:  MOVWF  FE9
070C2:  MOVFF  FF2,652
070C6:  BCF    FF2.7
070C8:  MOVLW  00
070CA:  MOVLB  0
070CC:  CALL   10F4
070D0:  TBLRD*-
070D2:  TBLRD*+
070D4:  MOVF   FF5,W
070D6:  MOVWF  FEE
070D8:  IORLW  00
070DA:  BNZ   70D2
070DC:  MOVLB  6
070DE:  BTFSC  x52.7
070E0:  BSF    FF2.7
....................          displayMenu(Menus.Letra,0,51,0,1);}    
070E2:  MOVLW  06
070E4:  MOVWF  x5B
070E6:  MOVLW  3C
070E8:  MOVWF  x5A
070EA:  CLRF   x5C
070EC:  MOVLW  33
070EE:  MOVWF  x5D
070F0:  CLRF   x5E
070F2:  MOVLW  01
070F4:  MOVWF  x5F
070F6:  MOVLB  0
070F8:  CALL   3E02
....................           
....................          
....................       if(UP)//Si oprime hacia arriba 
070FC:  BSF    F92.4
070FE:  BTFSC  F80.4
07100:  BRA    711C
....................       {  if(Flanco == 0)  
07102:  MOVLB  4
07104:  BTFSC  x1A.0
07106:  BRA    711A
....................             {Flanco = 1;delay_ms(30);Opcion--; 
07108:  BSF    x1A.0
0710A:  MOVLW  1E
0710C:  MOVLB  6
0710E:  MOVWF  x5B
07110:  MOVLB  0
07112:  CALL   16D4
07116:  MOVLB  4
07118:  DECF   xE3,F
....................             } 
....................       } 
....................          else 
0711A:  BRA    7120
....................             {Flanco = 0;} 
0711C:  MOVLB  4
0711E:  BCF    x1A.0
....................              
....................       if(DOWN)//Si oprime hacia abajo 
07120:  BSF    F92.5
07122:  BTFSC  F80.5
07124:  BRA    713E
....................       {  if(Flanco2 == 0)  
07126:  BTFSC  x1A.2
07128:  BRA    713C
....................             {Flanco2 = 1;delay_ms(30);Opcion++; 
0712A:  BSF    x1A.2
0712C:  MOVLW  1E
0712E:  MOVLB  6
07130:  MOVWF  x5B
07132:  MOVLB  0
07134:  CALL   16D4
07138:  MOVLB  4
0713A:  INCF   xE3,F
....................             }      
....................       } 
....................          else 
0713C:  BRA    7140
....................             {Flanco2 = 0;}   
0713E:  BCF    x1A.2
....................              
....................       if(RIGHT)//Si oprime SET 
07140:  BSF    F96.0
07142:  BTFSC  F84.0
07144:  BRA    717E
....................       {  if(Flanco1 == 0)  
07146:  BTFSC  x1A.1
07148:  BRA    717C
....................             {Flanco1 = 1;delay_ms(500);Menu=Opcion+30;glcd_fillScreen(OFF);Opcion=1;unidad=1; 
0714A:  BSF    x1A.1
0714C:  MOVLW  02
0714E:  MOVLB  6
07150:  MOVWF  x52
07152:  MOVLW  FA
07154:  MOVWF  x5B
07156:  MOVLB  0
07158:  CALL   16D4
0715C:  MOVLB  6
0715E:  DECFSZ x52,F
07160:  BRA    7152
07162:  MOVLW  1E
07164:  MOVLB  4
07166:  ADDWF  xE3,W
07168:  MOVWF  xE1
0716A:  MOVLB  6
0716C:  CLRF   x5A
0716E:  MOVLB  0
07170:  CALL   2EE4
07174:  MOVLW  01
07176:  MOVLB  4
07178:  MOVWF  xE3
0717A:  MOVWF  xE2
....................             } 
....................       } 
....................          else 
0717C:  BRA    7180
....................             {Flanco1 = 0;}   
0717E:  BCF    x1A.1
....................              
....................       if(LEFT)//Si oprime boton de Toma. 
07180:  BSF    F96.1
07182:  BTFSC  F84.1
07184:  BRA    71AE
....................         {delay_ms(700);Menu=3;glcd_fillscreen(OFF);} 
07186:  MOVLW  04
07188:  MOVLB  6
0718A:  MOVWF  x52
0718C:  MOVLW  AF
0718E:  MOVWF  x5B
07190:  MOVLB  0
07192:  CALL   16D4
07196:  MOVLB  6
07198:  DECFSZ x52,F
0719A:  BRA    718C
0719C:  MOVLW  03
0719E:  MOVLB  4
071A0:  MOVWF  xE1
071A2:  MOVLB  6
071A4:  CLRF   x5A
071A6:  MOVLB  0
071A8:  CALL   2EE4
071AC:  MOVLB  4
....................       if(Opcion>3) 
071AE:  MOVF   xE3,W
071B0:  SUBLW  03
071B2:  BC    71B8
....................       {Opcion=1;} 
071B4:  MOVLW  01
071B6:  MOVWF  xE3
....................       if(Opcion<1) 
071B8:  MOVF   xE3,F
071BA:  BNZ   71C0
....................       {Opcion=3;} 
071BC:  MOVLW  03
071BE:  MOVWF  xE3
....................      
....................     } 
.................... //_--------------------------------------------------------------------------------------------------------------------------------------------------------        
....................  
.................... //_-------------------------------------------------------------------------------------------------------------------------------------------------------- 
....................       if(Menu==11){ //Menu de Purga. 
071C0:  MOVF   xE1,W
071C2:  SUBLW  0B
071C4:  BTFSS  FD8.2
071C6:  BRA    7588
....................        
....................       strcpy(Menus.Letra,"T. Purga"); 
071C8:  MOVLW  06
071CA:  MOVWF  FEA
071CC:  MOVLW  3C
071CE:  MOVWF  FE9
071D0:  MOVFF  FF2,652
071D4:  BCF    FF2.7
071D6:  MOVLW  00
071D8:  MOVLB  0
071DA:  CALL   111A
071DE:  TBLRD*-
071E0:  TBLRD*+
071E2:  MOVF   FF5,W
071E4:  MOVWF  FEE
071E6:  IORLW  00
071E8:  BNZ   71E0
071EA:  MOVLB  6
071EC:  BTFSC  x52.7
071EE:  BSF    FF2.7
....................       displayMenu(Menus.Letra,10,0,1,2); 
071F0:  MOVLW  06
071F2:  MOVWF  x5B
071F4:  MOVLW  3C
071F6:  MOVWF  x5A
071F8:  MOVLW  0A
071FA:  MOVWF  x5C
071FC:  CLRF   x5D
071FE:  MOVLW  01
07200:  MOVWF  x5E
07202:  MOVLW  02
07204:  MOVWF  x5F
07206:  MOVLB  0
07208:  CALL   3E02
....................        
....................       if(unidad==4) 
0720C:  MOVLB  4
0720E:  MOVF   xE2,W
07210:  SUBLW  04
07212:  BNZ   7232
....................       {displayTiempo(Tpurgap[3],20,40,1,2);} 
07214:  MOVFF  50F,652
07218:  MOVLW  14
0721A:  MOVLB  6
0721C:  MOVWF  x53
0721E:  MOVLW  28
07220:  MOVWF  x54
07222:  MOVLW  01
07224:  MOVWF  x55
07226:  MOVLW  02
07228:  MOVWF  x56
0722A:  MOVLB  0
0722C:  CALL   467A
....................       else 
07230:  BRA    724C
....................       {displayTiempo(Tpurgap[3],20,40,0,2);} 
07232:  MOVFF  50F,652
07236:  MOVLW  14
07238:  MOVLB  6
0723A:  MOVWF  x53
0723C:  MOVLW  28
0723E:  MOVWF  x54
07240:  CLRF   x55
07242:  MOVLW  02
07244:  MOVWF  x56
07246:  MOVLB  0
07248:  CALL   467A
....................        
....................       if(unidad==3) 
0724C:  MOVLB  4
0724E:  MOVF   xE2,W
07250:  SUBLW  03
07252:  BNZ   7270
....................       {displayTiempo(Tpurgap[2],40,40,1,2);} 
07254:  MOVFF  50E,652
07258:  MOVLW  28
0725A:  MOVLB  6
0725C:  MOVWF  x53
0725E:  MOVWF  x54
07260:  MOVLW  01
07262:  MOVWF  x55
07264:  MOVLW  02
07266:  MOVWF  x56
07268:  MOVLB  0
0726A:  CALL   467A
....................       else 
0726E:  BRA    7288
....................       {displayTiempo(Tpurgap[2],40,40,0,2);} 
07270:  MOVFF  50E,652
07274:  MOVLW  28
07276:  MOVLB  6
07278:  MOVWF  x53
0727A:  MOVWF  x54
0727C:  CLRF   x55
0727E:  MOVLW  02
07280:  MOVWF  x56
07282:  MOVLB  0
07284:  CALL   467A
....................        
....................       if(unidad==2) 
07288:  MOVLB  4
0728A:  MOVF   xE2,W
0728C:  SUBLW  02
0728E:  BNZ   72AE
....................       {displayTiempo(Tpurgap[1],70,40,1,2);} 
07290:  MOVFF  50D,652
07294:  MOVLW  46
07296:  MOVLB  6
07298:  MOVWF  x53
0729A:  MOVLW  28
0729C:  MOVWF  x54
0729E:  MOVLW  01
072A0:  MOVWF  x55
072A2:  MOVLW  02
072A4:  MOVWF  x56
072A6:  MOVLB  0
072A8:  CALL   467A
....................       else 
072AC:  BRA    72C8
....................       {displayTiempo(Tpurgap[1],70,40,0,2);} 
072AE:  MOVFF  50D,652
072B2:  MOVLW  46
072B4:  MOVLB  6
072B6:  MOVWF  x53
072B8:  MOVLW  28
072BA:  MOVWF  x54
072BC:  CLRF   x55
072BE:  MOVLW  02
072C0:  MOVWF  x56
072C2:  MOVLB  0
072C4:  CALL   467A
....................        
....................       if(unidad==1) 
072C8:  MOVLB  4
072CA:  DECFSZ xE2,W
072CC:  BRA    72EC
....................       {displayTiempo(Tpurgap[0],90,40,1,2);} 
072CE:  MOVFF  50C,652
072D2:  MOVLW  5A
072D4:  MOVLB  6
072D6:  MOVWF  x53
072D8:  MOVLW  28
072DA:  MOVWF  x54
072DC:  MOVLW  01
072DE:  MOVWF  x55
072E0:  MOVLW  02
072E2:  MOVWF  x56
072E4:  MOVLB  0
072E6:  CALL   467A
....................       else 
072EA:  BRA    7306
....................       {displayTiempo(Tpurgap[0],90,40,0,2);} 
072EC:  MOVFF  50C,652
072F0:  MOVLW  5A
072F2:  MOVLB  6
072F4:  MOVWF  x53
072F6:  MOVLW  28
072F8:  MOVWF  x54
072FA:  CLRF   x55
072FC:  MOVLW  02
072FE:  MOVWF  x56
07300:  MOVLB  0
07302:  CALL   467A
....................        
....................       glcd_text57(60, 42, Dos_puntos, 2, ON); 
07306:  MOVLW  3C
07308:  MOVLB  6
0730A:  MOVWF  x6B
0730C:  MOVLW  2A
0730E:  MOVWF  x6C
07310:  MOVLW  04
07312:  MOVWF  x6E
07314:  MOVLW  45
07316:  MOVWF  x6D
07318:  MOVLW  02
0731A:  MOVWF  x6F
0731C:  MOVLW  01
0731E:  MOVWF  x70
07320:  MOVLB  0
07322:  CALL   3B94
....................           
....................          
....................       if(UP)//Si oprime hacia arriba 
07326:  BSF    F92.4
07328:  BTFSC  F80.4
0732A:  BRA    7356
....................       {  if(Flanco == 0)  
0732C:  MOVLB  4
0732E:  BTFSC  x1A.0
07330:  BRA    7354
....................             {Flanco = 1;delay_ms(30);Tpurgap[unidad-1]++; 
07332:  BSF    x1A.0
07334:  MOVLW  1E
07336:  MOVLB  6
07338:  MOVWF  x5B
0733A:  MOVLB  0
0733C:  CALL   16D4
07340:  MOVLW  01
07342:  MOVLB  4
07344:  SUBWF  xE2,W
07346:  CLRF   03
07348:  ADDLW  0C
0734A:  MOVWF  FE9
0734C:  MOVLW  05
0734E:  ADDWFC 03,W
07350:  MOVWF  FEA
07352:  INCF   FEF,F
....................             } 
....................       } 
....................          else 
07354:  BRA    735A
....................             {Flanco = 0;} 
07356:  MOVLB  4
07358:  BCF    x1A.0
....................              
....................       if(DOWN)//Si oprime hacia abajo 
0735A:  BSF    F92.5
0735C:  BTFSC  F80.5
0735E:  BRA    7388
....................       {  if(Flanco2 == 0)  
07360:  BTFSC  x1A.2
07362:  BRA    7386
....................             {Flanco2 = 1;delay_ms(30);Tpurgap[unidad-1]--; 
07364:  BSF    x1A.2
07366:  MOVLW  1E
07368:  MOVLB  6
0736A:  MOVWF  x5B
0736C:  MOVLB  0
0736E:  CALL   16D4
07372:  MOVLW  01
07374:  MOVLB  4
07376:  SUBWF  xE2,W
07378:  CLRF   03
0737A:  ADDLW  0C
0737C:  MOVWF  FE9
0737E:  MOVLW  05
07380:  ADDWFC 03,W
07382:  MOVWF  FEA
07384:  DECF   FEF,F
....................             }      
....................       } 
....................          else 
07386:  BRA    738A
....................             {Flanco2 = 0;}   
07388:  BCF    x1A.2
....................              
....................       if(RIGHT)//Si oprime SET 
0738A:  BSF    F96.0
0738C:  BTFSC  F84.0
0738E:  BRA    73A8
....................       {  if(Flanco1 == 0)  
07390:  BTFSC  x1A.1
07392:  BRA    73A6
....................             {Flanco1 = 1;delay_ms(30);unidad--; 
07394:  BSF    x1A.1
07396:  MOVLW  1E
07398:  MOVLB  6
0739A:  MOVWF  x5B
0739C:  MOVLB  0
0739E:  CALL   16D4
073A2:  MOVLB  4
073A4:  DECF   xE2,F
....................             } 
....................       } 
....................          else 
073A6:  BRA    73AA
....................             {Flanco1 = 0;}   
073A8:  BCF    x1A.1
....................              
....................       if(LEFT)//Si oprime boton de Toma. 
073AA:  BSF    F96.1
073AC:  BTFSC  F84.1
073AE:  BRA    74C0
....................       { 
....................          delay_ms(700);Menu=4;glcd_fillscreen(OFF);Opcion=1;unidad=1; 
073B0:  MOVLW  04
073B2:  MOVLB  6
073B4:  MOVWF  x52
073B6:  MOVLW  AF
073B8:  MOVWF  x5B
073BA:  MOVLB  0
073BC:  CALL   16D4
073C0:  MOVLB  6
073C2:  DECFSZ x52,F
073C4:  BRA    73B6
073C6:  MOVLW  04
073C8:  MOVLB  4
073CA:  MOVWF  xE1
073CC:  MOVLB  6
073CE:  CLRF   x5A
073D0:  MOVLB  0
073D2:  CALL   2EE4
073D6:  MOVLW  01
073D8:  MOVLB  4
073DA:  MOVWF  xE3
073DC:  MOVWF  xE2
....................          write_eeprom(4,Tpurgap[0]); 
073DE:  CLRF   FAA
073E0:  MOVLW  04
073E2:  MOVWF  FA9
073E4:  MOVFF  50C,FA8
073E8:  BCF    FA6.6
073EA:  BCF    FA6.7
073EC:  BSF    FA6.2
073EE:  MOVF   FF2,W
073F0:  MOVWF  00
073F2:  BCF    FF2.7
073F4:  MOVLB  F
073F6:  MOVLW  55
073F8:  MOVWF  FA7
073FA:  MOVLW  AA
073FC:  MOVWF  FA7
073FE:  BSF    FA6.1
07400:  BTFSC  FA6.1
07402:  BRA    7400
07404:  BCF    FA6.2
07406:  MOVF   00,W
07408:  IORWF  FF2,F
....................          delay_ms(20); 
0740A:  MOVLW  14
0740C:  MOVLB  6
0740E:  MOVWF  x5B
07410:  MOVLB  0
07412:  CALL   16D4
....................          write_eeprom(5,Tpurgap[1]); 
07416:  CLRF   FAA
07418:  MOVLW  05
0741A:  MOVWF  FA9
0741C:  MOVFF  50D,FA8
07420:  BCF    FA6.6
07422:  BCF    FA6.7
07424:  BSF    FA6.2
07426:  MOVF   FF2,W
07428:  MOVWF  00
0742A:  BCF    FF2.7
0742C:  MOVLB  F
0742E:  MOVLW  55
07430:  MOVWF  FA7
07432:  MOVLW  AA
07434:  MOVWF  FA7
07436:  BSF    FA6.1
07438:  BTFSC  FA6.1
0743A:  BRA    7438
0743C:  BCF    FA6.2
0743E:  MOVF   00,W
07440:  IORWF  FF2,F
....................          delay_ms(20); 
07442:  MOVLW  14
07444:  MOVLB  6
07446:  MOVWF  x5B
07448:  MOVLB  0
0744A:  CALL   16D4
....................          write_eeprom(6,Tpurgap[2]); 
0744E:  CLRF   FAA
07450:  MOVLW  06
07452:  MOVWF  FA9
07454:  MOVFF  50E,FA8
07458:  BCF    FA6.6
0745A:  BCF    FA6.7
0745C:  BSF    FA6.2
0745E:  MOVF   FF2,W
07460:  MOVWF  00
07462:  BCF    FF2.7
07464:  MOVLB  F
07466:  MOVLW  55
07468:  MOVWF  FA7
0746A:  MOVLW  AA
0746C:  MOVWF  FA7
0746E:  BSF    FA6.1
07470:  BTFSC  FA6.1
07472:  BRA    7470
07474:  BCF    FA6.2
07476:  MOVF   00,W
07478:  IORWF  FF2,F
....................          delay_ms(20); 
0747A:  MOVLW  14
0747C:  MOVLB  6
0747E:  MOVWF  x5B
07480:  MOVLB  0
07482:  CALL   16D4
....................          write_eeprom(7,Tpurgap[3]); 
07486:  CLRF   FAA
07488:  MOVLW  07
0748A:  MOVWF  FA9
0748C:  MOVFF  50F,FA8
07490:  BCF    FA6.6
07492:  BCF    FA6.7
07494:  BSF    FA6.2
07496:  MOVF   FF2,W
07498:  MOVWF  00
0749A:  BCF    FF2.7
0749C:  MOVLB  F
0749E:  MOVLW  55
074A0:  MOVWF  FA7
074A2:  MOVLW  AA
074A4:  MOVWF  FA7
074A6:  BSF    FA6.1
074A8:  BTFSC  FA6.1
074AA:  BRA    74A8
074AC:  BCF    FA6.2
074AE:  MOVF   00,W
074B0:  IORWF  FF2,F
....................          delay_ms(20); 
074B2:  MOVLW  14
074B4:  MOVLB  6
074B6:  MOVWF  x5B
074B8:  MOVLB  0
074BA:  CALL   16D4
074BE:  MOVLB  4
....................       } 
....................        
....................       for(i=0;i<4;i++) 
074C0:  CLRF   x19
074C2:  MOVF   x19,W
074C4:  SUBLW  03
074C6:  BNC   751A
....................       { 
....................          if(Tpurgap[i]>9) 
074C8:  CLRF   03
074CA:  MOVF   x19,W
074CC:  ADDLW  0C
074CE:  MOVWF  FE9
074D0:  MOVLW  05
074D2:  ADDWFC 03,W
074D4:  MOVWF  FEA
074D6:  BTFSC  FEF.7
074D8:  BRA    74F0
074DA:  MOVF   FEF,W
074DC:  SUBLW  09
074DE:  BC    74F0
....................          {Tpurgap[i]=0;} 
074E0:  CLRF   03
074E2:  MOVF   x19,W
074E4:  ADDLW  0C
074E6:  MOVWF  FE9
074E8:  MOVLW  05
074EA:  ADDWFC 03,W
074EC:  MOVWF  FEA
074EE:  CLRF   FEF
....................           
....................          if(Tpurgap[i]<0) 
074F0:  CLRF   03
074F2:  MOVF   x19,W
074F4:  ADDLW  0C
074F6:  MOVWF  FE9
074F8:  MOVLW  05
074FA:  ADDWFC 03,W
074FC:  MOVWF  FEA
074FE:  BTFSC  FEF.7
07500:  BRA    7504
07502:  BRA    7516
....................          {Tpurgap[i]=9;} 
07504:  CLRF   03
07506:  MOVF   x19,W
07508:  ADDLW  0C
0750A:  MOVWF  FE9
0750C:  MOVLW  05
0750E:  ADDWFC 03,W
07510:  MOVWF  FEA
07512:  MOVLW  09
07514:  MOVWF  FEF
....................       }       
07516:  INCF   x19,F
07518:  BRA    74C2
....................       for(i=1;i<4;i++) 
0751A:  MOVLW  01
0751C:  MOVWF  x19
0751E:  MOVF   x19,W
07520:  SUBLW  03
07522:  BNC   7578
....................       { 
....................          if(Tpurgap[i]>5) 
07524:  CLRF   03
07526:  MOVF   x19,W
07528:  ADDLW  0C
0752A:  MOVWF  FE9
0752C:  MOVLW  05
0752E:  ADDWFC 03,W
07530:  MOVWF  FEA
07532:  BTFSC  FEF.7
07534:  BRA    754C
07536:  MOVF   FEF,W
07538:  SUBLW  05
0753A:  BC    754C
....................          {Tpurgap[i]=0;} 
0753C:  CLRF   03
0753E:  MOVF   x19,W
07540:  ADDLW  0C
07542:  MOVWF  FE9
07544:  MOVLW  05
07546:  ADDWFC 03,W
07548:  MOVWF  FEA
0754A:  CLRF   FEF
....................           
....................          if(Tpurgap[i]<0) 
0754C:  CLRF   03
0754E:  MOVF   x19,W
07550:  ADDLW  0C
07552:  MOVWF  FE9
07554:  MOVLW  05
07556:  ADDWFC 03,W
07558:  MOVWF  FEA
0755A:  BTFSC  FEF.7
0755C:  BRA    7560
0755E:  BRA    7572
....................          {Tpurgap[i]=5;} 
07560:  CLRF   03
07562:  MOVF   x19,W
07564:  ADDLW  0C
07566:  MOVWF  FE9
07568:  MOVLW  05
0756A:  ADDWFC 03,W
0756C:  MOVWF  FEA
0756E:  MOVLW  05
07570:  MOVWF  FEF
....................         i++;  
07572:  INCF   x19,F
....................       } 
07574:  INCF   x19,F
07576:  BRA    751E
....................       if(unidad<1) 
07578:  MOVF   xE2,F
0757A:  BNZ   7580
....................       {unidad=4;} 
0757C:  MOVLW  04
0757E:  MOVWF  xE2
....................       if(Opcion<1) 
07580:  MOVF   xE3,F
07582:  BNZ   7588
....................       {Opcion=4;} 
07584:  MOVLW  04
07586:  MOVWF  xE3
....................      
....................     } 
.................... //_--------------------------------------------------------------------------------------------------------------------------------------------------------        
....................  
.................... //_-------------------------------------------------------------------------------------------------------------------------------------------------------- 
....................       if(Menu==12){ //Menu de Post-Purga. 
07588:  MOVF   xE1,W
0758A:  SUBLW  0C
0758C:  BTFSS  FD8.2
0758E:  BRA    794E
....................        
....................       strcpy(Menus.Letra,"T. Post-Purga"); 
07590:  MOVLW  06
07592:  MOVWF  FEA
07594:  MOVLW  3C
07596:  MOVWF  FE9
07598:  MOVFF  FF2,652
0759C:  BCF    FF2.7
0759E:  MOVLW  00
075A0:  MOVLB  0
075A2:  CALL   1142
075A6:  TBLRD*-
075A8:  TBLRD*+
075AA:  MOVF   FF5,W
075AC:  MOVWF  FEE
075AE:  IORLW  00
075B0:  BNZ   75A8
075B2:  MOVLB  6
075B4:  BTFSC  x52.7
075B6:  BSF    FF2.7
....................       displayMenu(Menus.Letra,0,0,1,2); 
075B8:  MOVLW  06
075BA:  MOVWF  x5B
075BC:  MOVLW  3C
075BE:  MOVWF  x5A
075C0:  CLRF   x5C
075C2:  CLRF   x5D
075C4:  MOVLW  01
075C6:  MOVWF  x5E
075C8:  MOVLW  02
075CA:  MOVWF  x5F
075CC:  MOVLB  0
075CE:  CALL   3E02
....................        
....................       if(unidad==4) 
075D2:  MOVLB  4
075D4:  MOVF   xE2,W
075D6:  SUBLW  04
075D8:  BNZ   75F8
....................       {displayTiempo(Tppurgap[3],20,40,1,2);} 
075DA:  MOVFF  517,652
075DE:  MOVLW  14
075E0:  MOVLB  6
075E2:  MOVWF  x53
075E4:  MOVLW  28
075E6:  MOVWF  x54
075E8:  MOVLW  01
075EA:  MOVWF  x55
075EC:  MOVLW  02
075EE:  MOVWF  x56
075F0:  MOVLB  0
075F2:  CALL   467A
....................       else 
075F6:  BRA    7612
....................       {displayTiempo(Tppurgap[3],20,40,0,2);} 
075F8:  MOVFF  517,652
075FC:  MOVLW  14
075FE:  MOVLB  6
07600:  MOVWF  x53
07602:  MOVLW  28
07604:  MOVWF  x54
07606:  CLRF   x55
07608:  MOVLW  02
0760A:  MOVWF  x56
0760C:  MOVLB  0
0760E:  CALL   467A
....................        
....................       if(unidad==3) 
07612:  MOVLB  4
07614:  MOVF   xE2,W
07616:  SUBLW  03
07618:  BNZ   7636
....................       {displayTiempo(Tppurgap[2],40,40,1,2);} 
0761A:  MOVFF  516,652
0761E:  MOVLW  28
07620:  MOVLB  6
07622:  MOVWF  x53
07624:  MOVWF  x54
07626:  MOVLW  01
07628:  MOVWF  x55
0762A:  MOVLW  02
0762C:  MOVWF  x56
0762E:  MOVLB  0
07630:  CALL   467A
....................       else 
07634:  BRA    764E
....................       {displayTiempo(Tppurgap[2],40,40,0,2);} 
07636:  MOVFF  516,652
0763A:  MOVLW  28
0763C:  MOVLB  6
0763E:  MOVWF  x53
07640:  MOVWF  x54
07642:  CLRF   x55
07644:  MOVLW  02
07646:  MOVWF  x56
07648:  MOVLB  0
0764A:  CALL   467A
....................        
....................       if(unidad==2) 
0764E:  MOVLB  4
07650:  MOVF   xE2,W
07652:  SUBLW  02
07654:  BNZ   7674
....................       {displayTiempo(Tppurgap[1],70,40,1,2);} 
07656:  MOVFF  515,652
0765A:  MOVLW  46
0765C:  MOVLB  6
0765E:  MOVWF  x53
07660:  MOVLW  28
07662:  MOVWF  x54
07664:  MOVLW  01
07666:  MOVWF  x55
07668:  MOVLW  02
0766A:  MOVWF  x56
0766C:  MOVLB  0
0766E:  CALL   467A
....................       else 
07672:  BRA    768E
....................       {displayTiempo(Tppurgap[1],70,40,0,2);} 
07674:  MOVFF  515,652
07678:  MOVLW  46
0767A:  MOVLB  6
0767C:  MOVWF  x53
0767E:  MOVLW  28
07680:  MOVWF  x54
07682:  CLRF   x55
07684:  MOVLW  02
07686:  MOVWF  x56
07688:  MOVLB  0
0768A:  CALL   467A
....................        
....................       if(unidad==1) 
0768E:  MOVLB  4
07690:  DECFSZ xE2,W
07692:  BRA    76B2
....................       {displayTiempo(Tppurgap[0],90,40,1,2);} 
07694:  MOVFF  514,652
07698:  MOVLW  5A
0769A:  MOVLB  6
0769C:  MOVWF  x53
0769E:  MOVLW  28
076A0:  MOVWF  x54
076A2:  MOVLW  01
076A4:  MOVWF  x55
076A6:  MOVLW  02
076A8:  MOVWF  x56
076AA:  MOVLB  0
076AC:  CALL   467A
....................       else 
076B0:  BRA    76CC
....................       {displayTiempo(Tppurgap[0],90,40,0,2);} 
076B2:  MOVFF  514,652
076B6:  MOVLW  5A
076B8:  MOVLB  6
076BA:  MOVWF  x53
076BC:  MOVLW  28
076BE:  MOVWF  x54
076C0:  CLRF   x55
076C2:  MOVLW  02
076C4:  MOVWF  x56
076C6:  MOVLB  0
076C8:  CALL   467A
....................        
....................       glcd_text57(60, 42, Dos_puntos, 2, ON); 
076CC:  MOVLW  3C
076CE:  MOVLB  6
076D0:  MOVWF  x6B
076D2:  MOVLW  2A
076D4:  MOVWF  x6C
076D6:  MOVLW  04
076D8:  MOVWF  x6E
076DA:  MOVLW  45
076DC:  MOVWF  x6D
076DE:  MOVLW  02
076E0:  MOVWF  x6F
076E2:  MOVLW  01
076E4:  MOVWF  x70
076E6:  MOVLB  0
076E8:  CALL   3B94
....................           
....................          
....................       if(UP)//Si oprime hacia arriba 
076EC:  BSF    F92.4
076EE:  BTFSC  F80.4
076F0:  BRA    771C
....................       {  if(Flanco == 0)  
076F2:  MOVLB  4
076F4:  BTFSC  x1A.0
076F6:  BRA    771A
....................             {Flanco = 1;delay_ms(30);Tppurgap[unidad-1]++; 
076F8:  BSF    x1A.0
076FA:  MOVLW  1E
076FC:  MOVLB  6
076FE:  MOVWF  x5B
07700:  MOVLB  0
07702:  CALL   16D4
07706:  MOVLW  01
07708:  MOVLB  4
0770A:  SUBWF  xE2,W
0770C:  CLRF   03
0770E:  ADDLW  14
07710:  MOVWF  FE9
07712:  MOVLW  05
07714:  ADDWFC 03,W
07716:  MOVWF  FEA
07718:  INCF   FEF,F
....................             } 
....................       } 
....................          else 
0771A:  BRA    7720
....................             {Flanco = 0;} 
0771C:  MOVLB  4
0771E:  BCF    x1A.0
....................              
....................       if(DOWN)//Si oprime hacia abajo 
07720:  BSF    F92.5
07722:  BTFSC  F80.5
07724:  BRA    774E
....................       {  if(Flanco2 == 0)  
07726:  BTFSC  x1A.2
07728:  BRA    774C
....................             {Flanco2 = 1;delay_ms(30);Tppurgap[unidad-1]--; 
0772A:  BSF    x1A.2
0772C:  MOVLW  1E
0772E:  MOVLB  6
07730:  MOVWF  x5B
07732:  MOVLB  0
07734:  CALL   16D4
07738:  MOVLW  01
0773A:  MOVLB  4
0773C:  SUBWF  xE2,W
0773E:  CLRF   03
07740:  ADDLW  14
07742:  MOVWF  FE9
07744:  MOVLW  05
07746:  ADDWFC 03,W
07748:  MOVWF  FEA
0774A:  DECF   FEF,F
....................             }      
....................       } 
....................          else 
0774C:  BRA    7750
....................             {Flanco2 = 0;}   
0774E:  BCF    x1A.2
....................              
....................       if(RIGHT)//Si oprime SET 
07750:  BSF    F96.0
07752:  BTFSC  F84.0
07754:  BRA    776E
....................       {  if(Flanco1 == 0)  
07756:  BTFSC  x1A.1
07758:  BRA    776C
....................             {Flanco1 = 1;delay_ms(30);unidad--; 
0775A:  BSF    x1A.1
0775C:  MOVLW  1E
0775E:  MOVLB  6
07760:  MOVWF  x5B
07762:  MOVLB  0
07764:  CALL   16D4
07768:  MOVLB  4
0776A:  DECF   xE2,F
....................             } 
....................       } 
....................          else 
0776C:  BRA    7770
....................             {Flanco1 = 0;}   
0776E:  BCF    x1A.1
....................              
....................       if(LEFT)//Si oprime boton de Toma. 
07770:  BSF    F96.1
07772:  BTFSC  F84.1
07774:  BRA    7886
....................       { 
....................          delay_ms(700);Menu=4;glcd_fillscreen(OFF);Opcion=1;unidad=1; 
07776:  MOVLW  04
07778:  MOVLB  6
0777A:  MOVWF  x52
0777C:  MOVLW  AF
0777E:  MOVWF  x5B
07780:  MOVLB  0
07782:  CALL   16D4
07786:  MOVLB  6
07788:  DECFSZ x52,F
0778A:  BRA    777C
0778C:  MOVLW  04
0778E:  MOVLB  4
07790:  MOVWF  xE1
07792:  MOVLB  6
07794:  CLRF   x5A
07796:  MOVLB  0
07798:  CALL   2EE4
0779C:  MOVLW  01
0779E:  MOVLB  4
077A0:  MOVWF  xE3
077A2:  MOVWF  xE2
....................          write_eeprom(8,Tppurgap[0]); 
077A4:  CLRF   FAA
077A6:  MOVLW  08
077A8:  MOVWF  FA9
077AA:  MOVFF  514,FA8
077AE:  BCF    FA6.6
077B0:  BCF    FA6.7
077B2:  BSF    FA6.2
077B4:  MOVF   FF2,W
077B6:  MOVWF  00
077B8:  BCF    FF2.7
077BA:  MOVLB  F
077BC:  MOVLW  55
077BE:  MOVWF  FA7
077C0:  MOVLW  AA
077C2:  MOVWF  FA7
077C4:  BSF    FA6.1
077C6:  BTFSC  FA6.1
077C8:  BRA    77C6
077CA:  BCF    FA6.2
077CC:  MOVF   00,W
077CE:  IORWF  FF2,F
....................          delay_ms(20); 
077D0:  MOVLW  14
077D2:  MOVLB  6
077D4:  MOVWF  x5B
077D6:  MOVLB  0
077D8:  CALL   16D4
....................          write_eeprom(9,Tppurgap[1]); 
077DC:  CLRF   FAA
077DE:  MOVLW  09
077E0:  MOVWF  FA9
077E2:  MOVFF  515,FA8
077E6:  BCF    FA6.6
077E8:  BCF    FA6.7
077EA:  BSF    FA6.2
077EC:  MOVF   FF2,W
077EE:  MOVWF  00
077F0:  BCF    FF2.7
077F2:  MOVLB  F
077F4:  MOVLW  55
077F6:  MOVWF  FA7
077F8:  MOVLW  AA
077FA:  MOVWF  FA7
077FC:  BSF    FA6.1
077FE:  BTFSC  FA6.1
07800:  BRA    77FE
07802:  BCF    FA6.2
07804:  MOVF   00,W
07806:  IORWF  FF2,F
....................          delay_ms(20); 
07808:  MOVLW  14
0780A:  MOVLB  6
0780C:  MOVWF  x5B
0780E:  MOVLB  0
07810:  CALL   16D4
....................          write_eeprom(10,Tppurgap[2]); 
07814:  CLRF   FAA
07816:  MOVLW  0A
07818:  MOVWF  FA9
0781A:  MOVFF  516,FA8
0781E:  BCF    FA6.6
07820:  BCF    FA6.7
07822:  BSF    FA6.2
07824:  MOVF   FF2,W
07826:  MOVWF  00
07828:  BCF    FF2.7
0782A:  MOVLB  F
0782C:  MOVLW  55
0782E:  MOVWF  FA7
07830:  MOVLW  AA
07832:  MOVWF  FA7
07834:  BSF    FA6.1
07836:  BTFSC  FA6.1
07838:  BRA    7836
0783A:  BCF    FA6.2
0783C:  MOVF   00,W
0783E:  IORWF  FF2,F
....................          delay_ms(20); 
07840:  MOVLW  14
07842:  MOVLB  6
07844:  MOVWF  x5B
07846:  MOVLB  0
07848:  CALL   16D4
....................          write_eeprom(11,Tppurgap[3]); 
0784C:  CLRF   FAA
0784E:  MOVLW  0B
07850:  MOVWF  FA9
07852:  MOVFF  517,FA8
07856:  BCF    FA6.6
07858:  BCF    FA6.7
0785A:  BSF    FA6.2
0785C:  MOVF   FF2,W
0785E:  MOVWF  00
07860:  BCF    FF2.7
07862:  MOVLB  F
07864:  MOVLW  55
07866:  MOVWF  FA7
07868:  MOVLW  AA
0786A:  MOVWF  FA7
0786C:  BSF    FA6.1
0786E:  BTFSC  FA6.1
07870:  BRA    786E
07872:  BCF    FA6.2
07874:  MOVF   00,W
07876:  IORWF  FF2,F
....................          delay_ms(20); 
07878:  MOVLW  14
0787A:  MOVLB  6
0787C:  MOVWF  x5B
0787E:  MOVLB  0
07880:  CALL   16D4
07884:  MOVLB  4
....................       } 
....................              
....................       for(i=0;i<4;i++) 
07886:  CLRF   x19
07888:  MOVF   x19,W
0788A:  SUBLW  03
0788C:  BNC   78E0
....................       { 
....................          if(Tppurgap[i]>9) 
0788E:  CLRF   03
07890:  MOVF   x19,W
07892:  ADDLW  14
07894:  MOVWF  FE9
07896:  MOVLW  05
07898:  ADDWFC 03,W
0789A:  MOVWF  FEA
0789C:  BTFSC  FEF.7
0789E:  BRA    78B6
078A0:  MOVF   FEF,W
078A2:  SUBLW  09
078A4:  BC    78B6
....................          {Tppurgap[i]=0;} 
078A6:  CLRF   03
078A8:  MOVF   x19,W
078AA:  ADDLW  14
078AC:  MOVWF  FE9
078AE:  MOVLW  05
078B0:  ADDWFC 03,W
078B2:  MOVWF  FEA
078B4:  CLRF   FEF
....................           
....................          if(Tppurgap[i]<0) 
078B6:  CLRF   03
078B8:  MOVF   x19,W
078BA:  ADDLW  14
078BC:  MOVWF  FE9
078BE:  MOVLW  05
078C0:  ADDWFC 03,W
078C2:  MOVWF  FEA
078C4:  BTFSC  FEF.7
078C6:  BRA    78CA
078C8:  BRA    78DC
....................          {Tppurgap[i]=9;} 
078CA:  CLRF   03
078CC:  MOVF   x19,W
078CE:  ADDLW  14
078D0:  MOVWF  FE9
078D2:  MOVLW  05
078D4:  ADDWFC 03,W
078D6:  MOVWF  FEA
078D8:  MOVLW  09
078DA:  MOVWF  FEF
....................       } 
078DC:  INCF   x19,F
078DE:  BRA    7888
....................        
....................       for(i=1;i<4;i++) 
078E0:  MOVLW  01
078E2:  MOVWF  x19
078E4:  MOVF   x19,W
078E6:  SUBLW  03
078E8:  BNC   793E
....................       { 
....................          if(Tppurgap[i]>5) 
078EA:  CLRF   03
078EC:  MOVF   x19,W
078EE:  ADDLW  14
078F0:  MOVWF  FE9
078F2:  MOVLW  05
078F4:  ADDWFC 03,W
078F6:  MOVWF  FEA
078F8:  BTFSC  FEF.7
078FA:  BRA    7912
078FC:  MOVF   FEF,W
078FE:  SUBLW  05
07900:  BC    7912
....................          {Tppurgap[i]=0;} 
07902:  CLRF   03
07904:  MOVF   x19,W
07906:  ADDLW  14
07908:  MOVWF  FE9
0790A:  MOVLW  05
0790C:  ADDWFC 03,W
0790E:  MOVWF  FEA
07910:  CLRF   FEF
....................           
....................          if(Tppurgap[i]<0) 
07912:  CLRF   03
07914:  MOVF   x19,W
07916:  ADDLW  14
07918:  MOVWF  FE9
0791A:  MOVLW  05
0791C:  ADDWFC 03,W
0791E:  MOVWF  FEA
07920:  BTFSC  FEF.7
07922:  BRA    7926
07924:  BRA    7938
....................          {Tppurgap[i]=5;} 
07926:  CLRF   03
07928:  MOVF   x19,W
0792A:  ADDLW  14
0792C:  MOVWF  FE9
0792E:  MOVLW  05
07930:  ADDWFC 03,W
07932:  MOVWF  FEA
07934:  MOVLW  05
07936:  MOVWF  FEF
....................         i++;  
07938:  INCF   x19,F
....................       } 
0793A:  INCF   x19,F
0793C:  BRA    78E4
....................       if(unidad<1) 
0793E:  MOVF   xE2,F
07940:  BNZ   7946
....................       {unidad=4;} 
07942:  MOVLW  04
07944:  MOVWF  xE2
....................       if(Opcion<1) 
07946:  MOVF   xE3,F
07948:  BNZ   794E
....................       {Opcion=4;} 
0794A:  MOVLW  04
0794C:  MOVWF  xE3
....................      
....................     } 
.................... //_--------------------------------------------------------------------------------------------------------------------------------------------------------        
....................  
.................... //_-------------------------------------------------------------------------------------------------------------------------------------------------------- 
....................       if(Menu==13){ //Menu de Tempo UV. 
0794E:  MOVF   xE1,W
07950:  SUBLW  0D
07952:  BTFSS  FD8.2
07954:  BRA    7D22
....................        
....................       strcpy(Menus.Letra,"T. UV"); 
07956:  MOVLW  06
07958:  MOVWF  FEA
0795A:  MOVLW  3C
0795C:  MOVWF  FE9
0795E:  MOVFF  FF2,652
07962:  BCF    FF2.7
07964:  MOVLW  00
07966:  MOVLB  0
07968:  CALL   116E
0796C:  TBLRD*-
0796E:  TBLRD*+
07970:  MOVF   FF5,W
07972:  MOVWF  FEE
07974:  IORLW  00
07976:  BNZ   796E
07978:  MOVLB  6
0797A:  BTFSC  x52.7
0797C:  BSF    FF2.7
....................       displayMenu(Menus.Letra,30,0,1,2); 
0797E:  MOVLW  06
07980:  MOVWF  x5B
07982:  MOVLW  3C
07984:  MOVWF  x5A
07986:  MOVLW  1E
07988:  MOVWF  x5C
0798A:  CLRF   x5D
0798C:  MOVLW  01
0798E:  MOVWF  x5E
07990:  MOVLW  02
07992:  MOVWF  x5F
07994:  MOVLB  0
07996:  CALL   3E02
....................        
....................       if(unidad==4) 
0799A:  MOVLB  4
0799C:  MOVF   xE2,W
0799E:  SUBLW  04
079A0:  BNZ   79C0
....................       {displayTiempo(Tempouvp[3],20,40,1,2);} 
079A2:  MOVFF  523,652
079A6:  MOVLW  14
079A8:  MOVLB  6
079AA:  MOVWF  x53
079AC:  MOVLW  28
079AE:  MOVWF  x54
079B0:  MOVLW  01
079B2:  MOVWF  x55
079B4:  MOVLW  02
079B6:  MOVWF  x56
079B8:  MOVLB  0
079BA:  CALL   467A
....................       else 
079BE:  BRA    79DA
....................       {displayTiempo(Tempouvp[3],20,40,0,2);} 
079C0:  MOVFF  523,652
079C4:  MOVLW  14
079C6:  MOVLB  6
079C8:  MOVWF  x53
079CA:  MOVLW  28
079CC:  MOVWF  x54
079CE:  CLRF   x55
079D0:  MOVLW  02
079D2:  MOVWF  x56
079D4:  MOVLB  0
079D6:  CALL   467A
....................        
....................       if(unidad==3) 
079DA:  MOVLB  4
079DC:  MOVF   xE2,W
079DE:  SUBLW  03
079E0:  BNZ   79FE
....................       {displayTiempo(Tempouvp[2],40,40,1,2);} 
079E2:  MOVFF  522,652
079E6:  MOVLW  28
079E8:  MOVLB  6
079EA:  MOVWF  x53
079EC:  MOVWF  x54
079EE:  MOVLW  01
079F0:  MOVWF  x55
079F2:  MOVLW  02
079F4:  MOVWF  x56
079F6:  MOVLB  0
079F8:  CALL   467A
....................       else 
079FC:  BRA    7A16
....................       {displayTiempo(Tempouvp[2],40,40,0,2);} 
079FE:  MOVFF  522,652
07A02:  MOVLW  28
07A04:  MOVLB  6
07A06:  MOVWF  x53
07A08:  MOVWF  x54
07A0A:  CLRF   x55
07A0C:  MOVLW  02
07A0E:  MOVWF  x56
07A10:  MOVLB  0
07A12:  CALL   467A
....................        
....................       if(unidad==2) 
07A16:  MOVLB  4
07A18:  MOVF   xE2,W
07A1A:  SUBLW  02
07A1C:  BNZ   7A3C
....................       {displayTiempo(Tempouvp[1],70,40,1,2);} 
07A1E:  MOVFF  521,652
07A22:  MOVLW  46
07A24:  MOVLB  6
07A26:  MOVWF  x53
07A28:  MOVLW  28
07A2A:  MOVWF  x54
07A2C:  MOVLW  01
07A2E:  MOVWF  x55
07A30:  MOVLW  02
07A32:  MOVWF  x56
07A34:  MOVLB  0
07A36:  CALL   467A
....................       else 
07A3A:  BRA    7A56
....................       {displayTiempo(Tempouvp[1],70,40,0,2);} 
07A3C:  MOVFF  521,652
07A40:  MOVLW  46
07A42:  MOVLB  6
07A44:  MOVWF  x53
07A46:  MOVLW  28
07A48:  MOVWF  x54
07A4A:  CLRF   x55
07A4C:  MOVLW  02
07A4E:  MOVWF  x56
07A50:  MOVLB  0
07A52:  CALL   467A
....................        
....................       if(unidad==1) 
07A56:  MOVLB  4
07A58:  DECFSZ xE2,W
07A5A:  BRA    7A7A
....................       {displayTiempo(Tempouvp[0],90,40,1,2);} 
07A5C:  MOVFF  520,652
07A60:  MOVLW  5A
07A62:  MOVLB  6
07A64:  MOVWF  x53
07A66:  MOVLW  28
07A68:  MOVWF  x54
07A6A:  MOVLW  01
07A6C:  MOVWF  x55
07A6E:  MOVLW  02
07A70:  MOVWF  x56
07A72:  MOVLB  0
07A74:  CALL   467A
....................       else 
07A78:  BRA    7A94
....................       {displayTiempo(Tempouvp[0],90,40,0,2);} 
07A7A:  MOVFF  520,652
07A7E:  MOVLW  5A
07A80:  MOVLB  6
07A82:  MOVWF  x53
07A84:  MOVLW  28
07A86:  MOVWF  x54
07A88:  CLRF   x55
07A8A:  MOVLW  02
07A8C:  MOVWF  x56
07A8E:  MOVLB  0
07A90:  CALL   467A
....................        
....................       glcd_text57(60, 42, Dos_puntos, 2, ON); 
07A94:  MOVLW  3C
07A96:  MOVLB  6
07A98:  MOVWF  x6B
07A9A:  MOVLW  2A
07A9C:  MOVWF  x6C
07A9E:  MOVLW  04
07AA0:  MOVWF  x6E
07AA2:  MOVLW  45
07AA4:  MOVWF  x6D
07AA6:  MOVLW  02
07AA8:  MOVWF  x6F
07AAA:  MOVLW  01
07AAC:  MOVWF  x70
07AAE:  MOVLB  0
07AB0:  CALL   3B94
....................           
....................          
....................       if(UP)//Si oprime hacia arriba 
07AB4:  BSF    F92.4
07AB6:  BTFSC  F80.4
07AB8:  BRA    7AE4
....................       {  if(Flanco == 0)  
07ABA:  MOVLB  4
07ABC:  BTFSC  x1A.0
07ABE:  BRA    7AE2
....................             {Flanco = 1;delay_ms(30);Tempouvp[unidad-1]++; 
07AC0:  BSF    x1A.0
07AC2:  MOVLW  1E
07AC4:  MOVLB  6
07AC6:  MOVWF  x5B
07AC8:  MOVLB  0
07ACA:  CALL   16D4
07ACE:  MOVLW  01
07AD0:  MOVLB  4
07AD2:  SUBWF  xE2,W
07AD4:  CLRF   03
07AD6:  ADDLW  20
07AD8:  MOVWF  FE9
07ADA:  MOVLW  05
07ADC:  ADDWFC 03,W
07ADE:  MOVWF  FEA
07AE0:  INCF   FEF,F
....................             } 
....................       } 
....................          else 
07AE2:  BRA    7AE8
....................             {Flanco = 0;} 
07AE4:  MOVLB  4
07AE6:  BCF    x1A.0
....................              
....................       if(DOWN )//Si oprime hacia abajo 
07AE8:  BSF    F92.5
07AEA:  BTFSC  F80.5
07AEC:  BRA    7B16
....................       {  if(Flanco2 == 0)  
07AEE:  BTFSC  x1A.2
07AF0:  BRA    7B14
....................             {Flanco2 = 1;delay_ms(30);Tempouvp[unidad-1]--; 
07AF2:  BSF    x1A.2
07AF4:  MOVLW  1E
07AF6:  MOVLB  6
07AF8:  MOVWF  x5B
07AFA:  MOVLB  0
07AFC:  CALL   16D4
07B00:  MOVLW  01
07B02:  MOVLB  4
07B04:  SUBWF  xE2,W
07B06:  CLRF   03
07B08:  ADDLW  20
07B0A:  MOVWF  FE9
07B0C:  MOVLW  05
07B0E:  ADDWFC 03,W
07B10:  MOVWF  FEA
07B12:  DECF   FEF,F
....................             }      
....................       } 
....................          else 
07B14:  BRA    7B18
....................             {Flanco2 = 0;}   
07B16:  BCF    x1A.2
....................              
....................       if(RIGHT)//Si oprime SET 
07B18:  BSF    F96.0
07B1A:  BTFSC  F84.0
07B1C:  BRA    7B36
....................       {  if(Flanco1 == 0)  
07B1E:  BTFSC  x1A.1
07B20:  BRA    7B34
....................             {Flanco1 = 1;delay_ms(30);unidad--; 
07B22:  BSF    x1A.1
07B24:  MOVLW  1E
07B26:  MOVLB  6
07B28:  MOVWF  x5B
07B2A:  MOVLB  0
07B2C:  CALL   16D4
07B30:  MOVLB  4
07B32:  DECF   xE2,F
....................             } 
....................       } 
....................          else 
07B34:  BRA    7B38
....................             {Flanco1 = 0;}   
07B36:  BCF    x1A.1
....................              
....................       if(LEFT)//Si oprime boton de Toma. 
07B38:  BSF    F96.1
07B3A:  BTFSC  F84.1
07B3C:  BRA    7C58
....................       { 
....................          delay_ms(700);Menu=4;glcd_fillscreen(OFF);Opcion=1;unidad=1; 
07B3E:  MOVLW  04
07B40:  MOVLB  6
07B42:  MOVWF  x52
07B44:  MOVLW  AF
07B46:  MOVWF  x5B
07B48:  MOVLB  0
07B4A:  CALL   16D4
07B4E:  MOVLB  6
07B50:  DECFSZ x52,F
07B52:  BRA    7B44
07B54:  MOVLW  04
07B56:  MOVLB  4
07B58:  MOVWF  xE1
07B5A:  MOVLB  6
07B5C:  CLRF   x5A
07B5E:  MOVLB  0
07B60:  CALL   2EE4
07B64:  MOVLW  01
07B66:  MOVLB  4
07B68:  MOVWF  xE3
07B6A:  MOVWF  xE2
....................          write_eeprom(21,Tempouvp[0]); 
07B6C:  CLRF   FAA
07B6E:  MOVLW  15
07B70:  MOVWF  FA9
07B72:  MOVFF  520,FA8
07B76:  BCF    FA6.6
07B78:  BCF    FA6.7
07B7A:  BSF    FA6.2
07B7C:  MOVF   FF2,W
07B7E:  MOVWF  00
07B80:  BCF    FF2.7
07B82:  MOVLB  F
07B84:  MOVLW  55
07B86:  MOVWF  FA7
07B88:  MOVLW  AA
07B8A:  MOVWF  FA7
07B8C:  BSF    FA6.1
07B8E:  BTFSC  FA6.1
07B90:  BRA    7B8E
07B92:  BCF    FA6.2
07B94:  MOVF   00,W
07B96:  IORWF  FF2,F
....................          delay_ms(20); 
07B98:  MOVLW  14
07B9A:  MOVLB  6
07B9C:  MOVWF  x5B
07B9E:  MOVLB  0
07BA0:  CALL   16D4
....................          write_eeprom(22,Tempouvp[1]); 
07BA4:  CLRF   FAA
07BA6:  MOVLW  16
07BA8:  MOVWF  FA9
07BAA:  MOVFF  521,FA8
07BAE:  BCF    FA6.6
07BB0:  BCF    FA6.7
07BB2:  BSF    FA6.2
07BB4:  MOVF   FF2,W
07BB6:  MOVWF  00
07BB8:  BCF    FF2.7
07BBA:  MOVLB  F
07BBC:  MOVLW  55
07BBE:  MOVWF  FA7
07BC0:  MOVLW  AA
07BC2:  MOVWF  FA7
07BC4:  BSF    FA6.1
07BC6:  BTFSC  FA6.1
07BC8:  BRA    7BC6
07BCA:  BCF    FA6.2
07BCC:  MOVF   00,W
07BCE:  IORWF  FF2,F
....................          delay_ms(20); 
07BD0:  MOVLW  14
07BD2:  MOVLB  6
07BD4:  MOVWF  x5B
07BD6:  MOVLB  0
07BD8:  CALL   16D4
....................          write_eeprom(23,Tempouvp[2]); 
07BDC:  CLRF   FAA
07BDE:  MOVLW  17
07BE0:  MOVWF  FA9
07BE2:  MOVFF  522,FA8
07BE6:  BCF    FA6.6
07BE8:  BCF    FA6.7
07BEA:  BSF    FA6.2
07BEC:  MOVF   FF2,W
07BEE:  MOVWF  00
07BF0:  BCF    FF2.7
07BF2:  MOVLB  F
07BF4:  MOVLW  55
07BF6:  MOVWF  FA7
07BF8:  MOVLW  AA
07BFA:  MOVWF  FA7
07BFC:  BSF    FA6.1
07BFE:  BTFSC  FA6.1
07C00:  BRA    7BFE
07C02:  BCF    FA6.2
07C04:  MOVF   00,W
07C06:  IORWF  FF2,F
....................          delay_ms(20); 
07C08:  MOVLW  14
07C0A:  MOVLB  6
07C0C:  MOVWF  x5B
07C0E:  MOVLB  0
07C10:  CALL   16D4
....................          write_eeprom(24,Tempouvp[3]); 
07C14:  CLRF   FAA
07C16:  MOVLW  18
07C18:  MOVWF  FA9
07C1A:  MOVFF  523,FA8
07C1E:  BCF    FA6.6
07C20:  BCF    FA6.7
07C22:  BSF    FA6.2
07C24:  MOVF   FF2,W
07C26:  MOVWF  00
07C28:  BCF    FF2.7
07C2A:  MOVLB  F
07C2C:  MOVLW  55
07C2E:  MOVWF  FA7
07C30:  MOVLW  AA
07C32:  MOVWF  FA7
07C34:  BSF    FA6.1
07C36:  BTFSC  FA6.1
07C38:  BRA    7C36
07C3A:  BCF    FA6.2
07C3C:  MOVF   00,W
07C3E:  IORWF  FF2,F
....................          delay_ms(20); 
07C40:  MOVLW  14
07C42:  MOVLB  6
07C44:  MOVWF  x5B
07C46:  MOVLB  0
07C48:  CALL   16D4
....................          Tempouv[0]=0;Tempouv[1]=0;Tempouv[2]=0;Tempouv[3]=0; 
07C4C:  MOVLB  5
07C4E:  CLRF   x1C
07C50:  CLRF   x1D
07C52:  CLRF   x1E
07C54:  CLRF   x1F
07C56:  MOVLB  4
....................       } 
....................              
....................       for(i=0;i<3;i++) 
07C58:  CLRF   x19
07C5A:  MOVF   x19,W
07C5C:  SUBLW  02
07C5E:  BNC   7CB4
....................       { 
....................          if(Tempouvp[i]>9) 
07C60:  CLRF   03
07C62:  MOVF   x19,W
07C64:  ADDLW  20
07C66:  MOVWF  FE9
07C68:  MOVLW  05
07C6A:  ADDWFC 03,W
07C6C:  MOVWF  FEA
07C6E:  BTFSC  FEF.7
07C70:  BRA    7C88
07C72:  MOVF   FEF,W
07C74:  SUBLW  09
07C76:  BC    7C88
....................          {Tempouvp[i]=0;} 
07C78:  CLRF   03
07C7A:  MOVF   x19,W
07C7C:  ADDLW  20
07C7E:  MOVWF  FE9
07C80:  MOVLW  05
07C82:  ADDWFC 03,W
07C84:  MOVWF  FEA
07C86:  CLRF   FEF
....................           
....................          if(Tempouvp[i]<0) 
07C88:  CLRF   03
07C8A:  MOVF   x19,W
07C8C:  ADDLW  20
07C8E:  MOVWF  FE9
07C90:  MOVLW  05
07C92:  ADDWFC 03,W
07C94:  MOVWF  FEA
07C96:  BTFSC  FEF.7
07C98:  BRA    7C9C
07C9A:  BRA    7CAE
....................          {Tempouvp[i]=9;} 
07C9C:  CLRF   03
07C9E:  MOVF   x19,W
07CA0:  ADDLW  20
07CA2:  MOVWF  FE9
07CA4:  MOVLW  05
07CA6:  ADDWFC 03,W
07CA8:  MOVWF  FEA
07CAA:  MOVLW  09
07CAC:  MOVWF  FEF
....................          i++; 
07CAE:  INCF   x19,F
....................       }       
07CB0:  INCF   x19,F
07CB2:  BRA    7C5A
....................       for(i=1;i<4;i++) 
07CB4:  MOVLW  01
07CB6:  MOVWF  x19
07CB8:  MOVF   x19,W
07CBA:  SUBLW  03
07CBC:  BNC   7D12
....................       { 
....................          if(Tempouvp[i]>5) 
07CBE:  CLRF   03
07CC0:  MOVF   x19,W
07CC2:  ADDLW  20
07CC4:  MOVWF  FE9
07CC6:  MOVLW  05
07CC8:  ADDWFC 03,W
07CCA:  MOVWF  FEA
07CCC:  BTFSC  FEF.7
07CCE:  BRA    7CE6
07CD0:  MOVF   FEF,W
07CD2:  SUBLW  05
07CD4:  BC    7CE6
....................          {Tempouvp[i]=0;} 
07CD6:  CLRF   03
07CD8:  MOVF   x19,W
07CDA:  ADDLW  20
07CDC:  MOVWF  FE9
07CDE:  MOVLW  05
07CE0:  ADDWFC 03,W
07CE2:  MOVWF  FEA
07CE4:  CLRF   FEF
....................           
....................          if(Tempouvp[i]<0) 
07CE6:  CLRF   03
07CE8:  MOVF   x19,W
07CEA:  ADDLW  20
07CEC:  MOVWF  FE9
07CEE:  MOVLW  05
07CF0:  ADDWFC 03,W
07CF2:  MOVWF  FEA
07CF4:  BTFSC  FEF.7
07CF6:  BRA    7CFA
07CF8:  BRA    7D0C
....................          {Tempouvp[i]=5;} 
07CFA:  CLRF   03
07CFC:  MOVF   x19,W
07CFE:  ADDLW  20
07D00:  MOVWF  FE9
07D02:  MOVLW  05
07D04:  ADDWFC 03,W
07D06:  MOVWF  FEA
07D08:  MOVLW  05
07D0A:  MOVWF  FEF
....................         i++;  
07D0C:  INCF   x19,F
....................       }       
07D0E:  INCF   x19,F
07D10:  BRA    7CB8
....................       if(unidad<1) 
07D12:  MOVF   xE2,F
07D14:  BNZ   7D1A
....................       {unidad=4;} 
07D16:  MOVLW  04
07D18:  MOVWF  xE2
....................       if(Opcion<1) 
07D1A:  MOVF   xE3,F
07D1C:  BNZ   7D22
....................       {Opcion=4;} 
07D1E:  MOVLW  04
07D20:  MOVWF  xE3
....................      
....................     } 
.................... //_--------------------------------------------------------------------------------------------------------------------------------------------------------        
....................  
.................... //_-------------------------------------------------------------------------------------------------------------------------------------------------------- 
....................       if(Menu==5){ //Menu de Clave. 
07D22:  MOVF   xE1,W
07D24:  SUBLW  05
07D26:  BNZ   7D86
....................  
....................       PidePassword(3,5,211,Password[0],Password[1],Password[2],Password[3]); 
07D28:  MOVLW  03
07D2A:  MOVLB  6
07D2C:  MOVWF  x53
07D2E:  MOVLW  05
07D30:  MOVWF  x54
07D32:  MOVLW  D3
07D34:  MOVWF  x55
07D36:  MOVFF  52C,656
07D3A:  MOVFF  52D,657
07D3E:  MOVFF  52E,658
07D42:  MOVFF  52F,659
07D46:  MOVLB  0
07D48:  CALL   3ECE
....................              
....................       if(LEFT)//Si oprime boton de Toma. 
07D4C:  BSF    F96.1
07D4E:  BTFSC  F84.1
07D50:  BRA    7D88
....................       { 
....................          delay_ms(200); 
07D52:  MOVLW  C8
07D54:  MOVLB  6
07D56:  MOVWF  x5B
07D58:  MOVLB  0
07D5A:  CALL   16D4
....................          if(unidad==1){ 
07D5E:  MOVLB  4
07D60:  DECFSZ xE2,W
07D62:  BRA    7D86
....................             Menu=3;glcd_fillscreen(OFF);Opcion=1;unidad=1;Contrasena[0]=0;Contrasena[1]=0;Contrasena[2]=0;Contrasena[3]=0; 
07D64:  MOVLW  03
07D66:  MOVWF  xE1
07D68:  MOVLB  6
07D6A:  CLRF   x5A
07D6C:  MOVLB  0
07D6E:  CALL   2EE4
07D72:  MOVLW  01
07D74:  MOVLB  4
07D76:  MOVWF  xE3
07D78:  MOVWF  xE2
07D7A:  MOVLB  5
07D7C:  CLRF   x28
07D7E:  CLRF   x29
07D80:  CLRF   x2A
07D82:  CLRF   x2B
07D84:  MOVLB  4
07D86:  MOVLB  0
....................          } 
....................       }  
....................     } 
.................... //_--------------------------------------------------------------------------------------------------------------------------------------------------------        
....................  
.................... //_-------------------------------------------------------------------------------------------------------------------------------------------------------- 
....................       if(Menu==211){ //Menu de Cambio Clave. 
07D88:  MOVLB  4
07D8A:  MOVF   xE1,W
07D8C:  SUBLW  D3
07D8E:  BTFSS  FD8.2
07D90:  BRA    8228
....................        
....................       if(n==0) 
07D92:  BTFSC  x1C.7
07D94:  BRA    7DF4
....................       { 
....................          displayContrasena(Contrasena[0],20,30,1);displayContrasena(Contrasena[1],40,30,0); 
07D96:  MOVFF  528,65C
07D9A:  MOVLW  14
07D9C:  MOVLB  6
07D9E:  MOVWF  x5D
07DA0:  MOVLW  1E
07DA2:  MOVWF  x5E
07DA4:  MOVLW  01
07DA6:  MOVWF  x5F
07DA8:  MOVLB  0
07DAA:  CALL   3D4C
07DAE:  MOVFF  529,65C
07DB2:  MOVLW  28
07DB4:  MOVLB  6
07DB6:  MOVWF  x5D
07DB8:  MOVLW  1E
07DBA:  MOVWF  x5E
07DBC:  CLRF   x5F
07DBE:  MOVLB  0
07DC0:  CALL   3D4C
....................          displayContrasena(Contrasena[2],60,30,0);displayContrasena(Contrasena[0],80,30,0); 
07DC4:  MOVFF  52A,65C
07DC8:  MOVLW  3C
07DCA:  MOVLB  6
07DCC:  MOVWF  x5D
07DCE:  MOVLW  1E
07DD0:  MOVWF  x5E
07DD2:  CLRF   x5F
07DD4:  MOVLB  0
07DD6:  CALL   3D4C
07DDA:  MOVFF  528,65C
07DDE:  MOVLW  50
07DE0:  MOVLB  6
07DE2:  MOVWF  x5D
07DE4:  MOVLW  1E
07DE6:  MOVWF  x5E
07DE8:  CLRF   x5F
07DEA:  MOVLB  0
07DEC:  CALL   3D4C
....................          n=1; 
07DF0:  MOVLB  4
07DF2:  BSF    x1C.7
....................       } 
....................       strcpy(Menus.Letra,"Clave Nueva"); 
07DF4:  MOVLW  06
07DF6:  MOVWF  FEA
07DF8:  MOVLW  3C
07DFA:  MOVWF  FE9
07DFC:  MOVFF  FF2,652
07E00:  BCF    FF2.7
07E02:  MOVLW  00
07E04:  MOVLB  0
07E06:  CALL   1192
07E0A:  TBLRD*-
07E0C:  TBLRD*+
07E0E:  MOVF   FF5,W
07E10:  MOVWF  FEE
07E12:  IORLW  00
07E14:  BNZ   7E0C
07E16:  MOVLB  6
07E18:  BTFSC  x52.7
07E1A:  BSF    FF2.7
....................       displayMenu(Menus.Letra,0,0,1,2); 
07E1C:  MOVLW  06
07E1E:  MOVWF  x5B
07E20:  MOVLW  3C
07E22:  MOVWF  x5A
07E24:  CLRF   x5C
07E26:  CLRF   x5D
07E28:  MOVLW  01
07E2A:  MOVWF  x5E
07E2C:  MOVLW  02
07E2E:  MOVWF  x5F
07E30:  MOVLB  0
07E32:  CALL   3E02
....................          
....................        
....................       if(UP)//Si oprime hacia arriba 
07E36:  BSF    F92.4
07E38:  BTFSC  F80.4
07E3A:  BRA    7F12
....................       {  if(Flanco == 0)  
07E3C:  MOVLB  4
07E3E:  BTFSC  x1A.0
07E40:  BRA    7F10
....................             {Flanco = 1;delay_ms(30); 
07E42:  BSF    x1A.0
07E44:  MOVLW  1E
07E46:  MOVLB  6
07E48:  MOVWF  x5B
07E4A:  MOVLB  0
07E4C:  CALL   16D4
....................             for(i=1;i<=4;i++) 
07E50:  MOVLW  01
07E52:  MOVLB  4
07E54:  MOVWF  x19
07E56:  MOVF   x19,W
07E58:  SUBLW  04
07E5A:  BNC   7F10
....................                { 
....................                   if(unidad==i) 
07E5C:  MOVF   x19,W
07E5E:  SUBWF  xE2,W
07E60:  BNZ   7ED8
....................                   {Contrasena[i-1]++; 
07E62:  MOVLW  01
07E64:  SUBWF  x19,W
07E66:  CLRF   03
07E68:  ADDLW  28
07E6A:  MOVWF  FE9
07E6C:  MOVLW  05
07E6E:  ADDWFC 03,W
07E70:  MOVWF  FEA
07E72:  INCF   FEF,F
....................                   if(Contrasena[i-1]>9) 
07E74:  MOVLW  01
07E76:  SUBWF  x19,W
07E78:  CLRF   03
07E7A:  ADDLW  28
07E7C:  MOVWF  FE9
07E7E:  MOVLW  05
07E80:  ADDWFC 03,W
07E82:  MOVWF  FEA
07E84:  BTFSC  FEF.7
07E86:  BRA    7EA0
07E88:  MOVF   FEF,W
07E8A:  SUBLW  09
07E8C:  BC    7EA0
....................                         {Contrasena[i-1]=0;} 
07E8E:  MOVLW  01
07E90:  SUBWF  x19,W
07E92:  CLRF   03
07E94:  ADDLW  28
07E96:  MOVWF  FE9
07E98:  MOVLW  05
07E9A:  ADDWFC 03,W
07E9C:  MOVWF  FEA
07E9E:  CLRF   FEF
....................                   displayContrasena(Contrasena[i-1],i*20,30,1);} 
07EA0:  MOVLW  01
07EA2:  SUBWF  x19,W
07EA4:  CLRF   03
07EA6:  ADDLW  28
07EA8:  MOVWF  FE9
07EAA:  MOVLW  05
07EAC:  ADDWFC 03,W
07EAE:  MOVWF  FEA
07EB0:  MOVFF  FEF,652
07EB4:  MOVF   x19,W
07EB6:  MULLW  14
07EB8:  MOVFF  FF3,653
07EBC:  MOVLB  6
07EBE:  MOVFF  652,65C
07EC2:  MOVFF  653,65D
07EC6:  MOVLW  1E
07EC8:  MOVWF  x5E
07ECA:  MOVLW  01
07ECC:  MOVWF  x5F
07ECE:  MOVLB  0
07ED0:  CALL   3D4C
....................                   else 
07ED4:  BRA    7F0A
07ED6:  MOVLB  4
....................                   {displayContrasena(Contrasena[i-1],i*20,30,0);} 
07ED8:  MOVLW  01
07EDA:  SUBWF  x19,W
07EDC:  CLRF   03
07EDE:  ADDLW  28
07EE0:  MOVWF  FE9
07EE2:  MOVLW  05
07EE4:  ADDWFC 03,W
07EE6:  MOVWF  FEA
07EE8:  MOVFF  FEF,652
07EEC:  MOVF   x19,W
07EEE:  MULLW  14
07EF0:  MOVFF  FF3,653
07EF4:  MOVLB  6
07EF6:  MOVFF  652,65C
07EFA:  MOVFF  653,65D
07EFE:  MOVLW  1E
07F00:  MOVWF  x5E
07F02:  CLRF   x5F
07F04:  MOVLB  0
07F06:  CALL   3D4C
....................                } 
07F0A:  MOVLB  4
07F0C:  INCF   x19,F
07F0E:  BRA    7E56
....................             } 
....................       } 
....................          else 
07F10:  BRA    7F16
....................             {Flanco = 0;} 
07F12:  MOVLB  4
07F14:  BCF    x1A.0
....................              
....................       if(DOWN )//Si oprime hacia abajo 
07F16:  BSF    F92.5
07F18:  BTFSC  F80.5
07F1A:  BRA    7FEE
....................       {  if(Flanco2 == 0)  
07F1C:  BTFSC  x1A.2
07F1E:  BRA    7FEC
....................             {Flanco2 = 1;delay_ms(30); 
07F20:  BSF    x1A.2
07F22:  MOVLW  1E
07F24:  MOVLB  6
07F26:  MOVWF  x5B
07F28:  MOVLB  0
07F2A:  CALL   16D4
....................                for(i=1;i<=4;i++) 
07F2E:  MOVLW  01
07F30:  MOVLB  4
07F32:  MOVWF  x19
07F34:  MOVF   x19,W
07F36:  SUBLW  04
07F38:  BNC   7FEC
....................                { 
....................                   if(unidad==i) 
07F3A:  MOVF   x19,W
07F3C:  SUBWF  xE2,W
07F3E:  BNZ   7FB4
....................                   {Contrasena[i-1]--;  
07F40:  MOVLW  01
07F42:  SUBWF  x19,W
07F44:  CLRF   03
07F46:  ADDLW  28
07F48:  MOVWF  FE9
07F4A:  MOVLW  05
07F4C:  ADDWFC 03,W
07F4E:  MOVWF  FEA
07F50:  DECF   FEF,F
....................                      if(Contrasena[i-1]<0) 
07F52:  MOVLW  01
07F54:  SUBWF  x19,W
07F56:  CLRF   03
07F58:  ADDLW  28
07F5A:  MOVWF  FE9
07F5C:  MOVLW  05
07F5E:  ADDWFC 03,W
07F60:  MOVWF  FEA
07F62:  BTFSC  FEF.7
07F64:  BRA    7F68
07F66:  BRA    7F7C
....................                         {Contrasena[i-1]=9;} 
07F68:  MOVLW  01
07F6A:  SUBWF  x19,W
07F6C:  CLRF   03
07F6E:  ADDLW  28
07F70:  MOVWF  FE9
07F72:  MOVLW  05
07F74:  ADDWFC 03,W
07F76:  MOVWF  FEA
07F78:  MOVLW  09
07F7A:  MOVWF  FEF
....................                    displayContrasena(Contrasena[i-1],i*20,30,1);} 
07F7C:  MOVLW  01
07F7E:  SUBWF  x19,W
07F80:  CLRF   03
07F82:  ADDLW  28
07F84:  MOVWF  FE9
07F86:  MOVLW  05
07F88:  ADDWFC 03,W
07F8A:  MOVWF  FEA
07F8C:  MOVFF  FEF,652
07F90:  MOVF   x19,W
07F92:  MULLW  14
07F94:  MOVFF  FF3,653
07F98:  MOVLB  6
07F9A:  MOVFF  652,65C
07F9E:  MOVFF  653,65D
07FA2:  MOVLW  1E
07FA4:  MOVWF  x5E
07FA6:  MOVLW  01
07FA8:  MOVWF  x5F
07FAA:  MOVLB  0
07FAC:  CALL   3D4C
....................                   else 
07FB0:  BRA    7FE6
07FB2:  MOVLB  4
....................                   {displayContrasena(Contrasena[i-1],i*20,30,0);} 
07FB4:  MOVLW  01
07FB6:  SUBWF  x19,W
07FB8:  CLRF   03
07FBA:  ADDLW  28
07FBC:  MOVWF  FE9
07FBE:  MOVLW  05
07FC0:  ADDWFC 03,W
07FC2:  MOVWF  FEA
07FC4:  MOVFF  FEF,652
07FC8:  MOVF   x19,W
07FCA:  MULLW  14
07FCC:  MOVFF  FF3,653
07FD0:  MOVLB  6
07FD2:  MOVFF  652,65C
07FD6:  MOVFF  653,65D
07FDA:  MOVLW  1E
07FDC:  MOVWF  x5E
07FDE:  CLRF   x5F
07FE0:  MOVLB  0
07FE2:  CALL   3D4C
....................                }       
07FE6:  MOVLB  4
07FE8:  INCF   x19,F
07FEA:  BRA    7F34
....................             }      
....................       } 
....................          else 
07FEC:  BRA    7FF0
....................             {Flanco2 = 0;}   
07FEE:  BCF    x1A.2
....................              
....................       if(RIGHT)//Si oprime SET 
07FF0:  BSF    F96.0
07FF2:  BTFSC  F84.0
07FF4:  BRA    808E
....................       {  if(Flanco1 == 0)  
07FF6:  BTFSC  x1A.1
07FF8:  BRA    808C
....................             {Flanco1 = 1;delay_ms(30);unidad++; 
07FFA:  BSF    x1A.1
07FFC:  MOVLW  1E
07FFE:  MOVLB  6
08000:  MOVWF  x5B
08002:  MOVLB  0
08004:  CALL   16D4
08008:  MOVLB  4
0800A:  INCF   xE2,F
....................                for(i=1;i<=4;i++) 
0800C:  MOVLW  01
0800E:  MOVWF  x19
08010:  MOVF   x19,W
08012:  SUBLW  04
08014:  BNC   808C
....................                { 
....................                   if(unidad==i) 
08016:  MOVF   x19,W
08018:  SUBWF  xE2,W
0801A:  BNZ   8054
....................                   {displayContrasena(Contrasena[i-1],i*20,30,1);} 
0801C:  MOVLW  01
0801E:  SUBWF  x19,W
08020:  CLRF   03
08022:  ADDLW  28
08024:  MOVWF  FE9
08026:  MOVLW  05
08028:  ADDWFC 03,W
0802A:  MOVWF  FEA
0802C:  MOVFF  FEF,652
08030:  MOVF   x19,W
08032:  MULLW  14
08034:  MOVFF  FF3,653
08038:  MOVLB  6
0803A:  MOVFF  652,65C
0803E:  MOVFF  653,65D
08042:  MOVLW  1E
08044:  MOVWF  x5E
08046:  MOVLW  01
08048:  MOVWF  x5F
0804A:  MOVLB  0
0804C:  CALL   3D4C
....................                   else 
08050:  BRA    8086
08052:  MOVLB  4
....................                   {displayContrasena(Contrasena[i-1],i*20,30,0);} 
08054:  MOVLW  01
08056:  SUBWF  x19,W
08058:  CLRF   03
0805A:  ADDLW  28
0805C:  MOVWF  FE9
0805E:  MOVLW  05
08060:  ADDWFC 03,W
08062:  MOVWF  FEA
08064:  MOVFF  FEF,652
08068:  MOVF   x19,W
0806A:  MULLW  14
0806C:  MOVFF  FF3,653
08070:  MOVLB  6
08072:  MOVFF  652,65C
08076:  MOVFF  653,65D
0807A:  MOVLW  1E
0807C:  MOVWF  x5E
0807E:  CLRF   x5F
08080:  MOVLB  0
08082:  CALL   3D4C
....................                } 
08086:  MOVLB  4
08088:  INCF   x19,F
0808A:  BRA    8010
....................             } 
....................       } 
....................          else 
0808C:  BRA    8090
....................             {Flanco1 = 0;}   
0808E:  BCF    x1A.1
....................              
....................       if(LEFT)//Si oprime boton de Toma. 
08090:  BSF    F96.1
08092:  BTFSC  F84.1
08094:  BRA    80D4
....................       { 
....................          
....................          delay_ms(700); 
08096:  MOVLW  04
08098:  MOVLB  6
0809A:  MOVWF  x52
0809C:  MOVLW  AF
0809E:  MOVWF  x5B
080A0:  MOVLB  0
080A2:  CALL   16D4
080A6:  MOVLB  6
080A8:  DECFSZ x52,F
080AA:  BRA    809C
....................          if(unidad==1){ 
080AC:  MOVLB  4
080AE:  DECFSZ xE2,W
080B0:  BRA    80D4
....................             Menu=3;glcd_fillscreen(OFF);Opcion=1;unidad=1;Contrasena[0]=0;Contrasena[1]=0;Contrasena[2]=0;Contrasena[3]=0; 
080B2:  MOVLW  03
080B4:  MOVWF  xE1
080B6:  MOVLB  6
080B8:  CLRF   x5A
080BA:  MOVLB  0
080BC:  CALL   2EE4
080C0:  MOVLW  01
080C2:  MOVLB  4
080C4:  MOVWF  xE3
080C6:  MOVWF  xE2
080C8:  MOVLB  5
080CA:  CLRF   x28
080CC:  CLRF   x29
080CE:  CLRF   x2A
080D0:  CLRF   x2B
080D2:  MOVLB  4
....................          } 
....................       } 
....................        
....................       if(unidad>4) 
080D4:  MOVF   xE2,W
080D6:  SUBLW  04
080D8:  BTFSC  FD8.0
080DA:  BRA    8228
....................       { 
....................          Opcion=1;glcd_fillscreen(OFF);unidad=1;n=0; 
080DC:  MOVLW  01
080DE:  MOVWF  xE3
080E0:  MOVLB  6
080E2:  CLRF   x5A
080E4:  MOVLB  0
080E6:  CALL   2EE4
080EA:  MOVLW  01
080EC:  MOVLB  4
080EE:  MOVWF  xE2
080F0:  BCF    x1C.7
....................          Password[0]=Contrasena[0];Password[1]=Contrasena[1];Password[2]=Contrasena[2];Password[3]=Contrasena[3]; 
080F2:  MOVFF  528,52C
080F6:  MOVFF  529,52D
080FA:  MOVFF  52A,52E
080FE:  MOVFF  52B,52F
....................          write_eeprom(0,Password[0]); 
08102:  CLRF   FAA
08104:  CLRF   FA9
08106:  MOVFF  52C,FA8
0810A:  BCF    FA6.6
0810C:  BCF    FA6.7
0810E:  BSF    FA6.2
08110:  MOVF   FF2,W
08112:  MOVWF  00
08114:  BCF    FF2.7
08116:  MOVLB  F
08118:  MOVLW  55
0811A:  MOVWF  FA7
0811C:  MOVLW  AA
0811E:  MOVWF  FA7
08120:  BSF    FA6.1
08122:  BTFSC  FA6.1
08124:  BRA    8122
08126:  BCF    FA6.2
08128:  MOVF   00,W
0812A:  IORWF  FF2,F
....................          delay_ms(20); 
0812C:  MOVLW  14
0812E:  MOVLB  6
08130:  MOVWF  x5B
08132:  MOVLB  0
08134:  CALL   16D4
....................          write_eeprom(1,Password[1]); 
08138:  CLRF   FAA
0813A:  MOVLW  01
0813C:  MOVWF  FA9
0813E:  MOVFF  52D,FA8
08142:  BCF    FA6.6
08144:  BCF    FA6.7
08146:  BSF    FA6.2
08148:  MOVF   FF2,W
0814A:  MOVWF  00
0814C:  BCF    FF2.7
0814E:  MOVLB  F
08150:  MOVLW  55
08152:  MOVWF  FA7
08154:  MOVLW  AA
08156:  MOVWF  FA7
08158:  BSF    FA6.1
0815A:  BTFSC  FA6.1
0815C:  BRA    815A
0815E:  BCF    FA6.2
08160:  MOVF   00,W
08162:  IORWF  FF2,F
....................          delay_ms(20); 
08164:  MOVLW  14
08166:  MOVLB  6
08168:  MOVWF  x5B
0816A:  MOVLB  0
0816C:  CALL   16D4
....................          write_eeprom(2,Password[2]); 
08170:  CLRF   FAA
08172:  MOVLW  02
08174:  MOVWF  FA9
08176:  MOVFF  52E,FA8
0817A:  BCF    FA6.6
0817C:  BCF    FA6.7
0817E:  BSF    FA6.2
08180:  MOVF   FF2,W
08182:  MOVWF  00
08184:  BCF    FF2.7
08186:  MOVLB  F
08188:  MOVLW  55
0818A:  MOVWF  FA7
0818C:  MOVLW  AA
0818E:  MOVWF  FA7
08190:  BSF    FA6.1
08192:  BTFSC  FA6.1
08194:  BRA    8192
08196:  BCF    FA6.2
08198:  MOVF   00,W
0819A:  IORWF  FF2,F
....................          delay_ms(20); 
0819C:  MOVLW  14
0819E:  MOVLB  6
081A0:  MOVWF  x5B
081A2:  MOVLB  0
081A4:  CALL   16D4
....................          write_eeprom(3,Password[3]); 
081A8:  CLRF   FAA
081AA:  MOVLW  03
081AC:  MOVWF  FA9
081AE:  MOVFF  52F,FA8
081B2:  BCF    FA6.6
081B4:  BCF    FA6.7
081B6:  BSF    FA6.2
081B8:  MOVF   FF2,W
081BA:  MOVWF  00
081BC:  BCF    FF2.7
081BE:  MOVLB  F
081C0:  MOVLW  55
081C2:  MOVWF  FA7
081C4:  MOVLW  AA
081C6:  MOVWF  FA7
081C8:  BSF    FA6.1
081CA:  BTFSC  FA6.1
081CC:  BRA    81CA
081CE:  BCF    FA6.2
081D0:  MOVF   00,W
081D2:  IORWF  FF2,F
....................          delay_ms(20); 
081D4:  MOVLW  14
081D6:  MOVLB  6
081D8:  MOVWF  x5B
081DA:  MOVLB  0
081DC:  CALL   16D4
....................          glcd_imagen(1);glcd_update();Menu=211;delay_ms(1000);glcd_fillScreen(OFF);Menu=3; 
081E0:  MOVLW  01
081E2:  MOVLB  6
081E4:  MOVWF  x52
081E6:  MOVLB  0
081E8:  CALL   486A
081EC:  CALL   2F3E
081F0:  MOVLW  D3
081F2:  MOVLB  4
081F4:  MOVWF  xE1
081F6:  MOVLW  04
081F8:  MOVLB  6
081FA:  MOVWF  x52
081FC:  MOVLW  FA
081FE:  MOVWF  x5B
08200:  MOVLB  0
08202:  CALL   16D4
08206:  MOVLB  6
08208:  DECFSZ x52,F
0820A:  BRA    81FC
0820C:  CLRF   x5A
0820E:  MOVLB  0
08210:  CALL   2EE4
08214:  MOVLW  03
08216:  MOVLB  4
08218:  MOVWF  xE1
....................          n=0; 
0821A:  BCF    x1C.7
....................          Contrasena[0]=0;Contrasena[1]=0;Contrasena[2]=0;Contrasena[3]=0; 
0821C:  MOVLB  5
0821E:  CLRF   x28
08220:  CLRF   x29
08222:  CLRF   x2A
08224:  CLRF   x2B
08226:  MOVLB  4
....................       } 
....................      
....................     } 
.................... //_--------------------------------------------------------------------------------------------------------------------------------------------------------        
....................  
.................... //_-------------------------------------------------------------------------------------------------------------------------------------------------------- 
....................       if(Menu==31){ //Menu de Mantenimiento. 
08228:  MOVF   xE1,W
0822A:  SUBLW  1F
0822C:  BTFSS  FD8.2
0822E:  BRA    8652
....................        
....................          strcpy(Menus.Letra,"Manteniento"); 
08230:  MOVLW  06
08232:  MOVWF  FEA
08234:  MOVLW  3C
08236:  MOVWF  FE9
08238:  MOVFF  FF2,652
0823C:  BCF    FF2.7
0823E:  MOVLW  00
08240:  MOVLB  0
08242:  CALL   11BC
08246:  TBLRD*-
08248:  TBLRD*+
0824A:  MOVF   FF5,W
0824C:  MOVWF  FEE
0824E:  IORLW  00
08250:  BNZ   8248
08252:  MOVLB  6
08254:  BTFSC  x52.7
08256:  BSF    FF2.7
....................          displayMenu(Menus.Letra,0,0,1,2); 
08258:  MOVLW  06
0825A:  MOVWF  x5B
0825C:  MOVLW  3C
0825E:  MOVWF  x5A
08260:  CLRF   x5C
08262:  CLRF   x5D
08264:  MOVLW  01
08266:  MOVWF  x5E
08268:  MOVLW  02
0826A:  MOVWF  x5F
0826C:  MOVLB  0
0826E:  CALL   3E02
....................           
....................          strcpy(Menus.Letra,"Trabajo Filtro(h):"); 
08272:  MOVLW  06
08274:  MOVWF  FEA
08276:  MOVLW  3C
08278:  MOVWF  FE9
0827A:  MOVFF  FF2,652
0827E:  BCF    FF2.7
08280:  MOVLW  00
08282:  CALL   11E6
08286:  TBLRD*-
08288:  TBLRD*+
0828A:  MOVF   FF5,W
0828C:  MOVWF  FEE
0828E:  IORLW  00
08290:  BNZ   8288
08292:  MOVLB  6
08294:  BTFSC  x52.7
08296:  BSF    FF2.7
....................          displayMenu(Menus.Letra,10,20,1,1); 
08298:  MOVLW  06
0829A:  MOVWF  x5B
0829C:  MOVLW  3C
0829E:  MOVWF  x5A
082A0:  MOVLW  0A
082A2:  MOVWF  x5C
082A4:  MOVLW  14
082A6:  MOVWF  x5D
082A8:  MOVLW  01
082AA:  MOVWF  x5E
082AC:  MOVWF  x5F
082AE:  MOVLB  0
082B0:  CALL   3E02
....................          glcd_text57(0, 31, Vida_Filtro, 1, ON); 
082B4:  MOVLB  6
082B6:  CLRF   x6B
082B8:  MOVLW  1F
082BA:  MOVWF  x6C
082BC:  MOVLW  04
082BE:  MOVWF  x6E
082C0:  MOVLW  B5
082C2:  MOVWF  x6D
082C4:  MOVLW  01
082C6:  MOVWF  x6F
082C8:  MOVWF  x70
082CA:  MOVLB  0
082CC:  CALL   3B94
....................          displayTiempo(Ttrabajo[3],60,30,0,1);displayTiempo(Ttrabajo[2],67,30,0,1);displayTiempo(Ttrabajo[1],74,30,0,1);displayTiempo(Ttrabajo[0],82,30,0,1); 
082D0:  MOVFF  527,652
082D4:  MOVLW  3C
082D6:  MOVLB  6
082D8:  MOVWF  x53
082DA:  MOVLW  1E
082DC:  MOVWF  x54
082DE:  CLRF   x55
082E0:  MOVLW  01
082E2:  MOVWF  x56
082E4:  MOVLB  0
082E6:  CALL   467A
082EA:  MOVFF  526,652
082EE:  MOVLW  43
082F0:  MOVLB  6
082F2:  MOVWF  x53
082F4:  MOVLW  1E
082F6:  MOVWF  x54
082F8:  CLRF   x55
082FA:  MOVLW  01
082FC:  MOVWF  x56
082FE:  MOVLB  0
08300:  CALL   467A
08304:  MOVFF  525,652
08308:  MOVLW  4A
0830A:  MOVLB  6
0830C:  MOVWF  x53
0830E:  MOVLW  1E
08310:  MOVWF  x54
08312:  CLRF   x55
08314:  MOVLW  01
08316:  MOVWF  x56
08318:  MOVLB  0
0831A:  CALL   467A
0831E:  MOVFF  524,652
08322:  MOVLW  52
08324:  MOVLB  6
08326:  MOVWF  x53
08328:  MOVLW  1E
0832A:  MOVWF  x54
0832C:  CLRF   x55
0832E:  MOVLW  01
08330:  MOVWF  x56
08332:  MOVLB  0
08334:  CALL   467A
....................           
....................          strcpy(Menus.Letra,"Trabajo Luz UV(h):"); 
08338:  MOVLW  06
0833A:  MOVWF  FEA
0833C:  MOVLW  3C
0833E:  MOVWF  FE9
08340:  MOVFF  FF2,652
08344:  BCF    FF2.7
08346:  MOVLW  00
08348:  CALL   1218
0834C:  TBLRD*-
0834E:  TBLRD*+
08350:  MOVF   FF5,W
08352:  MOVWF  FEE
08354:  IORLW  00
08356:  BNZ   834E
08358:  MOVLB  6
0835A:  BTFSC  x52.7
0835C:  BSF    FF2.7
....................          displayMenu(Menus.Letra,0,40,1,1); 
0835E:  MOVLW  06
08360:  MOVWF  x5B
08362:  MOVLW  3C
08364:  MOVWF  x5A
08366:  CLRF   x5C
08368:  MOVLW  28
0836A:  MOVWF  x5D
0836C:  MOVLW  01
0836E:  MOVWF  x5E
08370:  MOVWF  x5F
08372:  MOVLB  0
08374:  CALL   3E02
....................          glcd_text57(0, 53, Vida_UV, 1, ON); 
08378:  MOVLB  6
0837A:  CLRF   x6B
0837C:  MOVLW  35
0837E:  MOVWF  x6C
08380:  MOVLW  04
08382:  MOVWF  x6E
08384:  MOVLW  AD
08386:  MOVWF  x6D
08388:  MOVLW  01
0838A:  MOVWF  x6F
0838C:  MOVWF  x70
0838E:  MOVLB  0
08390:  CALL   3B94
....................          displayTiempo(Tuv[3],60,52,0,1);displayTiempo(Tuv[2],67,52,0,1);displayTiempo(Tuv[1],74,52,0,1);displayTiempo(Tuv[0],82,52,0,1);                  
08394:  MOVFF  51B,652
08398:  MOVLW  3C
0839A:  MOVLB  6
0839C:  MOVWF  x53
0839E:  MOVLW  34
083A0:  MOVWF  x54
083A2:  CLRF   x55
083A4:  MOVLW  01
083A6:  MOVWF  x56
083A8:  MOVLB  0
083AA:  CALL   467A
083AE:  MOVFF  51A,652
083B2:  MOVLW  43
083B4:  MOVLB  6
083B6:  MOVWF  x53
083B8:  MOVLW  34
083BA:  MOVWF  x54
083BC:  CLRF   x55
083BE:  MOVLW  01
083C0:  MOVWF  x56
083C2:  MOVLB  0
083C4:  CALL   467A
083C8:  MOVFF  519,652
083CC:  MOVLW  4A
083CE:  MOVLB  6
083D0:  MOVWF  x53
083D2:  MOVLW  34
083D4:  MOVWF  x54
083D6:  CLRF   x55
083D8:  MOVLW  01
083DA:  MOVWF  x56
083DC:  MOVLB  0
083DE:  CALL   467A
083E2:  MOVFF  518,652
083E6:  MOVLW  52
083E8:  MOVLB  6
083EA:  MOVWF  x53
083EC:  MOVLW  34
083EE:  MOVWF  x54
083F0:  CLRF   x55
083F2:  MOVLW  01
083F4:  MOVWF  x56
083F6:  MOVLB  0
083F8:  CALL   467A
....................          LuzBlanca_on; 
083FC:  BCF    F8B.2
083FE:  BCF    F94.2
....................           
....................             if(UP && RIGHT) // Reinicia Tiempo de Luz UV 
08400:  BSF    F92.4
08402:  BTFSC  F80.4
08404:  BRA    8518
08406:  BSF    F96.0
08408:  BTFSC  F84.0
0840A:  BRA    8518
....................             { 
....................                   delay_ms(2000); 
0840C:  MOVLW  08
0840E:  MOVLB  6
08410:  MOVWF  x52
08412:  MOVLW  FA
08414:  MOVWF  x5B
08416:  MOVLB  0
08418:  CALL   16D4
0841C:  MOVLB  6
0841E:  DECFSZ x52,F
08420:  BRA    8412
....................                   write_eeprom(12,0); 
08422:  CLRF   FAA
08424:  MOVLW  0C
08426:  MOVWF  FA9
08428:  CLRF   FA8
0842A:  BCF    FA6.6
0842C:  BCF    FA6.7
0842E:  BSF    FA6.2
08430:  MOVF   FF2,W
08432:  MOVWF  00
08434:  BCF    FF2.7
08436:  MOVLB  F
08438:  MOVLW  55
0843A:  MOVWF  FA7
0843C:  MOVLW  AA
0843E:  MOVWF  FA7
08440:  BSF    FA6.1
08442:  BTFSC  FA6.1
08444:  BRA    8442
08446:  BCF    FA6.2
08448:  MOVF   00,W
0844A:  IORWF  FF2,F
....................                   delay_ms(20); 
0844C:  MOVLW  14
0844E:  MOVLB  6
08450:  MOVWF  x5B
08452:  MOVLB  0
08454:  CALL   16D4
....................                   write_eeprom(13,0); 
08458:  CLRF   FAA
0845A:  MOVLW  0D
0845C:  MOVWF  FA9
0845E:  CLRF   FA8
08460:  BCF    FA6.6
08462:  BCF    FA6.7
08464:  BSF    FA6.2
08466:  MOVF   FF2,W
08468:  MOVWF  00
0846A:  BCF    FF2.7
0846C:  MOVLB  F
0846E:  MOVLW  55
08470:  MOVWF  FA7
08472:  MOVLW  AA
08474:  MOVWF  FA7
08476:  BSF    FA6.1
08478:  BTFSC  FA6.1
0847A:  BRA    8478
0847C:  BCF    FA6.2
0847E:  MOVF   00,W
08480:  IORWF  FF2,F
....................                   delay_ms(20); 
08482:  MOVLW  14
08484:  MOVLB  6
08486:  MOVWF  x5B
08488:  MOVLB  0
0848A:  CALL   16D4
....................                   write_eeprom(14,0); 
0848E:  CLRF   FAA
08490:  MOVLW  0E
08492:  MOVWF  FA9
08494:  CLRF   FA8
08496:  BCF    FA6.6
08498:  BCF    FA6.7
0849A:  BSF    FA6.2
0849C:  MOVF   FF2,W
0849E:  MOVWF  00
084A0:  BCF    FF2.7
084A2:  MOVLB  F
084A4:  MOVLW  55
084A6:  MOVWF  FA7
084A8:  MOVLW  AA
084AA:  MOVWF  FA7
084AC:  BSF    FA6.1
084AE:  BTFSC  FA6.1
084B0:  BRA    84AE
084B2:  BCF    FA6.2
084B4:  MOVF   00,W
084B6:  IORWF  FF2,F
....................                   delay_ms(20); 
084B8:  MOVLW  14
084BA:  MOVLB  6
084BC:  MOVWF  x5B
084BE:  MOVLB  0
084C0:  CALL   16D4
....................                   write_eeprom(15,0); 
084C4:  CLRF   FAA
084C6:  MOVLW  0F
084C8:  MOVWF  FA9
084CA:  CLRF   FA8
084CC:  BCF    FA6.6
084CE:  BCF    FA6.7
084D0:  BSF    FA6.2
084D2:  MOVF   FF2,W
084D4:  MOVWF  00
084D6:  BCF    FF2.7
084D8:  MOVLB  F
084DA:  MOVLW  55
084DC:  MOVWF  FA7
084DE:  MOVLW  AA
084E0:  MOVWF  FA7
084E2:  BSF    FA6.1
084E4:  BTFSC  FA6.1
084E6:  BRA    84E4
084E8:  BCF    FA6.2
084EA:  MOVF   00,W
084EC:  IORWF  FF2,F
....................                   delay_ms(20); 
084EE:  MOVLW  14
084F0:  MOVLB  6
084F2:  MOVWF  x5B
084F4:  MOVLB  0
084F6:  CALL   16D4
....................                   Tuv[3]=0;Tuv[2]=0;Tuv[1]=0;Tuv[0]=0; 
084FA:  MOVLB  5
084FC:  CLRF   x1B
084FE:  CLRF   x1A
08500:  CLRF   x19
08502:  CLRF   x18
....................                   Menu=3;glcd_fillscreen(OFF);LuzBlanca_off; 
08504:  MOVLW  03
08506:  MOVLB  4
08508:  MOVWF  xE1
0850A:  MOVLB  6
0850C:  CLRF   x5A
0850E:  MOVLB  0
08510:  CALL   2EE4
08514:  BSF    F8B.2
08516:  BCF    F94.2
....................                 
....................             } 
....................             if(DOWN && RIGHT) // Reinicia Tiempo de Trabajo 
08518:  BSF    F92.5
0851A:  BTFSC  F80.5
0851C:  BRA    8630
0851E:  BSF    F96.0
08520:  BTFSC  F84.0
08522:  BRA    8630
....................             { 
....................                   delay_ms(2000); 
08524:  MOVLW  08
08526:  MOVLB  6
08528:  MOVWF  x52
0852A:  MOVLW  FA
0852C:  MOVWF  x5B
0852E:  MOVLB  0
08530:  CALL   16D4
08534:  MOVLB  6
08536:  DECFSZ x52,F
08538:  BRA    852A
....................                   write_eeprom(16,0); 
0853A:  CLRF   FAA
0853C:  MOVLW  10
0853E:  MOVWF  FA9
08540:  CLRF   FA8
08542:  BCF    FA6.6
08544:  BCF    FA6.7
08546:  BSF    FA6.2
08548:  MOVF   FF2,W
0854A:  MOVWF  00
0854C:  BCF    FF2.7
0854E:  MOVLB  F
08550:  MOVLW  55
08552:  MOVWF  FA7
08554:  MOVLW  AA
08556:  MOVWF  FA7
08558:  BSF    FA6.1
0855A:  BTFSC  FA6.1
0855C:  BRA    855A
0855E:  BCF    FA6.2
08560:  MOVF   00,W
08562:  IORWF  FF2,F
....................                   delay_ms(20); 
08564:  MOVLW  14
08566:  MOVLB  6
08568:  MOVWF  x5B
0856A:  MOVLB  0
0856C:  CALL   16D4
....................                   write_eeprom(17,0); 
08570:  CLRF   FAA
08572:  MOVLW  11
08574:  MOVWF  FA9
08576:  CLRF   FA8
08578:  BCF    FA6.6
0857A:  BCF    FA6.7
0857C:  BSF    FA6.2
0857E:  MOVF   FF2,W
08580:  MOVWF  00
08582:  BCF    FF2.7
08584:  MOVLB  F
08586:  MOVLW  55
08588:  MOVWF  FA7
0858A:  MOVLW  AA
0858C:  MOVWF  FA7
0858E:  BSF    FA6.1
08590:  BTFSC  FA6.1
08592:  BRA    8590
08594:  BCF    FA6.2
08596:  MOVF   00,W
08598:  IORWF  FF2,F
....................                   delay_ms(20); 
0859A:  MOVLW  14
0859C:  MOVLB  6
0859E:  MOVWF  x5B
085A0:  MOVLB  0
085A2:  CALL   16D4
....................                   write_eeprom(18,0); 
085A6:  CLRF   FAA
085A8:  MOVLW  12
085AA:  MOVWF  FA9
085AC:  CLRF   FA8
085AE:  BCF    FA6.6
085B0:  BCF    FA6.7
085B2:  BSF    FA6.2
085B4:  MOVF   FF2,W
085B6:  MOVWF  00
085B8:  BCF    FF2.7
085BA:  MOVLB  F
085BC:  MOVLW  55
085BE:  MOVWF  FA7
085C0:  MOVLW  AA
085C2:  MOVWF  FA7
085C4:  BSF    FA6.1
085C6:  BTFSC  FA6.1
085C8:  BRA    85C6
085CA:  BCF    FA6.2
085CC:  MOVF   00,W
085CE:  IORWF  FF2,F
....................                   delay_ms(20); 
085D0:  MOVLW  14
085D2:  MOVLB  6
085D4:  MOVWF  x5B
085D6:  MOVLB  0
085D8:  CALL   16D4
....................                   write_eeprom(19,0); 
085DC:  CLRF   FAA
085DE:  MOVLW  13
085E0:  MOVWF  FA9
085E2:  CLRF   FA8
085E4:  BCF    FA6.6
085E6:  BCF    FA6.7
085E8:  BSF    FA6.2
085EA:  MOVF   FF2,W
085EC:  MOVWF  00
085EE:  BCF    FF2.7
085F0:  MOVLB  F
085F2:  MOVLW  55
085F4:  MOVWF  FA7
085F6:  MOVLW  AA
085F8:  MOVWF  FA7
085FA:  BSF    FA6.1
085FC:  BTFSC  FA6.1
085FE:  BRA    85FC
08600:  BCF    FA6.2
08602:  MOVF   00,W
08604:  IORWF  FF2,F
....................                   delay_ms(20); 
08606:  MOVLW  14
08608:  MOVLB  6
0860A:  MOVWF  x5B
0860C:  MOVLB  0
0860E:  CALL   16D4
....................                   Ttrabajo[3]=0;Ttrabajo[2]=0;Ttrabajo[1]=0;Ttrabajo[0]=0; 
08612:  MOVLB  5
08614:  CLRF   x27
08616:  CLRF   x26
08618:  CLRF   x25
0861A:  CLRF   x24
....................                   Menu=3;glcd_fillscreen(OFF);LuzBlanca_off; 
0861C:  MOVLW  03
0861E:  MOVLB  4
08620:  MOVWF  xE1
08622:  MOVLB  6
08624:  CLRF   x5A
08626:  MOVLB  0
08628:  CALL   2EE4
0862C:  BSF    F8B.2
0862E:  BCF    F94.2
....................             } 
....................              
....................             if(LEFT) 
08630:  BSF    F96.1
08632:  BTFSC  F84.1
08634:  BRA    8654
....................             { 
....................                Menu=6;glcd_fillscreen(OFF);LuzBlanca_off;Opcion=1;unidad=1; 
08636:  MOVLW  06
08638:  MOVLB  4
0863A:  MOVWF  xE1
0863C:  MOVLB  6
0863E:  CLRF   x5A
08640:  MOVLB  0
08642:  CALL   2EE4
08646:  BSF    F8B.2
08648:  BCF    F94.2
0864A:  MOVLW  01
0864C:  MOVLB  4
0864E:  MOVWF  xE3
08650:  MOVWF  xE2
08652:  MOVLB  0
....................             } 
....................     } 
.................... //_--------------------------------------------------------------------------------------------------------------------------------------------------------        
....................  
.................... //_-------------------------------------------------------------------------------------------------------------------------------------------------------- 
....................       if(Menu==32){ //Menu de Servicio 
08654:  MOVLB  4
08656:  MOVF   xE1,W
08658:  SUBLW  20
0865A:  BTFSS  FD8.2
0865C:  BRA    8BAE
....................        
....................       strcpy(Menus.Letra,"Servicio"); 
0865E:  MOVLW  06
08660:  MOVWF  FEA
08662:  MOVLW  3C
08664:  MOVWF  FE9
08666:  MOVFF  FF2,652
0866A:  BCF    FF2.7
0866C:  MOVLW  00
0866E:  MOVLB  0
08670:  CALL   10CC
08674:  TBLRD*-
08676:  TBLRD*+
08678:  MOVF   FF5,W
0867A:  MOVWF  FEE
0867C:  IORLW  00
0867E:  BNZ   8676
08680:  MOVLB  6
08682:  BTFSC  x52.7
08684:  BSF    FF2.7
....................       displayMenu(Menus.Letra,10,0,1,2); 
08686:  MOVLW  06
08688:  MOVWF  x5B
0868A:  MOVLW  3C
0868C:  MOVWF  x5A
0868E:  MOVLW  0A
08690:  MOVWF  x5C
08692:  CLRF   x5D
08694:  MOVLW  01
08696:  MOVWF  x5E
08698:  MOVLW  02
0869A:  MOVWF  x5F
0869C:  MOVLB  0
0869E:  CALL   3E02
....................        
....................       if(Opcion<=4){ 
086A2:  MOVLB  4
086A4:  MOVF   xE3,W
086A6:  SUBLW  04
086A8:  BTFSS  FD8.0
086AA:  BRA    88EC
....................          if(Opcion==1)    
086AC:  DECFSZ xE3,W
086AE:  BRA    86F6
....................             {strcpy(Menus.Letra,"Sensor de Flujo"); 
086B0:  MOVLW  06
086B2:  MOVWF  FEA
086B4:  MOVLW  3C
086B6:  MOVWF  FE9
086B8:  MOVFF  FF2,652
086BC:  BCF    FF2.7
086BE:  MOVLW  00
086C0:  MOVLB  0
086C2:  CALL   124A
086C6:  TBLRD*-
086C8:  TBLRD*+
086CA:  MOVF   FF5,W
086CC:  MOVWF  FEE
086CE:  IORLW  00
086D0:  BNZ   86C8
086D2:  MOVLB  6
086D4:  BTFSC  x52.7
086D6:  BSF    FF2.7
....................             displayMenu(Menus.Letra,0,18,1,1);} 
086D8:  MOVLW  06
086DA:  MOVWF  x5B
086DC:  MOVLW  3C
086DE:  MOVWF  x5A
086E0:  CLRF   x5C
086E2:  MOVLW  12
086E4:  MOVWF  x5D
086E6:  MOVLW  01
086E8:  MOVWF  x5E
086EA:  MOVWF  x5F
086EC:  MOVLB  0
086EE:  CALL   3E02
....................          else 
086F2:  BRA    8738
086F4:  MOVLB  4
....................             {strcpy(Menus.Letra,"Sensor de Flujo"); 
086F6:  MOVLW  06
086F8:  MOVWF  FEA
086FA:  MOVLW  3C
086FC:  MOVWF  FE9
086FE:  MOVFF  FF2,652
08702:  BCF    FF2.7
08704:  MOVLW  00
08706:  MOVLB  0
08708:  CALL   124A
0870C:  TBLRD*-
0870E:  TBLRD*+
08710:  MOVF   FF5,W
08712:  MOVWF  FEE
08714:  IORLW  00
08716:  BNZ   870E
08718:  MOVLB  6
0871A:  BTFSC  x52.7
0871C:  BSF    FF2.7
....................             displayMenu(Menus.Letra,0,18,0,1);}  
0871E:  MOVLW  06
08720:  MOVWF  x5B
08722:  MOVLW  3C
08724:  MOVWF  x5A
08726:  CLRF   x5C
08728:  MOVLW  12
0872A:  MOVWF  x5D
0872C:  CLRF   x5E
0872E:  MOVLW  01
08730:  MOVWF  x5F
08732:  MOVLB  0
08734:  CALL   3E02
....................              
....................          if(Opcion==2)    
08738:  MOVLB  4
0873A:  MOVF   xE3,W
0873C:  SUBLW  02
0873E:  BNZ   8786
....................             {strcpy(Menus.Letra,"Sensor de Presion"); 
08740:  MOVLW  06
08742:  MOVWF  FEA
08744:  MOVLW  3C
08746:  MOVWF  FE9
08748:  MOVFF  FF2,652
0874C:  BCF    FF2.7
0874E:  MOVLW  00
08750:  MOVLB  0
08752:  CALL   1278
08756:  TBLRD*-
08758:  TBLRD*+
0875A:  MOVF   FF5,W
0875C:  MOVWF  FEE
0875E:  IORLW  00
08760:  BNZ   8758
08762:  MOVLB  6
08764:  BTFSC  x52.7
08766:  BSF    FF2.7
....................             displayMenu(Menus.Letra,0,29,1,1);} 
08768:  MOVLW  06
0876A:  MOVWF  x5B
0876C:  MOVLW  3C
0876E:  MOVWF  x5A
08770:  CLRF   x5C
08772:  MOVLW  1D
08774:  MOVWF  x5D
08776:  MOVLW  01
08778:  MOVWF  x5E
0877A:  MOVWF  x5F
0877C:  MOVLB  0
0877E:  CALL   3E02
....................          else 
08782:  BRA    87C8
08784:  MOVLB  4
....................             {strcpy(Menus.Letra,"Sensor de Presion"); 
08786:  MOVLW  06
08788:  MOVWF  FEA
0878A:  MOVLW  3C
0878C:  MOVWF  FE9
0878E:  MOVFF  FF2,652
08792:  BCF    FF2.7
08794:  MOVLW  00
08796:  MOVLB  0
08798:  CALL   1278
0879C:  TBLRD*-
0879E:  TBLRD*+
087A0:  MOVF   FF5,W
087A2:  MOVWF  FEE
087A4:  IORLW  00
087A6:  BNZ   879E
087A8:  MOVLB  6
087AA:  BTFSC  x52.7
087AC:  BSF    FF2.7
....................             displayMenu(Menus.Letra,0,29,0,1);}   
087AE:  MOVLW  06
087B0:  MOVWF  x5B
087B2:  MOVLW  3C
087B4:  MOVWF  x5A
087B6:  CLRF   x5C
087B8:  MOVLW  1D
087BA:  MOVWF  x5D
087BC:  CLRF   x5E
087BE:  MOVLW  01
087C0:  MOVWF  x5F
087C2:  MOVLB  0
087C4:  CALL   3E02
....................           
....................          if(Opcion==3)    
087C8:  MOVLB  4
087CA:  MOVF   xE3,W
087CC:  SUBLW  03
087CE:  BNZ   8816
....................             {strcpy(Menus.Letra,"Velocidad Ventilador"); 
087D0:  MOVLW  06
087D2:  MOVWF  FEA
087D4:  MOVLW  3C
087D6:  MOVWF  FE9
087D8:  MOVFF  FF2,652
087DC:  BCF    FF2.7
087DE:  MOVLW  00
087E0:  MOVLB  0
087E2:  CALL   12A8
087E6:  TBLRD*-
087E8:  TBLRD*+
087EA:  MOVF   FF5,W
087EC:  MOVWF  FEE
087EE:  IORLW  00
087F0:  BNZ   87E8
087F2:  MOVLB  6
087F4:  BTFSC  x52.7
087F6:  BSF    FF2.7
....................             displayMenu(Menus.Letra,0,40,1,1);} 
087F8:  MOVLW  06
087FA:  MOVWF  x5B
087FC:  MOVLW  3C
087FE:  MOVWF  x5A
08800:  CLRF   x5C
08802:  MOVLW  28
08804:  MOVWF  x5D
08806:  MOVLW  01
08808:  MOVWF  x5E
0880A:  MOVWF  x5F
0880C:  MOVLB  0
0880E:  CALL   3E02
....................          else 
08812:  BRA    8858
08814:  MOVLB  4
....................             {strcpy(Menus.Letra,"Velocidad Ventilador"); 
08816:  MOVLW  06
08818:  MOVWF  FEA
0881A:  MOVLW  3C
0881C:  MOVWF  FE9
0881E:  MOVFF  FF2,652
08822:  BCF    FF2.7
08824:  MOVLW  00
08826:  MOVLB  0
08828:  CALL   12A8
0882C:  TBLRD*-
0882E:  TBLRD*+
08830:  MOVF   FF5,W
08832:  MOVWF  FEE
08834:  IORLW  00
08836:  BNZ   882E
08838:  MOVLB  6
0883A:  BTFSC  x52.7
0883C:  BSF    FF2.7
....................             displayMenu(Menus.Letra,0,40,0,1);}  
0883E:  MOVLW  06
08840:  MOVWF  x5B
08842:  MOVLW  3C
08844:  MOVWF  x5A
08846:  CLRF   x5C
08848:  MOVLW  28
0884A:  MOVWF  x5D
0884C:  CLRF   x5E
0884E:  MOVLW  01
08850:  MOVWF  x5F
08852:  MOVLB  0
08854:  CALL   3E02
....................           
....................          if(Opcion==4)    
08858:  MOVLB  4
0885A:  MOVF   xE3,W
0885C:  SUBLW  04
0885E:  BNZ   88A6
....................             {strcpy(Menus.Letra,"Relacion D/I"); 
08860:  MOVLW  06
08862:  MOVWF  FEA
08864:  MOVLW  3C
08866:  MOVWF  FE9
08868:  MOVFF  FF2,652
0886C:  BCF    FF2.7
0886E:  MOVLW  00
08870:  MOVLB  0
08872:  CALL   12DC
08876:  TBLRD*-
08878:  TBLRD*+
0887A:  MOVF   FF5,W
0887C:  MOVWF  FEE
0887E:  IORLW  00
08880:  BNZ   8878
08882:  MOVLB  6
08884:  BTFSC  x52.7
08886:  BSF    FF2.7
....................             displayMenu(Menus.Letra,0,51,1,1);} 
08888:  MOVLW  06
0888A:  MOVWF  x5B
0888C:  MOVLW  3C
0888E:  MOVWF  x5A
08890:  CLRF   x5C
08892:  MOVLW  33
08894:  MOVWF  x5D
08896:  MOVLW  01
08898:  MOVWF  x5E
0889A:  MOVWF  x5F
0889C:  MOVLB  0
0889E:  CALL   3E02
....................          else 
088A2:  BRA    88E8
088A4:  MOVLB  4
....................             {strcpy(Menus.Letra,"Relacion D/I"); 
088A6:  MOVLW  06
088A8:  MOVWF  FEA
088AA:  MOVLW  3C
088AC:  MOVWF  FE9
088AE:  MOVFF  FF2,652
088B2:  BCF    FF2.7
088B4:  MOVLW  00
088B6:  MOVLB  0
088B8:  CALL   12DC
088BC:  TBLRD*-
088BE:  TBLRD*+
088C0:  MOVF   FF5,W
088C2:  MOVWF  FEE
088C4:  IORLW  00
088C6:  BNZ   88BE
088C8:  MOVLB  6
088CA:  BTFSC  x52.7
088CC:  BSF    FF2.7
....................             displayMenu(Menus.Letra,0,51,0,1);} 
088CE:  MOVLW  06
088D0:  MOVWF  x5B
088D2:  MOVLW  3C
088D4:  MOVWF  x5A
088D6:  CLRF   x5C
088D8:  MOVLW  33
088DA:  MOVWF  x5D
088DC:  CLRF   x5E
088DE:  MOVLW  01
088E0:  MOVWF  x5F
088E2:  MOVLB  0
088E4:  CALL   3E02
....................       }else{ 
088E8:  BRA    8A8A
088EA:  MOVLB  4
....................          if(Opcion==5)    
088EC:  MOVF   xE3,W
088EE:  SUBLW  05
088F0:  BNZ   8938
....................             {strcpy(Menus.Letra,"Presion Inicial "); 
088F2:  MOVLW  06
088F4:  MOVWF  FEA
088F6:  MOVLW  3C
088F8:  MOVWF  FE9
088FA:  MOVFF  FF2,652
088FE:  BCF    FF2.7
08900:  MOVLW  00
08902:  MOVLB  0
08904:  CALL   1308
08908:  TBLRD*-
0890A:  TBLRD*+
0890C:  MOVF   FF5,W
0890E:  MOVWF  FEE
08910:  IORLW  00
08912:  BNZ   890A
08914:  MOVLB  6
08916:  BTFSC  x52.7
08918:  BSF    FF2.7
....................             displayMenu(Menus.Letra,0,18,1,1);} 
0891A:  MOVLW  06
0891C:  MOVWF  x5B
0891E:  MOVLW  3C
08920:  MOVWF  x5A
08922:  CLRF   x5C
08924:  MOVLW  12
08926:  MOVWF  x5D
08928:  MOVLW  01
0892A:  MOVWF  x5E
0892C:  MOVWF  x5F
0892E:  MOVLB  0
08930:  CALL   3E02
....................          else 
08934:  BRA    897A
08936:  MOVLB  4
....................             {strcpy(Menus.Letra,"Presion Inicial "); 
08938:  MOVLW  06
0893A:  MOVWF  FEA
0893C:  MOVLW  3C
0893E:  MOVWF  FE9
08940:  MOVFF  FF2,652
08944:  BCF    FF2.7
08946:  MOVLW  00
08948:  MOVLB  0
0894A:  CALL   1308
0894E:  TBLRD*-
08950:  TBLRD*+
08952:  MOVF   FF5,W
08954:  MOVWF  FEE
08956:  IORLW  00
08958:  BNZ   8950
0895A:  MOVLB  6
0895C:  BTFSC  x52.7
0895E:  BSF    FF2.7
....................             displayMenu(Menus.Letra,0,18,0,1);}  
08960:  MOVLW  06
08962:  MOVWF  x5B
08964:  MOVLW  3C
08966:  MOVWF  x5A
08968:  CLRF   x5C
0896A:  MOVLW  12
0896C:  MOVWF  x5D
0896E:  CLRF   x5E
08970:  MOVLW  01
08972:  MOVWF  x5F
08974:  MOVLB  0
08976:  CALL   3E02
....................              
....................          if(Opcion==6)    
0897A:  MOVLB  4
0897C:  MOVF   xE3,W
0897E:  SUBLW  06
08980:  BNZ   89C8
....................             {strcpy(Menus.Letra,"Presion Final    "); 
08982:  MOVLW  06
08984:  MOVWF  FEA
08986:  MOVLW  3C
08988:  MOVWF  FE9
0898A:  MOVFF  FF2,652
0898E:  BCF    FF2.7
08990:  MOVLW  00
08992:  MOVLB  0
08994:  CALL   1338
08998:  TBLRD*-
0899A:  TBLRD*+
0899C:  MOVF   FF5,W
0899E:  MOVWF  FEE
089A0:  IORLW  00
089A2:  BNZ   899A
089A4:  MOVLB  6
089A6:  BTFSC  x52.7
089A8:  BSF    FF2.7
....................             displayMenu(Menus.Letra,0,29,1,1);} 
089AA:  MOVLW  06
089AC:  MOVWF  x5B
089AE:  MOVLW  3C
089B0:  MOVWF  x5A
089B2:  CLRF   x5C
089B4:  MOVLW  1D
089B6:  MOVWF  x5D
089B8:  MOVLW  01
089BA:  MOVWF  x5E
089BC:  MOVWF  x5F
089BE:  MOVLB  0
089C0:  CALL   3E02
....................          else 
089C4:  BRA    8A0A
089C6:  MOVLB  4
....................             {strcpy(Menus.Letra,"Presion Final    "); 
089C8:  MOVLW  06
089CA:  MOVWF  FEA
089CC:  MOVLW  3C
089CE:  MOVWF  FE9
089D0:  MOVFF  FF2,652
089D4:  BCF    FF2.7
089D6:  MOVLW  00
089D8:  MOVLB  0
089DA:  CALL   1338
089DE:  TBLRD*-
089E0:  TBLRD*+
089E2:  MOVF   FF5,W
089E4:  MOVWF  FEE
089E6:  IORLW  00
089E8:  BNZ   89E0
089EA:  MOVLB  6
089EC:  BTFSC  x52.7
089EE:  BSF    FF2.7
....................             displayMenu(Menus.Letra,0,29,0,1);}   
089F0:  MOVLW  06
089F2:  MOVWF  x5B
089F4:  MOVLW  3C
089F6:  MOVWF  x5A
089F8:  CLRF   x5C
089FA:  MOVLW  1D
089FC:  MOVWF  x5D
089FE:  CLRF   x5E
08A00:  MOVLW  01
08A02:  MOVWF  x5F
08A04:  MOVLB  0
08A06:  CALL   3E02
....................              
....................          strcpy(Menus.Letra,"                "); 
08A0A:  MOVLW  06
08A0C:  MOVWF  FEA
08A0E:  MOVLW  3C
08A10:  MOVWF  FE9
08A12:  MOVFF  FF2,652
08A16:  BCF    FF2.7
08A18:  MOVLW  00
08A1A:  CALL   1368
08A1E:  TBLRD*-
08A20:  TBLRD*+
08A22:  MOVF   FF5,W
08A24:  MOVWF  FEE
08A26:  IORLW  00
08A28:  BNZ   8A20
08A2A:  MOVLB  6
08A2C:  BTFSC  x52.7
08A2E:  BSF    FF2.7
....................          displayMenu(Menus.Letra,0,40,0,1); 
08A30:  MOVLW  06
08A32:  MOVWF  x5B
08A34:  MOVLW  3C
08A36:  MOVWF  x5A
08A38:  CLRF   x5C
08A3A:  MOVLW  28
08A3C:  MOVWF  x5D
08A3E:  CLRF   x5E
08A40:  MOVLW  01
08A42:  MOVWF  x5F
08A44:  MOVLB  0
08A46:  CALL   3E02
....................           
....................          strcpy(Menus.Letra,"                "); 
08A4A:  MOVLW  06
08A4C:  MOVWF  FEA
08A4E:  MOVLW  3C
08A50:  MOVWF  FE9
08A52:  MOVFF  FF2,652
08A56:  BCF    FF2.7
08A58:  MOVLW  00
08A5A:  CALL   1368
08A5E:  TBLRD*-
08A60:  TBLRD*+
08A62:  MOVF   FF5,W
08A64:  MOVWF  FEE
08A66:  IORLW  00
08A68:  BNZ   8A60
08A6A:  MOVLB  6
08A6C:  BTFSC  x52.7
08A6E:  BSF    FF2.7
....................          displayMenu(Menus.Letra,0,51,0,1); 
08A70:  MOVLW  06
08A72:  MOVWF  x5B
08A74:  MOVLW  3C
08A76:  MOVWF  x5A
08A78:  CLRF   x5C
08A7A:  MOVLW  33
08A7C:  MOVWF  x5D
08A7E:  CLRF   x5E
08A80:  MOVLW  01
08A82:  MOVWF  x5F
08A84:  MOVLB  0
08A86:  CALL   3E02
....................       } 
....................          
....................       if(UP)//Si oprime hacia arriba 
08A8A:  BSF    F92.4
08A8C:  BTFSC  F80.4
08A8E:  BRA    8AAA
....................       {  if(Flanco == 0)  
08A90:  MOVLB  4
08A92:  BTFSC  x1A.0
08A94:  BRA    8AA8
....................             {Flanco = 1;delay_ms(30);Opcion--; 
08A96:  BSF    x1A.0
08A98:  MOVLW  1E
08A9A:  MOVLB  6
08A9C:  MOVWF  x5B
08A9E:  MOVLB  0
08AA0:  CALL   16D4
08AA4:  MOVLB  4
08AA6:  DECF   xE3,F
....................             } 
....................       } 
....................          else 
08AA8:  BRA    8AAE
....................             {Flanco = 0;} 
08AAA:  MOVLB  4
08AAC:  BCF    x1A.0
....................              
....................       if(DOWN)//Si oprime hacia abajo 
08AAE:  BSF    F92.5
08AB0:  BTFSC  F80.5
08AB2:  BRA    8ACC
....................       {  if(Flanco2 == 0)  
08AB4:  BTFSC  x1A.2
08AB6:  BRA    8ACA
....................             {Flanco2 = 1;delay_ms(30);Opcion++; 
08AB8:  BSF    x1A.2
08ABA:  MOVLW  1E
08ABC:  MOVLB  6
08ABE:  MOVWF  x5B
08AC0:  MOVLB  0
08AC2:  CALL   16D4
08AC6:  MOVLB  4
08AC8:  INCF   xE3,F
....................             }      
....................       } 
....................          else 
08ACA:  BRA    8ACE
....................             {Flanco2 = 0;}   
08ACC:  BCF    x1A.2
....................              
....................       if(RIGHT)//Si oprime SET 
08ACE:  BSF    F96.0
08AD0:  BTFSC  F84.0
08AD2:  BRA    8B64
....................       {   
....................          delay_ms(20); 
08AD4:  MOVLW  14
08AD6:  MOVLB  6
08AD8:  MOVWF  x5B
08ADA:  MOVLB  0
08ADC:  CALL   16D4
....................          if(RIGHT){ 
08AE0:  BSF    F96.0
08AE2:  BTFSC  F84.0
08AE4:  BRA    8B66
....................             delay_ms(100); 
08AE6:  MOVLW  64
08AE8:  MOVLB  6
08AEA:  MOVWF  x5B
08AEC:  MOVLB  0
08AEE:  CALL   16D4
....................             glcd_fillScreen(OFF); 
08AF2:  MOVLB  6
08AF4:  CLRF   x5A
08AF6:  MOVLB  0
08AF8:  CALL   2EE4
....................             while(!PidePassword(6,32,Opcion+40,4,4,4,4)){ 
08AFC:  MOVLW  28
08AFE:  MOVLB  4
08B00:  ADDWF  xE3,W
08B02:  MOVLB  6
08B04:  MOVWF  x52
08B06:  MOVLW  06
08B08:  MOVWF  x53
08B0A:  MOVLW  20
08B0C:  MOVWF  x54
08B0E:  MOVFF  652,655
08B12:  MOVLW  04
08B14:  MOVWF  x56
08B16:  MOVWF  x57
08B18:  MOVWF  x58
08B1A:  MOVWF  x59
08B1C:  MOVLB  0
08B1E:  CALL   3ECE
08B22:  MOVF   01,F
08B24:  BNZ   8B52
....................                PidePassword(6,32,Opcion+40,4,4,4,4);glcd_update(); 
08B26:  MOVLW  28
08B28:  MOVLB  4
08B2A:  ADDWF  xE3,W
08B2C:  MOVLB  6
08B2E:  MOVWF  x52
08B30:  MOVLW  06
08B32:  MOVWF  x53
08B34:  MOVLW  20
08B36:  MOVWF  x54
08B38:  MOVFF  652,655
08B3C:  MOVLW  04
08B3E:  MOVWF  x56
08B40:  MOVWF  x57
08B42:  MOVWF  x58
08B44:  MOVWF  x59
08B46:  MOVLB  0
08B48:  CALL   3ECE
08B4C:  CALL   2F3E
....................             }             
08B50:  BRA    8AFC
....................             glcd_fillScreen(OFF);Opcion=1;unidad=1; 
08B52:  MOVLB  6
08B54:  CLRF   x5A
08B56:  MOVLB  0
08B58:  CALL   2EE4
08B5C:  MOVLW  01
08B5E:  MOVLB  4
08B60:  MOVWF  xE3
08B62:  MOVWF  xE2
08B64:  MOVLB  0
....................          } 
....................       } 
....................              
....................       if(LEFT)//Si oprime boton de Toma. 
08B66:  BSF    F96.1
08B68:  BTFSC  F84.1
08B6A:  BRA    8B9A
....................         {delay_ms(700);Menu=6;glcd_fillscreen(OFF);Opcion=1;unidad=1;} 
08B6C:  MOVLW  04
08B6E:  MOVLB  6
08B70:  MOVWF  x52
08B72:  MOVLW  AF
08B74:  MOVWF  x5B
08B76:  MOVLB  0
08B78:  CALL   16D4
08B7C:  MOVLB  6
08B7E:  DECFSZ x52,F
08B80:  BRA    8B72
08B82:  MOVLW  06
08B84:  MOVLB  4
08B86:  MOVWF  xE1
08B88:  MOVLB  6
08B8A:  CLRF   x5A
08B8C:  MOVLB  0
08B8E:  CALL   2EE4
08B92:  MOVLW  01
08B94:  MOVLB  4
08B96:  MOVWF  xE3
08B98:  MOVWF  xE2
....................          
....................       if(Opcion>6) 
08B9A:  MOVLB  4
08B9C:  MOVF   xE3,W
08B9E:  SUBLW  06
08BA0:  BC    8BA6
....................       {Opcion=1;} 
08BA2:  MOVLW  01
08BA4:  MOVWF  xE3
....................       if(Opcion<1) 
08BA6:  MOVF   xE3,F
08BA8:  BNZ   8BAE
....................       {Opcion=6;} 
08BAA:  MOVLW  06
08BAC:  MOVWF  xE3
....................     } 
.................... //_--------------------------------------------------------------------------------------------------------------------------------------------------------        
....................  
.................... //_-------------------------------------------------------------------------------------------------------------------------------------------------------- 
....................       if(Menu==33){ //Menu de Apagado de Cabina. 
08BAE:  MOVF   xE1,W
08BB0:  SUBLW  21
08BB2:  BTFSS  FD8.2
08BB4:  BRA    902E
....................        
....................       strcpy(Menus.Letra,"  Apagar?"); 
08BB6:  MOVLW  06
08BB8:  MOVWF  FEA
08BBA:  MOVLW  3C
08BBC:  MOVWF  FE9
08BBE:  MOVFF  FF2,652
08BC2:  BCF    FF2.7
08BC4:  MOVLW  00
08BC6:  MOVLB  0
08BC8:  CALL   1398
08BCC:  TBLRD*-
08BCE:  TBLRD*+
08BD0:  MOVF   FF5,W
08BD2:  MOVWF  FEE
08BD4:  IORLW  00
08BD6:  BNZ   8BCE
08BD8:  MOVLB  6
08BDA:  BTFSC  x52.7
08BDC:  BSF    FF2.7
....................       displayMenu(Menus.Letra,10,0,1,2); 
08BDE:  MOVLW  06
08BE0:  MOVWF  x5B
08BE2:  MOVLW  3C
08BE4:  MOVWF  x5A
08BE6:  MOVLW  0A
08BE8:  MOVWF  x5C
08BEA:  CLRF   x5D
08BEC:  MOVLW  01
08BEE:  MOVWF  x5E
08BF0:  MOVLW  02
08BF2:  MOVWF  x5F
08BF4:  MOVLB  0
08BF6:  CALL   3E02
....................        
....................       if(unidad==1) 
08BFA:  MOVLB  4
08BFC:  DECFSZ xE2,W
08BFE:  BRA    8C8C
....................       {strcpy(Menus.Letra,"SI"); 
08C00:  MOVLW  06
08C02:  MOVWF  FEA
08C04:  MOVLW  3C
08C06:  MOVWF  FE9
08C08:  MOVFF  FF2,652
08C0C:  BCF    FF2.7
08C0E:  MOVLW  00
08C10:  MOVLB  0
08C12:  CALL   13C0
08C16:  TBLRD*-
08C18:  TBLRD*+
08C1A:  MOVF   FF5,W
08C1C:  MOVWF  FEE
08C1E:  IORLW  00
08C20:  BNZ   8C18
08C22:  MOVLB  6
08C24:  BTFSC  x52.7
08C26:  BSF    FF2.7
....................       displayMenu(Menus.Letra,50,25,1,2); 
08C28:  MOVLW  06
08C2A:  MOVWF  x5B
08C2C:  MOVLW  3C
08C2E:  MOVWF  x5A
08C30:  MOVLW  32
08C32:  MOVWF  x5C
08C34:  MOVLW  19
08C36:  MOVWF  x5D
08C38:  MOVLW  01
08C3A:  MOVWF  x5E
08C3C:  MOVLW  02
08C3E:  MOVWF  x5F
08C40:  MOVLB  0
08C42:  CALL   3E02
....................       strcpy(Menus.Letra,"NO"); 
08C46:  MOVLW  06
08C48:  MOVWF  FEA
08C4A:  MOVLW  3C
08C4C:  MOVWF  FE9
08C4E:  MOVFF  FF2,652
08C52:  BCF    FF2.7
08C54:  MOVLW  00
08C56:  CALL   13E2
08C5A:  TBLRD*-
08C5C:  TBLRD*+
08C5E:  MOVF   FF5,W
08C60:  MOVWF  FEE
08C62:  IORLW  00
08C64:  BNZ   8C5C
08C66:  MOVLB  6
08C68:  BTFSC  x52.7
08C6A:  BSF    FF2.7
....................       displayMenu(Menus.Letra,50,45,0,2);} 
08C6C:  MOVLW  06
08C6E:  MOVWF  x5B
08C70:  MOVLW  3C
08C72:  MOVWF  x5A
08C74:  MOVLW  32
08C76:  MOVWF  x5C
08C78:  MOVLW  2D
08C7A:  MOVWF  x5D
08C7C:  CLRF   x5E
08C7E:  MOVLW  02
08C80:  MOVWF  x5F
08C82:  MOVLB  0
08C84:  CALL   3E02
....................       else 
08C88:  BRA    8D14
08C8A:  MOVLB  4
....................       {strcpy(Menus.Letra,"SI"); 
08C8C:  MOVLW  06
08C8E:  MOVWF  FEA
08C90:  MOVLW  3C
08C92:  MOVWF  FE9
08C94:  MOVFF  FF2,652
08C98:  BCF    FF2.7
08C9A:  MOVLW  00
08C9C:  MOVLB  0
08C9E:  CALL   13C0
08CA2:  TBLRD*-
08CA4:  TBLRD*+
08CA6:  MOVF   FF5,W
08CA8:  MOVWF  FEE
08CAA:  IORLW  00
08CAC:  BNZ   8CA4
08CAE:  MOVLB  6
08CB0:  BTFSC  x52.7
08CB2:  BSF    FF2.7
....................       displayMenu(Menus.Letra,50,25,0,2); 
08CB4:  MOVLW  06
08CB6:  MOVWF  x5B
08CB8:  MOVLW  3C
08CBA:  MOVWF  x5A
08CBC:  MOVLW  32
08CBE:  MOVWF  x5C
08CC0:  MOVLW  19
08CC2:  MOVWF  x5D
08CC4:  CLRF   x5E
08CC6:  MOVLW  02
08CC8:  MOVWF  x5F
08CCA:  MOVLB  0
08CCC:  CALL   3E02
....................       strcpy(Menus.Letra,"NO"); 
08CD0:  MOVLW  06
08CD2:  MOVWF  FEA
08CD4:  MOVLW  3C
08CD6:  MOVWF  FE9
08CD8:  MOVFF  FF2,652
08CDC:  BCF    FF2.7
08CDE:  MOVLW  00
08CE0:  CALL   13E2
08CE4:  TBLRD*-
08CE6:  TBLRD*+
08CE8:  MOVF   FF5,W
08CEA:  MOVWF  FEE
08CEC:  IORLW  00
08CEE:  BNZ   8CE6
08CF0:  MOVLB  6
08CF2:  BTFSC  x52.7
08CF4:  BSF    FF2.7
....................       displayMenu(Menus.Letra,50,45,1,2);} 
08CF6:  MOVLW  06
08CF8:  MOVWF  x5B
08CFA:  MOVLW  3C
08CFC:  MOVWF  x5A
08CFE:  MOVLW  32
08D00:  MOVWF  x5C
08D02:  MOVLW  2D
08D04:  MOVWF  x5D
08D06:  MOVLW  01
08D08:  MOVWF  x5E
08D0A:  MOVLW  02
08D0C:  MOVWF  x5F
08D0E:  MOVLB  0
08D10:  CALL   3E02
....................        
....................        
....................          
....................       if(UP)//Si oprime hacia arriba 
08D14:  BSF    F92.4
08D16:  BTFSC  F80.4
08D18:  BRA    8D2C
....................       {   
....................          delay_ms(90);unidad++; 
08D1A:  MOVLW  5A
08D1C:  MOVLB  6
08D1E:  MOVWF  x5B
08D20:  MOVLB  0
08D22:  CALL   16D4
08D26:  MOVLB  4
08D28:  INCF   xE2,F
08D2A:  MOVLB  0
....................       } 
....................              
....................       if(DOWN)//Si oprime hacia abajo 
08D2C:  BSF    F92.5
08D2E:  BTFSC  F80.5
08D30:  BRA    8D44
....................       { 
....................          delay_ms(90);unidad--; 
08D32:  MOVLW  5A
08D34:  MOVLB  6
08D36:  MOVWF  x5B
08D38:  MOVLB  0
08D3A:  CALL   16D4
08D3E:  MOVLB  4
08D40:  DECF   xE2,F
08D42:  MOVLB  0
....................       } 
....................              
....................       if(RIGHT)//Si oprime SET 
08D44:  BSF    F96.0
08D46:  BTFSC  F84.0
08D48:  BRA    8FF0
....................       { 
....................          Flanco1 = 1;delay_ms(30); 
08D4A:  MOVLB  4
08D4C:  BSF    x1A.1
08D4E:  MOVLW  1E
08D50:  MOVLB  6
08D52:  MOVWF  x5B
08D54:  MOVLB  0
08D56:  CALL   16D4
....................          if(unidad==1) 
08D5A:  MOVLB  4
08D5C:  DECFSZ xE2,W
08D5E:  BRA    8FE2
....................          {Menu=120;glcd_fillscreen(OFF); 
08D60:  MOVLW  78
08D62:  MOVWF  xE1
08D64:  MOVLB  6
08D66:  CLRF   x5A
08D68:  MOVLB  0
08D6A:  CALL   2EE4
....................             write_eeprom(33,make8(minutos_trabajo,0)); 
08D6E:  MOVFF  504,652
08D72:  CLRF   FAA
08D74:  MOVLW  21
08D76:  MOVWF  FA9
08D78:  MOVFF  652,FA8
08D7C:  BCF    FA6.6
08D7E:  BCF    FA6.7
08D80:  BSF    FA6.2
08D82:  MOVF   FF2,W
08D84:  MOVWF  00
08D86:  BCF    FF2.7
08D88:  MOVLB  F
08D8A:  MOVLW  55
08D8C:  MOVWF  FA7
08D8E:  MOVLW  AA
08D90:  MOVWF  FA7
08D92:  BSF    FA6.1
08D94:  BTFSC  FA6.1
08D96:  BRA    8D94
08D98:  BCF    FA6.2
08D9A:  MOVF   00,W
08D9C:  IORWF  FF2,F
....................             delay_ms(20); 
08D9E:  MOVLW  14
08DA0:  MOVLB  6
08DA2:  MOVWF  x5B
08DA4:  MOVLB  0
08DA6:  CALL   16D4
....................             write_eeprom(34,make8(minutos_trabajo,1)); 
08DAA:  MOVFF  505,652
08DAE:  CLRF   FAA
08DB0:  MOVLW  22
08DB2:  MOVWF  FA9
08DB4:  MOVFF  652,FA8
08DB8:  BCF    FA6.6
08DBA:  BCF    FA6.7
08DBC:  BSF    FA6.2
08DBE:  MOVF   FF2,W
08DC0:  MOVWF  00
08DC2:  BCF    FF2.7
08DC4:  MOVLB  F
08DC6:  MOVLW  55
08DC8:  MOVWF  FA7
08DCA:  MOVLW  AA
08DCC:  MOVWF  FA7
08DCE:  BSF    FA6.1
08DD0:  BTFSC  FA6.1
08DD2:  BRA    8DD0
08DD4:  BCF    FA6.2
08DD6:  MOVF   00,W
08DD8:  IORWF  FF2,F
....................             delay_ms(20); 
08DDA:  MOVLW  14
08DDC:  MOVLB  6
08DDE:  MOVWF  x5B
08DE0:  MOVLB  0
08DE2:  CALL   16D4
....................             write_eeprom(16,Ttrabajo[0]); 
08DE6:  CLRF   FAA
08DE8:  MOVLW  10
08DEA:  MOVWF  FA9
08DEC:  MOVFF  524,FA8
08DF0:  BCF    FA6.6
08DF2:  BCF    FA6.7
08DF4:  BSF    FA6.2
08DF6:  MOVF   FF2,W
08DF8:  MOVWF  00
08DFA:  BCF    FF2.7
08DFC:  MOVLB  F
08DFE:  MOVLW  55
08E00:  MOVWF  FA7
08E02:  MOVLW  AA
08E04:  MOVWF  FA7
08E06:  BSF    FA6.1
08E08:  BTFSC  FA6.1
08E0A:  BRA    8E08
08E0C:  BCF    FA6.2
08E0E:  MOVF   00,W
08E10:  IORWF  FF2,F
....................             delay_ms(20); 
08E12:  MOVLW  14
08E14:  MOVLB  6
08E16:  MOVWF  x5B
08E18:  MOVLB  0
08E1A:  CALL   16D4
....................             write_eeprom(17,Ttrabajo[1]); 
08E1E:  CLRF   FAA
08E20:  MOVLW  11
08E22:  MOVWF  FA9
08E24:  MOVFF  525,FA8
08E28:  BCF    FA6.6
08E2A:  BCF    FA6.7
08E2C:  BSF    FA6.2
08E2E:  MOVF   FF2,W
08E30:  MOVWF  00
08E32:  BCF    FF2.7
08E34:  MOVLB  F
08E36:  MOVLW  55
08E38:  MOVWF  FA7
08E3A:  MOVLW  AA
08E3C:  MOVWF  FA7
08E3E:  BSF    FA6.1
08E40:  BTFSC  FA6.1
08E42:  BRA    8E40
08E44:  BCF    FA6.2
08E46:  MOVF   00,W
08E48:  IORWF  FF2,F
....................             delay_ms(20); 
08E4A:  MOVLW  14
08E4C:  MOVLB  6
08E4E:  MOVWF  x5B
08E50:  MOVLB  0
08E52:  CALL   16D4
....................             write_eeprom(18,Ttrabajo[2]); 
08E56:  CLRF   FAA
08E58:  MOVLW  12
08E5A:  MOVWF  FA9
08E5C:  MOVFF  526,FA8
08E60:  BCF    FA6.6
08E62:  BCF    FA6.7
08E64:  BSF    FA6.2
08E66:  MOVF   FF2,W
08E68:  MOVWF  00
08E6A:  BCF    FF2.7
08E6C:  MOVLB  F
08E6E:  MOVLW  55
08E70:  MOVWF  FA7
08E72:  MOVLW  AA
08E74:  MOVWF  FA7
08E76:  BSF    FA6.1
08E78:  BTFSC  FA6.1
08E7A:  BRA    8E78
08E7C:  BCF    FA6.2
08E7E:  MOVF   00,W
08E80:  IORWF  FF2,F
....................             delay_ms(20); 
08E82:  MOVLW  14
08E84:  MOVLB  6
08E86:  MOVWF  x5B
08E88:  MOVLB  0
08E8A:  CALL   16D4
....................             write_eeprom(19,Ttrabajo[3]); 
08E8E:  CLRF   FAA
08E90:  MOVLW  13
08E92:  MOVWF  FA9
08E94:  MOVFF  527,FA8
08E98:  BCF    FA6.6
08E9A:  BCF    FA6.7
08E9C:  BSF    FA6.2
08E9E:  MOVF   FF2,W
08EA0:  MOVWF  00
08EA2:  BCF    FF2.7
08EA4:  MOVLB  F
08EA6:  MOVLW  55
08EA8:  MOVWF  FA7
08EAA:  MOVLW  AA
08EAC:  MOVWF  FA7
08EAE:  BSF    FA6.1
08EB0:  BTFSC  FA6.1
08EB2:  BRA    8EB0
08EB4:  BCF    FA6.2
08EB6:  MOVF   00,W
08EB8:  IORWF  FF2,F
....................             delay_ms(20); 
08EBA:  MOVLW  14
08EBC:  MOVLB  6
08EBE:  MOVWF  x5B
08EC0:  MOVLB  0
08EC2:  CALL   16D4
....................             write_eeprom(31,minutos_uv); 
08EC6:  CLRF   FAA
08EC8:  MOVLW  1F
08ECA:  MOVWF  FA9
08ECC:  MOVFF  4E9,FA8
08ED0:  BCF    FA6.6
08ED2:  BCF    FA6.7
08ED4:  BSF    FA6.2
08ED6:  MOVF   FF2,W
08ED8:  MOVWF  00
08EDA:  BCF    FF2.7
08EDC:  MOVLB  F
08EDE:  MOVLW  55
08EE0:  MOVWF  FA7
08EE2:  MOVLW  AA
08EE4:  MOVWF  FA7
08EE6:  BSF    FA6.1
08EE8:  BTFSC  FA6.1
08EEA:  BRA    8EE8
08EEC:  BCF    FA6.2
08EEE:  MOVF   00,W
08EF0:  IORWF  FF2,F
....................             delay_ms(20); 
08EF2:  MOVLW  14
08EF4:  MOVLB  6
08EF6:  MOVWF  x5B
08EF8:  MOVLB  0
08EFA:  CALL   16D4
....................             write_eeprom(12,Tuv[0]); 
08EFE:  CLRF   FAA
08F00:  MOVLW  0C
08F02:  MOVWF  FA9
08F04:  MOVFF  518,FA8
08F08:  BCF    FA6.6
08F0A:  BCF    FA6.7
08F0C:  BSF    FA6.2
08F0E:  MOVF   FF2,W
08F10:  MOVWF  00
08F12:  BCF    FF2.7
08F14:  MOVLB  F
08F16:  MOVLW  55
08F18:  MOVWF  FA7
08F1A:  MOVLW  AA
08F1C:  MOVWF  FA7
08F1E:  BSF    FA6.1
08F20:  BTFSC  FA6.1
08F22:  BRA    8F20
08F24:  BCF    FA6.2
08F26:  MOVF   00,W
08F28:  IORWF  FF2,F
....................             delay_ms(20); 
08F2A:  MOVLW  14
08F2C:  MOVLB  6
08F2E:  MOVWF  x5B
08F30:  MOVLB  0
08F32:  CALL   16D4
....................             write_eeprom(13,Tuv[1]); 
08F36:  CLRF   FAA
08F38:  MOVLW  0D
08F3A:  MOVWF  FA9
08F3C:  MOVFF  519,FA8
08F40:  BCF    FA6.6
08F42:  BCF    FA6.7
08F44:  BSF    FA6.2
08F46:  MOVF   FF2,W
08F48:  MOVWF  00
08F4A:  BCF    FF2.7
08F4C:  MOVLB  F
08F4E:  MOVLW  55
08F50:  MOVWF  FA7
08F52:  MOVLW  AA
08F54:  MOVWF  FA7
08F56:  BSF    FA6.1
08F58:  BTFSC  FA6.1
08F5A:  BRA    8F58
08F5C:  BCF    FA6.2
08F5E:  MOVF   00,W
08F60:  IORWF  FF2,F
....................             delay_ms(20); 
08F62:  MOVLW  14
08F64:  MOVLB  6
08F66:  MOVWF  x5B
08F68:  MOVLB  0
08F6A:  CALL   16D4
....................             write_eeprom(14,Tuv[2]); 
08F6E:  CLRF   FAA
08F70:  MOVLW  0E
08F72:  MOVWF  FA9
08F74:  MOVFF  51A,FA8
08F78:  BCF    FA6.6
08F7A:  BCF    FA6.7
08F7C:  BSF    FA6.2
08F7E:  MOVF   FF2,W
08F80:  MOVWF  00
08F82:  BCF    FF2.7
08F84:  MOVLB  F
08F86:  MOVLW  55
08F88:  MOVWF  FA7
08F8A:  MOVLW  AA
08F8C:  MOVWF  FA7
08F8E:  BSF    FA6.1
08F90:  BTFSC  FA6.1
08F92:  BRA    8F90
08F94:  BCF    FA6.2
08F96:  MOVF   00,W
08F98:  IORWF  FF2,F
....................             delay_ms(20); 
08F9A:  MOVLW  14
08F9C:  MOVLB  6
08F9E:  MOVWF  x5B
08FA0:  MOVLB  0
08FA2:  CALL   16D4
....................             write_eeprom(15,Tuv[3]); 
08FA6:  CLRF   FAA
08FA8:  MOVLW  0F
08FAA:  MOVWF  FA9
08FAC:  MOVFF  51B,FA8
08FB0:  BCF    FA6.6
08FB2:  BCF    FA6.7
08FB4:  BSF    FA6.2
08FB6:  MOVF   FF2,W
08FB8:  MOVWF  00
08FBA:  BCF    FF2.7
08FBC:  MOVLB  F
08FBE:  MOVLW  55
08FC0:  MOVWF  FA7
08FC2:  MOVLW  AA
08FC4:  MOVWF  FA7
08FC6:  BSF    FA6.1
08FC8:  BTFSC  FA6.1
08FCA:  BRA    8FC8
08FCC:  BCF    FA6.2
08FCE:  MOVF   00,W
08FD0:  IORWF  FF2,F
....................             delay_ms(20); 
08FD2:  MOVLW  14
08FD4:  MOVLB  6
08FD6:  MOVWF  x5B
08FD8:  MOVLB  0
08FDA:  CALL   16D4
....................          } 
....................          else 
08FDE:  BRA    8FF0
08FE0:  MOVLB  4
....................          {Menu=2;glcd_fillscreen(OFF);}  
08FE2:  MOVLW  02
08FE4:  MOVWF  xE1
08FE6:  MOVLB  6
08FE8:  CLRF   x5A
08FEA:  MOVLB  0
08FEC:  CALL   2EE4
....................           
....................       } 
....................              
....................       if(LEFT)//Si oprime boton de Toma. 
08FF0:  BSF    F96.1
08FF2:  BTFSC  F84.1
08FF4:  BRA    901A
....................       { 
....................          delay_ms(30);Menu=6;glcd_fillscreen(OFF);Opcion=1;unidad=1; 
08FF6:  MOVLW  1E
08FF8:  MOVLB  6
08FFA:  MOVWF  x5B
08FFC:  MOVLB  0
08FFE:  CALL   16D4
09002:  MOVLW  06
09004:  MOVLB  4
09006:  MOVWF  xE1
09008:  MOVLB  6
0900A:  CLRF   x5A
0900C:  MOVLB  0
0900E:  CALL   2EE4
09012:  MOVLW  01
09014:  MOVLB  4
09016:  MOVWF  xE3
09018:  MOVWF  xE2
....................       } 
....................        
....................       if(unidad>2) 
0901A:  MOVLB  4
0901C:  MOVF   xE2,W
0901E:  SUBLW  02
09020:  BC    9026
....................       {unidad=1;} 
09022:  MOVLW  01
09024:  MOVWF  xE2
....................       if(unidad<1) 
09026:  MOVF   xE2,F
09028:  BNZ   902E
....................       {unidad=2;} 
0902A:  MOVLW  02
0902C:  MOVWF  xE2
....................      
....................     } 
.................... //_--------------------------------------------------------------------------------------------------------------------------------------------------------        
....................  
.................... //_-------------------------------------------------------------------------------------------------------------------------------------------------------- 
....................       if(Menu==41){ //Menu de Sensor de Flujo. 
0902E:  MOVF   xE1,W
09030:  SUBLW  29
09032:  BTFSS  FD8.2
09034:  BRA    95F8
....................        
....................       if(Ajuste1>10.0) 
09036:  MOVLB  6
09038:  CLRF   x5A
0903A:  CLRF   x59
0903C:  MOVLW  20
0903E:  MOVWF  x58
09040:  MOVLW  82
09042:  MOVWF  x57
09044:  MOVFF  563,65E
09048:  MOVFF  562,65D
0904C:  MOVFF  561,65C
09050:  MOVFF  560,65B
09054:  MOVLB  0
09056:  CALL   23B2
0905A:  BNC   9068
....................          Ajuste1=0.0; 
0905C:  MOVLB  5
0905E:  CLRF   x63
09060:  CLRF   x62
09062:  CLRF   x61
09064:  CLRF   x60
09066:  MOVLB  0
....................        
....................       strcpy(Menus.Letra,"Sensor de Flujo"); 
09068:  MOVLW  06
0906A:  MOVWF  FEA
0906C:  MOVLW  3C
0906E:  MOVWF  FE9
09070:  MOVFF  FF2,652
09074:  BCF    FF2.7
09076:  MOVLW  00
09078:  CALL   124A
0907C:  TBLRD*-
0907E:  TBLRD*+
09080:  MOVF   FF5,W
09082:  MOVWF  FEE
09084:  IORLW  00
09086:  BNZ   907E
09088:  MOVLB  6
0908A:  BTFSC  x52.7
0908C:  BSF    FF2.7
....................       displayMenu(Menus.Letra,10,0,1,1); 
0908E:  MOVLW  06
09090:  MOVWF  x5B
09092:  MOVLW  3C
09094:  MOVWF  x5A
09096:  MOVLW  0A
09098:  MOVWF  x5C
0909A:  CLRF   x5D
0909C:  MOVLW  01
0909E:  MOVWF  x5E
090A0:  MOVWF  x5F
090A2:  MOVLB  0
090A4:  CALL   3E02
....................        
....................       glcd_text57(0, 12, ZF, 1, ON); 
090A8:  MOVLB  6
090AA:  CLRF   x6B
090AC:  MOVLW  0C
090AE:  MOVWF  x6C
090B0:  MOVLW  04
090B2:  MOVWF  x6E
090B4:  MOVLW  8F
090B6:  MOVWF  x6D
090B8:  MOVLW  01
090BA:  MOVWF  x6F
090BC:  MOVWF  x70
090BE:  MOVLB  0
090C0:  CALL   3B94
....................        
....................       glcd_text57(0, 20, ZA, 1, ON); 
090C4:  MOVLB  6
090C6:  CLRF   x6B
090C8:  MOVLW  14
090CA:  MOVWF  x6C
090CC:  MOVLW  04
090CE:  MOVWF  x6E
090D0:  MOVLW  9D
090D2:  MOVWF  x6D
090D4:  MOVLW  01
090D6:  MOVWF  x6F
090D8:  MOVWF  x70
090DA:  MOVLB  0
090DC:  CALL   3B94
....................        
....................       glcd_text57(0, 30, AJ, 1, ON);            
090E0:  MOVLB  6
090E2:  CLRF   x6B
090E4:  MOVLW  1E
090E6:  MOVWF  x6C
090E8:  MOVLW  04
090EA:  MOVWF  x6E
090EC:  MOVLW  A5
090EE:  MOVWF  x6D
090F0:  MOVLW  01
090F2:  MOVWF  x6F
090F4:  MOVWF  x70
090F6:  MOVLB  0
090F8:  CALL   3B94
....................        
....................       displayfloat(zero_actual,44,20,0,1); 
090FC:  MOVFF  5D7,659
09100:  MOVFF  5D6,658
09104:  MOVFF  5D5,657
09108:  MOVFF  5D4,656
0910C:  MOVLW  2C
0910E:  MOVLB  6
09110:  MOVWF  x5A
09112:  MOVLW  14
09114:  MOVWF  x5B
09116:  CLRF   x5C
09118:  MOVLW  01
0911A:  MOVWF  x5D
0911C:  MOVLB  0
0911E:  CALL   4CE2
....................       displayfloat(Ajuste1,44,30,0,1); 
09122:  MOVFF  563,659
09126:  MOVFF  562,658
0912A:  MOVFF  561,657
0912E:  MOVFF  560,656
09132:  MOVLW  2C
09134:  MOVLB  6
09136:  MOVWF  x5A
09138:  MOVLW  1E
0913A:  MOVWF  x5B
0913C:  CLRF   x5C
0913E:  MOVLW  01
09140:  MOVWF  x5D
09142:  MOVLB  0
09144:  CALL   4CE2
....................       displayfloat(Inflow_adc,0,40,0,1); 
09148:  MOVFF  4FB,658
0914C:  MOVFF  4FA,657
09150:  CALL   16FC
09154:  MOVFF  00,652
09158:  MOVFF  01,653
0915C:  MOVFF  02,654
09160:  MOVFF  03,655
09164:  MOVFF  03,659
09168:  MOVFF  02,658
0916C:  MOVFF  01,657
09170:  MOVFF  00,656
09174:  MOVLB  6
09176:  CLRF   x5A
09178:  MOVLW  28
0917A:  MOVWF  x5B
0917C:  CLRF   x5C
0917E:  MOVLW  01
09180:  MOVWF  x5D
09182:  MOVLB  0
09184:  CALL   4CE2
.................... //      displayfloat(Diferencia,0,50,0,1); 
....................        
....................       if(UP)//Si oprime hacia arriba 
09188:  BSF    F92.4
0918A:  BTFSC  F80.4
0918C:  BRA    91D4
....................       {   
....................          delay_ms(30);Ajuste1+=0.01; 
0918E:  MOVLW  1E
09190:  MOVLB  6
09192:  MOVWF  x5B
09194:  MOVLB  0
09196:  CALL   16D4
0919A:  BCF    FD8.1
0919C:  MOVFF  563,65E
091A0:  MOVFF  562,65D
091A4:  MOVFF  561,65C
091A8:  MOVFF  560,65B
091AC:  MOVLW  0A
091AE:  MOVLB  6
091B0:  MOVWF  x62
091B2:  MOVLW  D7
091B4:  MOVWF  x61
091B6:  MOVLW  23
091B8:  MOVWF  x60
091BA:  MOVLW  78
091BC:  MOVWF  x5F
091BE:  MOVLB  0
091C0:  CALL   1890
091C4:  MOVFF  03,563
091C8:  MOVFF  02,562
091CC:  MOVFF  01,561
091D0:  MOVFF  00,560
....................       } 
....................              
....................       if(DOWN)//Si oprime hacia abajo 
091D4:  BSF    F92.5
091D6:  BTFSC  F80.5
091D8:  BRA    9220
....................       {    
....................          delay_ms(30);Ajuste1-=0.01; 
091DA:  MOVLW  1E
091DC:  MOVLB  6
091DE:  MOVWF  x5B
091E0:  MOVLB  0
091E2:  CALL   16D4
091E6:  BSF    FD8.1
091E8:  MOVFF  563,65E
091EC:  MOVFF  562,65D
091F0:  MOVFF  561,65C
091F4:  MOVFF  560,65B
091F8:  MOVLW  0A
091FA:  MOVLB  6
091FC:  MOVWF  x62
091FE:  MOVLW  D7
09200:  MOVWF  x61
09202:  MOVLW  23
09204:  MOVWF  x60
09206:  MOVLW  78
09208:  MOVWF  x5F
0920A:  MOVLB  0
0920C:  CALL   1890
09210:  MOVFF  03,563
09214:  MOVFF  02,562
09218:  MOVFF  01,561
0921C:  MOVFF  00,560
....................       } 
....................              
....................       if(RIGHT)//Si oprime SET 
09220:  BSF    F96.0
09222:  BTFSC  F84.0
09224:  BRA    9492
....................       {   
....................          zero_actual=Inflow_adc; 
09226:  MOVFF  4FB,658
0922A:  MOVFF  4FA,657
0922E:  CALL   16FC
09232:  MOVFF  03,5D7
09236:  MOVFF  02,5D6
0923A:  MOVFF  01,5D5
0923E:  MOVFF  00,5D4
....................          Diferencia=zero_fabrica-Inflow_adc; 
09242:  MOVFF  4FB,658
09246:  MOVFF  4FA,657
0924A:  CALL   16FC
0924E:  BSF    FD8.1
09250:  MOVFF  5D3,65E
09254:  MOVFF  5D2,65D
09258:  MOVFF  5D1,65C
0925C:  MOVFF  5D0,65B
09260:  MOVFF  03,662
09264:  MOVFF  02,661
09268:  MOVFF  01,660
0926C:  MOVFF  00,65F
09270:  CALL   1890
09274:  MOVFF  03,53F
09278:  MOVFF  02,53E
0927C:  MOVFF  01,53D
09280:  MOVFF  00,53C
....................              
....................          if(Diferencia>=0) 
09284:  MOVLB  6
09286:  CLRF   x5A
09288:  CLRF   x59
0928A:  CLRF   x58
0928C:  CLRF   x57
0928E:  MOVFF  53F,65E
09292:  MOVFF  53E,65D
09296:  MOVFF  53D,65C
0929A:  MOVFF  53C,65B
0929E:  MOVLB  0
092A0:  CALL   23B2
092A4:  BC    92A8
092A6:  BNZ   92E6
....................          { 
....................             negativo=10;write_eeprom(50,negativo);delay_ms(20); 
092A8:  MOVLW  0A
092AA:  MOVLB  4
092AC:  MOVWF  xE5
092AE:  CLRF   FAA
092B0:  MOVLW  32
092B2:  MOVWF  FA9
092B4:  MOVFF  4E5,FA8
092B8:  BCF    FA6.6
092BA:  BCF    FA6.7
092BC:  BSF    FA6.2
092BE:  MOVF   FF2,W
092C0:  MOVWF  00
092C2:  BCF    FF2.7
092C4:  MOVLB  F
092C6:  MOVLW  55
092C8:  MOVWF  FA7
092CA:  MOVLW  AA
092CC:  MOVWF  FA7
092CE:  BSF    FA6.1
092D0:  BTFSC  FA6.1
092D2:  BRA    92D0
092D4:  BCF    FA6.2
092D6:  MOVF   00,W
092D8:  IORWF  FF2,F
092DA:  MOVLW  14
092DC:  MOVLB  6
092DE:  MOVWF  x5B
092E0:  MOVLB  0
092E2:  CALL   16D4
....................          } 
....................          if(Diferencia<0) 
092E6:  MOVFF  53F,65A
092EA:  MOVFF  53E,659
092EE:  MOVFF  53D,658
092F2:  MOVFF  53C,657
092F6:  MOVLB  6
092F8:  CLRF   x5E
092FA:  CLRF   x5D
092FC:  CLRF   x5C
092FE:  CLRF   x5B
09300:  MOVLB  0
09302:  CALL   23B2
09306:  BNC   9346
....................          { 
....................             negativo=20;write_eeprom(50,negativo);delay_ms(20); 
09308:  MOVLW  14
0930A:  MOVLB  4
0930C:  MOVWF  xE5
0930E:  CLRF   FAA
09310:  MOVLW  32
09312:  MOVWF  FA9
09314:  MOVFF  4E5,FA8
09318:  BCF    FA6.6
0931A:  BCF    FA6.7
0931C:  BSF    FA6.2
0931E:  MOVF   FF2,W
09320:  MOVWF  00
09322:  BCF    FF2.7
09324:  MOVLB  F
09326:  MOVLW  55
09328:  MOVWF  FA7
0932A:  MOVLW  AA
0932C:  MOVWF  FA7
0932E:  BSF    FA6.1
09330:  BTFSC  FA6.1
09332:  BRA    9330
09334:  BCF    FA6.2
09336:  MOVF   00,W
09338:  IORWF  FF2,F
0933A:  MOVLW  14
0933C:  MOVLB  6
0933E:  MOVWF  x5B
09340:  MOVLB  0
09342:  CALL   16D4
....................          } 
....................          Diferencia=abs(Diferencia); 
09346:  MOVFF  53C,00
0934A:  MOVFF  53D,01
0934E:  MOVFF  53E,02
09352:  MOVFF  53F,03
09356:  BCF    01.7
09358:  MOVFF  53F,53F
0935C:  MOVFF  53E,53E
09360:  MOVFF  01,53D
09364:  MOVFF  53C,53C
....................          Temporal1=(int16)Diferencia; 
09368:  MOVFF  53F,655
0936C:  MOVFF  53E,654
09370:  MOVFF  53D,653
09374:  MOVFF  53C,652
09378:  CALL   4DC8
0937C:  MOVFF  02,4FF
09380:  MOVFF  01,4FE
....................          write_eeprom(60,make8(Temporal1,0)); 
09384:  MOVFF  4FE,652
09388:  CLRF   FAA
0938A:  MOVLW  3C
0938C:  MOVWF  FA9
0938E:  MOVFF  652,FA8
09392:  BCF    FA6.6
09394:  BCF    FA6.7
09396:  BSF    FA6.2
09398:  MOVF   FF2,W
0939A:  MOVWF  00
0939C:  BCF    FF2.7
0939E:  MOVLB  F
093A0:  MOVLW  55
093A2:  MOVWF  FA7
093A4:  MOVLW  AA
093A6:  MOVWF  FA7
093A8:  BSF    FA6.1
093AA:  BTFSC  FA6.1
093AC:  BRA    93AA
093AE:  BCF    FA6.2
093B0:  MOVF   00,W
093B2:  IORWF  FF2,F
....................          delay_ms(20); 
093B4:  MOVLW  14
093B6:  MOVLB  6
093B8:  MOVWF  x5B
093BA:  MOVLB  0
093BC:  CALL   16D4
....................          write_eeprom(61,make8(Temporal1,1));//Guardar valor de Setpoint en eeprom 
093C0:  MOVFF  4FF,652
093C4:  CLRF   FAA
093C6:  MOVLW  3D
093C8:  MOVWF  FA9
093CA:  MOVFF  652,FA8
093CE:  BCF    FA6.6
093D0:  BCF    FA6.7
093D2:  BSF    FA6.2
093D4:  MOVF   FF2,W
093D6:  MOVWF  00
093D8:  BCF    FF2.7
093DA:  MOVLB  F
093DC:  MOVLW  55
093DE:  MOVWF  FA7
093E0:  MOVLW  AA
093E2:  MOVWF  FA7
093E4:  BSF    FA6.1
093E6:  BTFSC  FA6.1
093E8:  BRA    93E6
093EA:  BCF    FA6.2
093EC:  MOVF   00,W
093EE:  IORWF  FF2,F
....................          delay_ms(20); 
093F0:  MOVLW  14
093F2:  MOVLB  6
093F4:  MOVWF  x5B
093F6:  MOVLB  0
093F8:  CALL   16D4
....................  
....................          Temporal1=(int16)zero_actual; 
093FC:  MOVFF  5D7,655
09400:  MOVFF  5D6,654
09404:  MOVFF  5D5,653
09408:  MOVFF  5D4,652
0940C:  CALL   4DC8
09410:  MOVFF  02,4FF
09414:  MOVFF  01,4FE
....................          write_eeprom(29,make8(Temporal1,0)); 
09418:  MOVFF  4FE,652
0941C:  CLRF   FAA
0941E:  MOVLW  1D
09420:  MOVWF  FA9
09422:  MOVFF  652,FA8
09426:  BCF    FA6.6
09428:  BCF    FA6.7
0942A:  BSF    FA6.2
0942C:  MOVF   FF2,W
0942E:  MOVWF  00
09430:  BCF    FF2.7
09432:  MOVLB  F
09434:  MOVLW  55
09436:  MOVWF  FA7
09438:  MOVLW  AA
0943A:  MOVWF  FA7
0943C:  BSF    FA6.1
0943E:  BTFSC  FA6.1
09440:  BRA    943E
09442:  BCF    FA6.2
09444:  MOVF   00,W
09446:  IORWF  FF2,F
....................          delay_ms(20); 
09448:  MOVLW  14
0944A:  MOVLB  6
0944C:  MOVWF  x5B
0944E:  MOVLB  0
09450:  CALL   16D4
....................          write_eeprom(30,make8(Temporal1,1));//Guardar valor de Setpoint en eeprom 
09454:  MOVFF  4FF,652
09458:  CLRF   FAA
0945A:  MOVLW  1E
0945C:  MOVWF  FA9
0945E:  MOVFF  652,FA8
09462:  BCF    FA6.6
09464:  BCF    FA6.7
09466:  BSF    FA6.2
09468:  MOVF   FF2,W
0946A:  MOVWF  00
0946C:  BCF    FF2.7
0946E:  MOVLB  F
09470:  MOVLW  55
09472:  MOVWF  FA7
09474:  MOVLW  AA
09476:  MOVWF  FA7
09478:  BSF    FA6.1
0947A:  BTFSC  FA6.1
0947C:  BRA    947A
0947E:  BCF    FA6.2
09480:  MOVF   00,W
09482:  IORWF  FF2,F
....................          delay_ms(20); 
09484:  MOVLW  14
09486:  MOVLB  6
09488:  MOVWF  x5B
0948A:  MOVLB  0
0948C:  CALL   16D4
....................       } 
....................          else 
09490:  BRA    9498
....................             {Flanco1 = 0;}   
09492:  MOVLB  4
09494:  BCF    x1A.1
09496:  MOVLB  0
....................              
....................       if(LEFT)//Si oprime boton de Toma. 
09498:  BSF    F96.1
0949A:  BTFSC  F84.1
0949C:  BRA    95F6
....................       { 
....................          delay_ms(700);Menu=32;glcd_fillscreen(OFF);Opcion=1;unidad=1; 
0949E:  MOVLW  04
094A0:  MOVLB  6
094A2:  MOVWF  x52
094A4:  MOVLW  AF
094A6:  MOVWF  x5B
094A8:  MOVLB  0
094AA:  CALL   16D4
094AE:  MOVLB  6
094B0:  DECFSZ x52,F
094B2:  BRA    94A4
094B4:  MOVLW  20
094B6:  MOVLB  4
094B8:  MOVWF  xE1
094BA:  MOVLB  6
094BC:  CLRF   x5A
094BE:  MOVLB  0
094C0:  CALL   2EE4
094C4:  MOVLW  01
094C6:  MOVLB  4
094C8:  MOVWF  xE3
094CA:  MOVWF  xE2
....................          Temporal=Ajuste1; 
094CC:  MOVFF  563,56F
094D0:  MOVFF  562,56E
094D4:  MOVFF  561,56D
094D8:  MOVFF  560,56C
....................          Entero=(int)Ajuste1; 
094DC:  MOVFF  563,655
094E0:  MOVFF  562,654
094E4:  MOVFF  561,653
094E8:  MOVFF  560,652
094EC:  MOVLB  0
094EE:  CALL   4DC8
094F2:  MOVFF  01,4F0
....................          Temporal=Temporal-Entero; 
094F6:  MOVLB  6
094F8:  CLRF   x58
094FA:  MOVFF  4F0,657
094FE:  MOVLB  0
09500:  CALL   16FC
09504:  BSF    FD8.1
09506:  MOVFF  56F,65E
0950A:  MOVFF  56E,65D
0950E:  MOVFF  56D,65C
09512:  MOVFF  56C,65B
09516:  MOVFF  03,662
0951A:  MOVFF  02,661
0951E:  MOVFF  01,660
09522:  MOVFF  00,65F
09526:  CALL   1890
0952A:  MOVFF  03,56F
0952E:  MOVFF  02,56E
09532:  MOVFF  01,56D
09536:  MOVFF  00,56C
....................          Temporal2=Temporal*100.0; 
0953A:  MOVFF  56F,677
0953E:  MOVFF  56E,676
09542:  MOVFF  56D,675
09546:  MOVFF  56C,674
0954A:  MOVLB  6
0954C:  CLRF   x7B
0954E:  CLRF   x7A
09550:  MOVLW  48
09552:  MOVWF  x79
09554:  MOVLW  85
09556:  MOVWF  x78
09558:  MOVLB  0
0955A:  CALL   30DC
0955E:  MOVFF  03,573
09562:  MOVFF  02,572
09566:  MOVFF  01,571
0956A:  MOVFF  00,570
....................          Decimal1=(int8)Temporal2; 
0956E:  MOVFF  573,655
09572:  MOVFF  572,654
09576:  MOVFF  571,653
0957A:  MOVFF  570,652
0957E:  CALL   4DC8
09582:  MOVFF  01,4F1
....................          write_eeprom(25,Entero); 
09586:  CLRF   FAA
09588:  MOVLW  19
0958A:  MOVWF  FA9
0958C:  MOVFF  4F0,FA8
09590:  BCF    FA6.6
09592:  BCF    FA6.7
09594:  BSF    FA6.2
09596:  MOVF   FF2,W
09598:  MOVWF  00
0959A:  BCF    FF2.7
0959C:  MOVLB  F
0959E:  MOVLW  55
095A0:  MOVWF  FA7
095A2:  MOVLW  AA
095A4:  MOVWF  FA7
095A6:  BSF    FA6.1
095A8:  BTFSC  FA6.1
095AA:  BRA    95A8
095AC:  BCF    FA6.2
095AE:  MOVF   00,W
095B0:  IORWF  FF2,F
....................          delay_ms(20); 
095B2:  MOVLW  14
095B4:  MOVLB  6
095B6:  MOVWF  x5B
095B8:  MOVLB  0
095BA:  CALL   16D4
....................          write_eeprom(26,Decimal1); 
095BE:  CLRF   FAA
095C0:  MOVLW  1A
095C2:  MOVWF  FA9
095C4:  MOVFF  4F1,FA8
095C8:  BCF    FA6.6
095CA:  BCF    FA6.7
095CC:  BSF    FA6.2
095CE:  MOVF   FF2,W
095D0:  MOVWF  00
095D2:  BCF    FF2.7
095D4:  MOVLB  F
095D6:  MOVLW  55
095D8:  MOVWF  FA7
095DA:  MOVLW  AA
095DC:  MOVWF  FA7
095DE:  BSF    FA6.1
095E0:  BTFSC  FA6.1
095E2:  BRA    95E0
095E4:  BCF    FA6.2
095E6:  MOVF   00,W
095E8:  IORWF  FF2,F
....................          delay_ms(20); 
095EA:  MOVLW  14
095EC:  MOVLB  6
095EE:  MOVWF  x5B
095F0:  MOVLB  0
095F2:  CALL   16D4
095F6:  MOVLB  4
....................       } 
....................     } 
.................... //_--------------------------------------------------------------------------------------------------------------------------------------------------------        
....................  
.................... //_-------------------------------------------------------------------------------------------------------------------------------------------------------- 
....................       if(Menu==42){ //Menu de Sensor de Presin. 
095F8:  MOVF   xE1,W
095FA:  SUBLW  2A
095FC:  BTFSS  FD8.2
095FE:  BRA    9A2C
....................        
....................       if(Ajuste2>10.0) 
09600:  MOVLB  6
09602:  CLRF   x5A
09604:  CLRF   x59
09606:  MOVLW  20
09608:  MOVWF  x58
0960A:  MOVLW  82
0960C:  MOVWF  x57
0960E:  MOVFF  567,65E
09612:  MOVFF  566,65D
09616:  MOVFF  565,65C
0961A:  MOVFF  564,65B
0961E:  MOVLB  0
09620:  CALL   23B2
09624:  BNC   9632
....................          Ajuste2=0.0; 
09626:  MOVLB  5
09628:  CLRF   x67
0962A:  CLRF   x66
0962C:  CLRF   x65
0962E:  CLRF   x64
09630:  MOVLB  0
....................        
....................       strcpy(Menus.Letra,"Sensor de Presion"); 
09632:  MOVLW  06
09634:  MOVWF  FEA
09636:  MOVLW  3C
09638:  MOVWF  FE9
0963A:  MOVFF  FF2,652
0963E:  BCF    FF2.7
09640:  MOVLW  00
09642:  CALL   1278
09646:  TBLRD*-
09648:  TBLRD*+
0964A:  MOVF   FF5,W
0964C:  MOVWF  FEE
0964E:  IORLW  00
09650:  BNZ   9648
09652:  MOVLB  6
09654:  BTFSC  x52.7
09656:  BSF    FF2.7
....................       displayMenu(Menus.Letra,10,0,1,1); 
09658:  MOVLW  06
0965A:  MOVWF  x5B
0965C:  MOVLW  3C
0965E:  MOVWF  x5A
09660:  MOVLW  0A
09662:  MOVWF  x5C
09664:  CLRF   x5D
09666:  MOVLW  01
09668:  MOVWF  x5E
0966A:  MOVWF  x5F
0966C:  MOVLB  0
0966E:  CALL   3E02
....................        
....................       glcd_text57(0, 12, ZFP, 1, ON); 
09672:  MOVLB  6
09674:  CLRF   x6B
09676:  MOVLW  0C
09678:  MOVWF  x6C
0967A:  MOVLW  04
0967C:  MOVWF  x6E
0967E:  MOVLW  BD
09680:  MOVWF  x6D
09682:  MOVLW  01
09684:  MOVWF  x6F
09686:  MOVWF  x70
09688:  MOVLB  0
0968A:  CALL   3B94
....................        
....................       glcd_text57(0, 20, ZA, 1, ON); 
0968E:  MOVLB  6
09690:  CLRF   x6B
09692:  MOVLW  14
09694:  MOVWF  x6C
09696:  MOVLW  04
09698:  MOVWF  x6E
0969A:  MOVLW  9D
0969C:  MOVWF  x6D
0969E:  MOVLW  01
096A0:  MOVWF  x6F
096A2:  MOVWF  x70
096A4:  MOVLB  0
096A6:  CALL   3B94
....................        
....................       glcd_text57(0, 30, AJ, 1, ON);            
096AA:  MOVLB  6
096AC:  CLRF   x6B
096AE:  MOVLW  1E
096B0:  MOVWF  x6C
096B2:  MOVLW  04
096B4:  MOVWF  x6E
096B6:  MOVLW  A5
096B8:  MOVWF  x6D
096BA:  MOVLW  01
096BC:  MOVWF  x6F
096BE:  MOVWF  x70
096C0:  MOVLB  0
096C2:  CALL   3B94
....................        
....................       displayfloat(G,44,20,0,1); 
096C6:  MOVFF  5E3,659
096CA:  MOVFF  5E2,658
096CE:  MOVFF  5E1,657
096D2:  MOVFF  5E0,656
096D6:  MOVLW  2C
096D8:  MOVLB  6
096DA:  MOVWF  x5A
096DC:  MOVLW  14
096DE:  MOVWF  x5B
096E0:  CLRF   x5C
096E2:  MOVLW  01
096E4:  MOVWF  x5D
096E6:  MOVLB  0
096E8:  CALL   4CE2
....................       displayfloat(Ajuste2,44,30,0,1); 
096EC:  MOVFF  567,659
096F0:  MOVFF  566,658
096F4:  MOVFF  565,657
096F8:  MOVFF  564,656
096FC:  MOVLW  2C
096FE:  MOVLB  6
09700:  MOVWF  x5A
09702:  MOVLW  1E
09704:  MOVWF  x5B
09706:  CLRF   x5C
09708:  MOVLW  01
0970A:  MOVWF  x5D
0970C:  MOVLB  0
0970E:  CALL   4CE2
....................       displayfloat(Filtro_DownFlow_adc,0,40,0,1); 
09712:  MOVFF  4FD,658
09716:  MOVFF  4FC,657
0971A:  CALL   16FC
0971E:  MOVFF  00,652
09722:  MOVFF  01,653
09726:  MOVFF  02,654
0972A:  MOVFF  03,655
0972E:  MOVFF  03,659
09732:  MOVFF  02,658
09736:  MOVFF  01,657
0973A:  MOVFF  00,656
0973E:  MOVLB  6
09740:  CLRF   x5A
09742:  MOVLW  28
09744:  MOVWF  x5B
09746:  CLRF   x5C
09748:  MOVLW  01
0974A:  MOVWF  x5D
0974C:  MOVLB  0
0974E:  CALL   4CE2
....................       displayfloat(Filtro_DownFlow,0,50,0,1); 
09752:  MOVFF  53B,659
09756:  MOVFF  53A,658
0975A:  MOVFF  539,657
0975E:  MOVFF  538,656
09762:  MOVLB  6
09764:  CLRF   x5A
09766:  MOVLW  32
09768:  MOVWF  x5B
0976A:  CLRF   x5C
0976C:  MOVLW  01
0976E:  MOVWF  x5D
09770:  MOVLB  0
09772:  CALL   4CE2
....................        
....................       if(UP)//Si oprime hacia arriba 
09776:  BSF    F92.4
09778:  BTFSC  F80.4
0977A:  BRA    97C2
....................       {   
....................          delay_ms(30);Ajuste2+=0.1; 
0977C:  MOVLW  1E
0977E:  MOVLB  6
09780:  MOVWF  x5B
09782:  MOVLB  0
09784:  CALL   16D4
09788:  BCF    FD8.1
0978A:  MOVFF  567,65E
0978E:  MOVFF  566,65D
09792:  MOVFF  565,65C
09796:  MOVFF  564,65B
0979A:  MOVLW  CD
0979C:  MOVLB  6
0979E:  MOVWF  x62
097A0:  MOVLW  CC
097A2:  MOVWF  x61
097A4:  MOVLW  4C
097A6:  MOVWF  x60
097A8:  MOVLW  7B
097AA:  MOVWF  x5F
097AC:  MOVLB  0
097AE:  CALL   1890
097B2:  MOVFF  03,567
097B6:  MOVFF  02,566
097BA:  MOVFF  01,565
097BE:  MOVFF  00,564
....................       } 
....................              
....................       if(DOWN)//Si oprime hacia abajo 
097C2:  BSF    F92.5
097C4:  BTFSC  F80.5
097C6:  BRA    980E
....................       {   
....................          delay_ms(30);Ajuste2-=0.1; 
097C8:  MOVLW  1E
097CA:  MOVLB  6
097CC:  MOVWF  x5B
097CE:  MOVLB  0
097D0:  CALL   16D4
097D4:  BSF    FD8.1
097D6:  MOVFF  567,65E
097DA:  MOVFF  566,65D
097DE:  MOVFF  565,65C
097E2:  MOVFF  564,65B
097E6:  MOVLW  CD
097E8:  MOVLB  6
097EA:  MOVWF  x62
097EC:  MOVLW  CC
097EE:  MOVWF  x61
097F0:  MOVLW  4C
097F2:  MOVWF  x60
097F4:  MOVLW  7B
097F6:  MOVWF  x5F
097F8:  MOVLB  0
097FA:  CALL   1890
097FE:  MOVFF  03,567
09802:  MOVFF  02,566
09806:  MOVFF  01,565
0980A:  MOVFF  00,564
....................       } 
....................              
....................       if(RIGHT)//Si oprime SET 
0980E:  BSF    F96.0
09810:  BTFSC  F84.0
09812:  BRA    98C6
....................       {            
....................          G=Filtro_Downflow_adc; 
09814:  MOVFF  4FD,658
09818:  MOVFF  4FC,657
0981C:  CALL   16FC
09820:  MOVFF  03,5E3
09824:  MOVFF  02,5E2
09828:  MOVFF  01,5E1
0982C:  MOVFF  00,5E0
....................          G16=(int16)G; 
09830:  MOVFF  5E3,655
09834:  MOVFF  5E2,654
09838:  MOVFF  5E1,653
0983C:  MOVFF  5E0,652
09840:  CALL   4DC8
09844:  MOVFF  02,507
09848:  MOVFF  01,506
....................          G_l=G16; G_h=(G16>>8); 
0984C:  MOVFF  506,4E6
09850:  MOVFF  507,4E7
....................              
....................          write_eeprom(62,G_l); 
09854:  CLRF   FAA
09856:  MOVLW  3E
09858:  MOVWF  FA9
0985A:  MOVFF  4E6,FA8
0985E:  BCF    FA6.6
09860:  BCF    FA6.7
09862:  BSF    FA6.2
09864:  MOVF   FF2,W
09866:  MOVWF  00
09868:  BCF    FF2.7
0986A:  MOVLB  F
0986C:  MOVLW  55
0986E:  MOVWF  FA7
09870:  MOVLW  AA
09872:  MOVWF  FA7
09874:  BSF    FA6.1
09876:  BTFSC  FA6.1
09878:  BRA    9876
0987A:  BCF    FA6.2
0987C:  MOVF   00,W
0987E:  IORWF  FF2,F
....................          delay_ms(20); 
09880:  MOVLW  14
09882:  MOVLB  6
09884:  MOVWF  x5B
09886:  MOVLB  0
09888:  CALL   16D4
....................          write_eeprom(63,G_h);//Guardar valor de Setpoint en eeprom 
0988C:  CLRF   FAA
0988E:  MOVLW  3F
09890:  MOVWF  FA9
09892:  MOVFF  4E7,FA8
09896:  BCF    FA6.6
09898:  BCF    FA6.7
0989A:  BSF    FA6.2
0989C:  MOVF   FF2,W
0989E:  MOVWF  00
098A0:  BCF    FF2.7
098A2:  MOVLB  F
098A4:  MOVLW  55
098A6:  MOVWF  FA7
098A8:  MOVLW  AA
098AA:  MOVWF  FA7
098AC:  BSF    FA6.1
098AE:  BTFSC  FA6.1
098B0:  BRA    98AE
098B2:  BCF    FA6.2
098B4:  MOVF   00,W
098B6:  IORWF  FF2,F
....................          delay_ms(20); 
098B8:  MOVLW  14
098BA:  MOVLB  6
098BC:  MOVWF  x5B
098BE:  MOVLB  0
098C0:  CALL   16D4
....................       } 
....................          else 
098C4:  BRA    98CC
....................             {Flanco1 = 0;}   
098C6:  MOVLB  4
098C8:  BCF    x1A.1
098CA:  MOVLB  0
....................              
....................       if(LEFT)//Si oprime boton de Toma. 
098CC:  BSF    F96.1
098CE:  BTFSC  F84.1
098D0:  BRA    9A2A
....................       {                   
....................          delay_ms(700);Menu=32;glcd_fillscreen(OFF);Opcion=1;unidad=1; 
098D2:  MOVLW  04
098D4:  MOVLB  6
098D6:  MOVWF  x52
098D8:  MOVLW  AF
098DA:  MOVWF  x5B
098DC:  MOVLB  0
098DE:  CALL   16D4
098E2:  MOVLB  6
098E4:  DECFSZ x52,F
098E6:  BRA    98D8
098E8:  MOVLW  20
098EA:  MOVLB  4
098EC:  MOVWF  xE1
098EE:  MOVLB  6
098F0:  CLRF   x5A
098F2:  MOVLB  0
098F4:  CALL   2EE4
098F8:  MOVLW  01
098FA:  MOVLB  4
098FC:  MOVWF  xE3
098FE:  MOVWF  xE2
....................          Temporal=Ajuste2; 
09900:  MOVFF  567,56F
09904:  MOVFF  566,56E
09908:  MOVFF  565,56D
0990C:  MOVFF  564,56C
....................          Entero=(int)Ajuste2; 
09910:  MOVFF  567,655
09914:  MOVFF  566,654
09918:  MOVFF  565,653
0991C:  MOVFF  564,652
09920:  MOVLB  0
09922:  CALL   4DC8
09926:  MOVFF  01,4F0
....................          Temporal=Temporal-Entero; 
0992A:  MOVLB  6
0992C:  CLRF   x58
0992E:  MOVFF  4F0,657
09932:  MOVLB  0
09934:  CALL   16FC
09938:  BSF    FD8.1
0993A:  MOVFF  56F,65E
0993E:  MOVFF  56E,65D
09942:  MOVFF  56D,65C
09946:  MOVFF  56C,65B
0994A:  MOVFF  03,662
0994E:  MOVFF  02,661
09952:  MOVFF  01,660
09956:  MOVFF  00,65F
0995A:  CALL   1890
0995E:  MOVFF  03,56F
09962:  MOVFF  02,56E
09966:  MOVFF  01,56D
0996A:  MOVFF  00,56C
....................          Temporal2=Temporal*10.0; 
0996E:  MOVFF  56F,677
09972:  MOVFF  56E,676
09976:  MOVFF  56D,675
0997A:  MOVFF  56C,674
0997E:  MOVLB  6
09980:  CLRF   x7B
09982:  CLRF   x7A
09984:  MOVLW  20
09986:  MOVWF  x79
09988:  MOVLW  82
0998A:  MOVWF  x78
0998C:  MOVLB  0
0998E:  CALL   30DC
09992:  MOVFF  03,573
09996:  MOVFF  02,572
0999A:  MOVFF  01,571
0999E:  MOVFF  00,570
....................          Decimal1=(int8)Temporal2; 
099A2:  MOVFF  573,655
099A6:  MOVFF  572,654
099AA:  MOVFF  571,653
099AE:  MOVFF  570,652
099B2:  CALL   4DC8
099B6:  MOVFF  01,4F1
....................          write_eeprom(27,Entero); 
099BA:  CLRF   FAA
099BC:  MOVLW  1B
099BE:  MOVWF  FA9
099C0:  MOVFF  4F0,FA8
099C4:  BCF    FA6.6
099C6:  BCF    FA6.7
099C8:  BSF    FA6.2
099CA:  MOVF   FF2,W
099CC:  MOVWF  00
099CE:  BCF    FF2.7
099D0:  MOVLB  F
099D2:  MOVLW  55
099D4:  MOVWF  FA7
099D6:  MOVLW  AA
099D8:  MOVWF  FA7
099DA:  BSF    FA6.1
099DC:  BTFSC  FA6.1
099DE:  BRA    99DC
099E0:  BCF    FA6.2
099E2:  MOVF   00,W
099E4:  IORWF  FF2,F
....................          delay_ms(20); 
099E6:  MOVLW  14
099E8:  MOVLB  6
099EA:  MOVWF  x5B
099EC:  MOVLB  0
099EE:  CALL   16D4
....................          write_eeprom(28,Decimal1); 
099F2:  CLRF   FAA
099F4:  MOVLW  1C
099F6:  MOVWF  FA9
099F8:  MOVFF  4F1,FA8
099FC:  BCF    FA6.6
099FE:  BCF    FA6.7
09A00:  BSF    FA6.2
09A02:  MOVF   FF2,W
09A04:  MOVWF  00
09A06:  BCF    FF2.7
09A08:  MOVLB  F
09A0A:  MOVLW  55
09A0C:  MOVWF  FA7
09A0E:  MOVLW  AA
09A10:  MOVWF  FA7
09A12:  BSF    FA6.1
09A14:  BTFSC  FA6.1
09A16:  BRA    9A14
09A18:  BCF    FA6.2
09A1A:  MOVF   00,W
09A1C:  IORWF  FF2,F
....................          delay_ms(20); 
09A1E:  MOVLW  14
09A20:  MOVLB  6
09A22:  MOVWF  x5B
09A24:  MOVLB  0
09A26:  CALL   16D4
09A2A:  MOVLB  4
....................       } 
....................     } 
.................... //_--------------------------------------------------------------------------------------------------------------------------------------------------------        
....................  
.................... //_-------------------------------------------------------------------------------------------------------------------------------------------------------- 
....................       if(Menu==43){ //Menu de Velocidad de Motor 
09A2C:  MOVF   xE1,W
09A2E:  SUBLW  2B
09A30:  BTFSS  FD8.2
09A32:  BRA    9C00
....................        
....................       if(VelMotor>6)VelMotor=6; 
09A34:  MOVF   xF9,W
09A36:  SUBLW  06
09A38:  BC    9A3E
09A3A:  MOVLW  06
09A3C:  MOVWF  xF9
....................        
....................       strcpy(Menus.Letra,"Seleccion Vel"); 
09A3E:  MOVLW  06
09A40:  MOVWF  FEA
09A42:  MOVLW  3C
09A44:  MOVWF  FE9
09A46:  MOVFF  FF2,652
09A4A:  BCF    FF2.7
09A4C:  MOVLW  00
09A4E:  MOVLB  0
09A50:  CALL   1404
09A54:  TBLRD*-
09A56:  TBLRD*+
09A58:  MOVF   FF5,W
09A5A:  MOVWF  FEE
09A5C:  IORLW  00
09A5E:  BNZ   9A56
09A60:  MOVLB  6
09A62:  BTFSC  x52.7
09A64:  BSF    FF2.7
....................       displayMenu(Menus.Letra,10,0,1,1); 
09A66:  MOVLW  06
09A68:  MOVWF  x5B
09A6A:  MOVLW  3C
09A6C:  MOVWF  x5A
09A6E:  MOVLW  0A
09A70:  MOVWF  x5C
09A72:  CLRF   x5D
09A74:  MOVLW  01
09A76:  MOVWF  x5E
09A78:  MOVWF  x5F
09A7A:  MOVLB  0
09A7C:  CALL   3E02
....................        
....................       displayTiempo(VelMotor,50,40,1,2); 
09A80:  MOVFF  4F9,652
09A84:  MOVLW  32
09A86:  MOVLB  6
09A88:  MOVWF  x53
09A8A:  MOVLW  28
09A8C:  MOVWF  x54
09A8E:  MOVLW  01
09A90:  MOVWF  x55
09A92:  MOVLW  02
09A94:  MOVWF  x56
09A96:  MOVLB  0
09A98:  CALL   467A
....................        
....................       if(UP && VelMotor<6)//Si oprime hacia arriba 
09A9C:  BSF    F92.4
09A9E:  BTFSC  F80.4
09AA0:  BRA    9AC2
09AA2:  MOVLB  4
09AA4:  MOVF   xF9,W
09AA6:  SUBLW  05
09AA8:  BTFSC  FD8.0
09AAA:  BRA    9AB0
09AAC:  MOVLB  0
09AAE:  BRA    9AC2
....................       {   
....................          delay_ms(200);VelMotor++; 
09AB0:  MOVLW  C8
09AB2:  MOVLB  6
09AB4:  MOVWF  x5B
09AB6:  MOVLB  0
09AB8:  CALL   16D4
09ABC:  MOVLB  4
09ABE:  INCF   xF9,F
09AC0:  MOVLB  0
....................       } 
....................              
....................       if(DOWN && VelMotor>0)//Si oprime hacia abajo 
09AC2:  BSF    F92.5
09AC4:  BTFSC  F80.5
09AC6:  BRA    9AE6
09AC8:  MOVLB  4
09ACA:  MOVF   xF9,F
09ACC:  BTFSS  FD8.2
09ACE:  BRA    9AD4
09AD0:  MOVLB  0
09AD2:  BRA    9AE6
....................       {   
....................          delay_ms(200);VelMotor--; 
09AD4:  MOVLW  C8
09AD6:  MOVLB  6
09AD8:  MOVWF  x5B
09ADA:  MOVLB  0
09ADC:  CALL   16D4
09AE0:  MOVLB  4
09AE2:  DECF   xF9,F
09AE4:  MOVLB  0
....................       } 
....................              
....................       if(RIGHT)//Si oprime SET 
09AE6:  BSF    F96.0
09AE8:  BTFSC  F84.0
09AEA:  BRA    9AF4
....................       {            
....................          VelocidadMotor(VelMotor); 
09AEC:  MOVFF  4F9,652
09AF0:  CALL   45D2
....................       }  
....................              
....................       if(LEFT)//Si oprime boton de Toma. 
09AF4:  BSF    F96.1
09AF6:  BTFSC  F84.1
09AF8:  BRA    9C02
....................       {                   
....................          delay_ms(100);glcd_fillscreen(OFF);Opcion=1;unidad=1; 
09AFA:  MOVLW  64
09AFC:  MOVLB  6
09AFE:  MOVWF  x5B
09B00:  MOVLB  0
09B02:  CALL   16D4
09B06:  MOVLB  6
09B08:  CLRF   x5A
09B0A:  MOVLB  0
09B0C:  CALL   2EE4
09B10:  MOVLW  01
09B12:  MOVLB  4
09B14:  MOVWF  xE3
09B16:  MOVWF  xE2
....................          write_eeprom(32,VelMotor);//Guardar valor de Setpoint en eeprom 
09B18:  CLRF   FAA
09B1A:  MOVLW  20
09B1C:  MOVWF  FA9
09B1E:  MOVFF  4F9,FA8
09B22:  BCF    FA6.6
09B24:  BCF    FA6.7
09B26:  BSF    FA6.2
09B28:  MOVF   FF2,W
09B2A:  MOVWF  00
09B2C:  BCF    FF2.7
09B2E:  MOVLB  F
09B30:  MOVLW  55
09B32:  MOVWF  FA7
09B34:  MOVLW  AA
09B36:  MOVWF  FA7
09B38:  BSF    FA6.1
09B3A:  BTFSC  FA6.1
09B3C:  BRA    9B3A
09B3E:  BCF    FA6.2
09B40:  MOVF   00,W
09B42:  IORWF  FF2,F
....................          delay_ms(20); 
09B44:  MOVLW  14
09B46:  MOVLB  6
09B48:  MOVWF  x5B
09B4A:  MOVLB  0
09B4C:  CALL   16D4
....................          glcd_fillScreen(OFF); 
09B50:  MOVLB  6
09B52:  CLRF   x5A
09B54:  MOVLB  0
09B56:  CALL   2EE4
....................          strcpy(Menus.Letra,"Velocidad"); 
09B5A:  MOVLW  06
09B5C:  MOVWF  FEA
09B5E:  MOVLW  3C
09B60:  MOVWF  FE9
09B62:  MOVFF  FF2,652
09B66:  BCF    FF2.7
09B68:  MOVLW  00
09B6A:  CALL   1430
09B6E:  TBLRD*-
09B70:  TBLRD*+
09B72:  MOVF   FF5,W
09B74:  MOVWF  FEE
09B76:  IORLW  00
09B78:  BNZ   9B70
09B7A:  MOVLB  6
09B7C:  BTFSC  x52.7
09B7E:  BSF    FF2.7
....................          displayMenu(Menus.Letra,0,0,0,2); 
09B80:  MOVLW  06
09B82:  MOVWF  x5B
09B84:  MOVLW  3C
09B86:  MOVWF  x5A
09B88:  CLRF   x5C
09B8A:  CLRF   x5D
09B8C:  CLRF   x5E
09B8E:  MOVLW  02
09B90:  MOVWF  x5F
09B92:  MOVLB  0
09B94:  CALL   3E02
....................          strcpy(Menus.Letra,"Guardada"); 
09B98:  MOVLW  06
09B9A:  MOVWF  FEA
09B9C:  MOVLW  3C
09B9E:  MOVWF  FE9
09BA0:  MOVFF  FF2,652
09BA4:  BCF    FF2.7
09BA6:  MOVLW  00
09BA8:  CALL   1458
09BAC:  TBLRD*-
09BAE:  TBLRD*+
09BB0:  MOVF   FF5,W
09BB2:  MOVWF  FEE
09BB4:  IORLW  00
09BB6:  BNZ   9BAE
09BB8:  MOVLB  6
09BBA:  BTFSC  x52.7
09BBC:  BSF    FF2.7
....................          displayMenu(Menus.Letra,0,30,0,2); 
09BBE:  MOVLW  06
09BC0:  MOVWF  x5B
09BC2:  MOVLW  3C
09BC4:  MOVWF  x5A
09BC6:  CLRF   x5C
09BC8:  MOVLW  1E
09BCA:  MOVWF  x5D
09BCC:  CLRF   x5E
09BCE:  MOVLW  02
09BD0:  MOVWF  x5F
09BD2:  MOVLB  0
09BD4:  CALL   3E02
....................          glcd_update(); 
09BD8:  CALL   2F3E
....................          delay_ms(1000); 
09BDC:  MOVLW  04
09BDE:  MOVLB  6
09BE0:  MOVWF  x52
09BE2:  MOVLW  FA
09BE4:  MOVWF  x5B
09BE6:  MOVLB  0
09BE8:  CALL   16D4
09BEC:  MOVLB  6
09BEE:  DECFSZ x52,F
09BF0:  BRA    9BE2
....................          glcd_fillScreen(OFF); 
09BF2:  CLRF   x5A
09BF4:  MOVLB  0
09BF6:  CALL   2EE4
....................          Menu=32; 
09BFA:  MOVLW  20
09BFC:  MOVLB  4
09BFE:  MOVWF  xE1
09C00:  MOVLB  0
....................       } 
....................     } 
.................... //_--------------------------------------------------------------------------------------------------------------------------------------------------------        
....................  
.................... //_-------------------------------------------------------------------------------------------------------------------------------------------------------- 
....................       if(Menu==44){ //Menu de Relacion 
09C02:  MOVLB  4
09C04:  MOVF   xE1,W
09C06:  SUBLW  2C
09C08:  BTFSS  FD8.2
09C0A:  BRA    9F40
....................        
....................       if(Relacion>2.0)Relacion=2.0; 
09C0C:  MOVLB  6
09C0E:  CLRF   x5A
09C10:  CLRF   x59
09C12:  CLRF   x58
09C14:  MOVLW  80
09C16:  MOVWF  x57
09C18:  MOVFF  5EB,65E
09C1C:  MOVFF  5EA,65D
09C20:  MOVFF  5E9,65C
09C24:  MOVFF  5E8,65B
09C28:  MOVLB  0
09C2A:  CALL   23B2
09C2E:  BNC   9C3E
09C30:  MOVLB  5
09C32:  CLRF   xEB
09C34:  CLRF   xEA
09C36:  CLRF   xE9
09C38:  MOVLW  80
09C3A:  MOVWF  xE8
09C3C:  MOVLB  0
....................        
....................       strcpy(Menus.Letra,"Relacion"); 
09C3E:  MOVLW  06
09C40:  MOVWF  FEA
09C42:  MOVLW  3C
09C44:  MOVWF  FE9
09C46:  MOVFF  FF2,652
09C4A:  BCF    FF2.7
09C4C:  MOVLW  00
09C4E:  CALL   1480
09C52:  TBLRD*-
09C54:  TBLRD*+
09C56:  MOVF   FF5,W
09C58:  MOVWF  FEE
09C5A:  IORLW  00
09C5C:  BNZ   9C54
09C5E:  MOVLB  6
09C60:  BTFSC  x52.7
09C62:  BSF    FF2.7
....................       displayMenu(Menus.Letra,10,0,1,1); 
09C64:  MOVLW  06
09C66:  MOVWF  x5B
09C68:  MOVLW  3C
09C6A:  MOVWF  x5A
09C6C:  MOVLW  0A
09C6E:  MOVWF  x5C
09C70:  CLRF   x5D
09C72:  MOVLW  01
09C74:  MOVWF  x5E
09C76:  MOVWF  x5F
09C78:  MOVLB  0
09C7A:  CALL   3E02
....................        
....................       displayfloat(Relacion,44,30,0,2); 
09C7E:  MOVFF  5EB,659
09C82:  MOVFF  5EA,658
09C86:  MOVFF  5E9,657
09C8A:  MOVFF  5E8,656
09C8E:  MOVLW  2C
09C90:  MOVLB  6
09C92:  MOVWF  x5A
09C94:  MOVLW  1E
09C96:  MOVWF  x5B
09C98:  CLRF   x5C
09C9A:  MOVLW  02
09C9C:  MOVWF  x5D
09C9E:  MOVLB  0
09CA0:  CALL   4CE2
....................        
....................       if(UP)//Si oprime hacia arriba 
09CA4:  BSF    F92.4
09CA6:  BTFSC  F80.4
09CA8:  BRA    9CF0
....................       {   
....................          delay_ms(100);Relacion+=0.01; 
09CAA:  MOVLW  64
09CAC:  MOVLB  6
09CAE:  MOVWF  x5B
09CB0:  MOVLB  0
09CB2:  CALL   16D4
09CB6:  BCF    FD8.1
09CB8:  MOVFF  5EB,65E
09CBC:  MOVFF  5EA,65D
09CC0:  MOVFF  5E9,65C
09CC4:  MOVFF  5E8,65B
09CC8:  MOVLW  0A
09CCA:  MOVLB  6
09CCC:  MOVWF  x62
09CCE:  MOVLW  D7
09CD0:  MOVWF  x61
09CD2:  MOVLW  23
09CD4:  MOVWF  x60
09CD6:  MOVLW  78
09CD8:  MOVWF  x5F
09CDA:  MOVLB  0
09CDC:  CALL   1890
09CE0:  MOVFF  03,5EB
09CE4:  MOVFF  02,5EA
09CE8:  MOVFF  01,5E9
09CEC:  MOVFF  00,5E8
....................       } 
....................              
....................       if(DOWN)//Si oprime hacia abajo 
09CF0:  BSF    F92.5
09CF2:  BTFSC  F80.5
09CF4:  BRA    9D3C
....................       {   
....................          delay_ms(100);Relacion-=0.01; 
09CF6:  MOVLW  64
09CF8:  MOVLB  6
09CFA:  MOVWF  x5B
09CFC:  MOVLB  0
09CFE:  CALL   16D4
09D02:  BSF    FD8.1
09D04:  MOVFF  5EB,65E
09D08:  MOVFF  5EA,65D
09D0C:  MOVFF  5E9,65C
09D10:  MOVFF  5E8,65B
09D14:  MOVLW  0A
09D16:  MOVLB  6
09D18:  MOVWF  x62
09D1A:  MOVLW  D7
09D1C:  MOVWF  x61
09D1E:  MOVLW  23
09D20:  MOVWF  x60
09D22:  MOVLW  78
09D24:  MOVWF  x5F
09D26:  MOVLB  0
09D28:  CALL   1890
09D2C:  MOVFF  03,5EB
09D30:  MOVFF  02,5EA
09D34:  MOVFF  01,5E9
09D38:  MOVFF  00,5E8
....................       } 
....................              
....................       if(LEFT)//Si oprime boton de Toma. 
09D3C:  BSF    F96.1
09D3E:  BTFSC  F84.1
09D40:  BRA    9F42
....................       {                   
....................          delay_ms(100);Menu=32;glcd_fillscreen(OFF);Opcion=1;unidad=1; 
09D42:  MOVLW  64
09D44:  MOVLB  6
09D46:  MOVWF  x5B
09D48:  MOVLB  0
09D4A:  CALL   16D4
09D4E:  MOVLW  20
09D50:  MOVLB  4
09D52:  MOVWF  xE1
09D54:  MOVLB  6
09D56:  CLRF   x5A
09D58:  MOVLB  0
09D5A:  CALL   2EE4
09D5E:  MOVLW  01
09D60:  MOVLB  4
09D62:  MOVWF  xE3
09D64:  MOVWF  xE2
....................          Temporal=Relacion; 
09D66:  MOVFF  5EB,56F
09D6A:  MOVFF  5EA,56E
09D6E:  MOVFF  5E9,56D
09D72:  MOVFF  5E8,56C
....................          Entero=(int)Relacion; 
09D76:  MOVFF  5EB,655
09D7A:  MOVFF  5EA,654
09D7E:  MOVFF  5E9,653
09D82:  MOVFF  5E8,652
09D86:  MOVLB  0
09D88:  CALL   4DC8
09D8C:  MOVFF  01,4F0
....................          Temporal=Temporal-Entero; 
09D90:  MOVLB  6
09D92:  CLRF   x58
09D94:  MOVFF  4F0,657
09D98:  MOVLB  0
09D9A:  CALL   16FC
09D9E:  BSF    FD8.1
09DA0:  MOVFF  56F,65E
09DA4:  MOVFF  56E,65D
09DA8:  MOVFF  56D,65C
09DAC:  MOVFF  56C,65B
09DB0:  MOVFF  03,662
09DB4:  MOVFF  02,661
09DB8:  MOVFF  01,660
09DBC:  MOVFF  00,65F
09DC0:  CALL   1890
09DC4:  MOVFF  03,56F
09DC8:  MOVFF  02,56E
09DCC:  MOVFF  01,56D
09DD0:  MOVFF  00,56C
....................          Temporal2=Temporal*100.0; 
09DD4:  MOVFF  56F,677
09DD8:  MOVFF  56E,676
09DDC:  MOVFF  56D,675
09DE0:  MOVFF  56C,674
09DE4:  MOVLB  6
09DE6:  CLRF   x7B
09DE8:  CLRF   x7A
09DEA:  MOVLW  48
09DEC:  MOVWF  x79
09DEE:  MOVLW  85
09DF0:  MOVWF  x78
09DF2:  MOVLB  0
09DF4:  CALL   30DC
09DF8:  MOVFF  03,573
09DFC:  MOVFF  02,572
09E00:  MOVFF  01,571
09E04:  MOVFF  00,570
....................          Decimal1=(int8)Temporal2; 
09E08:  MOVFF  573,655
09E0C:  MOVFF  572,654
09E10:  MOVFF  571,653
09E14:  MOVFF  570,652
09E18:  CALL   4DC8
09E1C:  MOVFF  01,4F1
....................          write_eeprom(35,Entero); 
09E20:  CLRF   FAA
09E22:  MOVLW  23
09E24:  MOVWF  FA9
09E26:  MOVFF  4F0,FA8
09E2A:  BCF    FA6.6
09E2C:  BCF    FA6.7
09E2E:  BSF    FA6.2
09E30:  MOVF   FF2,W
09E32:  MOVWF  00
09E34:  BCF    FF2.7
09E36:  MOVLB  F
09E38:  MOVLW  55
09E3A:  MOVWF  FA7
09E3C:  MOVLW  AA
09E3E:  MOVWF  FA7
09E40:  BSF    FA6.1
09E42:  BTFSC  FA6.1
09E44:  BRA    9E42
09E46:  BCF    FA6.2
09E48:  MOVF   00,W
09E4A:  IORWF  FF2,F
....................          delay_ms(20); 
09E4C:  MOVLW  14
09E4E:  MOVLB  6
09E50:  MOVWF  x5B
09E52:  MOVLB  0
09E54:  CALL   16D4
....................          write_eeprom(36,Decimal1); 
09E58:  CLRF   FAA
09E5A:  MOVLW  24
09E5C:  MOVWF  FA9
09E5E:  MOVFF  4F1,FA8
09E62:  BCF    FA6.6
09E64:  BCF    FA6.7
09E66:  BSF    FA6.2
09E68:  MOVF   FF2,W
09E6A:  MOVWF  00
09E6C:  BCF    FF2.7
09E6E:  MOVLB  F
09E70:  MOVLW  55
09E72:  MOVWF  FA7
09E74:  MOVLW  AA
09E76:  MOVWF  FA7
09E78:  BSF    FA6.1
09E7A:  BTFSC  FA6.1
09E7C:  BRA    9E7A
09E7E:  BCF    FA6.2
09E80:  MOVF   00,W
09E82:  IORWF  FF2,F
....................          delay_ms(20); 
09E84:  MOVLW  14
09E86:  MOVLB  6
09E88:  MOVWF  x5B
09E8A:  MOVLB  0
09E8C:  CALL   16D4
....................          glcd_fillScreen(OFF); 
09E90:  MOVLB  6
09E92:  CLRF   x5A
09E94:  MOVLB  0
09E96:  CALL   2EE4
....................          strcpy(Menus.Letra,"Valor"); 
09E9A:  MOVLW  06
09E9C:  MOVWF  FEA
09E9E:  MOVLW  3C
09EA0:  MOVWF  FE9
09EA2:  MOVFF  FF2,652
09EA6:  BCF    FF2.7
09EA8:  MOVLW  00
09EAA:  CALL   14A8
09EAE:  TBLRD*-
09EB0:  TBLRD*+
09EB2:  MOVF   FF5,W
09EB4:  MOVWF  FEE
09EB6:  IORLW  00
09EB8:  BNZ   9EB0
09EBA:  MOVLB  6
09EBC:  BTFSC  x52.7
09EBE:  BSF    FF2.7
....................          displayMenu(Menus.Letra,0,0,0,2); 
09EC0:  MOVLW  06
09EC2:  MOVWF  x5B
09EC4:  MOVLW  3C
09EC6:  MOVWF  x5A
09EC8:  CLRF   x5C
09ECA:  CLRF   x5D
09ECC:  CLRF   x5E
09ECE:  MOVLW  02
09ED0:  MOVWF  x5F
09ED2:  MOVLB  0
09ED4:  CALL   3E02
....................          strcpy(Menus.Letra,"Guardado"); 
09ED8:  MOVLW  06
09EDA:  MOVWF  FEA
09EDC:  MOVLW  3C
09EDE:  MOVWF  FE9
09EE0:  MOVFF  FF2,652
09EE4:  BCF    FF2.7
09EE6:  MOVLW  00
09EE8:  CALL   14CC
09EEC:  TBLRD*-
09EEE:  TBLRD*+
09EF0:  MOVF   FF5,W
09EF2:  MOVWF  FEE
09EF4:  IORLW  00
09EF6:  BNZ   9EEE
09EF8:  MOVLB  6
09EFA:  BTFSC  x52.7
09EFC:  BSF    FF2.7
....................          displayMenu(Menus.Letra,0,30,0,2); 
09EFE:  MOVLW  06
09F00:  MOVWF  x5B
09F02:  MOVLW  3C
09F04:  MOVWF  x5A
09F06:  CLRF   x5C
09F08:  MOVLW  1E
09F0A:  MOVWF  x5D
09F0C:  CLRF   x5E
09F0E:  MOVLW  02
09F10:  MOVWF  x5F
09F12:  MOVLB  0
09F14:  CALL   3E02
....................          glcd_update(); 
09F18:  CALL   2F3E
....................          delay_ms(1000); 
09F1C:  MOVLW  04
09F1E:  MOVLB  6
09F20:  MOVWF  x52
09F22:  MOVLW  FA
09F24:  MOVWF  x5B
09F26:  MOVLB  0
09F28:  CALL   16D4
09F2C:  MOVLB  6
09F2E:  DECFSZ x52,F
09F30:  BRA    9F22
....................          glcd_fillScreen(OFF); 
09F32:  CLRF   x5A
09F34:  MOVLB  0
09F36:  CALL   2EE4
....................          Menu=32; 
09F3A:  MOVLW  20
09F3C:  MOVLB  4
09F3E:  MOVWF  xE1
09F40:  MOVLB  0
....................       } 
....................     } 
.................... //_--------------------------------------------------------------------------------------------------------------------------------------------------------        
....................  
.................... //_-------------------------------------------------------------------------------------------------------------------------------------------------------- 
....................       if(Menu==45){ //Menu de Presion Inicial 
09F42:  MOVLB  4
09F44:  MOVF   xE1,W
09F46:  SUBLW  2D
09F48:  BTFSS  FD8.2
09F4A:  BRA    A1AC
....................        
....................       if(Pinicial>100)Pinicial=20; 
09F4C:  MOVF   xEA,W
09F4E:  SUBLW  64
09F50:  BC    9F56
09F52:  MOVLW  14
09F54:  MOVWF  xEA
....................       if(Pinicial<20)Pinicial=100; 
09F56:  MOVF   xEA,W
09F58:  SUBLW  13
09F5A:  BNC   9F60
09F5C:  MOVLW  64
09F5E:  MOVWF  xEA
....................        
....................       strcpy(Menus.Letra,"P. Inicial"); 
09F60:  MOVLW  06
09F62:  MOVWF  FEA
09F64:  MOVLW  3C
09F66:  MOVWF  FE9
09F68:  MOVFF  FF2,652
09F6C:  BCF    FF2.7
09F6E:  MOVLW  00
09F70:  MOVLB  0
09F72:  CALL   14F4
09F76:  TBLRD*-
09F78:  TBLRD*+
09F7A:  MOVF   FF5,W
09F7C:  MOVWF  FEE
09F7E:  IORLW  00
09F80:  BNZ   9F78
09F82:  MOVLB  6
09F84:  BTFSC  x52.7
09F86:  BSF    FF2.7
....................       displayMenu(Menus.Letra,10,0,1,1); 
09F88:  MOVLW  06
09F8A:  MOVWF  x5B
09F8C:  MOVLW  3C
09F8E:  MOVWF  x5A
09F90:  MOVLW  0A
09F92:  MOVWF  x5C
09F94:  CLRF   x5D
09F96:  MOVLW  01
09F98:  MOVWF  x5E
09F9A:  MOVWF  x5F
09F9C:  MOVLB  0
09F9E:  CALL   3E02
....................        
....................       displayfloat(Pinicial,44,30,0,2); 
09FA2:  MOVLB  6
09FA4:  CLRF   x58
09FA6:  MOVFF  4EA,657
09FAA:  MOVLB  0
09FAC:  CALL   16FC
09FB0:  MOVFF  00,652
09FB4:  MOVFF  01,653
09FB8:  MOVFF  02,654
09FBC:  MOVFF  03,655
09FC0:  MOVFF  03,659
09FC4:  MOVFF  02,658
09FC8:  MOVFF  01,657
09FCC:  MOVFF  00,656
09FD0:  MOVLW  2C
09FD2:  MOVLB  6
09FD4:  MOVWF  x5A
09FD6:  MOVLW  1E
09FD8:  MOVWF  x5B
09FDA:  CLRF   x5C
09FDC:  MOVLW  02
09FDE:  MOVWF  x5D
09FE0:  MOVLB  0
09FE2:  CALL   4CE2
....................        
....................       if(UP)//Si oprime hacia arriba 
09FE6:  BSF    F92.4
09FE8:  BTFSC  F80.4
09FEA:  BRA    A000
....................       {   
....................          delay_ms(100);Pinicial+=1; 
09FEC:  MOVLW  64
09FEE:  MOVLB  6
09FF0:  MOVWF  x5B
09FF2:  MOVLB  0
09FF4:  CALL   16D4
09FF8:  MOVLW  01
09FFA:  MOVLB  4
09FFC:  ADDWF  xEA,F
09FFE:  MOVLB  0
....................       } 
....................              
....................       if(DOWN)//Si oprime hacia abajo 
0A000:  BSF    F92.5
0A002:  BTFSC  F80.5
0A004:  BRA    A01A
....................       {   
....................          delay_ms(100);Pinicial-=1; 
0A006:  MOVLW  64
0A008:  MOVLB  6
0A00A:  MOVWF  x5B
0A00C:  MOVLB  0
0A00E:  CALL   16D4
0A012:  MOVLW  01
0A014:  MOVLB  4
0A016:  SUBWF  xEA,F
0A018:  MOVLB  0
....................       } 
....................              
....................       if(LEFT)//Si oprime boton de Toma. 
0A01A:  BSF    F96.1
0A01C:  BTFSC  F84.1
0A01E:  BRA    A1AE
....................       {    
....................          write_eeprom(40,Pinicial); 
0A020:  CLRF   FAA
0A022:  MOVLW  28
0A024:  MOVWF  FA9
0A026:  MOVFF  4EA,FA8
0A02A:  BCF    FA6.6
0A02C:  BCF    FA6.7
0A02E:  BSF    FA6.2
0A030:  MOVF   FF2,W
0A032:  MOVWF  00
0A034:  BCF    FF2.7
0A036:  MOVLB  F
0A038:  MOVLW  55
0A03A:  MOVWF  FA7
0A03C:  MOVLW  AA
0A03E:  MOVWF  FA7
0A040:  BSF    FA6.1
0A042:  BTFSC  FA6.1
0A044:  BRA    A042
0A046:  BCF    FA6.2
0A048:  MOVF   00,W
0A04A:  IORWF  FF2,F
....................          delay_ms(20); 
0A04C:  MOVLW  14
0A04E:  MOVLB  6
0A050:  MOVWF  x5B
0A052:  MOVLB  0
0A054:  CALL   16D4
....................          glcd_fillScreen(OFF); 
0A058:  MOVLB  6
0A05A:  CLRF   x5A
0A05C:  MOVLB  0
0A05E:  CALL   2EE4
....................          strcpy(Menus.Letra,"Valor"); 
0A062:  MOVLW  06
0A064:  MOVWF  FEA
0A066:  MOVLW  3C
0A068:  MOVWF  FE9
0A06A:  MOVFF  FF2,652
0A06E:  BCF    FF2.7
0A070:  MOVLW  00
0A072:  CALL   14A8
0A076:  TBLRD*-
0A078:  TBLRD*+
0A07A:  MOVF   FF5,W
0A07C:  MOVWF  FEE
0A07E:  IORLW  00
0A080:  BNZ   A078
0A082:  MOVLB  6
0A084:  BTFSC  x52.7
0A086:  BSF    FF2.7
....................          displayMenu(Menus.Letra,0,0,0,2); 
0A088:  MOVLW  06
0A08A:  MOVWF  x5B
0A08C:  MOVLW  3C
0A08E:  MOVWF  x5A
0A090:  CLRF   x5C
0A092:  CLRF   x5D
0A094:  CLRF   x5E
0A096:  MOVLW  02
0A098:  MOVWF  x5F
0A09A:  MOVLB  0
0A09C:  CALL   3E02
....................          strcpy(Menus.Letra,"Guardado"); 
0A0A0:  MOVLW  06
0A0A2:  MOVWF  FEA
0A0A4:  MOVLW  3C
0A0A6:  MOVWF  FE9
0A0A8:  MOVFF  FF2,652
0A0AC:  BCF    FF2.7
0A0AE:  MOVLW  00
0A0B0:  CALL   14CC
0A0B4:  TBLRD*-
0A0B6:  TBLRD*+
0A0B8:  MOVF   FF5,W
0A0BA:  MOVWF  FEE
0A0BC:  IORLW  00
0A0BE:  BNZ   A0B6
0A0C0:  MOVLB  6
0A0C2:  BTFSC  x52.7
0A0C4:  BSF    FF2.7
....................          displayMenu(Menus.Letra,0,30,0,2); 
0A0C6:  MOVLW  06
0A0C8:  MOVWF  x5B
0A0CA:  MOVLW  3C
0A0CC:  MOVWF  x5A
0A0CE:  CLRF   x5C
0A0D0:  MOVLW  1E
0A0D2:  MOVWF  x5D
0A0D4:  CLRF   x5E
0A0D6:  MOVLW  02
0A0D8:  MOVWF  x5F
0A0DA:  MOVLB  0
0A0DC:  CALL   3E02
....................          glcd_update(); 
0A0E0:  CALL   2F3E
....................          delay_ms(1000); 
0A0E4:  MOVLW  04
0A0E6:  MOVLB  6
0A0E8:  MOVWF  x52
0A0EA:  MOVLW  FA
0A0EC:  MOVWF  x5B
0A0EE:  MOVLB  0
0A0F0:  CALL   16D4
0A0F4:  MOVLB  6
0A0F6:  DECFSZ x52,F
0A0F8:  BRA    A0EA
....................          glcd_fillScreen(OFF); 
0A0FA:  CLRF   x5A
0A0FC:  MOVLB  0
0A0FE:  CALL   2EE4
....................          Pini=Pinicial; 
0A102:  MOVLB  6
0A104:  CLRF   x58
0A106:  MOVFF  4EA,657
0A10A:  MOVLB  0
0A10C:  CALL   16FC
0A110:  MOVFF  03,577
0A114:  MOVFF  02,576
0A118:  MOVFF  01,575
0A11C:  MOVFF  00,574
....................          Pini=Pini/100.0; 
0A120:  MOVFF  577,65A
0A124:  MOVFF  576,659
0A128:  MOVFF  575,658
0A12C:  MOVFF  574,657
0A130:  MOVLB  6
0A132:  CLRF   x5E
0A134:  CLRF   x5D
0A136:  MOVLW  48
0A138:  MOVWF  x5C
0A13A:  MOVLW  85
0A13C:  MOVWF  x5B
0A13E:  MOVLB  0
0A140:  CALL   1732
0A144:  MOVFF  03,577
0A148:  MOVFF  02,576
0A14C:  MOVFF  01,575
0A150:  MOVFF  00,574
....................          Pfin=Pfinal; 
0A154:  MOVLB  6
0A156:  CLRF   x58
0A158:  MOVFF  4EB,657
0A15C:  MOVLB  0
0A15E:  CALL   16FC
0A162:  MOVFF  03,57B
0A166:  MOVFF  02,57A
0A16A:  MOVFF  01,579
0A16E:  MOVFF  00,578
....................          Pfin=Pfin/100.0; 
0A172:  MOVFF  57B,65A
0A176:  MOVFF  57A,659
0A17A:  MOVFF  579,658
0A17E:  MOVFF  578,657
0A182:  MOVLB  6
0A184:  CLRF   x5E
0A186:  CLRF   x5D
0A188:  MOVLW  48
0A18A:  MOVWF  x5C
0A18C:  MOVLW  85
0A18E:  MOVWF  x5B
0A190:  MOVLB  0
0A192:  CALL   1732
0A196:  MOVFF  03,57B
0A19A:  MOVFF  02,57A
0A19E:  MOVFF  01,579
0A1A2:  MOVFF  00,578
....................          Menu=32; 
0A1A6:  MOVLW  20
0A1A8:  MOVLB  4
0A1AA:  MOVWF  xE1
0A1AC:  MOVLB  0
....................       } 
....................     } 
.................... //_--------------------------------------------------------------------------------------------------------------------------------------------------------        
....................  
.................... //_-------------------------------------------------------------------------------------------------------------------------------------------------------- 
....................       if(Menu==46){ //Menu de Presion Final 
0A1AE:  MOVLB  4
0A1B0:  MOVF   xE1,W
0A1B2:  SUBLW  2E
0A1B4:  BTFSS  FD8.2
0A1B6:  BRA    A418
....................        
....................       if(Pfinal>100)Pfinal=10; 
0A1B8:  MOVF   xEB,W
0A1BA:  SUBLW  64
0A1BC:  BC    A1C2
0A1BE:  MOVLW  0A
0A1C0:  MOVWF  xEB
....................       if(Pfinal<10)Pfinal=100; 
0A1C2:  MOVF   xEB,W
0A1C4:  SUBLW  09
0A1C6:  BNC   A1CC
0A1C8:  MOVLW  64
0A1CA:  MOVWF  xEB
....................        
....................       strcpy(Menus.Letra,"P. Final"); 
0A1CC:  MOVLW  06
0A1CE:  MOVWF  FEA
0A1D0:  MOVLW  3C
0A1D2:  MOVWF  FE9
0A1D4:  MOVFF  FF2,652
0A1D8:  BCF    FF2.7
0A1DA:  MOVLW  00
0A1DC:  MOVLB  0
0A1DE:  CALL   151E
0A1E2:  TBLRD*-
0A1E4:  TBLRD*+
0A1E6:  MOVF   FF5,W
0A1E8:  MOVWF  FEE
0A1EA:  IORLW  00
0A1EC:  BNZ   A1E4
0A1EE:  MOVLB  6
0A1F0:  BTFSC  x52.7
0A1F2:  BSF    FF2.7
....................       displayMenu(Menus.Letra,10,0,1,1); 
0A1F4:  MOVLW  06
0A1F6:  MOVWF  x5B
0A1F8:  MOVLW  3C
0A1FA:  MOVWF  x5A
0A1FC:  MOVLW  0A
0A1FE:  MOVWF  x5C
0A200:  CLRF   x5D
0A202:  MOVLW  01
0A204:  MOVWF  x5E
0A206:  MOVWF  x5F
0A208:  MOVLB  0
0A20A:  CALL   3E02
....................        
....................       displayfloat(Pfinal,44,30,0,2); 
0A20E:  MOVLB  6
0A210:  CLRF   x58
0A212:  MOVFF  4EB,657
0A216:  MOVLB  0
0A218:  CALL   16FC
0A21C:  MOVFF  00,652
0A220:  MOVFF  01,653
0A224:  MOVFF  02,654
0A228:  MOVFF  03,655
0A22C:  MOVFF  03,659
0A230:  MOVFF  02,658
0A234:  MOVFF  01,657
0A238:  MOVFF  00,656
0A23C:  MOVLW  2C
0A23E:  MOVLB  6
0A240:  MOVWF  x5A
0A242:  MOVLW  1E
0A244:  MOVWF  x5B
0A246:  CLRF   x5C
0A248:  MOVLW  02
0A24A:  MOVWF  x5D
0A24C:  MOVLB  0
0A24E:  CALL   4CE2
....................        
....................       if(UP)//Si oprime hacia arriba 
0A252:  BSF    F92.4
0A254:  BTFSC  F80.4
0A256:  BRA    A26C
....................       {   
....................          delay_ms(100);Pfinal+=1; 
0A258:  MOVLW  64
0A25A:  MOVLB  6
0A25C:  MOVWF  x5B
0A25E:  MOVLB  0
0A260:  CALL   16D4
0A264:  MOVLW  01
0A266:  MOVLB  4
0A268:  ADDWF  xEB,F
0A26A:  MOVLB  0
....................       } 
....................              
....................       if(DOWN)//Si oprime hacia abajo 
0A26C:  BSF    F92.5
0A26E:  BTFSC  F80.5
0A270:  BRA    A286
....................       {   
....................          delay_ms(100);Pfinal-=1; 
0A272:  MOVLW  64
0A274:  MOVLB  6
0A276:  MOVWF  x5B
0A278:  MOVLB  0
0A27A:  CALL   16D4
0A27E:  MOVLW  01
0A280:  MOVLB  4
0A282:  SUBWF  xEB,F
0A284:  MOVLB  0
....................       } 
....................              
....................       if(LEFT)//Si oprime boton de Toma. 
0A286:  BSF    F96.1
0A288:  BTFSC  F84.1
0A28A:  BRA    A41A
....................       {    
....................          write_eeprom(41,Pfinal); 
0A28C:  CLRF   FAA
0A28E:  MOVLW  29
0A290:  MOVWF  FA9
0A292:  MOVFF  4EB,FA8
0A296:  BCF    FA6.6
0A298:  BCF    FA6.7
0A29A:  BSF    FA6.2
0A29C:  MOVF   FF2,W
0A29E:  MOVWF  00
0A2A0:  BCF    FF2.7
0A2A2:  MOVLB  F
0A2A4:  MOVLW  55
0A2A6:  MOVWF  FA7
0A2A8:  MOVLW  AA
0A2AA:  MOVWF  FA7
0A2AC:  BSF    FA6.1
0A2AE:  BTFSC  FA6.1
0A2B0:  BRA    A2AE
0A2B2:  BCF    FA6.2
0A2B4:  MOVF   00,W
0A2B6:  IORWF  FF2,F
....................          delay_ms(20); 
0A2B8:  MOVLW  14
0A2BA:  MOVLB  6
0A2BC:  MOVWF  x5B
0A2BE:  MOVLB  0
0A2C0:  CALL   16D4
....................          glcd_fillScreen(OFF); 
0A2C4:  MOVLB  6
0A2C6:  CLRF   x5A
0A2C8:  MOVLB  0
0A2CA:  CALL   2EE4
....................          strcpy(Menus.Letra,"Valor"); 
0A2CE:  MOVLW  06
0A2D0:  MOVWF  FEA
0A2D2:  MOVLW  3C
0A2D4:  MOVWF  FE9
0A2D6:  MOVFF  FF2,652
0A2DA:  BCF    FF2.7
0A2DC:  MOVLW  00
0A2DE:  CALL   14A8
0A2E2:  TBLRD*-
0A2E4:  TBLRD*+
0A2E6:  MOVF   FF5,W
0A2E8:  MOVWF  FEE
0A2EA:  IORLW  00
0A2EC:  BNZ   A2E4
0A2EE:  MOVLB  6
0A2F0:  BTFSC  x52.7
0A2F2:  BSF    FF2.7
....................          displayMenu(Menus.Letra,0,0,0,2); 
0A2F4:  MOVLW  06
0A2F6:  MOVWF  x5B
0A2F8:  MOVLW  3C
0A2FA:  MOVWF  x5A
0A2FC:  CLRF   x5C
0A2FE:  CLRF   x5D
0A300:  CLRF   x5E
0A302:  MOVLW  02
0A304:  MOVWF  x5F
0A306:  MOVLB  0
0A308:  CALL   3E02
....................          strcpy(Menus.Letra,"Guardado"); 
0A30C:  MOVLW  06
0A30E:  MOVWF  FEA
0A310:  MOVLW  3C
0A312:  MOVWF  FE9
0A314:  MOVFF  FF2,652
0A318:  BCF    FF2.7
0A31A:  MOVLW  00
0A31C:  CALL   14CC
0A320:  TBLRD*-
0A322:  TBLRD*+
0A324:  MOVF   FF5,W
0A326:  MOVWF  FEE
0A328:  IORLW  00
0A32A:  BNZ   A322
0A32C:  MOVLB  6
0A32E:  BTFSC  x52.7
0A330:  BSF    FF2.7
....................          displayMenu(Menus.Letra,0,30,0,2); 
0A332:  MOVLW  06
0A334:  MOVWF  x5B
0A336:  MOVLW  3C
0A338:  MOVWF  x5A
0A33A:  CLRF   x5C
0A33C:  MOVLW  1E
0A33E:  MOVWF  x5D
0A340:  CLRF   x5E
0A342:  MOVLW  02
0A344:  MOVWF  x5F
0A346:  MOVLB  0
0A348:  CALL   3E02
....................          glcd_update(); 
0A34C:  CALL   2F3E
....................          delay_ms(1000); 
0A350:  MOVLW  04
0A352:  MOVLB  6
0A354:  MOVWF  x52
0A356:  MOVLW  FA
0A358:  MOVWF  x5B
0A35A:  MOVLB  0
0A35C:  CALL   16D4
0A360:  MOVLB  6
0A362:  DECFSZ x52,F
0A364:  BRA    A356
....................          glcd_fillScreen(OFF); 
0A366:  CLRF   x5A
0A368:  MOVLB  0
0A36A:  CALL   2EE4
....................          Pini=Pinicial; 
0A36E:  MOVLB  6
0A370:  CLRF   x58
0A372:  MOVFF  4EA,657
0A376:  MOVLB  0
0A378:  CALL   16FC
0A37C:  MOVFF  03,577
0A380:  MOVFF  02,576
0A384:  MOVFF  01,575
0A388:  MOVFF  00,574
....................          Pini=Pini/100.0; 
0A38C:  MOVFF  577,65A
0A390:  MOVFF  576,659
0A394:  MOVFF  575,658
0A398:  MOVFF  574,657
0A39C:  MOVLB  6
0A39E:  CLRF   x5E
0A3A0:  CLRF   x5D
0A3A2:  MOVLW  48
0A3A4:  MOVWF  x5C
0A3A6:  MOVLW  85
0A3A8:  MOVWF  x5B
0A3AA:  MOVLB  0
0A3AC:  CALL   1732
0A3B0:  MOVFF  03,577
0A3B4:  MOVFF  02,576
0A3B8:  MOVFF  01,575
0A3BC:  MOVFF  00,574
....................          Pfin=Pfinal; 
0A3C0:  MOVLB  6
0A3C2:  CLRF   x58
0A3C4:  MOVFF  4EB,657
0A3C8:  MOVLB  0
0A3CA:  CALL   16FC
0A3CE:  MOVFF  03,57B
0A3D2:  MOVFF  02,57A
0A3D6:  MOVFF  01,579
0A3DA:  MOVFF  00,578
....................          Pfin=Pfin/100.0; 
0A3DE:  MOVFF  57B,65A
0A3E2:  MOVFF  57A,659
0A3E6:  MOVFF  579,658
0A3EA:  MOVFF  578,657
0A3EE:  MOVLB  6
0A3F0:  CLRF   x5E
0A3F2:  CLRF   x5D
0A3F4:  MOVLW  48
0A3F6:  MOVWF  x5C
0A3F8:  MOVLW  85
0A3FA:  MOVWF  x5B
0A3FC:  MOVLB  0
0A3FE:  CALL   1732
0A402:  MOVFF  03,57B
0A406:  MOVFF  02,57A
0A40A:  MOVFF  01,579
0A40E:  MOVFF  00,578
....................          Menu=32; 
0A412:  MOVLW  20
0A414:  MOVLB  4
0A416:  MOVWF  xE1
0A418:  MOVLB  0
....................       } 
....................     } 
.................... //_--------------------------------------------------------------------------------------------------------------------------------------------------------        
....................  
.................... //_-------------------------------------------------------------------------------------------------------------------------------------------------------- 
....................       if(Menu==120){ //Menu de Post-Purga. 
0A41A:  MOVLB  4
0A41C:  MOVF   xE1,W
0A41E:  SUBLW  78
0A420:  BTFSS  FD8.2
0A422:  BRA    A5BA
....................        
....................       // Para que inicie el tiempo de Post-Purga se debe oprimir el boton de encendido en el Microcontrolador esclavo. 
....................       strcpy(Menus.Letra,"Tiempo"); 
0A424:  MOVLW  06
0A426:  MOVWF  FEA
0A428:  MOVLW  3C
0A42A:  MOVWF  FE9
0A42C:  MOVFF  FF2,652
0A430:  BCF    FF2.7
0A432:  MOVLW  00
0A434:  MOVLB  0
0A436:  CALL   1546
0A43A:  TBLRD*-
0A43C:  TBLRD*+
0A43E:  MOVF   FF5,W
0A440:  MOVWF  FEE
0A442:  IORLW  00
0A444:  BNZ   A43C
0A446:  MOVLB  6
0A448:  BTFSC  x52.7
0A44A:  BSF    FF2.7
....................       displayMenu(Menus.Letra,30,0,1,2); 
0A44C:  MOVLW  06
0A44E:  MOVWF  x5B
0A450:  MOVLW  3C
0A452:  MOVWF  x5A
0A454:  MOVLW  1E
0A456:  MOVWF  x5C
0A458:  CLRF   x5D
0A45A:  MOVLW  01
0A45C:  MOVWF  x5E
0A45E:  MOVLW  02
0A460:  MOVWF  x5F
0A462:  MOVLB  0
0A464:  CALL   3E02
....................       strcpy(Menus.Letra,"Post-Purga"); 
0A468:  MOVLW  06
0A46A:  MOVWF  FEA
0A46C:  MOVLW  3C
0A46E:  MOVWF  FE9
0A470:  MOVFF  FF2,652
0A474:  BCF    FF2.7
0A476:  MOVLW  00
0A478:  CALL   156C
0A47C:  TBLRD*-
0A47E:  TBLRD*+
0A480:  MOVF   FF5,W
0A482:  MOVWF  FEE
0A484:  IORLW  00
0A486:  BNZ   A47E
0A488:  MOVLB  6
0A48A:  BTFSC  x52.7
0A48C:  BSF    FF2.7
....................       displayMenu(Menus.Letra,10,17,1,2); 
0A48E:  MOVLW  06
0A490:  MOVWF  x5B
0A492:  MOVLW  3C
0A494:  MOVWF  x5A
0A496:  MOVLW  0A
0A498:  MOVWF  x5C
0A49A:  MOVLW  11
0A49C:  MOVWF  x5D
0A49E:  MOVLW  01
0A4A0:  MOVWF  x5E
0A4A2:  MOVLW  02
0A4A4:  MOVWF  x5F
0A4A6:  MOVLB  0
0A4A8:  CALL   3E02
....................        
....................       tiempo_postpurga=1; 
0A4AC:  MOVLB  4
0A4AE:  BSF    x1C.1
....................       LuzBlanca_off;  
0A4B0:  BSF    F8B.2
0A4B2:  BCF    F94.2
....................       LuzUV_off; 
0A4B4:  BSF    F8B.3
0A4B6:  BCF    F94.3
....................       Toma_off; 
0A4B8:  BSF    F8B.0
0A4BA:  BCF    F94.0
....................       Alarma_off; 
0A4BC:  BCF    F8B.1
0A4BE:  BCF    F94.1
....................       VelocidadMotor(VelMotor); 
0A4C0:  MOVFF  4F9,652
0A4C4:  MOVLB  0
0A4C6:  CALL   45D2
....................       flag_blower=1; 
0A4CA:  MOVLB  4
0A4CC:  BSF    x1B.1
....................        
....................        displayTiempo(Tppurga[3],20,40,0,2);displayTiempo(Tppurga[2],40,40,0,2);glcd_text57(60, 42, Dos_puntos, 2, ON); 
0A4CE:  MOVFF  513,652
0A4D2:  MOVLW  14
0A4D4:  MOVLB  6
0A4D6:  MOVWF  x53
0A4D8:  MOVLW  28
0A4DA:  MOVWF  x54
0A4DC:  CLRF   x55
0A4DE:  MOVLW  02
0A4E0:  MOVWF  x56
0A4E2:  MOVLB  0
0A4E4:  CALL   467A
0A4E8:  MOVFF  512,652
0A4EC:  MOVLW  28
0A4EE:  MOVLB  6
0A4F0:  MOVWF  x53
0A4F2:  MOVWF  x54
0A4F4:  CLRF   x55
0A4F6:  MOVLW  02
0A4F8:  MOVWF  x56
0A4FA:  MOVLB  0
0A4FC:  CALL   467A
0A500:  MOVLW  3C
0A502:  MOVLB  6
0A504:  MOVWF  x6B
0A506:  MOVLW  2A
0A508:  MOVWF  x6C
0A50A:  MOVLW  04
0A50C:  MOVWF  x6E
0A50E:  MOVLW  45
0A510:  MOVWF  x6D
0A512:  MOVLW  02
0A514:  MOVWF  x6F
0A516:  MOVLW  01
0A518:  MOVWF  x70
0A51A:  MOVLB  0
0A51C:  CALL   3B94
....................        displayTiempo(Tppurga[1],70,40,0,2);displayTiempo(Tppurga[0],90,40,0,2);  
0A520:  MOVFF  511,652
0A524:  MOVLW  46
0A526:  MOVLB  6
0A528:  MOVWF  x53
0A52A:  MOVLW  28
0A52C:  MOVWF  x54
0A52E:  CLRF   x55
0A530:  MOVLW  02
0A532:  MOVWF  x56
0A534:  MOVLB  0
0A536:  CALL   467A
0A53A:  MOVFF  510,652
0A53E:  MOVLW  5A
0A540:  MOVLB  6
0A542:  MOVWF  x53
0A544:  MOVLW  28
0A546:  MOVWF  x54
0A548:  CLRF   x55
0A54A:  MOVLW  02
0A54C:  MOVWF  x56
0A54E:  MOVLB  0
0A550:  CALL   467A
....................        
....................       if(RIGHT) 
0A554:  BSF    F96.0
0A556:  BTFSC  F84.0
0A558:  BRA    A58C
....................       { 
....................          delay_ms(1000); 
0A55A:  MOVLW  04
0A55C:  MOVLB  6
0A55E:  MOVWF  x52
0A560:  MOVLW  FA
0A562:  MOVWF  x5B
0A564:  MOVLB  0
0A566:  CALL   16D4
0A56A:  MOVLB  6
0A56C:  DECFSZ x52,F
0A56E:  BRA    A560
....................          if(RIGHT ) 
0A570:  BSF    F96.0
0A572:  BTFSC  F84.0
0A574:  BRA    A58C
....................          { 
....................             delay_ms(1500); 
0A576:  MOVLW  06
0A578:  MOVWF  x52
0A57A:  MOVLW  FA
0A57C:  MOVWF  x5B
0A57E:  MOVLB  0
0A580:  CALL   16D4
0A584:  MOVLB  6
0A586:  DECFSZ x52,F
0A588:  BRA    A57A
....................             reset_cpu(); 
0A58A:  RESET
....................          } 
....................       } 
....................        
....................       if((Tppurga[0]==Tppurgap[0])&&(Tppurga[1]==Tppurgap[1])&&(Tppurga[2]==Tppurgap[2])&&(Tppurga[3]==Tppurgap[3])) 
0A58C:  MOVLB  5
0A58E:  MOVF   x14,W
0A590:  SUBWF  x10,W
0A592:  BNZ   A5B8
0A594:  MOVF   x15,W
0A596:  SUBWF  x11,W
0A598:  BNZ   A5B8
0A59A:  MOVF   x16,W
0A59C:  SUBWF  x12,W
0A59E:  BNZ   A5B8
0A5A0:  MOVF   x17,W
0A5A2:  SUBWF  x13,W
0A5A4:  BNZ   A5B8
....................       {tiempo_postpurga=0;glcd_fillScreen(OFF);reset_cpu();} 
0A5A6:  MOVLB  4
0A5A8:  BCF    x1C.1
0A5AA:  MOVLB  6
0A5AC:  CLRF   x5A
0A5AE:  MOVLB  0
0A5B0:  CALL   2EE4
0A5B4:  RESET
0A5B6:  MOVLB  5
0A5B8:  MOVLB  4
....................       
....................     } 
.................... //_--------------------------------------------------------------------------------------------------------------------------------------------------------        
....................  
.................... //_-------------------------------------------------------------------------------------------------------------------------------------------------------- 
....................       if(Menu==200){ //Menu de Inicio. 
0A5BA:  MOVF   xE1,W
0A5BC:  SUBLW  C8
0A5BE:  BTFSS  FD8.2
0A5C0:  BRA    A816
....................           
....................       if((UP)||(DOWN)||(RIGHT)) 
0A5C2:  BSF    F92.4
0A5C4:  BTFSS  F80.4
0A5C6:  BRA    A5D4
0A5C8:  BSF    F92.5
0A5CA:  BTFSS  F80.5
0A5CC:  BRA    A5D4
0A5CE:  BSF    F96.0
0A5D0:  BTFSC  F84.0
0A5D2:  BRA    A7F4
....................       { 
....................          delay_ms(1000); 
0A5D4:  MOVLW  04
0A5D6:  MOVLB  6
0A5D8:  MOVWF  x52
0A5DA:  MOVLW  FA
0A5DC:  MOVWF  x5B
0A5DE:  MOVLB  0
0A5E0:  CALL   16D4
0A5E4:  MOVLB  6
0A5E6:  DECFSZ x52,F
0A5E8:  BRA    A5DA
....................          if((UP)||(DOWN)||(RIGHT)) 
0A5EA:  BSF    F92.4
0A5EC:  BTFSS  F80.4
0A5EE:  BRA    A5FC
0A5F0:  BSF    F92.5
0A5F2:  BTFSS  F80.5
0A5F4:  BRA    A5FC
0A5F6:  BSF    F96.0
0A5F8:  BTFSC  F84.0
0A5FA:  BRA    A7F0
....................          { 
....................              
....................             Display_on; 
0A5FC:  BSF    F8A.1
0A5FE:  BCF    F93.1
....................             glcd_init(ON);             //Inicializa la glcd 
0A600:  MOVLW  01
0A602:  MOVWF  x52
0A604:  MOVLB  0
0A606:  CALL   2FF6
....................             glcd_fillScreen(OFF);      //Limpia la pantalla 
0A60A:  MOVLB  6
0A60C:  CLRF   x5A
0A60E:  MOVLB  0
0A610:  CALL   2EE4
....................             glcd_text57(0, 0, JP, 2, ON);glcd_text57(5, 20, Cabina, 1, ON);glcd_text57(10, 40, Clase, 2, ON);              
0A614:  MOVLB  6
0A616:  CLRF   x6B
0A618:  CLRF   x6C
0A61A:  MOVLW  04
0A61C:  MOVWF  x6E
0A61E:  MOVLW  1E
0A620:  MOVWF  x6D
0A622:  MOVLW  02
0A624:  MOVWF  x6F
0A626:  MOVLW  01
0A628:  MOVWF  x70
0A62A:  MOVLB  0
0A62C:  CALL   3B94
0A630:  MOVLW  05
0A632:  MOVLB  6
0A634:  MOVWF  x6B
0A636:  MOVLW  14
0A638:  MOVWF  x6C
0A63A:  MOVLW  04
0A63C:  MOVWF  x6E
0A63E:  MOVLW  2A
0A640:  MOVWF  x6D
0A642:  MOVLW  01
0A644:  MOVWF  x6F
0A646:  MOVWF  x70
0A648:  MOVLB  0
0A64A:  CALL   3B94
0A64E:  MOVLW  0A
0A650:  MOVLB  6
0A652:  MOVWF  x6B
0A654:  MOVLW  28
0A656:  MOVWF  x6C
0A658:  MOVLW  04
0A65A:  MOVWF  x6E
0A65C:  MOVLW  47
0A65E:  MOVWF  x6D
0A660:  MOVLW  02
0A662:  MOVWF  x6F
0A664:  MOVLW  01
0A666:  MOVWF  x70
0A668:  MOVLB  0
0A66A:  CALL   3B94
....................             glcd_update();    
0A66E:  CALL   2F3E
....................             delay_ms(3000); 
0A672:  MOVLW  0C
0A674:  MOVLB  6
0A676:  MOVWF  x52
0A678:  MOVLW  FA
0A67A:  MOVWF  x5B
0A67C:  MOVLB  0
0A67E:  CALL   16D4
0A682:  MOVLB  6
0A684:  DECFSZ x52,F
0A686:  BRA    A678
....................                         
....................             glcd_fillScreen(OFF);      //Limpia la pantalla 
0A688:  CLRF   x5A
0A68A:  MOVLB  0
0A68C:  CALL   2EE4
....................             displayContrasena(Contrasena[0],20,30,1);displayContrasena(Contrasena[1],40,30,0); 
0A690:  MOVFF  528,65C
0A694:  MOVLW  14
0A696:  MOVLB  6
0A698:  MOVWF  x5D
0A69A:  MOVLW  1E
0A69C:  MOVWF  x5E
0A69E:  MOVLW  01
0A6A0:  MOVWF  x5F
0A6A2:  MOVLB  0
0A6A4:  CALL   3D4C
0A6A8:  MOVFF  529,65C
0A6AC:  MOVLW  28
0A6AE:  MOVLB  6
0A6B0:  MOVWF  x5D
0A6B2:  MOVLW  1E
0A6B4:  MOVWF  x5E
0A6B6:  CLRF   x5F
0A6B8:  MOVLB  0
0A6BA:  CALL   3D4C
....................             displayContrasena(Contrasena[2],60,30,0);displayContrasena(Contrasena[0],80,30,0); 
0A6BE:  MOVFF  52A,65C
0A6C2:  MOVLW  3C
0A6C4:  MOVLB  6
0A6C6:  MOVWF  x5D
0A6C8:  MOVLW  1E
0A6CA:  MOVWF  x5E
0A6CC:  CLRF   x5F
0A6CE:  MOVLB  0
0A6D0:  CALL   3D4C
0A6D4:  MOVFF  528,65C
0A6D8:  MOVLW  50
0A6DA:  MOVLB  6
0A6DC:  MOVWF  x5D
0A6DE:  MOVLW  1E
0A6E0:  MOVWF  x5E
0A6E2:  CLRF   x5F
0A6E4:  MOVLB  0
0A6E6:  CALL   3D4C
....................             glcd_rect(0, 0, 127, 25, YES, ON);strcpy(Menus.Letra,"Clave");glcd_text57(25, 1, Menus.Letra, 3, OFF);    
0A6EA:  MOVLB  6
0A6EC:  CLRF   x6B
0A6EE:  CLRF   x6C
0A6F0:  MOVLW  7F
0A6F2:  MOVWF  x6D
0A6F4:  MOVLW  19
0A6F6:  MOVWF  x6E
0A6F8:  MOVLW  01
0A6FA:  MOVWF  x6F
0A6FC:  MOVWF  x70
0A6FE:  MOVLB  0
0A700:  CALL   3AD2
0A704:  MOVLW  06
0A706:  MOVWF  FEA
0A708:  MOVLW  3C
0A70A:  MOVWF  FE9
0A70C:  MOVFF  FF2,652
0A710:  BCF    FF2.7
0A712:  MOVLW  00
0A714:  CALL   0F0A
0A718:  TBLRD*-
0A71A:  TBLRD*+
0A71C:  MOVF   FF5,W
0A71E:  MOVWF  FEE
0A720:  IORLW  00
0A722:  BNZ   A71A
0A724:  MOVLB  6
0A726:  BTFSC  x52.7
0A728:  BSF    FF2.7
0A72A:  MOVLW  19
0A72C:  MOVWF  x6B
0A72E:  MOVLW  01
0A730:  MOVWF  x6C
0A732:  MOVLW  06
0A734:  MOVWF  x6E
0A736:  MOVLW  3C
0A738:  MOVWF  x6D
0A73A:  MOVLW  03
0A73C:  MOVWF  x6F
0A73E:  CLRF   x70
0A740:  MOVLB  0
0A742:  CALL   3B94
....................             Menu=0; 
0A746:  MOVLB  4
0A748:  CLRF   xE1
....................             Pini=Pinicial; 
0A74A:  MOVLB  6
0A74C:  CLRF   x58
0A74E:  MOVFF  4EA,657
0A752:  MOVLB  0
0A754:  CALL   16FC
0A758:  MOVFF  03,577
0A75C:  MOVFF  02,576
0A760:  MOVFF  01,575
0A764:  MOVFF  00,574
....................             Pini=Pini/100.0; 
0A768:  MOVFF  577,65A
0A76C:  MOVFF  576,659
0A770:  MOVFF  575,658
0A774:  MOVFF  574,657
0A778:  MOVLB  6
0A77A:  CLRF   x5E
0A77C:  CLRF   x5D
0A77E:  MOVLW  48
0A780:  MOVWF  x5C
0A782:  MOVLW  85
0A784:  MOVWF  x5B
0A786:  MOVLB  0
0A788:  CALL   1732
0A78C:  MOVFF  03,577
0A790:  MOVFF  02,576
0A794:  MOVFF  01,575
0A798:  MOVFF  00,574
....................             Pfin=Pfinal; 
0A79C:  MOVLB  6
0A79E:  CLRF   x58
0A7A0:  MOVFF  4EB,657
0A7A4:  MOVLB  0
0A7A6:  CALL   16FC
0A7AA:  MOVFF  03,57B
0A7AE:  MOVFF  02,57A
0A7B2:  MOVFF  01,579
0A7B6:  MOVFF  00,578
....................             Pfin=Pfin/100.0; 
0A7BA:  MOVFF  57B,65A
0A7BE:  MOVFF  57A,659
0A7C2:  MOVFF  579,658
0A7C6:  MOVFF  578,657
0A7CA:  MOVLB  6
0A7CC:  CLRF   x5E
0A7CE:  CLRF   x5D
0A7D0:  MOVLW  48
0A7D2:  MOVWF  x5C
0A7D4:  MOVLW  85
0A7D6:  MOVWF  x5B
0A7D8:  MOVLB  0
0A7DA:  CALL   1732
0A7DE:  MOVFF  03,57B
0A7E2:  MOVFF  02,57A
0A7E6:  MOVFF  01,579
0A7EA:  MOVFF  00,578
0A7EE:  MOVLB  6
....................          } 
....................       } 
....................       else 
0A7F0:  BRA    A814
0A7F2:  MOVLB  4
....................       { 
....................          Display_off;VelocidadMotor(0);LuzBlanca_off;LuzUV_off;Toma_off;Alarma_off; 
0A7F4:  BCF    F8A.1
0A7F6:  BCF    F93.1
0A7F8:  MOVLB  6
0A7FA:  CLRF   x52
0A7FC:  MOVLB  0
0A7FE:  CALL   45D2
0A802:  BSF    F8B.2
0A804:  BCF    F94.2
0A806:  BSF    F8B.3
0A808:  BCF    F94.3
0A80A:  BSF    F8B.0
0A80C:  BCF    F94.0
0A80E:  BCF    F8B.1
0A810:  BCF    F94.1
0A812:  MOVLB  6
0A814:  MOVLB  4
....................       } 
....................     } 
.................... //_--------------------------------------------------------------------------------------------------------------------------------------------------------        
....................  
....................    if(tiemporeset>=60 && Menu!=0 && Menu!=5 && Menu!=211) 
0A816:  MOVF   xE8,W
0A818:  SUBLW  3B
0A81A:  BC    A83C
0A81C:  MOVF   xE1,F
0A81E:  BZ    A83C
0A820:  MOVF   xE1,W
0A822:  SUBLW  05
0A824:  BZ    A83C
0A826:  MOVF   xE1,W
0A828:  SUBLW  D3
0A82A:  BZ    A83C
....................    { 
....................       glcd_init(ON); 
0A82C:  MOVLW  01
0A82E:  MOVLB  6
0A830:  MOVWF  x52
0A832:  MOVLB  0
0A834:  CALL   2FF6
....................       tiemporeset=0; 
0A838:  MOVLB  4
0A83A:  CLRF   xE8
....................    }  
.................... } 
0A83C:  MOVLB  0
0A83E:  GOTO   53C4
....................  
.................... } 
....................    
0A842:  SLEEP 

Configuration Fuses:
   Word  1: 0200   HS NOIESO NOFCMEN
   Word  2: 1E1F   BROWNOUT NOWDT BORV20 NOPUT WDT32768
   Word  3: 8000   NOPBADEN NOLPT1OSC MCLR
   Word  4: 00B0   NOSTVREN NODEBUG NOLVP NOXINST BBSIZ4K
   Word  5: C03F   NOPROTECT NOCPD NOCPB
   Word  6: E03F   NOWRT NOWRTD NOWRTC NOWRTB
   Word  7: 403F   NOEBTR NOEBTRB
