CCS PCH C Compiler, Version 4.104, 5967               23-abr.-19 09:11

               Filename: H:\JP\JP\Laboratorio\Cabina de Flujo Laminar Horizontal\2019\CFLH 120 Ecuador Medidor de Flujo #004587951\Firmware V2.0\Maestro_v2.lst

               ROM used: 37976 bytes (39%)
                         Largest free fragment is 32768
               RAM used: 1602 (48%) at main() level
                         1660 (50%) worst case
               Stack:    6 worst case (5 in main + 1 for interrupts)

*
00000:  GOTO   4B7C
*
00008:  MOVWF  04
0000A:  MOVFF  FD8,05
0000E:  MOVFF  FE0,06
00012:  MOVLB  0
00014:  MOVFF  FE9,0C
00018:  MOVFF  FEA,07
0001C:  MOVFF  FE1,08
00020:  MOVFF  FE2,09
00024:  MOVFF  FD9,0A
00028:  MOVFF  FDA,0B
0002C:  MOVFF  FF3,12
00030:  MOVFF  FF4,13
00034:  MOVFF  FFA,14
00038:  MOVFF  FFB,15
0003C:  MOVFF  00,0E
00040:  MOVFF  01,0F
00044:  MOVFF  02,10
00048:  MOVFF  03,11
0004C:  BTFSS  F9D.0
0004E:  GOTO   0058
00052:  BTFSC  F9E.0
00054:  GOTO   13E2
00058:  MOVFF  0E,00
0005C:  MOVFF  0F,01
00060:  MOVFF  10,02
00064:  MOVFF  11,03
00068:  MOVFF  0C,FE9
0006C:  MOVFF  07,FEA
00070:  BSF    07.7
00072:  MOVFF  08,FE1
00076:  MOVFF  09,FE2
0007A:  MOVFF  0A,FD9
0007E:  MOVFF  0B,FDA
00082:  MOVFF  12,FF3
00086:  MOVFF  13,FF4
0008A:  MOVFF  14,FFA
0008E:  MOVFF  15,FFB
00092:  MOVF   04,W
00094:  MOVFF  06,FE0
00098:  MOVFF  05,FD8
0009C:  RETFIE 0
.................... //Programa para Cabina de Bioseguridad 
....................  
.................... #include <18F4685.h> 
.................... //////// Standard Header file for the PIC18F4685 device //////////////// 
.................... #device PIC18F4685 
.................... #list 
....................  
.................... #device adc=10 
.................... #fuses HS,NOWDT,NOPROTECT,NOLVP,NODEBUG,NOSTVREN,NOPUT,NOCPD,NOWRT,NOIESO,NOFCMEN,NOPBADEN,NOWRTC,NOWRTB,NOEBTR,NOEBTRB,NOCPB,NOXINST,NOLPT1OSC,NOMCLR 
.................... #use delay(clock=20000000) 
*
01512:  MOVLW  06
01514:  MOVWF  FEA
01516:  MOVLW  47
01518:  MOVWF  FE9
0151A:  MOVF   FEF,W
0151C:  BZ    1538
0151E:  MOVLW  06
01520:  MOVWF  01
01522:  CLRF   00
01524:  DECFSZ 00,F
01526:  BRA    1524
01528:  DECFSZ 01,F
0152A:  BRA    1522
0152C:  MOVLW  7B
0152E:  MOVWF  00
01530:  DECFSZ 00,F
01532:  BRA    1530
01534:  DECFSZ FEF,F
01536:  BRA    151E
01538:  RETLW  00
.................... #include "HDM64GS12.c" 
.................... ///////////////////////////////////////////////////////////////////////// 
.................... ////                           HDM64GS12.c                           //// 
.................... ////                                                                 //// 
.................... //// This file contains drivers for using a Hantronix HDM64GS12 with //// 
.................... //// a KS0108 display controller. The HDM64GS12 is 128 by 64 pixels. //// 
.................... //// The driver treats the upper left pixel as (0,0).                //// 
.................... ////                                                                 //// 
.................... //// Use #define FAST_GLCD if the target chip has at least 1k of RAM //// 
.................... //// to decrease the time it takes to update the display.            //// 
.................... //// glcd_update() must then be called to update the display after   //// 
.................... //// changing the pixel information.                                 //// 
.................... //// See ex_glcd.c for suggested usage.                              //// 
.................... //// See KS0108.c for controlling a single 64 by 64 display          //// 
.................... ///////////////////////////////////////////////////////////////////////// 
.................... ////                                                                 //// 
.................... //// LCD Pin connections:                                            //// 
.................... //// (These can be changed as needed in the following defines).      //// 
.................... ////  * 1: VSS is connected to GND                                   //// 
.................... ////  * 2: VDD is connected to +5V                                   //// 
.................... ////  * 3: V0  - LCD operating voltage (Constrast adjustment)        //// 
.................... ////  * 4: D/I - Data or Instruction is connected to B2              //// 
.................... ////  * 5: R/W - Read or Write is connected to B4                    //// 
.................... ////  * 6: Enable is connected to B5                                 //// 
.................... ////  *7-14: Data Bus 0 to 7 is connected to port d                  //// 
.................... ////  *15: Chip Select 1 is connected to B0                          //// 
.................... ////  *16: Chip Select 2 is connected to B1                          //// 
.................... ////  *17: Reset is connected to C0                                  //// 
.................... ////  *18: Negative voltage is also connected to the 20k Ohm POT     //// 
.................... ////  *19: Positive voltage for LED backlight is connected to +5V    //// 
.................... ////  *20: Negavtive voltage for LED backlight is connected to GND   //// 
.................... ////                                                                 //// 
.................... ///////////////////////////////////////////////////////////////////////// 
.................... ////                                                                 //// 
.................... ////  glcd_init(mode)                                                //// 
.................... ////     * Must be called before any other function.                 //// 
.................... ////       - mode can be ON or OFF to turn the LCD on or off         //// 
.................... ////                                                                 //// 
.................... ////  glcd_pixel(x,y,color)                                          //// 
.................... ////     * Sets the pixel to the given color.                        //// 
.................... ////       - color can be ON or OFF                                  //// 
.................... ////                                                                 //// 
.................... ////  glcd_fillScreen(color)                                         //// 
.................... ////     * Fills the entire LCD with the given color.                //// 
.................... ////       - color can be ON or OFF                                  //// 
.................... ////                                                                 //// 
.................... ////  glcd_update()                                                  //// 
.................... ////     * Write the display data stored in RAM to the LCD           //// 
.................... ////     * Only available if FAST_GLCD is defined                    //// 
.................... ////                                                                 //// 
.................... ///////////////////////////////////////////////////////////////////////// 
.................... ////        (C) Copyright 1996, 2004 Custom Computer Services        //// 
.................... //// This source code may only be used by licensed users of the CCS  //// 
.................... //// C compiler.  This source code may only be distributed to other  //// 
.................... //// licensed users of the CCS C compiler.  No other use,            //// 
.................... //// reproduction or distribution is permitted without written       //// 
.................... //// permission.  Derivative programs created using this software    //// 
.................... //// in object code form are not restricted in any way.              //// 
.................... ///////////////////////////////////////////////////////////////////////// 
....................  
....................  
....................  
.................... #ifndef HDM64GS12 
.................... #define HDM64GS12 
....................  
.................... #ifndef FAST_GLCD 
.................... #define FAST_GLCD 
....................  
.................... #ifndef GLCD_WIDTH 
.................... #define GLCD_WIDTH   128 
.................... #endif 
....................  
.................... #ifndef GLCD_CS1 
.................... #define GLCD_CS1     PIN_B2   // Chip Selection 1 
.................... #endif 
....................  
.................... #ifndef GLCD_CS2 
.................... #define GLCD_CS2     PIN_B3   // Chip Selection 2 
.................... #endif 
....................  
.................... #ifndef GLCD_DI 
.................... #define GLCD_DI      PIN_B5   // Data or Instruction input 
.................... #endif 
....................  
.................... #ifndef GLCD_RW 
.................... #define GLCD_RW      PIN_B6   // Read/Write 
.................... #endif 
....................  
.................... #ifndef GLCD_E 
.................... #define GLCD_E       PIN_B7   // Enable 
.................... #endif 
....................  
.................... #ifndef GLCD_RST 
.................... #define GLCD_RST     PIN_B4   // Reset 
.................... #endif 
....................  
.................... #define GLCD_LEFT    0 
.................... #define GLCD_RIGHT   1 
....................  
.................... #ifndef ON 
.................... #define ON           1 
.................... #endif 
....................  
.................... #ifndef OFF 
.................... #define OFF          0 
.................... #endif 
....................  
.................... ///////////////////////////////////////////////////////////////////////// 
.................... // Function Prototypes 
.................... ///////////////////////////////////////////////////////////////////////// 
.................... void glcd_init(int1 mode); 
.................... void glcd_pixel(int8 x, int8 y, int1 color); 
.................... void glcd_fillScreen(int1 color); 
.................... void glcd_writeByte(int1 side, BYTE data); 
.................... BYTE glcd_readByte(int1 side); 
.................... void glcd_update(); 
.................... ///////////////////////////////////////////////////////////////////////// 
....................  
.................... #ifdef FAST_GLCD 
.................... struct 
.................... { 
....................    int8 left[512]; 
....................    int8 right[512]; 
.................... } displayData; 
.................... #endif 
....................  
....................  
.................... // Purpose:       Initialize the LCD. 
.................... //                Call before using any other LCD function. 
.................... // Inputs:        OFF - Turns the LCD off 
.................... //                ON  - Turns the LCD on 
.................... void glcd_init(int1 mode) 
.................... { 
....................    // Initialze some pins 
....................    output_high(GLCD_RST); 
*
04ABC:  BCF    F93.4
04ABE:  BSF    F8A.4
....................    output_low(GLCD_E); 
04AC0:  BCF    F93.7
04AC2:  BCF    F8A.7
....................    output_low(GLCD_CS1); 
04AC4:  BCF    F93.2
04AC6:  BCF    F8A.2
....................    output_low(GLCD_CS2); 
04AC8:  BCF    F93.3
04ACA:  BCF    F8A.3
....................  
....................    output_low(GLCD_DI);                 // Set for instruction 
04ACC:  BCF    F93.5
04ACE:  BCF    F8A.5
....................    glcd_writeByte(GLCD_LEFT,  0xC0);    // Specify first RAM line at the top 
04AD0:  MOVLB  6
04AD2:  CLRF   x4D
04AD4:  MOVLW  C0
04AD6:  MOVWF  x4E
04AD8:  MOVLB  0
04ADA:  CALL   2C2A
....................    glcd_writeByte(GLCD_RIGHT, 0xC0);    //   of the screen 
04ADE:  MOVLW  01
04AE0:  MOVLB  6
04AE2:  MOVWF  x4D
04AE4:  MOVLW  C0
04AE6:  MOVWF  x4E
04AE8:  MOVLB  0
04AEA:  CALL   2C2A
....................    glcd_writeByte(GLCD_LEFT,  0x40);    // Set the column address to 0 
04AEE:  MOVLB  6
04AF0:  CLRF   x4D
04AF2:  MOVLW  40
04AF4:  MOVWF  x4E
04AF6:  MOVLB  0
04AF8:  CALL   2C2A
....................    glcd_writeByte(GLCD_RIGHT, 0x40); 
04AFC:  MOVLW  01
04AFE:  MOVLB  6
04B00:  MOVWF  x4D
04B02:  MOVLW  40
04B04:  MOVWF  x4E
04B06:  MOVLB  0
04B08:  CALL   2C2A
....................    glcd_writeByte(GLCD_LEFT,  0xB8);    // Set the page address to 0 
04B0C:  MOVLB  6
04B0E:  CLRF   x4D
04B10:  MOVLW  B8
04B12:  MOVWF  x4E
04B14:  MOVLB  0
04B16:  CALL   2C2A
....................    glcd_writeByte(GLCD_RIGHT, 0xB8); 
04B1A:  MOVLW  01
04B1C:  MOVLB  6
04B1E:  MOVWF  x4D
04B20:  MOVLW  B8
04B22:  MOVWF  x4E
04B24:  MOVLB  0
04B26:  CALL   2C2A
....................  
....................    if(mode == ON) 
04B2A:  MOVLB  6
04B2C:  DECFSZ x3E,W
04B2E:  BRA    4B50
....................    { 
....................       glcd_writeByte(GLCD_LEFT,  0x3F); // Turn the display on 
04B30:  CLRF   x4D
04B32:  MOVLW  3F
04B34:  MOVWF  x4E
04B36:  MOVLB  0
04B38:  CALL   2C2A
....................       glcd_writeByte(GLCD_RIGHT, 0x3F); 
04B3C:  MOVLW  01
04B3E:  MOVLB  6
04B40:  MOVWF  x4D
04B42:  MOVLW  3F
04B44:  MOVWF  x4E
04B46:  MOVLB  0
04B48:  CALL   2C2A
....................    } 
....................    else 
04B4C:  BRA    4B6C
04B4E:  MOVLB  6
....................    { 
....................       glcd_writeByte(GLCD_LEFT,  0x3E); // Turn the display off 
04B50:  CLRF   x4D
04B52:  MOVLW  3E
04B54:  MOVWF  x4E
04B56:  MOVLB  0
04B58:  CALL   2C2A
....................       glcd_writeByte(GLCD_RIGHT, 0x3E); 
04B5C:  MOVLW  01
04B5E:  MOVLB  6
04B60:  MOVWF  x4D
04B62:  MOVLW  3E
04B64:  MOVWF  x4E
04B66:  MOVLB  0
04B68:  CALL   2C2A
....................    } 
....................  
....................    glcd_fillScreen(OFF);                // Clear the display 
04B6C:  MOVLB  6
04B6E:  CLRF   x46
04B70:  MOVLB  0
04B72:  CALL   3B48
....................  
....................    #ifdef FAST_GLCD 
....................    glcd_update(); 
04B76:  CALL   2C60
....................    #endif 
.................... } 
04B7A:  RETLW  00
....................  
....................  
.................... // Purpose:    Update the LCD with data from the display arrays 
.................... #ifdef FAST_GLCD 
.................... void glcd_update() 
.................... { 
....................    int8 i, j; 
....................    int8 *p1, *p2; 
....................  
....................    p1 = displayData.left; 
*
02C60:  MOVLB  6
02C62:  CLRF   x49
02C64:  MOVLW  17
02C66:  MOVWF  x48
....................    p2 = displayData.right; 
02C68:  MOVLW  02
02C6A:  MOVWF  x4B
02C6C:  MOVLW  17
02C6E:  MOVWF  x4A
....................  
....................    // Loop through the vertical pages 
....................    for(i = 0; i < 8; ++i) 
02C70:  CLRF   x46
02C72:  MOVF   x46,W
02C74:  SUBLW  07
02C76:  BNC   2D14
....................    { 
....................       output_low(GLCD_DI);                      // Set for instruction 
02C78:  BCF    F93.5
02C7A:  BCF    F8A.5
....................       glcd_writeByte(GLCD_LEFT, 0x40);          // Set horizontal address to 0 
02C7C:  CLRF   x4D
02C7E:  MOVLW  40
02C80:  MOVWF  x4E
02C82:  MOVLB  0
02C84:  RCALL  2C2A
....................       glcd_writeByte(GLCD_RIGHT, 0x40); 
02C86:  MOVLW  01
02C88:  MOVLB  6
02C8A:  MOVWF  x4D
02C8C:  MOVLW  40
02C8E:  MOVWF  x4E
02C90:  MOVLB  0
02C92:  RCALL  2C2A
....................       glcd_writeByte(GLCD_LEFT, i | 0xB8);      // Set page address 
02C94:  MOVLB  6
02C96:  MOVF   x46,W
02C98:  IORLW  B8
02C9A:  MOVWF  x4C
02C9C:  CLRF   x4D
02C9E:  MOVWF  x4E
02CA0:  MOVLB  0
02CA2:  RCALL  2C2A
....................       glcd_writeByte(GLCD_RIGHT, i | 0xB8); 
02CA4:  MOVLB  6
02CA6:  MOVF   x46,W
02CA8:  IORLW  B8
02CAA:  MOVWF  x4C
02CAC:  MOVLW  01
02CAE:  MOVWF  x4D
02CB0:  MOVFF  64C,64E
02CB4:  MOVLB  0
02CB6:  RCALL  2C2A
....................       output_high(GLCD_DI);                     // Set for data 
02CB8:  BCF    F93.5
02CBA:  BSF    F8A.5
....................  
....................       // Loop through the horizontal sections 
....................       for(j = 0; j < 64; ++j) 
02CBC:  MOVLB  6
02CBE:  CLRF   x47
02CC0:  MOVF   x47,W
02CC2:  SUBLW  3F
02CC4:  BNC   2D10
....................       { 
....................          glcd_writeByte(GLCD_LEFT, *p1++);      // Turn pixels on or off 
02CC6:  MOVFF  649,03
02CCA:  MOVF   x48,W
02CCC:  INCF   x48,F
02CCE:  BTFSC  FD8.2
02CD0:  INCF   x49,F
02CD2:  MOVWF  FE9
02CD4:  MOVFF  03,FEA
02CD8:  MOVFF  FEF,64C
02CDC:  CLRF   x4D
02CDE:  MOVFF  64C,64E
02CE2:  MOVLB  0
02CE4:  RCALL  2C2A
....................          glcd_writeByte(GLCD_RIGHT, *p2++);     // Turn pixels on or off 
02CE6:  MOVLB  6
02CE8:  MOVFF  64B,03
02CEC:  MOVF   x4A,W
02CEE:  INCF   x4A,F
02CF0:  BTFSC  FD8.2
02CF2:  INCF   x4B,F
02CF4:  MOVWF  FE9
02CF6:  MOVFF  03,FEA
02CFA:  MOVFF  FEF,64C
02CFE:  MOVLW  01
02D00:  MOVWF  x4D
02D02:  MOVFF  64C,64E
02D06:  MOVLB  0
02D08:  RCALL  2C2A
....................       } 
02D0A:  MOVLB  6
02D0C:  INCF   x47,F
02D0E:  BRA    2CC0
....................    } 
02D10:  INCF   x46,F
02D12:  BRA    2C72
.................... } 
02D14:  MOVLB  0
02D16:  RETLW  00
.................... #endif 
....................  
....................  
.................... // Purpose:    Turn a pixel on a graphic LCD on or off 
.................... // Inputs:     1) x - the x coordinate of the pixel 
.................... //             2) y - the y coordinate of the pixel 
.................... //             3) color - ON or OFF 
.................... void glcd_pixel(int8 x, int8 y, int1 color) 
.................... #ifdef FAST_GLCD 
.................... { 
....................    int8* p; 
....................    int16 temp; 
....................    temp =  y/8; 
*
03552:  MOVLB  6
03554:  CLRF   x78
03556:  RRCF   x73,W
03558:  MOVWF  x77
0355A:  RRCF   x77,F
0355C:  RRCF   x77,F
0355E:  MOVLW  1F
03560:  ANDWF  x77,F
....................    temp *= 64; 
03562:  RLCF   x77,F
03564:  RLCF   x78,F
03566:  RLCF   x77,F
03568:  RLCF   x78,F
0356A:  RLCF   x77,F
0356C:  RLCF   x78,F
0356E:  RLCF   x77,F
03570:  RLCF   x78,F
03572:  RLCF   x77,F
03574:  RLCF   x78,F
03576:  RLCF   x77,F
03578:  RLCF   x78,F
0357A:  MOVLW  C0
0357C:  ANDWF  x77,F
....................    temp += x; 
0357E:  MOVF   x72,W
03580:  ADDWF  x77,F
03582:  MOVLW  00
03584:  ADDWFC x78,F
....................  
....................    if(x > 63) 
03586:  MOVF   x72,W
03588:  SUBLW  3F
0358A:  BC    35A6
....................    { 
....................       p = displayData.right + temp - 64; 
0358C:  MOVLW  17
0358E:  ADDWF  x77,W
03590:  MOVWF  x79
03592:  MOVLW  02
03594:  ADDWFC x78,W
03596:  MOVWF  x7A
03598:  MOVLW  40
0359A:  SUBWF  x79,W
0359C:  MOVWF  x75
0359E:  MOVLW  00
035A0:  SUBWFB x7A,W
035A2:  MOVWF  x76
....................    } 
....................    else 
035A4:  BRA    35B2
....................    { 
....................       p = displayData.left + temp; 
035A6:  MOVLW  17
035A8:  ADDWF  x77,W
035AA:  MOVWF  x75
035AC:  MOVLW  00
035AE:  ADDWFC x78,W
035B0:  MOVWF  x76
....................    } 
....................  
....................    if(color) 
035B2:  MOVF   x74,F
035B4:  BZ    35E0
....................    { 
....................       bit_set(*p, y%8); 
035B6:  MOVFF  676,03
035BA:  MOVFF  675,FE9
035BE:  MOVFF  676,FEA
035C2:  MOVF   x73,W
035C4:  ANDLW  07
035C6:  MOVWF  x79
035C8:  MOVLW  01
035CA:  MOVWF  00
035CC:  MOVF   x79,W
035CE:  MOVWF  01
035D0:  BZ    35DA
035D2:  BCF    FD8.0
035D4:  RLCF   00,F
035D6:  DECFSZ 01,F
035D8:  BRA    35D2
035DA:  MOVF   00,W
035DC:  IORWF  FEF,F
....................    } 
....................    else 
035DE:  BRA    360A
....................    { 
....................       bit_clear(*p, y%8); 
035E0:  MOVFF  676,03
035E4:  MOVFF  675,FE9
035E8:  MOVFF  676,FEA
035EC:  MOVF   x73,W
035EE:  ANDLW  07
035F0:  MOVWF  x79
035F2:  MOVLW  01
035F4:  MOVWF  00
035F6:  MOVF   x79,W
035F8:  MOVWF  01
035FA:  BZ    3604
035FC:  BCF    FD8.0
035FE:  RLCF   00,F
03600:  DECFSZ 01,F
03602:  BRA    35FC
03604:  MOVF   00,W
03606:  XORLW  FF
03608:  ANDWF  FEF,F
....................    } 
.................... } 
0360A:  MOVLB  0
0360C:  RETLW  00
.................... #else 
.................... { 
....................    BYTE data; 
....................    int1 side = GLCD_LEFT;  // Stores which chip to use on the LCD 
....................  
....................    if(x > 63)              // Check for first or second display area 
....................    { 
....................       x -= 64; 
....................       side = GLCD_RIGHT; 
....................    } 
....................  
....................    output_low(GLCD_DI);                         // Set for instruction 
....................    bit_clear(x,7);                              // Clear the MSB. Part of an instruction code 
....................    bit_set(x,6);                                // Set bit 6. Also part of an instruction code 
....................    glcd_writeByte(side, x);                     // Set the horizontal address 
....................    glcd_writeByte(side, (y/8 & 0xBF) | 0xB8);   // Set the vertical page address 
....................    output_high(GLCD_DI);                        // Set for data 
....................    glcd_readByte(side);                         // Need two reads to get data 
....................    data = glcd_readByte(side);                  //  at new address 
....................  
....................    if(color == ON) 
....................       bit_set(data, y%8);        // Turn the pixel on 
....................    else                          // or 
....................       bit_clear(data, y%8);      // turn the pixel off 
....................  
....................    output_low(GLCD_DI);          // Set for instruction 
....................    glcd_writeByte(side, x);      // Set the horizontal address 
....................    output_high(GLCD_DI);         // Set for data 
....................    glcd_writeByte(side, data);   // Write the pixel data 
.................... } 
.................... #endif 
....................  
....................  
.................... // Purpose:    Fill the LCD screen with the passed in color 
.................... // Inputs:     ON  - turn all the pixels on 
.................... //             OFF - turn all the pixels off 
.................... void glcd_fillScreen(int1 color) 
.................... #ifdef FAST_GLCD 
.................... { 
....................    int8  data; 
....................    int8  *p1, *p2; 
....................    int16 i; 
....................  
....................    p1 = displayData.left; 
*
03B48:  MOVLB  6
03B4A:  CLRF   x49
03B4C:  MOVLW  17
03B4E:  MOVWF  x48
....................    p2 = displayData.right; 
03B50:  MOVLW  02
03B52:  MOVWF  x4B
03B54:  MOVLW  17
03B56:  MOVWF  x4A
....................    data = 0xFF * color; 
03B58:  MOVF   x46,W
03B5A:  MULLW  FF
03B5C:  MOVFF  FF3,647
....................  
....................    for(i=0; i<512; ++i) 
03B60:  CLRF   x4D
03B62:  CLRF   x4C
03B64:  MOVF   x4D,W
03B66:  SUBLW  01
03B68:  BNC   3B9E
....................    { 
....................       *p1++ = data; 
03B6A:  MOVFF  649,03
03B6E:  MOVF   x48,W
03B70:  INCF   x48,F
03B72:  BTFSC  FD8.2
03B74:  INCF   x49,F
03B76:  MOVWF  FE9
03B78:  MOVFF  03,FEA
03B7C:  MOVFF  647,FEF
....................       *p2++ = data; 
03B80:  MOVFF  64B,03
03B84:  MOVF   x4A,W
03B86:  INCF   x4A,F
03B88:  BTFSC  FD8.2
03B8A:  INCF   x4B,F
03B8C:  MOVWF  FE9
03B8E:  MOVFF  03,FEA
03B92:  MOVFF  647,FEF
....................    } 
03B96:  INCF   x4C,F
03B98:  BTFSC  FD8.2
03B9A:  INCF   x4D,F
03B9C:  BRA    3B64
.................... } 
03B9E:  MOVLB  0
03BA0:  RETLW  00
.................... #else 
.................... { 
....................    int8 i, j; 
....................  
....................    // Loop through the vertical pages 
....................    for(i = 0; i < 8; ++i) 
....................    { 
....................       output_low(GLCD_DI);                      // Set for instruction 
....................       glcd_writeByte(GLCD_LEFT, 0b01000000);    // Set horizontal address to 0 
....................       glcd_writeByte(GLCD_RIGHT, 0b01000000); 
....................       glcd_writeByte(GLCD_LEFT, i | 0b10111000);// Set page address 
....................       glcd_writeByte(GLCD_RIGHT, i | 0b10111000); 
....................       output_high(GLCD_DI);                     // Set for data 
....................  
....................       // Loop through the horizontal sections 
....................       for(j = 0; j < 64; ++j) 
....................       { 
....................          glcd_writeByte(GLCD_LEFT, 0xFF*color);  // Turn pixels on or off 
....................          glcd_writeByte(GLCD_RIGHT, 0xFF*color); // Turn pixels on or off 
....................       } 
....................    } 
.................... } 
.................... #endif 
....................  
....................  
.................... // Purpose:    Write a byte of data to the specified chip 
.................... // Inputs:     1) chipSelect - which chip to write the data to 
.................... //             2) data - the byte of data to write 
.................... void glcd_writeByte(int1 side, BYTE data) 
.................... { 
....................    if(side)                   // Choose which side to write to 
*
02C2A:  MOVLB  6
02C2C:  MOVF   x4D,F
02C2E:  BZ    2C36
....................       output_high(GLCD_CS2); 
02C30:  BCF    F93.3
02C32:  BSF    F8A.3
....................    else 
02C34:  BRA    2C3A
....................       output_high(GLCD_CS1); 
02C36:  BCF    F93.2
02C38:  BSF    F8A.2
....................  
....................    output_low(GLCD_RW);       // Set for writing 
02C3A:  BCF    F93.6
02C3C:  BCF    F8A.6
....................    output_d(data);            // Put the data on the port 
02C3E:  CLRF   F95
02C40:  MOVFF  64E,F8C
....................    delay_cycles(1); 
02C44:  NOP   
....................    output_high(GLCD_E);       // Pulse the enable pin 
02C46:  BCF    F93.7
02C48:  BSF    F8A.7
....................    delay_cycles(5); 
02C4A:  BRA    2C4C
02C4C:  BRA    2C4E
02C4E:  NOP   
....................    output_low(GLCD_E); 
02C50:  BCF    F93.7
02C52:  BCF    F8A.7
....................  
....................    output_low(GLCD_CS1);      // Reset the chip select lines 
02C54:  BCF    F93.2
02C56:  BCF    F8A.2
....................    output_low(GLCD_CS2); 
02C58:  BCF    F93.3
02C5A:  BCF    F8A.3
.................... } 
02C5C:  MOVLB  0
02C5E:  RETLW  00
....................  
....................  
.................... // Purpose:    Reads a byte of data from the specified chip 
.................... // Ouputs:     A byte of data read from the chip 
.................... BYTE glcd_readByte(int1 side) 
.................... { 
....................    BYTE data;                 // Stores the data read from the LCD 
....................  
....................    set_tris_d(0xFF);          // Set port d to input 
....................    output_high(GLCD_RW);      // Set for reading 
....................  
....................    if(side)                   // Choose which side to write to 
....................       output_high(GLCD_CS2); 
....................    else 
....................       output_high(GLCD_CS1); 
....................  
....................    delay_cycles(1); 
....................    output_high(GLCD_E);       // Pulse the enable pin 
....................    delay_cycles(4); 
....................    data = input_d();          // Get the data from the display's output register 
....................    output_low(GLCD_E); 
....................  
....................    output_low(GLCD_CS1);      // Reset the chip select lines 
....................    output_low(GLCD_CS2); 
....................    return data;               // Return the read data 
.................... } 
....................  
.................... #endif 
....................  
.................... #include "GRAPHICS.c" 
.................... ///////////////////////////////////////////////////////////////////////// 
.................... ////                          graphics.c                             //// 
.................... ////                                                                 //// 
.................... ////   This file contains functions to draw lines, rectangles, bars, //// 
.................... ////   circles and text to a display. A function which draws a       //// 
.................... ////   single pixel must be defined before calling the functions in  //// 
.................... ////   this file. Call it glcd_pixel(x, y, color) where x is the     //// 
.................... ////   horizontal coordinate, y is the vertical coordinate, and      //// 
.................... ////   color is 1 bit to turn the pixel on or off.                   //// 
.................... ////                                                                 //// 
.................... ////   * Note: (0, 0) is treated as the upper left corner            //// 
.................... ////                                                                 //// 
.................... ///////////////////////////////////////////////////////////////////////// 
.................... ////                                                                 //// 
.................... ////  glcd_line(x1, y1, x2, y2, color)                               //// 
.................... ////     * Draws a line from the first point to the second point     //// 
.................... ////       with the given color                                      //// 
.................... ////       - color can be ON or OFF                                  //// 
.................... ////                                                                 //// 
.................... ////  glcd_rect(x1, y1, x2, y2, fill, color)                         //// 
.................... ////     * Draws a rectangle with one corner at point (x1,y1) and    //// 
.................... ////       the other corner at point (x2,y2)                         //// 
.................... ////       - fill can be YES or NO                                   //// 
.................... ////       - color can be ON or OFF                                  //// 
.................... ////                                                                 //// 
.................... ////  glcd_bar(x1, y1, x2, y2, width, color)                         //// 
.................... ////     * Draws a bar (wide line) from the first point to the       //// 
.................... ////       second point                                              //// 
.................... ////       - width is the number of pixels wide                      //// 
.................... ////       - color is ON or OFF                                      //// 
.................... ////                                                                 //// 
.................... ////  glcd_circle(x, y, radius, fill, color)                         //// 
.................... ////     * Draws a circle with center at (x,y)                       //// 
.................... ////       - fill can be YES or NO                                   //// 
.................... ////       - color can be ON or OFF                                  //// 
.................... ////                                                                 //// 
.................... ////  glcd_text57(x, y, textptr, size, color)                        //// 
.................... ////     * Write the null terminated text pointed to by textptr with //// 
.................... ////       the upper left coordinate of the first character at (x,y) //// 
.................... ////       Characters are 5 pixels wide and 7 pixels tall            //// 
.................... ////       - size is an integer that scales the size of the text     //// 
.................... ////       - color is ON or OFF                                      //// 
.................... ////     * Note - This function wraps characters to the next line    //// 
.................... ////              use #define GLCD_WIDTH to specify a display width  //// 
.................... ////                                                                 //// 
.................... ///////////////////////////////////////////////////////////////////////// 
.................... ////        (C) Copyright 1996, 2004 Custom Computer Services        //// 
.................... //// This source code may only be used by licensed users of the CCS  //// 
.................... //// C compiler.  This source code may only be distributed to other  //// 
.................... //// licensed users of the CCS C compiler.  No other use,            //// 
.................... //// reproduction or distribution is permitted without written       //// 
.................... //// permission.  Derivative programs created using this software    //// 
.................... //// in object code form are not restricted in any way.              //// 
.................... ///////////////////////////////////////////////////////////////////////// 
....................  
....................  
.................... ///////////////////////////////////////////////////////////////////////// 
.................... #ifndef GRAPHICS_DRAWING_FUNCTIONS 
.................... #define GRAPHICS_DRAWING_FUNCTIONS 
.................... ///////////////////////////////////////////////////////////////////////// 
....................  
....................  
.................... ///////////////////////////////////////////////////////////////////////// 
.................... #ifndef ON 
.................... #define ON  1 
.................... #endif 
....................  
.................... #ifndef OFF 
.................... #define OFF 0 
.................... #endif 
....................  
.................... #ifndef YES 
.................... #define YES 1 
.................... #endif 
....................  
.................... #ifndef NO 
.................... #define NO  0 
.................... #endif 
.................... ///////////////////////////////////////////////////////////////////////// 
....................  
....................  
.................... ///////////////////////////////////////////////////////////////////////// 
.................... //// Defines a 5x7 font 
.................... ///////////////////////////////////////////////////////////////////////// 
.................... const int8 FONT[51][5] ={0x00, 0x00, 0x00, 0x00, 0x00, // SPACE 
....................                          0x00, 0x00, 0x5F, 0x00, 0x00, // ! 
....................                          0x00, 0x03, 0x00, 0x03, 0x00, // " 
....................                          0x14, 0x3E, 0x14, 0x3E, 0x14, // # 
....................                          0x24, 0x2A, 0x7F, 0x2A, 0x12, // $ 
....................                          0x43, 0x33, 0x08, 0x66, 0x61, // % 
....................                          0x36, 0x49, 0x55, 0x22, 0x50, // & 
....................                          0x00, 0x05, 0x03, 0x00, 0x00, // ' 
....................                          0x00, 0x1C, 0x22, 0x41, 0x00, // ( 
....................                          0x00, 0x41, 0x22, 0x1C, 0x00, // ) 
....................                          0x14, 0x08, 0x3E, 0x08, 0x14, // * 
....................                          0x08, 0x08, 0x3E, 0x08, 0x08, // + 
....................                          0x00, 0x50, 0x30, 0x00, 0x00, // , 
....................                          0x08, 0x08, 0x08, 0x08, 0x08, // - 
....................                          0x00, 0x60, 0x60, 0x00, 0x00, // . 
....................                          0x20, 0x10, 0x08, 0x04, 0x02, // / 
....................                          0x3E, 0x51, 0x49, 0x45, 0x3E, // 0 
....................                          0x00, 0x04, 0x02, 0x7F, 0x00, // 1 
....................                          0x42, 0x61, 0x51, 0x49, 0x46, // 2 
....................                          0x22, 0x41, 0x49, 0x49, 0x36, // 3 
....................                          0x18, 0x14, 0x12, 0x7F, 0x10, // 4 
....................                          0x27, 0x45, 0x45, 0x45, 0x39, // 5 
....................                          0x3E, 0x49, 0x49, 0x49, 0x32, // 6 
....................                          0x01, 0x01, 0x71, 0x09, 0x07, // 7 
....................                          0x36, 0x49, 0x49, 0x49, 0x36, // 8 
....................                          0x26, 0x49, 0x49, 0x49, 0x3E, // 9 
....................                          0x00, 0x36, 0x36, 0x00, 0x00, // : 
....................                          0x00, 0x56, 0x36, 0x00, 0x00, // ; 
....................                          0x08, 0x14, 0x22, 0x41, 0x00, // < 
....................                          0x14, 0x14, 0x14, 0x14, 0x14, // = 
....................                          0x00, 0x41, 0x22, 0x14, 0x08, // > 
....................                          0x02, 0x01, 0x51, 0x09, 0x06, // ? 
....................                          0x3E, 0x41, 0x59, 0x55, 0x5E, // @ 
....................                          0x7E, 0x09, 0x09, 0x09, 0x7E, // A 
....................                          0x7F, 0x49, 0x49, 0x49, 0x36, // B 
....................                          0x3E, 0x41, 0x41, 0x41, 0x22, // C 
....................                          0x7F, 0x41, 0x41, 0x41, 0x3E, // D 
....................                          0x7F, 0x49, 0x49, 0x49, 0x41, // E 
....................                          0x7F, 0x09, 0x09, 0x09, 0x01, // F 
....................                          0x3E, 0x41, 0x41, 0x49, 0x3A, // G 
....................                          0x7F, 0x08, 0x08, 0x08, 0x7F, // H 
....................                          0x00, 0x41, 0x7F, 0x41, 0x00, // I 
....................                          0x30, 0x40, 0x40, 0x40, 0x3F, // J 
....................                          0x7F, 0x08, 0x14, 0x22, 0x41, // K 
....................                          0x7F, 0x40, 0x40, 0x40, 0x40, // L 
....................                          0x7F, 0x02, 0x0C, 0x02, 0x7F, // M 
....................                          0x7F, 0x02, 0x04, 0x08, 0x7F, // N 
....................                          0x3E, 0x41, 0x41, 0x41, 0x3E, // O 
....................                          0x7F, 0x09, 0x09, 0x09, 0x06, // P 
....................                          0x1E, 0x21, 0x21, 0x21, 0x5E, // Q 
....................                          0x7F, 0x09, 0x09, 0x09, 0x76};// R 
....................  
.................... const int8 FONT2[44][5]={0x26, 0x49, 0x49, 0x49, 0x32, // S 
....................                          0x01, 0x01, 0x7F, 0x01, 0x01, // T 
....................                          0x3F, 0x40, 0x40, 0x40, 0x3F, // U 
....................                          0x1F, 0x20, 0x40, 0x20, 0x1F, // V 
....................                          0x7F, 0x20, 0x10, 0x20, 0x7F, // W 
....................                          0x41, 0x22, 0x1C, 0x22, 0x41, // X 
....................                          0x07, 0x08, 0x70, 0x08, 0x07, // Y 
....................                          0x61, 0x51, 0x49, 0x45, 0x43, // Z 
....................                          0x00, 0x7F, 0x41, 0x00, 0x00, // [ 
....................                          0x02, 0x04, 0x08, 0x10, 0x20, // \ 
....................                          0x00, 0x00, 0x41, 0x7F, 0x00, // ] 
....................                          0x04, 0x02, 0x01, 0x02, 0x04, // ^ 
....................                          0x40, 0x40, 0x40, 0x40, 0x40, // _ 
....................                          0x00, 0x01, 0x02, 0x04, 0x00, // ` 
....................                          0x20, 0x54, 0x54, 0x54, 0x78, // a 
....................                          0x7F, 0x44, 0x44, 0x44, 0x38, // b 
....................                          0x38, 0x44, 0x44, 0x44, 0x44, // c 
....................                          0x38, 0x44, 0x44, 0x44, 0x7F, // d 
....................                          0x38, 0x54, 0x54, 0x54, 0x18, // e 
....................                          0x04, 0x04, 0x7E, 0x05, 0x05, // f 
....................                          0x08, 0x54, 0x54, 0x54, 0x3C, // g 
....................                          0x7F, 0x08, 0x04, 0x04, 0x78, // h 
....................                          0x00, 0x44, 0x7D, 0x40, 0x00, // i 
....................                          0x20, 0x40, 0x44, 0x3D, 0x00, // j 
....................                          0x7F, 0x10, 0x28, 0x44, 0x00, // k 
....................                          0x00, 0x41, 0x7F, 0x40, 0x00, // l 
....................                          0x7C, 0x04, 0x78, 0x04, 0x78, // m 
....................                          0x7C, 0x08, 0x04, 0x04, 0x78, // n 
....................                          0x38, 0x44, 0x44, 0x44, 0x38, // o 
....................                          0x7C, 0x14, 0x14, 0x14, 0x08, // p 
....................                          0x08, 0x14, 0x14, 0x14, 0x7C, // q 
....................                          0x00, 0x7C, 0x08, 0x04, 0x04, // r 
....................                          0x48, 0x54, 0x54, 0x54, 0x20, // s 
....................                          0x04, 0x04, 0x3F, 0x44, 0x44, // t 
....................                          0x3C, 0x40, 0x40, 0x20, 0x7C, // u 
....................                          0x1C, 0x20, 0x40, 0x20, 0x1C, // v 
....................                          0x3C, 0x40, 0x30, 0x40, 0x3C, // w 
....................                          0x44, 0x28, 0x10, 0x28, 0x44, // x 
....................                          0x0C, 0x50, 0x50, 0x50, 0x3C, // y 
....................                          0x44, 0x64, 0x54, 0x4C, 0x44, // z 
....................                          0x00, 0x08, 0x36, 0x41, 0x41, // { 
....................                          0x00, 0x00, 0x7F, 0x00, 0x00, // | 
....................                          0x41, 0x41, 0x36, 0x08, 0x00, // } 
....................                          0x02, 0x01, 0x02, 0x04, 0x02};// ~ 
.................... ///////////////////////////////////////////////////////////////////////// 
....................  
....................  
.................... ///////////////////////////////////////////////////////////////////////// 
.................... // Purpose:       Draw a line on a graphic LCD using Bresenham's 
.................... //                line drawing algorithm 
.................... // Inputs:        (x1, y1) - the start coordinate 
.................... //                (x2, y2) - the end coordinate 
.................... //                color - ON or OFF 
.................... // Dependencies:  glcd_pixel() 
.................... ///////////////////////////////////////////////////////////////////////// 
.................... #ifdef LARGE_LCD 
.................... void glcd_line(int16 x1, int16 y1, int16 x2, int16 y2, int1 color) 
.................... #else 
.................... void glcd_line(int8 x1, int8 y1, int8 x2, int8 y2, int1 color) 
.................... #endif 
.................... { 
*
0360E:  MOVLW  01
03610:  MOVLB  6
03612:  MOVWF  x6B
03614:  MOVWF  x6C
03616:  CLRF   x71
....................    int16        dy, dx; 
....................    signed int8  addx=1, addy=1; 
....................    signed int16 P, diff; 
....................  
....................    #ifdef LARGE_LCD 
....................    int16 i=0; 
....................    dx = abs((signed int16)(x2 - x1)); 
....................    dy = abs((signed int16)(y2 - y1)); 
....................    #else 
....................    int8 i=0; 
....................    dx = abs((signed int8)(x2 - x1)); 
03618:  MOVF   x62,W
0361A:  SUBWF  x64,W
0361C:  MOVWF  x72
0361E:  MOVF   x72,W
03620:  BTFSS  x72.7
03622:  BRA    362A
03624:  MOVLW  00
03626:  BSF    FD8.0
03628:  SUBFWB x72,W
0362A:  CLRF   03
0362C:  MOVWF  x69
0362E:  MOVFF  03,66A
....................    dy = abs((signed int8)(y2 - y1)); 
03632:  MOVF   x63,W
03634:  SUBWF  x65,W
03636:  MOVWF  x72
03638:  MOVF   x72,W
0363A:  BTFSS  x72.7
0363C:  BRA    3644
0363E:  MOVLW  00
03640:  BSF    FD8.0
03642:  SUBFWB x72,W
03644:  CLRF   03
03646:  MOVWF  x67
03648:  MOVFF  03,668
....................    #endif 
....................  
....................    if(x1 > x2) 
0364C:  MOVF   x62,W
0364E:  SUBWF  x64,W
03650:  BC    3656
....................       addx = -1; 
03652:  MOVLW  FF
03654:  MOVWF  x6B
....................    if(y1 > y2) 
03656:  MOVF   x63,W
03658:  SUBWF  x65,W
0365A:  BC    3660
....................       addy = -1; 
0365C:  MOVLW  FF
0365E:  MOVWF  x6C
....................  
....................    if(dx >= dy) 
03660:  MOVF   x68,W
03662:  SUBWF  x6A,W
03664:  BNC   36DC
03666:  BNZ   366E
03668:  MOVF   x67,W
0366A:  SUBWF  x69,W
0366C:  BNC   36DC
....................    { 
....................       dy *= 2; 
0366E:  BCF    FD8.0
03670:  RLCF   x67,F
03672:  RLCF   x68,F
....................       P = dy - dx; 
03674:  MOVF   x69,W
03676:  SUBWF  x67,W
03678:  MOVWF  00
0367A:  MOVF   x6A,W
0367C:  SUBWFB x68,W
0367E:  MOVFF  00,66D
03682:  MOVWF  x6E
....................       diff = P - dx; 
03684:  MOVF   x69,W
03686:  SUBWF  x6D,W
03688:  MOVWF  x6F
0368A:  MOVF   x6A,W
0368C:  SUBWFB x6E,W
0368E:  MOVWF  x70
....................  
....................       for(; i<=dx; ++i) 
03690:  MOVF   x6A,F
03692:  BNZ   369A
03694:  MOVF   x71,W
03696:  SUBWF  x69,W
03698:  BNC   36DA
....................       { 
....................          glcd_pixel(x1, y1, color); 
0369A:  MOVFF  662,672
0369E:  MOVFF  663,673
036A2:  MOVFF  666,674
036A6:  MOVLB  0
036A8:  RCALL  3552
....................  
....................          if(P < 0) 
036AA:  MOVLB  6
036AC:  BTFSC  x6E.7
036AE:  BRA    36B2
036B0:  BRA    36C2
....................          { 
....................             P  += dy; 
036B2:  MOVF   x67,W
036B4:  ADDWF  x6D,F
036B6:  MOVF   x68,W
036B8:  ADDWFC x6E,F
....................             x1 += addx; 
036BA:  MOVF   x6B,W
036BC:  ADDWF  x62,W
036BE:  MOVWF  x62
....................          } 
....................          else 
036C0:  BRA    36D6
....................          { 
....................             P  += diff; 
036C2:  MOVF   x6F,W
036C4:  ADDWF  x6D,F
036C6:  MOVF   x70,W
036C8:  ADDWFC x6E,F
....................             x1 += addx; 
036CA:  MOVF   x6B,W
036CC:  ADDWF  x62,W
036CE:  MOVWF  x62
....................             y1 += addy; 
036D0:  MOVF   x6C,W
036D2:  ADDWF  x63,W
036D4:  MOVWF  x63
....................          } 
....................       } 
036D6:  INCF   x71,F
036D8:  BRA    3690
....................    } 
....................    else 
036DA:  BRA    3748
....................    { 
....................       dx *= 2; 
036DC:  BCF    FD8.0
036DE:  RLCF   x69,F
036E0:  RLCF   x6A,F
....................       P = dx - dy; 
036E2:  MOVF   x67,W
036E4:  SUBWF  x69,W
036E6:  MOVWF  00
036E8:  MOVF   x68,W
036EA:  SUBWFB x6A,W
036EC:  MOVFF  00,66D
036F0:  MOVWF  x6E
....................       diff = P - dy; 
036F2:  MOVF   x67,W
036F4:  SUBWF  x6D,W
036F6:  MOVWF  x6F
036F8:  MOVF   x68,W
036FA:  SUBWFB x6E,W
036FC:  MOVWF  x70
....................  
....................       for(; i<=dy; ++i) 
036FE:  MOVF   x68,F
03700:  BNZ   3708
03702:  MOVF   x71,W
03704:  SUBWF  x67,W
03706:  BNC   3748
....................       { 
....................          glcd_pixel(x1, y1, color); 
03708:  MOVFF  662,672
0370C:  MOVFF  663,673
03710:  MOVFF  666,674
03714:  MOVLB  0
03716:  RCALL  3552
....................  
....................          if(P < 0) 
03718:  MOVLB  6
0371A:  BTFSC  x6E.7
0371C:  BRA    3720
0371E:  BRA    3730
....................          { 
....................             P  += dx; 
03720:  MOVF   x69,W
03722:  ADDWF  x6D,F
03724:  MOVF   x6A,W
03726:  ADDWFC x6E,F
....................             y1 += addy; 
03728:  MOVF   x6C,W
0372A:  ADDWF  x63,W
0372C:  MOVWF  x63
....................          } 
....................          else 
0372E:  BRA    3744
....................          { 
....................             P  += diff; 
03730:  MOVF   x6F,W
03732:  ADDWF  x6D,F
03734:  MOVF   x70,W
03736:  ADDWFC x6E,F
....................             x1 += addx; 
03738:  MOVF   x6B,W
0373A:  ADDWF  x62,W
0373C:  MOVWF  x62
....................             y1 += addy; 
0373E:  MOVF   x6C,W
03740:  ADDWF  x63,W
03742:  MOVWF  x63
....................          } 
....................       } 
03744:  INCF   x71,F
03746:  BRA    36FE
....................    } 
.................... } 
03748:  MOVLB  0
0374A:  RETLW  00
....................  
....................  
.................... ///////////////////////////////////////////////////////////////////////// 
.................... // Purpose:       Draw a rectangle on a graphic LCD 
.................... // Inputs:        (x1, y1) - the start coordinate 
.................... //                (x2, y2) - the end coordinate 
.................... //                fill  - YES or NO 
.................... //                color - ON or OFF 
.................... // Dependencies:  glcd_pixel(), glcd_line() 
.................... ///////////////////////////////////////////////////////////////////////// 
.................... #ifdef LARGE_LCD 
.................... void glcd_rect(int16 x1, int16 y1, int16 x2, int16 y2, int1 fill, int1 color) 
.................... #else 
.................... void glcd_rect(int8 x1, int8 y1, int8 x2, int8 y2, int1 fill, int1 color) 
.................... #endif 
.................... { 
....................    if(fill) 
0374C:  MOVLB  6
0374E:  MOVF   x5B,F
03750:  BZ    37AE
....................    { 
....................       #ifdef LARGE_LCD 
....................       int16 i, xmin, xmax, ymin, ymax; 
....................       #else 
....................       int8  i, xmin, xmax, ymin, ymax; 
....................       #endif 
....................  
....................       if(x1 < x2)                            //  Find x min and max 
03752:  MOVF   x59,W
03754:  SUBWF  x57,W
03756:  BC    3762
....................       { 
....................          xmin = x1; 
03758:  MOVFF  657,65E
....................          xmax = x2; 
0375C:  MOVFF  659,65F
....................       } 
....................       else 
03760:  BRA    376A
....................       { 
....................          xmin = x2; 
03762:  MOVFF  659,65E
....................          xmax = x1; 
03766:  MOVFF  657,65F
....................       } 
....................  
....................       if(y1 < y2)                            // Find the y min and max 
0376A:  MOVF   x5A,W
0376C:  SUBWF  x58,W
0376E:  BC    377A
....................       { 
....................          ymin = y1; 
03770:  MOVFF  658,660
....................          ymax = y2; 
03774:  MOVFF  65A,661
....................       } 
....................       else 
03778:  BRA    3782
....................       { 
....................          ymin = y2; 
0377A:  MOVFF  65A,660
....................          ymax = y1; 
0377E:  MOVFF  658,661
....................       } 
....................  
....................       for(; xmin <= xmax; ++xmin) 
03782:  MOVF   x5E,W
03784:  SUBWF  x5F,W
03786:  BNC   37AC
....................       { 
....................          for(i=ymin; i<=ymax; ++i) 
03788:  MOVFF  660,65D
0378C:  MOVF   x5D,W
0378E:  SUBWF  x61,W
03790:  BNC   37A8
....................          { 
....................             glcd_pixel(xmin, i, color); 
03792:  MOVFF  65E,672
03796:  MOVFF  65D,673
0379A:  MOVFF  65C,674
0379E:  MOVLB  0
037A0:  RCALL  3552
....................          } 
037A2:  MOVLB  6
037A4:  INCF   x5D,F
037A6:  BRA    378C
....................       } 
037A8:  INCF   x5E,F
037AA:  BRA    3782
....................    } 
....................    else 
037AC:  BRA    380A
....................    { 
....................       glcd_line(x1, y1, x2, y1, color);      // Draw the 4 sides 
037AE:  MOVFF  657,662
037B2:  MOVFF  658,663
037B6:  MOVFF  659,664
037BA:  MOVFF  658,665
037BE:  MOVFF  65C,666
037C2:  MOVLB  0
037C4:  RCALL  360E
....................       glcd_line(x1, y2, x2, y2, color); 
037C6:  MOVFF  657,662
037CA:  MOVFF  65A,663
037CE:  MOVFF  659,664
037D2:  MOVFF  65A,665
037D6:  MOVFF  65C,666
037DA:  RCALL  360E
....................       glcd_line(x1, y1, x1, y2, color); 
037DC:  MOVFF  657,662
037E0:  MOVFF  658,663
037E4:  MOVFF  657,664
037E8:  MOVFF  65A,665
037EC:  MOVFF  65C,666
037F0:  RCALL  360E
....................       glcd_line(x2, y1, x2, y2, color); 
037F2:  MOVFF  659,662
037F6:  MOVFF  658,663
037FA:  MOVFF  659,664
037FE:  MOVFF  65A,665
03802:  MOVFF  65C,666
03806:  RCALL  360E
03808:  MOVLB  6
....................    } 
.................... } 
0380A:  MOVLB  0
0380C:  RETLW  00
....................  
.................... ///////////////////////////////////////////////////////////////////////// 
.................... // Purpose:       Draw a bar (wide line) on a graphic LCD 
.................... // Inputs:        (x1, y1) - the start coordinate 
.................... //                (x2, y2) - the end coordinate 
.................... //                width  - The number of pixels wide 
.................... //                color - ON or OFF 
.................... ///////////////////////////////////////////////////////////////////////// 
.................... #ifdef LARGE_LCD 
.................... void glcd_bar(int16 x1, int16 y1, int16 x2, int16 y2, int8 width, int1 color) 
.................... #else 
.................... void glcd_bar(int8 x1, int8 y1, int8 x2, int8 y2, int8 width, int1 color) 
.................... #endif 
.................... { 
....................    int8         half_width; 
....................    signed int16 dy, dx; 
....................    signed int8  addx=1, addy=1, j; 
....................    signed int16 P, diff, c1, c2; 
....................  
....................    #ifdef LARGE_LCD 
....................    int16 i=0; 
....................    dx = abs((signed int16)(x2 - x1)); 
....................    dy = abs((signed int16)(y2 - y1)); 
....................    #else 
....................    int8 i=0; 
....................    dx = abs((signed int8)(x2 - x1)); 
....................    dy = abs((signed int8)(y2 - y1)); 
....................    #endif 
....................  
....................    half_width = width/2; 
....................    c1 = -(dx*x1 + dy*y1); 
....................    c2 = -(dx*x2 + dy*y2); 
....................  
....................    if(x1 > x2) 
....................    { 
....................       signed int16 temp; 
....................       temp = c1; 
....................       c1 = c2; 
....................       c2 = temp; 
....................       addx = -1; 
....................    } 
....................    if(y1 > y2) 
....................    { 
....................       signed int16 temp; 
....................       temp = c1; 
....................       c1 = c2; 
....................       c2 = temp; 
....................       addy = -1; 
....................    } 
....................  
....................    if(dx >= dy) 
....................    { 
....................       P = 2*dy - dx; 
....................       diff = P - dx; 
....................  
....................       for(i=0; i<=dx; ++i) 
....................       { 
....................          for(j=-half_width; j<half_width+width%2; ++j) 
....................          { 
....................             #ifdef LARGE_LCD 
....................             int16 temp; 
....................             #else 
....................             int8 temp; 
....................             #endif 
....................  
....................             temp = dx*x1+dy*(y1+j);    // Use more RAM to increase speed 
....................             if(temp+c1 >= 0 && temp+c2 <=0) 
....................                glcd_pixel(x1, y1+j, color); 
....................          } 
....................          if(P < 0) 
....................          { 
....................             P  += 2*dy; 
....................             x1 += addx; 
....................          } 
....................          else 
....................          { 
....................             P  += diff; 
....................             x1 += addx; 
....................             y1 += addy; 
....................          } 
....................       } 
....................    } 
....................    else 
....................    { 
....................       P = 2*dx - dy; 
....................       diff = P - dy; 
....................  
....................       for(i=0; i<=dy; ++i) 
....................       { 
....................          if(P < 0) 
....................          { 
....................             P  += 2*dx; 
....................             y1 += addy; 
....................          } 
....................          else 
....................          { 
....................             P  += diff; 
....................             x1 += addx; 
....................             y1 += addy; 
....................          } 
....................          for(j=-half_width; j<half_width+width%2; ++j) 
....................          { 
....................             #ifdef LARGE_LCD 
....................             int16 temp; 
....................             #else 
....................             int8 temp; 
....................             #endif 
....................  
....................             temp = dx*x1+dy*(y1+j);    // Use more RAM to increase speed 
....................             if(temp+c1 >= 0 && temp+c2 <=0) 
....................                glcd_pixel(x1+j, y1, color); 
....................          } 
....................       } 
....................    } 
.................... } 
....................  
....................  
.................... ///////////////////////////////////////////////////////////////////////// 
.................... // Purpose:       Draw a circle on a graphic LCD 
.................... // Inputs:        (x,y) - the center of the circle 
.................... //                radius - the radius of the circle 
.................... //                fill - YES or NO 
.................... //                color - ON or OFF 
.................... ///////////////////////////////////////////////////////////////////////// 
.................... #ifdef LARGE_LCD 
.................... void glcd_circle(int16 x, int16 y, int16 radius, int1 fill, int1 color) 
.................... #else 
.................... void glcd_circle(int8 x, int8 y, int8 radius, int1 fill, int1 color) 
.................... #endif 
.................... { 
....................    #ifdef LARGE_LCD 
....................    signed int16 a, b, P; 
....................    #else 
....................    signed int8  a, b, P; 
....................    #endif 
....................  
....................    a = 0; 
....................    b = radius; 
....................    P = 1 - radius; 
....................  
....................    do 
....................    { 
....................       if(fill) 
....................       { 
....................          glcd_line(x-a, y+b, x+a, y+b, color); 
....................          glcd_line(x-a, y-b, x+a, y-b, color); 
....................          glcd_line(x-b, y+a, x+b, y+a, color); 
....................          glcd_line(x-b, y-a, x+b, y-a, color); 
....................       } 
....................       else 
....................       { 
....................          glcd_pixel(a+x, b+y, color); 
....................          glcd_pixel(b+x, a+y, color); 
....................          glcd_pixel(x-a, b+y, color); 
....................          glcd_pixel(x-b, a+y, color); 
....................          glcd_pixel(b+x, y-a, color); 
....................          glcd_pixel(a+x, y-b, color); 
....................          glcd_pixel(x-a, y-b, color); 
....................          glcd_pixel(x-b, y-a, color); 
....................       } 
....................  
....................       if(P < 0) 
....................          P += 3 + 2 * a++; 
....................       else 
....................          P += 5 + 2 * (a++ - b--); 
....................     } while(a <= b); 
.................... } 
....................  
....................  
.................... ///////////////////////////////////////////////////////////////////////// 
.................... // Purpose:       Write text on a graphic LCD 
.................... // Inputs:        (x,y) - The upper left coordinate of the first letter 
.................... //                textptr - A pointer to an array of text to display 
.................... //                size - The size of the text: 1 = 5x7, 2 = 10x14, ... 
.................... //                color - ON or OFF 
.................... ///////////////////////////////////////////////////////////////////////// 
.................... #ifdef LARGE_LCD 
.................... void glcd_text57(int16 x, int16 y, char* textptr, int8 size, int1 color) 
.................... #else 
.................... void glcd_text57(int8 x, int8 y, char* textptr, int8 size, int1 color) 
.................... #endif 
.................... { 
....................    int8 j, k, l, m;                       // Loop counters 
....................    int8 pixelData[5];                     // Stores character data 
....................  
....................    for(; *textptr != '\0'; ++textptr, ++x)// Loop through the passed string 
0380E:  MOVFF  65A,03
03812:  MOVLB  6
03814:  MOVFF  659,FE9
03818:  MOVFF  65A,FEA
0381C:  MOVF   FEF,F
0381E:  BTFSC  FD8.2
03820:  BRA    39C2
....................    { 
....................       if(*textptr < 'S') // Checks if the letter is in the first font array 
03822:  MOVFF  65A,03
03826:  MOVFF  659,FE9
0382A:  MOVFF  65A,FEA
0382E:  MOVF   FEF,W
03830:  SUBLW  52
03832:  BNC   3882
....................          memcpy(pixelData, FONT[*textptr - ' '], 5); 
03834:  MOVFF  65A,03
03838:  MOVFF  659,FE9
0383C:  MOVFF  65A,FEA
03840:  MOVLW  20
03842:  SUBWF  FEF,W
03844:  MULLW  05
03846:  MOVF   FF3,W
03848:  CLRF   03
0384A:  MOVWF  x66
0384C:  MOVLW  06
0384E:  MOVWF  FEA
03850:  MOVLW  61
03852:  MOVWF  FE9
03854:  CLRF   x6A
03856:  MOVFF  666,669
0385A:  MOVFF  FF2,667
0385E:  BCF    FF2.7
03860:  MOVLW  05
03862:  MOVWF  01
03864:  CLRF   FF7
03866:  MOVF   x66,W
03868:  MOVLB  0
0386A:  CALL   009E
0386E:  TBLRD*-
03870:  TBLRD*+
03872:  MOVFF  FF5,FEE
03876:  DECFSZ 01,F
03878:  BRA    3870
0387A:  MOVLB  6
0387C:  BTFSC  x67.7
0387E:  BSF    FF2.7
....................       else if(*textptr <= '~') // Check if the letter is in the second font array 
03880:  BRA    38EC
03882:  MOVFF  65A,03
03886:  MOVFF  659,FE9
0388A:  MOVFF  65A,FEA
0388E:  MOVF   FEF,W
03890:  SUBLW  7E
03892:  BNC   38E2
....................          memcpy(pixelData, FONT2[*textptr - 'S'], 5); 
03894:  MOVFF  65A,03
03898:  MOVFF  659,FE9
0389C:  MOVFF  65A,FEA
038A0:  MOVLW  53
038A2:  SUBWF  FEF,W
038A4:  MULLW  05
038A6:  MOVF   FF3,W
038A8:  CLRF   03
038AA:  MOVWF  x66
038AC:  MOVLW  06
038AE:  MOVWF  FEA
038B0:  MOVLW  61
038B2:  MOVWF  FE9
038B4:  CLRF   x6A
038B6:  MOVFF  666,669
038BA:  MOVFF  FF2,667
038BE:  BCF    FF2.7
038C0:  MOVLW  05
038C2:  MOVWF  01
038C4:  CLRF   FF7
038C6:  MOVF   x66,W
038C8:  MOVLB  0
038CA:  CALL   01BC
038CE:  TBLRD*-
038D0:  TBLRD*+
038D2:  MOVFF  FF5,FEE
038D6:  DECFSZ 01,F
038D8:  BRA    38D0
038DA:  MOVLB  6
038DC:  BTFSC  x67.7
038DE:  BSF    FF2.7
....................       else 
038E0:  BRA    38EC
....................          memcpy(pixelData, FONT[0], 5);   // Default to space 
038E2:  CLRF   x61
038E4:  CLRF   x62
038E6:  CLRF   x63
038E8:  CLRF   x64
038EA:  CLRF   x65
....................  
....................       // Handles newline and carriage returns 
....................       switch(*textptr) 
....................       { 
038EC:  MOVFF  65A,03
038F0:  MOVF   x59,W
038F2:  MOVWF  FE9
038F4:  MOVFF  03,FEA
038F8:  MOVF   FEF,W
038FA:  XORLW  0A
038FC:  MOVLB  0
038FE:  BZ    3906
03900:  XORLW  07
03902:  BZ    3916
03904:  BRA    391C
....................          case '\n': 
....................             y += 7*size + 1; 
03906:  MOVLB  6
03908:  MOVF   x5B,W
0390A:  MULLW  07
0390C:  MOVF   FF3,W
0390E:  ADDLW  01
03910:  ADDWF  x58,F
....................             continue; 
03912:  BRA    39B4
03914:  MOVLB  0
....................          case '\r': 
....................             x = 0; 
03916:  MOVLB  6
03918:  CLRF   x57
....................             continue; 
0391A:  BRA    39B4
....................       } 
....................  
....................       if(x+5*size >= GLCD_WIDTH)          // Performs character wrapping 
0391C:  MOVLB  6
0391E:  MOVF   x5B,W
03920:  MULLW  05
03922:  MOVF   FF3,W
03924:  ADDWF  x57,W
03926:  SUBLW  7F
03928:  BC    3936
....................       { 
....................          x = 0;                           // Set x at far left position 
0392A:  CLRF   x57
....................          y += 7*size + 1;                 // Set y at next position down 
0392C:  MOVF   x5B,W
0392E:  MULLW  07
03930:  MOVF   FF3,W
03932:  ADDLW  01
03934:  ADDWF  x58,F
....................       } 
....................       for(j=0; j<5; ++j, x+=size)         // Loop through character byte data 
03936:  CLRF   x5D
03938:  MOVF   x5D,W
0393A:  SUBLW  04
0393C:  BNC   39B4
....................       { 
....................          for(k=0; k < 7; ++k)             // Loop through the vertical pixels 
0393E:  CLRF   x5E
03940:  MOVF   x5E,W
03942:  SUBLW  06
03944:  BNC   39AC
....................          { 
....................             if(bit_test(pixelData[j], k)) // Check if the pixel should be set 
03946:  CLRF   03
03948:  MOVF   x5D,W
0394A:  ADDLW  61
0394C:  MOVWF  FE9
0394E:  MOVLW  06
03950:  ADDWFC 03,W
03952:  MOVWF  FEA
03954:  MOVFF  FEF,666
03958:  MOVFF  666,00
0395C:  MOVF   x5E,W
0395E:  MOVWF  01
03960:  BZ    396A
03962:  BCF    FD8.0
03964:  RRCF   00,F
03966:  DECFSZ 01,F
03968:  BRA    3962
0396A:  BTFSS  00.0
0396C:  BRA    39A8
....................             { 
....................                for(l=0; l < size; ++l)    // These two loops change the 
0396E:  CLRF   x5F
03970:  MOVF   x5B,W
03972:  SUBWF  x5F,W
03974:  BC    39A8
....................                {                          // character's size 
....................                   for(m=0; m < size; ++m) 
03976:  CLRF   x60
03978:  MOVF   x5B,W
0397A:  SUBWF  x60,W
0397C:  BC    39A4
....................                   { 
....................                      glcd_pixel(x+m, y+k*size+l, color); // Draws the pixel 
0397E:  MOVF   x60,W
03980:  ADDWF  x57,W
03982:  MOVWF  x66
03984:  MOVF   x5E,W
03986:  MULWF  x5B
03988:  MOVF   FF3,W
0398A:  ADDWF  x58,W
0398C:  ADDWF  x5F,W
0398E:  MOVWF  x67
03990:  MOVFF  666,672
03994:  MOVWF  x73
03996:  MOVFF  65C,674
0399A:  MOVLB  0
0399C:  RCALL  3552
....................                   } 
0399E:  MOVLB  6
039A0:  INCF   x60,F
039A2:  BRA    3978
....................                } 
039A4:  INCF   x5F,F
039A6:  BRA    3970
....................             } 
....................          } 
039A8:  INCF   x5E,F
039AA:  BRA    3940
....................       } 
039AC:  INCF   x5D,F
039AE:  MOVF   x5B,W
039B0:  ADDWF  x57,F
039B2:  BRA    3938
....................    } 
039B4:  INCF   x59,F
039B6:  BTFSC  FD8.2
039B8:  INCF   x5A,F
039BA:  INCF   x57,F
039BC:  MOVLB  0
039BE:  BRA    380E
039C0:  MOVLB  6
.................... } 
039C2:  MOVLB  0
039C4:  RETLW  00
....................  
.................... #endif 
....................  
.................... #include "imagen.h" 
.................... const int8 Bombillo [64][16] = { 
.................... 0x00, 0x00, 0x00, 0x00, 0x00, 0x00, 0x00, 0x00, 0x00, 0x00, 0x00, 0x00, 0x00, 0x00, 0x00, 0x00, 
.................... 0x00, 0x00, 0x00, 0x00, 0x00, 0x00, 0x00, 0x00, 0x00, 0x00, 0x00, 0x00, 0x00, 0x00, 0x00, 0x00, 
.................... 0x00, 0x00, 0x00, 0x00, 0x00, 0x00, 0x00, 0x00, 0x00, 0x00, 0x00, 0x00, 0x00, 0x00, 0x00, 0x00, 
.................... 0x00, 0x00, 0x00, 0x00, 0x00, 0x00, 0x00, 0x00, 0x00, 0x00, 0x00, 0x00, 0x00, 0x00, 0x00, 0x00, 
.................... 0x00, 0x00, 0x00, 0x00, 0x00, 0x00, 0x00, 0x00, 0x00, 0x00, 0x00, 0x00, 0x00, 0x00, 0x00, 0x00, 
.................... 0x00, 0x00, 0x00, 0x00, 0x00, 0x00, 0x00, 0x00, 0x00, 0x00, 0x00, 0x00, 0x00, 0x00, 0x00, 0x00, 
.................... 0x00, 0x00, 0x00, 0x00, 0x00, 0x00, 0x00, 0x00, 0x00, 0x00, 0x00, 0x00, 0x00, 0x00, 0x00, 0x00, 
.................... 0x00, 0x00, 0x00, 0x00, 0x00, 0x00, 0x00, 0x00, 0x00, 0x00, 0x00, 0x00, 0x00, 0x00, 0x00, 0x00, 
.................... 0x00, 0x00, 0x00, 0x00, 0x00, 0x00, 0x00, 0x00, 0x00, 0x00, 0x00, 0x00, 0x00, 0x00, 0x00, 0x00, 
.................... 0x00, 0x00, 0x00, 0x00, 0x00, 0x00, 0x00, 0x00, 0x00, 0x00, 0x00, 0x00, 0x00, 0x00, 0x00, 0x00, 
.................... 0x00, 0x00, 0x00, 0x00, 0x00, 0x00, 0x00, 0x00, 0x00, 0x00, 0x00, 0x00, 0x00, 0x00, 0x00, 0x00, 
.................... 0x00, 0x00, 0x00, 0x00, 0x00, 0x00, 0x00, 0x00, 0x00, 0x00, 0x00, 0x00, 0x00, 0x00, 0x00, 0x00, 
.................... 0x00, 0x00, 0x00, 0x00, 0x00, 0x00, 0x00, 0x00, 0x00, 0x00, 0x00, 0x00, 0x00, 0x00, 0x00, 0x00, 
.................... 0x00, 0x00, 0x00, 0x00, 0x00, 0x00, 0x00, 0x00, 0x00, 0x00, 0x00, 0x00, 0x00, 0x00, 0x00, 0x00, 
.................... 0x00, 0x00, 0x00, 0x00, 0x00, 0x00, 0x00, 0x00, 0x00, 0x00, 0x00, 0x00, 0x00, 0x00, 0x00, 0x00, 
.................... 0x00, 0x00, 0x00, 0x00, 0x00, 0x00, 0x00, 0x00, 0x00, 0x00, 0x00, 0x00, 0x00, 0x08, 0x00, 0x80, 
.................... 0x00, 0x00, 0x00, 0x00, 0x00, 0x00, 0x00, 0x00, 0x00, 0x00, 0x00, 0x00, 0x00, 0x04, 0x01, 0x00, 
.................... 0x00, 0x00, 0x00, 0x00, 0x00, 0x00, 0x00, 0x00, 0x00, 0x00, 0x00, 0x00, 0x00, 0x02, 0x02, 0x00, 
.................... 0x00, 0x00, 0x00, 0x00, 0x00, 0x00, 0x00, 0x00, 0x00, 0x00, 0x00, 0x00, 0x00, 0x00, 0x78, 0x00, 
.................... 0x00, 0x00, 0x00, 0x00, 0x00, 0x00, 0x00, 0x00, 0x00, 0x00, 0x00, 0x00, 0x00, 0x00, 0x84, 0x00, 
.................... 0x00, 0x00, 0x00, 0x00, 0x00, 0x00, 0x00, 0x00, 0x00, 0x00, 0x00, 0x00, 0x00, 0x01, 0x02, 0x00, 
.................... 0x00, 0x00, 0x00, 0x00, 0x00, 0x00, 0x00, 0x00, 0x00, 0x00, 0x00, 0x00, 0x00, 0xF9, 0x02, 0xF8, 
.................... 0x00, 0x00, 0x00, 0x00, 0x00, 0x00, 0x00, 0x00, 0x00, 0x00, 0x00, 0x00, 0x00, 0x01, 0x02, 0x00, 
.................... 0x00, 0x00, 0x00, 0x00, 0x00, 0x00, 0x00, 0x00, 0x00, 0x00, 0x00, 0x00, 0x00, 0x01, 0x02, 0x00, 
.................... 0x00, 0x00, 0x00, 0x00, 0x00, 0x00, 0x00, 0x00, 0x00, 0x00, 0x00, 0x00, 0x00, 0x04, 0x84, 0x80, 
.................... 0x00, 0x00, 0x00, 0x00, 0x00, 0x00, 0x00, 0x00, 0x00, 0x00, 0x00, 0x00, 0x00, 0x08, 0x78, 0x40, 
.................... 0x00, 0x00, 0x00, 0x00, 0x00, 0x00, 0x00, 0x00, 0x00, 0x00, 0x00, 0x00, 0x00, 0x10, 0x48, 0x20, 
.................... 0x00, 0x00, 0x00, 0x00, 0x00, 0x00, 0x00, 0x00, 0x00, 0x00, 0x00, 0x00, 0x00, 0x20, 0x48, 0x10, 
.................... 0x00, 0x00, 0x00, 0x00, 0x00, 0x00, 0x00, 0x00, 0x00, 0x00, 0x00, 0x00, 0x00, 0x00, 0x78, 0x00, 
.................... 0x00, 0x00, 0x00, 0x00, 0x00, 0x00, 0x00, 0x00, 0x00, 0x00, 0x00, 0x00, 0x00, 0x00, 0x00, 0x00, 
.................... 0x00, 0x00, 0x00, 0x00, 0x00, 0x00, 0x00, 0x00, 0x00, 0x00, 0x00, 0x00, 0x00, 0x00, 0x00, 0x00, 
.................... 0x00, 0x00, 0x00, 0x00, 0x00, 0x00, 0x00, 0x00, 0x00, 0x00, 0x00, 0x00, 0x00, 0x00, 0x00, 0x00, 
.................... 0x00, 0x00, 0x00, 0x00, 0x00, 0x00, 0x00, 0x00, 0x00, 0x00, 0x00, 0x00, 0x00, 0x00, 0x00, 0x00, 
.................... 0x00, 0x00, 0x00, 0x00, 0x00, 0x00, 0x00, 0x00, 0x00, 0x00, 0x00, 0x00, 0x00, 0x00, 0x00, 0x00, 
.................... 0x00, 0x00, 0x00, 0x00, 0x00, 0x00, 0x00, 0x00, 0x00, 0x00, 0x00, 0x00, 0x00, 0x00, 0x00, 0x00, 
.................... 0x00, 0x00, 0x00, 0x00, 0x00, 0x00, 0x00, 0x00, 0x00, 0x00, 0x00, 0x00, 0x00, 0x00, 0x00, 0x00, 
.................... 0x00, 0x00, 0x00, 0x00, 0x00, 0x00, 0x00, 0x00, 0x00, 0x00, 0x00, 0x00, 0x00, 0x00, 0x00, 0x00, 
.................... 0x00, 0x00, 0x00, 0x00, 0x00, 0x00, 0x00, 0x00, 0x00, 0x00, 0x00, 0x00, 0x00, 0x00, 0x00, 0x00, 
.................... 0x00, 0x00, 0x00, 0x00, 0x00, 0x00, 0x00, 0x00, 0x00, 0x00, 0x00, 0x00, 0x00, 0x00, 0x00, 0x00, 
.................... 0x00, 0x00, 0x00, 0x00, 0x00, 0x00, 0x00, 0x00, 0x00, 0x00, 0x00, 0x00, 0x00, 0x00, 0x00, 0x00, 
.................... 0x00, 0x00, 0x00, 0x00, 0x00, 0x00, 0x00, 0x00, 0x00, 0x00, 0x00, 0x00, 0x00, 0x00, 0x00, 0x00, 
.................... 0x00, 0x00, 0x00, 0x00, 0x00, 0x00, 0x00, 0x00, 0x00, 0x00, 0x00, 0x00, 0x00, 0x00, 0x00, 0x00, 
.................... 0x00, 0x00, 0x00, 0x00, 0x00, 0x00, 0x00, 0x00, 0x00, 0x00, 0x00, 0x00, 0x00, 0x00, 0x00, 0x00, 
.................... 0x00, 0x00, 0x00, 0x00, 0x00, 0x00, 0x00, 0x00, 0x00, 0x00, 0x00, 0x00, 0x00, 0x00, 0x00, 0x00, 
.................... 0x00, 0x00, 0x00, 0x00, 0x00, 0x00, 0x00, 0x00, 0x00, 0x00, 0x00, 0x00, 0x00, 0x00, 0x00, 0x00, 
.................... 0x00, 0x00, 0x00, 0x00, 0x00, 0x00, 0x00, 0x00, 0x00, 0x00, 0x00, 0x00, 0x00, 0x00, 0x00, 0x00, 
.................... 0x00, 0x00, 0x00, 0x00, 0x00, 0x00, 0x00, 0x00, 0x00, 0x00, 0x00, 0x00, 0x00, 0x00, 0x00, 0x00, 
.................... 0x00, 0x00, 0x00, 0x00, 0x00, 0x00, 0x00, 0x00, 0x00, 0x00, 0x00, 0x00, 0x00, 0x00, 0x00, 0x00, 
.................... 0x00, 0x00, 0x00, 0x00, 0x00, 0x00, 0x00, 0x00, 0x00, 0x00, 0x00, 0x00, 0x00, 0x00, 0x00, 0x00, 
.................... 0x00, 0x00, 0x00, 0x00, 0x00, 0x00, 0x00, 0x00, 0x00, 0x00, 0x00, 0x00, 0x00, 0x00, 0x00, 0x00, 
.................... 0x00, 0x00, 0x00, 0x00, 0x00, 0x00, 0x00, 0x00, 0x00, 0x00, 0x00, 0x00, 0x00, 0x00, 0x00, 0x00, 
.................... 0x00, 0x00, 0x00, 0x00, 0x00, 0x00, 0x00, 0x00, 0x00, 0x00, 0x00, 0x00, 0x00, 0x00, 0x00, 0x00, 
.................... 0x00, 0x00, 0x00, 0x00, 0x00, 0x00, 0x00, 0x00, 0x00, 0x00, 0x00, 0x00, 0x00, 0x00, 0x00, 0x00, 
.................... 0x00, 0x00, 0x00, 0x00, 0x00, 0x00, 0x00, 0x00, 0x00, 0x00, 0x00, 0x00, 0x00, 0x00, 0x00, 0x00, 
.................... 0x00, 0x00, 0x00, 0x00, 0x00, 0x00, 0x00, 0x00, 0x00, 0x00, 0x00, 0x00, 0x00, 0x00, 0x00, 0x00, 
.................... 0x00, 0x00, 0x00, 0x00, 0x00, 0x00, 0x00, 0x00, 0x00, 0x00, 0x00, 0x00, 0x00, 0x00, 0x00, 0x00, 
.................... 0x00, 0x00, 0x00, 0x00, 0x00, 0x00, 0x00, 0x00, 0x00, 0x00, 0x00, 0x00, 0x00, 0x00, 0x00, 0x00, 
.................... 0x00, 0x00, 0x00, 0x00, 0x00, 0x00, 0x00, 0x00, 0x00, 0x00, 0x00, 0x00, 0x00, 0x00, 0x00, 0x00, 
.................... 0x00, 0x00, 0x00, 0x00, 0x00, 0x00, 0x00, 0x00, 0x00, 0x00, 0x00, 0x00, 0x00, 0x00, 0x00, 0x00, 
.................... 0x00, 0x00, 0x00, 0x00, 0x00, 0x00, 0x00, 0x00, 0x00, 0x00, 0x00, 0x00, 0x00, 0x00, 0x00, 0x00, 
.................... 0x00, 0x00, 0x00, 0x00, 0x00, 0x00, 0x00, 0x00, 0x00, 0x00, 0x00, 0x00, 0x00, 0x00, 0x00, 0x00, 
.................... 0x00, 0x00, 0x00, 0x00, 0x00, 0x00, 0x00, 0x00, 0x00, 0x00, 0x00, 0x00, 0x00, 0x00, 0x00, 0x00, 
.................... 0x00, 0x00, 0x00, 0x00, 0x00, 0x00, 0x00, 0x00, 0x00, 0x00, 0x00, 0x00, 0x00, 0x00, 0x00, 0x00, 
.................... 0x00, 0x00, 0x00, 0x00, 0x00, 0x00, 0x00, 0x00, 0x00, 0x00, 0x00, 0x00, 0x00, 0x00, 0x00, 0x00 
.................... }; 
....................  
.................... const int8 Tomai [64][16] = { 
.................... 0x00, 0x00, 0x00, 0x00, 0x00, 0x00, 0x00, 0x00, 0x00, 0x00, 0x00, 0x00, 0x00, 0x00, 0x00, 0x00, 
.................... 0x00, 0x00, 0x00, 0x00, 0x00, 0x00, 0x00, 0x00, 0x00, 0x00, 0x00, 0x00, 0x00, 0x00, 0x00, 0x00, 
.................... 0x00, 0x00, 0x00, 0x00, 0x00, 0x00, 0x00, 0x00, 0x00, 0x00, 0x00, 0x00, 0x00, 0x00, 0x00, 0x00, 
.................... 0x00, 0x00, 0x00, 0x00, 0x00, 0x00, 0x00, 0x00, 0x00, 0x00, 0x00, 0x00, 0x00, 0x00, 0x00, 0x00, 
.................... 0x00, 0x00, 0x00, 0x00, 0x00, 0x00, 0x00, 0x00, 0x00, 0x00, 0x00, 0x00, 0x00, 0x00, 0x00, 0x00, 
.................... 0x00, 0x00, 0x00, 0x00, 0x00, 0x00, 0x00, 0x00, 0x00, 0x00, 0x00, 0x00, 0x00, 0x00, 0x00, 0x00, 
.................... 0x00, 0x00, 0x00, 0x00, 0x00, 0x00, 0x00, 0x00, 0x00, 0x00, 0x00, 0x00, 0x00, 0x00, 0x00, 0x00, 
.................... 0x00, 0x00, 0x00, 0x00, 0x00, 0x00, 0x00, 0x00, 0x00, 0x00, 0x00, 0x00, 0x00, 0x00, 0x00, 0x00, 
.................... 0x00, 0x00, 0x00, 0x00, 0x00, 0x00, 0x00, 0x00, 0x00, 0x00, 0x00, 0x00, 0x00, 0x00, 0x00, 0x00, 
.................... 0x00, 0x00, 0x00, 0x00, 0x00, 0x00, 0x00, 0x00, 0x00, 0x00, 0x00, 0x00, 0x00, 0x00, 0x00, 0x00, 
.................... 0x00, 0x00, 0x00, 0x00, 0x00, 0x00, 0x00, 0x00, 0x00, 0x00, 0x00, 0x00, 0x00, 0x00, 0x00, 0x00, 
.................... 0x00, 0x00, 0x00, 0x00, 0x00, 0x00, 0x00, 0x00, 0x00, 0x00, 0x00, 0x00, 0x00, 0x00, 0x00, 0x00, 
.................... 0x00, 0x00, 0x00, 0x00, 0x00, 0x00, 0x00, 0x00, 0x00, 0x00, 0x00, 0x00, 0x00, 0x00, 0x00, 0x00, 
.................... 0x00, 0x00, 0x00, 0x00, 0x00, 0x00, 0x00, 0x00, 0x00, 0x00, 0x00, 0x00, 0x00, 0x00, 0x00, 0x00, 
.................... 0x00, 0x00, 0x00, 0x00, 0x00, 0x00, 0x00, 0x00, 0x00, 0x00, 0x00, 0x00, 0x00, 0x00, 0x00, 0x00, 
.................... 0x00, 0x00, 0x00, 0x00, 0x00, 0x00, 0x00, 0x00, 0x00, 0x00, 0x00, 0x00, 0x00, 0x00, 0x00, 0x00, 
.................... 0x00, 0x00, 0x00, 0x00, 0x00, 0x00, 0x00, 0x00, 0x00, 0x00, 0x00, 0x00, 0x00, 0x00, 0x00, 0x00, 
.................... 0x00, 0x00, 0x00, 0x00, 0x00, 0x00, 0x00, 0x00, 0x00, 0x00, 0x00, 0x00, 0x00, 0x00, 0x00, 0x00, 
.................... 0x00, 0x00, 0x00, 0x00, 0x00, 0x00, 0x00, 0x00, 0x00, 0x00, 0x00, 0x00, 0x00, 0x00, 0x00, 0x00, 
.................... 0x00, 0x00, 0x00, 0x00, 0x00, 0x00, 0x00, 0x00, 0x00, 0x00, 0x00, 0x00, 0x00, 0x00, 0x00, 0x00, 
.................... 0x00, 0x00, 0x00, 0x00, 0x00, 0x00, 0x00, 0x00, 0x00, 0x00, 0x00, 0x00, 0x00, 0x00, 0x00, 0x00, 
.................... 0x00, 0x00, 0x00, 0x00, 0x00, 0x00, 0x00, 0x00, 0x00, 0x00, 0x00, 0x00, 0x00, 0x00, 0x00, 0x00, 
.................... 0x00, 0x00, 0x00, 0x00, 0x00, 0x00, 0x00, 0x00, 0x00, 0x00, 0x00, 0x00, 0x00, 0x00, 0x00, 0x00, 
.................... 0x00, 0x00, 0x00, 0x00, 0x00, 0x00, 0x00, 0x00, 0x00, 0x00, 0x00, 0x00, 0x00, 0x00, 0x00, 0x00, 
.................... 0x00, 0x00, 0x00, 0x00, 0x00, 0x00, 0x00, 0x00, 0x00, 0x00, 0x00, 0x00, 0x00, 0x00, 0x00, 0x00, 
.................... 0x00, 0x00, 0x00, 0x00, 0x00, 0x00, 0x00, 0x00, 0x00, 0x00, 0x00, 0x00, 0x00, 0x00, 0x00, 0x00, 
.................... 0x00, 0x00, 0x00, 0x00, 0x00, 0x00, 0x00, 0x00, 0x00, 0x00, 0x00, 0x00, 0x00, 0x00, 0x00, 0x00, 
.................... 0x00, 0x00, 0x00, 0x00, 0x00, 0x00, 0x00, 0x00, 0x00, 0x00, 0x00, 0x00, 0x00, 0x00, 0x00, 0x00, 
.................... 0x00, 0x00, 0x00, 0x00, 0x00, 0x00, 0x00, 0x00, 0x00, 0x00, 0x00, 0x00, 0x00, 0x00, 0x00, 0x00, 
.................... 0x00, 0x00, 0x00, 0x00, 0x00, 0x00, 0x00, 0x00, 0x00, 0x00, 0x00, 0x00, 0x00, 0x00, 0x00, 0x00, 
.................... 0x00, 0x00, 0x00, 0x00, 0x00, 0x00, 0x00, 0x00, 0x00, 0x00, 0x00, 0x00, 0x00, 0x7F, 0xFF, 0xF8, 
.................... 0x00, 0x00, 0x00, 0x00, 0x00, 0x00, 0x00, 0x00, 0x00, 0x00, 0x00, 0x00, 0x00, 0x40, 0x00, 0x08, 
.................... 0x00, 0x00, 0x00, 0x00, 0x00, 0x00, 0x00, 0x00, 0x00, 0x00, 0x00, 0x00, 0x00, 0x47, 0x03, 0x88, 
.................... 0x00, 0x00, 0x00, 0x00, 0x00, 0x00, 0x00, 0x00, 0x00, 0x00, 0x00, 0x00, 0x00, 0x45, 0x02, 0x88, 
.................... 0x00, 0x00, 0x00, 0x00, 0x00, 0x00, 0x00, 0x00, 0x00, 0x00, 0x00, 0x00, 0x00, 0x45, 0x02, 0x88, 
.................... 0x00, 0x00, 0x00, 0x00, 0x00, 0x00, 0x00, 0x00, 0x00, 0x00, 0x00, 0x00, 0x00, 0x45, 0x02, 0x88, 
.................... 0x00, 0x00, 0x00, 0x00, 0x00, 0x00, 0x00, 0x00, 0x00, 0x00, 0x00, 0x00, 0x00, 0x45, 0x02, 0x88, 
.................... 0x00, 0x00, 0x00, 0x00, 0x00, 0x00, 0x00, 0x00, 0x00, 0x00, 0x00, 0x00, 0x00, 0x47, 0x03, 0x88, 
.................... 0x00, 0x00, 0x00, 0x00, 0x00, 0x00, 0x00, 0x00, 0x00, 0x00, 0x00, 0x00, 0x00, 0x40, 0x00, 0x08, 
.................... 0x00, 0x00, 0x00, 0x00, 0x00, 0x00, 0x00, 0x00, 0x00, 0x00, 0x00, 0x00, 0x00, 0x40, 0xFC, 0x08, 
.................... 0x00, 0x00, 0x00, 0x00, 0x00, 0x00, 0x00, 0x00, 0x00, 0x00, 0x00, 0x00, 0x00, 0x40, 0x84, 0x08, 
.................... 0x00, 0x00, 0x00, 0x00, 0x00, 0x00, 0x00, 0x00, 0x00, 0x00, 0x00, 0x00, 0x00, 0x40, 0x84, 0x08, 
.................... 0x00, 0x00, 0x00, 0x00, 0x00, 0x00, 0x00, 0x00, 0x00, 0x00, 0x00, 0x00, 0x00, 0x40, 0xFC, 0x08, 
.................... 0x00, 0x00, 0x00, 0x00, 0x00, 0x00, 0x00, 0x00, 0x00, 0x00, 0x00, 0x00, 0x00, 0x40, 0x00, 0x08, 
.................... 0x00, 0x00, 0x00, 0x00, 0x00, 0x00, 0x00, 0x00, 0x00, 0x00, 0x00, 0x00, 0x00, 0x7F, 0xFF, 0xF8, 
.................... 0x00, 0x00, 0x00, 0x00, 0x00, 0x00, 0x00, 0x00, 0x00, 0x00, 0x00, 0x00, 0x00, 0x00, 0x00, 0x00, 
.................... 0x00, 0x00, 0x00, 0x00, 0x00, 0x00, 0x00, 0x00, 0x00, 0x00, 0x00, 0x00, 0x00, 0x00, 0x00, 0x00, 
.................... 0x00, 0x00, 0x00, 0x00, 0x00, 0x00, 0x00, 0x00, 0x00, 0x00, 0x00, 0x00, 0x00, 0x00, 0x00, 0x00, 
.................... 0x00, 0x00, 0x00, 0x00, 0x00, 0x00, 0x00, 0x00, 0x00, 0x00, 0x00, 0x00, 0x00, 0x00, 0x00, 0x00, 
.................... 0x00, 0x00, 0x00, 0x00, 0x00, 0x00, 0x00, 0x00, 0x00, 0x00, 0x00, 0x00, 0x00, 0x00, 0x00, 0x00, 
.................... 0x00, 0x00, 0x00, 0x00, 0x00, 0x00, 0x00, 0x00, 0x00, 0x00, 0x00, 0x00, 0x00, 0x00, 0x00, 0x00, 
.................... 0x00, 0x00, 0x00, 0x00, 0x00, 0x00, 0x00, 0x00, 0x00, 0x00, 0x00, 0x00, 0x00, 0x00, 0x00, 0x00, 
.................... 0x00, 0x00, 0x00, 0x00, 0x00, 0x00, 0x00, 0x00, 0x00, 0x00, 0x00, 0x00, 0x00, 0x00, 0x00, 0x00, 
.................... 0x00, 0x00, 0x00, 0x00, 0x00, 0x00, 0x00, 0x00, 0x00, 0x00, 0x00, 0x00, 0x00, 0x00, 0x00, 0x00, 
.................... 0x00, 0x00, 0x00, 0x00, 0x00, 0x00, 0x00, 0x00, 0x00, 0x00, 0x00, 0x00, 0x00, 0x00, 0x00, 0x00, 
.................... 0x00, 0x00, 0x00, 0x00, 0x00, 0x00, 0x00, 0x00, 0x00, 0x00, 0x00, 0x00, 0x00, 0x00, 0x00, 0x00, 
.................... 0x00, 0x00, 0x00, 0x00, 0x00, 0x00, 0x00, 0x00, 0x00, 0x00, 0x00, 0x00, 0x00, 0x00, 0x00, 0x00, 
.................... 0x00, 0x00, 0x00, 0x00, 0x00, 0x00, 0x00, 0x00, 0x00, 0x00, 0x00, 0x00, 0x00, 0x00, 0x00, 0x00, 
.................... 0x00, 0x00, 0x00, 0x00, 0x00, 0x00, 0x00, 0x00, 0x00, 0x00, 0x00, 0x00, 0x00, 0x00, 0x00, 0x00, 
.................... 0x00, 0x00, 0x00, 0x00, 0x00, 0x00, 0x00, 0x00, 0x00, 0x00, 0x00, 0x00, 0x00, 0x00, 0x00, 0x00, 
.................... 0x00, 0x00, 0x00, 0x00, 0x00, 0x00, 0x00, 0x00, 0x00, 0x00, 0x00, 0x00, 0x00, 0x00, 0x00, 0x00, 
.................... 0x00, 0x00, 0x00, 0x00, 0x00, 0x00, 0x00, 0x00, 0x00, 0x00, 0x00, 0x00, 0x00, 0x00, 0x00, 0x00, 
.................... 0x00, 0x00, 0x00, 0x00, 0x00, 0x00, 0x00, 0x00, 0x00, 0x00, 0x00, 0x00, 0x00, 0x00, 0x00, 0x00, 
.................... 0x00, 0x00, 0x00, 0x00, 0x00, 0x00, 0x00, 0x00, 0x00, 0x00, 0x00, 0x00, 0x00, 0x00, 0x00, 0x00 
.................... }; 
....................  
.................... const int8 Ventilador [64][16] = { 
.................... 0x00, 0x00, 0x00, 0x00, 0x00, 0x00, 0x00, 0x00, 0x00, 0x00, 0x00, 0x00, 0x00, 0x00, 0x00, 0x00, 
.................... 0x00, 0x00, 0x00, 0x00, 0x00, 0x00, 0x00, 0x00, 0x00, 0x00, 0x00, 0x00, 0x00, 0x00, 0x00, 0x00, 
.................... 0x00, 0x00, 0x00, 0x00, 0x00, 0x00, 0x00, 0x00, 0x00, 0x00, 0x00, 0x00, 0x00, 0x00, 0x00, 0x00, 
.................... 0x00, 0x00, 0x00, 0x00, 0x00, 0x00, 0x00, 0x00, 0x00, 0x00, 0x00, 0x00, 0x00, 0x00, 0x00, 0x00, 
.................... 0x00, 0x00, 0x00, 0x00, 0x00, 0x00, 0x00, 0x00, 0x00, 0x00, 0x00, 0x00, 0x00, 0x00, 0x00, 0x00, 
.................... 0x00, 0x00, 0x00, 0x00, 0x00, 0x00, 0x00, 0x00, 0x00, 0x00, 0x00, 0x00, 0x00, 0x00, 0x00, 0x00, 
.................... 0x00, 0x00, 0x00, 0x00, 0x00, 0x00, 0x00, 0x00, 0x00, 0x00, 0x00, 0x00, 0x00, 0x00, 0x00, 0x00, 
.................... 0x00, 0x00, 0x00, 0x00, 0x00, 0x00, 0x00, 0x00, 0x00, 0x00, 0x00, 0x00, 0x00, 0x00, 0x00, 0x00, 
.................... 0x00, 0x00, 0x00, 0x00, 0x00, 0x00, 0x00, 0x00, 0x00, 0x00, 0x00, 0x00, 0x00, 0x00, 0x00, 0x00, 
.................... 0x00, 0x00, 0x00, 0x00, 0x00, 0x00, 0x00, 0x00, 0x00, 0x00, 0x00, 0x00, 0x00, 0x00, 0x00, 0x00, 
.................... 0x00, 0x00, 0x00, 0x00, 0x00, 0x00, 0x00, 0x00, 0x00, 0x00, 0x00, 0x00, 0x00, 0x00, 0x00, 0x00, 
.................... 0x00, 0x00, 0x00, 0x00, 0x00, 0x00, 0x00, 0x00, 0x00, 0x00, 0x00, 0x00, 0x00, 0x00, 0x00, 0x00, 
.................... 0x00, 0x00, 0x00, 0x00, 0x00, 0x00, 0x00, 0x00, 0x00, 0x00, 0x00, 0x00, 0x00, 0x00, 0x00, 0x00, 
.................... 0x00, 0x00, 0x00, 0x00, 0x00, 0x00, 0x00, 0x00, 0x00, 0x00, 0x00, 0x00, 0x00, 0x00, 0x00, 0x00, 
.................... 0x00, 0x00, 0x00, 0x00, 0x00, 0x00, 0x00, 0x00, 0x00, 0x00, 0x00, 0x00, 0x00, 0x00, 0x00, 0x00, 
.................... 0x00, 0x00, 0x00, 0x00, 0x00, 0x00, 0x00, 0x00, 0x00, 0x00, 0x00, 0x00, 0x00, 0x00, 0x00, 0x00, 
.................... 0x00, 0x00, 0x00, 0x00, 0x00, 0x00, 0x00, 0x00, 0x00, 0x00, 0x00, 0x00, 0x00, 0x00, 0x00, 0x00, 
.................... 0x00, 0x00, 0x00, 0x00, 0x00, 0x00, 0x00, 0x00, 0x00, 0x00, 0x00, 0x00, 0x00, 0x00, 0x00, 0x00, 
.................... 0x00, 0x00, 0x00, 0x00, 0x00, 0x00, 0x00, 0x00, 0x00, 0x00, 0x00, 0x00, 0x00, 0x00, 0x00, 0x00, 
.................... 0x00, 0x00, 0x00, 0x00, 0x00, 0x00, 0x00, 0x00, 0x00, 0x00, 0x00, 0x00, 0x00, 0x00, 0x00, 0x00, 
.................... 0x00, 0x00, 0x00, 0x00, 0x00, 0x00, 0x00, 0x00, 0x00, 0x00, 0x00, 0x00, 0x00, 0x00, 0x00, 0x00, 
.................... 0x00, 0x00, 0x00, 0x00, 0x00, 0x00, 0x00, 0x00, 0x00, 0x00, 0x00, 0x00, 0x00, 0x00, 0x00, 0x00, 
.................... 0x00, 0x00, 0x00, 0x00, 0x00, 0x00, 0x00, 0x00, 0x00, 0x00, 0x00, 0x00, 0x00, 0x00, 0x00, 0x00, 
.................... 0x00, 0x00, 0x00, 0x00, 0x00, 0x00, 0x00, 0x00, 0x00, 0x00, 0x00, 0x00, 0x00, 0x00, 0x00, 0x00, 
.................... 0x00, 0x00, 0x00, 0x00, 0x00, 0x00, 0x00, 0x00, 0x00, 0x00, 0x00, 0x00, 0x00, 0x00, 0x00, 0x00, 
.................... 0x00, 0x00, 0x00, 0x00, 0x00, 0x00, 0x00, 0x00, 0x00, 0x00, 0x00, 0x00, 0x00, 0x00, 0x00, 0x00, 
.................... 0x00, 0x00, 0x00, 0x00, 0x00, 0x00, 0x00, 0x00, 0x00, 0x00, 0x00, 0x00, 0x00, 0x00, 0x00, 0x00, 
.................... 0x00, 0x00, 0x00, 0x00, 0x00, 0x00, 0x00, 0x00, 0x00, 0x00, 0x00, 0x00, 0x00, 0x00, 0x00, 0x00, 
.................... 0x00, 0x00, 0x00, 0x00, 0x00, 0x00, 0x00, 0x00, 0x00, 0x00, 0x00, 0x00, 0x00, 0x00, 0x00, 0x00, 
.................... 0x00, 0x00, 0x00, 0x00, 0x00, 0x00, 0x00, 0x00, 0x00, 0x00, 0x00, 0x00, 0x00, 0x00, 0x00, 0x00, 
.................... 0x00, 0x00, 0x00, 0x00, 0x00, 0x00, 0x00, 0x00, 0x00, 0x00, 0x00, 0x00, 0x00, 0x00, 0x00, 0x00, 
.................... 0x00, 0x00, 0x00, 0x00, 0x00, 0x00, 0x00, 0x00, 0x00, 0x00, 0x00, 0x00, 0x00, 0x00, 0x00, 0x00, 
.................... 0x00, 0x00, 0x00, 0x00, 0x00, 0x00, 0x00, 0x00, 0x00, 0x00, 0x00, 0x00, 0x00, 0x00, 0x00, 0x00, 
.................... 0x00, 0x00, 0x00, 0x00, 0x00, 0x00, 0x00, 0x00, 0x00, 0x00, 0x00, 0x00, 0x00, 0x00, 0x00, 0x00, 
.................... 0x00, 0x00, 0x00, 0x00, 0x00, 0x00, 0x00, 0x00, 0x00, 0x00, 0x00, 0x00, 0x00, 0x00, 0x00, 0x00, 
.................... 0x00, 0x00, 0x00, 0x00, 0x00, 0x00, 0x00, 0x00, 0x00, 0x00, 0x00, 0x00, 0x00, 0x00, 0x00, 0x00, 
.................... 0x00, 0x00, 0x00, 0x00, 0x00, 0x00, 0x00, 0x00, 0x00, 0x00, 0x00, 0x00, 0x00, 0x00, 0x00, 0x00, 
.................... 0x00, 0x00, 0x00, 0x00, 0x00, 0x00, 0x00, 0x00, 0x00, 0x00, 0x00, 0x00, 0x00, 0x00, 0x00, 0x00, 
.................... 0x00, 0x00, 0x00, 0x00, 0x00, 0x00, 0x00, 0x00, 0x00, 0x00, 0x00, 0x00, 0x00, 0x00, 0x00, 0x00, 
.................... 0x00, 0x00, 0x00, 0x00, 0x00, 0x00, 0x00, 0x00, 0x00, 0x00, 0x00, 0x00, 0x00, 0x00, 0x00, 0x00, 
.................... 0x00, 0x00, 0x00, 0x00, 0x00, 0x00, 0x00, 0x00, 0x00, 0x00, 0x00, 0x00, 0x00, 0x00, 0x00, 0x00, 
.................... 0x00, 0x00, 0x00, 0x00, 0x00, 0x00, 0x00, 0x00, 0x00, 0x00, 0x00, 0x00, 0x00, 0x00, 0x00, 0x00, 
.................... 0x00, 0x00, 0x00, 0x00, 0x00, 0x00, 0x00, 0x00, 0x00, 0x00, 0x00, 0x00, 0x00, 0x00, 0x00, 0x00, 
.................... 0x00, 0x00, 0x00, 0x00, 0x00, 0x00, 0x00, 0x00, 0x00, 0x00, 0x00, 0x00, 0x00, 0x00, 0x00, 0x00, 
.................... 0x00, 0x00, 0x00, 0x00, 0x00, 0x00, 0x00, 0x00, 0x00, 0x00, 0x00, 0x00, 0x00, 0x00, 0x00, 0x00, 
.................... 0x00, 0x00, 0x00, 0x00, 0x00, 0x00, 0x00, 0x00, 0x00, 0x00, 0x00, 0x00, 0x00, 0x00, 0x00, 0x00, 
.................... 0x00, 0x00, 0x00, 0x00, 0x00, 0x00, 0x00, 0x00, 0x00, 0x00, 0x00, 0x00, 0x00, 0x00, 0x60, 0x00, 
.................... 0x00, 0x00, 0x00, 0x00, 0x00, 0x00, 0x00, 0x00, 0x00, 0x00, 0x00, 0x00, 0x00, 0x00, 0xF0, 0x00, 
.................... 0x00, 0x00, 0x00, 0x00, 0x00, 0x00, 0x00, 0x00, 0x00, 0x00, 0x00, 0x00, 0x00, 0x01, 0xF8, 0x00, 
.................... 0x00, 0x00, 0x00, 0x00, 0x00, 0x00, 0x00, 0x00, 0x00, 0x00, 0x00, 0x00, 0x00, 0x01, 0xF8, 0x00, 
.................... 0x00, 0x00, 0x00, 0x00, 0x00, 0x00, 0x00, 0x00, 0x00, 0x00, 0x00, 0x00, 0x00, 0x01, 0xF8, 0x00, 
.................... 0x00, 0x00, 0x00, 0x00, 0x00, 0x00, 0x00, 0x00, 0x00, 0x00, 0x00, 0x00, 0x00, 0x00, 0xF0, 0x00, 
.................... 0x00, 0x00, 0x00, 0x00, 0x00, 0x00, 0x00, 0x00, 0x00, 0x00, 0x00, 0x00, 0x00, 0x38, 0x71, 0xC0, 
.................... 0x00, 0x00, 0x00, 0x00, 0x00, 0x00, 0x00, 0x00, 0x00, 0x00, 0x00, 0x00, 0x00, 0x7C, 0x93, 0xE0, 
.................... 0x00, 0x00, 0x00, 0x00, 0x00, 0x00, 0x00, 0x00, 0x00, 0x00, 0x00, 0x00, 0x00, 0xFF, 0x0F, 0xF0, 
.................... 0x00, 0x00, 0x00, 0x00, 0x00, 0x00, 0x00, 0x00, 0x00, 0x00, 0x00, 0x00, 0x00, 0xFF, 0x0F, 0xF0, 
.................... 0x00, 0x00, 0x00, 0x00, 0x00, 0x00, 0x00, 0x00, 0x00, 0x00, 0x00, 0x00, 0x00, 0x7D, 0x93, 0xE0, 
.................... 0x00, 0x00, 0x00, 0x00, 0x00, 0x00, 0x00, 0x00, 0x00, 0x00, 0x00, 0x00, 0x00, 0x38, 0x61, 0xC0, 
.................... 0x00, 0x00, 0x00, 0x00, 0x00, 0x00, 0x00, 0x00, 0x00, 0x00, 0x00, 0x00, 0x00, 0x00, 0xF0, 0x00, 
.................... 0x00, 0x00, 0x00, 0x00, 0x00, 0x00, 0x00, 0x00, 0x00, 0x00, 0x00, 0x00, 0x00, 0x01, 0xF8, 0x00, 
.................... 0x00, 0x00, 0x00, 0x00, 0x00, 0x00, 0x00, 0x00, 0x00, 0x00, 0x00, 0x00, 0x00, 0x01, 0xF8, 0x00, 
.................... 0x00, 0x00, 0x00, 0x00, 0x00, 0x00, 0x00, 0x00, 0x00, 0x00, 0x00, 0x00, 0x00, 0x01, 0xF8, 0x00, 
.................... 0x00, 0x00, 0x00, 0x00, 0x00, 0x00, 0x00, 0x00, 0x00, 0x00, 0x00, 0x00, 0x00, 0x00, 0xF0, 0x00, 
.................... 0x00, 0x00, 0x00, 0x00, 0x00, 0x00, 0x00, 0x00, 0x00, 0x00, 0x00, 0x00, 0x00, 0x00, 0x60, 0x00 
.................... }; 
....................  
....................  
.................... #define   UP               !input(PIN_A4) 
.................... #define   DOWN             !input(PIN_A5) 
.................... #define   RIGHT            !input(PIN_E0) 
.................... #define   LEFT             !input(PIN_E1) 
.................... #define   VIDRIOUP         input(PIN_A3) 
.................... #define   VIDRIODN         input(PIN_A2) 
....................  
.................... #define   Display_on          output_bit(PIN_B1,1) 
.................... #define   Display_off         output_bit(PIN_B1,0) 
.................... #define   Toma_on             output_bit(PIN_C0,0) 
.................... #define   Toma_off            output_bit(PIN_C0,1) 
.................... #define   Alarma_on           output_bit(PIN_C1,1) 
.................... #define   Alarma_off          output_bit(PIN_C1,0) 
.................... #define   LuzBlanca_on        output_bit(PIN_C2,0) 
.................... #define   LuzBlanca_off       output_bit(PIN_C2,1) 
.................... #define   LuzUV_on            output_bit(PIN_C3,0) 
.................... #define   LuzUV_off           output_bit(PIN_C3,1) 
....................  
.................... #define   Motor1L_on          output_bit(PIN_C4,0) 
.................... #define   Motor1L_off         output_bit(PIN_C4,1) 
.................... #define   Motor1H_on          output_bit(PIN_C5,0) 
.................... #define   Motor1H_off         output_bit(PIN_C5,1) 
....................  
.................... #define   Motor2L_on          output_bit(PIN_C6,0) 
.................... #define   Motor2L_off         output_bit(PIN_C6,1) 
.................... #define   Motor2H_on          output_bit(PIN_C7,0) 
.................... #define   Motor2H_off         output_bit(PIN_C7,1) 
....................  
.................... #define   ExFlow       0 
.................... #define   PresDownFlow 1 
....................  
....................  
.................... //**Variables----------------------------------------------// 
.................... int16 tiempos=0; 
.................... int8 i=0; 
.................... short Flanco=0,Flanco1=0,Flanco2=0,Flanco3=0,Flanco4=0,Flanco5=0,Flanco6=0,imprimir=0,flag_uv=0,flag_blower=0,flag_toma=0,flag_luz=0,flag_alarma=0,w=0; 
.................... short tiempo_purga=0,tiempo_uv=0,tiempo_trabajo=0,tiempo_postpurga=0,Latencia=0,flag_latencia=0; 
.................... short guardauv=0,guardatrabajo=0,Lectura=0,n=0,flag_alarma2=0; 
.................... char  JP[] = "JP Inglobal", Cabina[] = "Cabina Flujo Laminar",tiempo_est[]="T est=", Dos_puntos[]=":"; 
.................... char  Clase[] = "Horizontal", Tiempo[] = "Tiempo de Purga", UV[]="UV"; 
.................... char  Baje_Vidrio[] = "!!Ubique Vidrio!!",Inflowt[] = "Flow (m/s) :",Downflowt[] = "JPCFLH", ZF[] = "Fabrica:203.0", ZA[] = "Actual:",AJ[]="Ajuste:"; 
.................... char  Vida_UV[] = "UVLife:",Vida_Filtro[] = "Filter:",ZFP[] = "Fabrica:235.0", Perdida[]="!Perdida Flujo!"; 
.................... int8 Menu=200, unidad=1, Opcion=1,inicie=0,negativo=10,G_l=0,G_h=0,tiemporeset=0,minutos_uv=0; 
.................... int8 q=0,r=0,l=0,h=0,Entero=0,Decimal1=0,LuzUV=10,Motor=10,Alarma=10,UV2=0,e=0,m=0,VelMotor=0; 
.................... unsigned int16 Inflow_adc=0,Filtro_Downflow_adc=0,Temporal1=0; 
.................... int16 t_latencia=0,segundos_uv=0,minutos_trabajo=0,G16=0; 
.................... signed int  Tpurga[4]={0,0,0,0};       // Tiempo de Purga transcurrido 
.................... signed int  Tpurgap[4]={9,0,0,0};      // Tiempo de Purga programado 
.................... signed int  Tppurga[4]={0,0,0,0};      // Tiempo de Post-Purga transcurrido 
.................... signed int  Tppurgap[4]={9,0,0,0};     // Tiempo de Post-Purga programado 
.................... signed int  Tuv[4]={0,0,0,0};          // Tiempo de UV transcurrido(en Horas) 
.................... signed int  Tempouv[4]={0,0,0,0};         // Tiempo de UV transcurrido 
.................... signed int  Tempouvp[4]={0,0,0,0};        // Tiempo de UV transcurrido 
.................... signed int  Ttrabajo[4]={0,0,0,0};        // Tiempo de trabajo transcurrido (en Horas) 
.................... signed int  Contrasena[4]={0,0,0,0};      // Contrasena de 4 digitos 
.................... signed int  Password[4]={0,0,0,0};        // Contrasena Almacenada de 4 digitos 
.................... float Inflow=0.0,Downflow=0.0,Filtro_Downflow=0.0,Diferencia=0.0,barra=0.0,barra_old=0.0,barra2=0.0,barra_old2=0.0; 
.................... float Velocidad=0.0,x_uno=0.0,x_cuadrado=0.0,x_cubo=0.0,Ajuste1=0.0,Ajuste2=0.0; 
.................... float ADC=0,Temporal=0.0,Temporal2=0.0; 
.................... float a=0.0000001418633343546420,b=-0.00009476749001431169,c= 0.040182822903506,d= -5.354852229527197;//Sensor 2 Posible bueno 
.................... float promedio[8]={0.0,0.0,0.0,0.0,0.0,0.0,0.0,0.0}; 
.................... float PromPresion[8]={0.0,0.0,0.0,0.0,0.0,0.0,0.0,0.0}; 
.................... float Flujo=0.0,zero_fabrica=203.0,zero_actual=0.0; 
.................... float V1=0.0,Presion=0.0,G=2.0,UVTime=0.0,Relacion=0.57; 
.................... int16 Vector[40]; 
.................... //**---------------------------------------------------------// 
.................... #include "Funciones.h" 
.................... typedef struct{ 
....................    char Letra[20]; 
.................... }MENUU; 
....................  
.................... MENUU Menus; 
....................  
.................... // Funcion para conversor analogo-digital 
.................... unsigned int16 sensores(int x){ 
.................... unsigned int16 y;set_adc_channel(x);delay_ms(1);y=read_adc();return (y); 
*
02D18:  MOVLB  6
02D1A:  RLCF   x43,W
02D1C:  MOVWF  00
02D1E:  RLCF   00,F
02D20:  MOVLW  FC
02D22:  ANDWF  00,F
02D24:  MOVFF  00,01
02D28:  MOVF   FC2,W
02D2A:  ANDLW  C3
02D2C:  IORWF  00,W
02D2E:  MOVWF  FC2
02D30:  MOVLW  01
02D32:  MOVWF  x47
02D34:  MOVLB  0
02D36:  CALL   1512
02D3A:  BSF    FC2.1
02D3C:  BTFSC  FC2.1
02D3E:  BRA    2D3C
02D40:  MOVFF  FC4,645
02D44:  MOVLB  6
02D46:  MOVFF  FC3,644
02D4A:  MOVFF  644,01
02D4E:  MOVFF  645,02
.................... } 
02D52:  MOVLB  0
02D54:  RETLW  00
....................  
.................... void glcd_imagen(int8 x) 
.................... { 
....................    char i,j; 
....................    signed char k;  
....................       
....................    if(x==3){ 
*
04882:  MOVLB  6
04884:  MOVF   x3E,W
04886:  SUBLW  03
04888:  BNZ   492C
....................    for( i = 0 ; i < 64 ; i ++ ) 
0488A:  CLRF   x3F
0488C:  MOVF   x3F,W
0488E:  SUBLW  3F
04890:  BNC   492C
....................    {  for( j = 0 ; j < 16 ; j ++) 
04892:  CLRF   x40
04894:  MOVF   x40,W
04896:  SUBLW  0F
04898:  BNC   4928
....................       {  for(k=7;k>-1;k--) 
0489A:  MOVLW  07
0489C:  MOVWF  x41
0489E:  MOVF   x41,W
048A0:  XORLW  80
048A2:  SUBLW  7F
048A4:  BC    4924
....................          {       
....................             if( bit_test(Bombillo[i][j] ,7-k ))  
048A6:  CLRF   x43
048A8:  MOVFF  63F,642
048AC:  CLRF   x45
048AE:  MOVLW  10
048B0:  MOVWF  x44
048B2:  MOVLB  0
048B4:  RCALL  4860
048B6:  MOVFF  02,643
048BA:  MOVFF  01,642
048BE:  MOVLB  6
048C0:  MOVF   x40,W
048C2:  ADDWF  01,W
048C4:  MOVWF  01
048C6:  MOVLW  00
048C8:  ADDWFC 02,W
048CA:  MOVWF  03
048CC:  MOVF   01,W
048CE:  MOVFF  FF2,642
048D2:  BCF    FF2.7
048D4:  MOVFF  03,FF7
048D8:  MOVLB  0
048DA:  CALL   02B6
048DE:  MOVLB  6
048E0:  BTFSC  x42.7
048E2:  BSF    FF2.7
048E4:  MOVWF  x42
048E6:  MOVLW  07
048E8:  BSF    FD8.0
048EA:  SUBFWB x41,W
048EC:  MOVWF  x43
048EE:  MOVFF  642,00
048F2:  MOVF   x43,W
048F4:  MOVWF  01
048F6:  BZ    4900
048F8:  BCF    FD8.0
048FA:  RRCF   00,F
048FC:  DECFSZ 01,F
048FE:  BRA    48F8
04900:  BTFSS  00.0
04902:  BRA    4920
....................                glcd_pixel( j*8+k,i, ON ); 
04904:  MOVF   x40,W
04906:  MULLW  08
04908:  MOVF   FF3,W
0490A:  ADDWF  x41,W
0490C:  MOVWF  x42
0490E:  MOVWF  x72
04910:  MOVFF  63F,673
04914:  MOVLW  01
04916:  MOVWF  x74
04918:  MOVLB  0
0491A:  CALL   3552
0491E:  MOVLB  6
....................          }   
04920:  DECF   x41,F
04922:  BRA    489E
....................       } 
04924:  INCF   x40,F
04926:  BRA    4894
....................    } 
04928:  INCF   x3F,F
0492A:  BRA    488C
....................    } 
....................     
....................    if(x==4){ 
0492C:  MOVF   x3E,W
0492E:  SUBLW  04
04930:  BNZ   49D4
....................    for( i = 0 ; i < 64 ; i ++ ) 
04932:  CLRF   x3F
04934:  MOVF   x3F,W
04936:  SUBLW  3F
04938:  BNC   49D4
....................    {  for( j = 0 ; j < 16 ; j ++) 
0493A:  CLRF   x40
0493C:  MOVF   x40,W
0493E:  SUBLW  0F
04940:  BNC   49D0
....................       {  for(k=7;k>-1;k--) 
04942:  MOVLW  07
04944:  MOVWF  x41
04946:  MOVF   x41,W
04948:  XORLW  80
0494A:  SUBLW  7F
0494C:  BC    49CC
....................          {       
....................             if( bit_test(Tomai[i][j] ,7-k ))  
0494E:  CLRF   x43
04950:  MOVFF  63F,642
04954:  CLRF   x45
04956:  MOVLW  10
04958:  MOVWF  x44
0495A:  MOVLB  0
0495C:  RCALL  4860
0495E:  MOVFF  02,643
04962:  MOVFF  01,642
04966:  MOVLB  6
04968:  MOVF   x40,W
0496A:  ADDWF  01,W
0496C:  MOVWF  01
0496E:  MOVLW  00
04970:  ADDWFC 02,W
04972:  MOVWF  03
04974:  MOVF   01,W
04976:  MOVFF  FF2,642
0497A:  BCF    FF2.7
0497C:  MOVFF  03,FF7
04980:  MOVLB  0
04982:  CALL   06D2
04986:  MOVLB  6
04988:  BTFSC  x42.7
0498A:  BSF    FF2.7
0498C:  MOVWF  x42
0498E:  MOVLW  07
04990:  BSF    FD8.0
04992:  SUBFWB x41,W
04994:  MOVWF  x43
04996:  MOVFF  642,00
0499A:  MOVF   x43,W
0499C:  MOVWF  01
0499E:  BZ    49A8
049A0:  BCF    FD8.0
049A2:  RRCF   00,F
049A4:  DECFSZ 01,F
049A6:  BRA    49A0
049A8:  BTFSS  00.0
049AA:  BRA    49C8
....................                glcd_pixel( j*8+k,i, ON ); 
049AC:  MOVF   x40,W
049AE:  MULLW  08
049B0:  MOVF   FF3,W
049B2:  ADDWF  x41,W
049B4:  MOVWF  x42
049B6:  MOVWF  x72
049B8:  MOVFF  63F,673
049BC:  MOVLW  01
049BE:  MOVWF  x74
049C0:  MOVLB  0
049C2:  CALL   3552
049C6:  MOVLB  6
....................          }   
049C8:  DECF   x41,F
049CA:  BRA    4946
....................       } 
049CC:  INCF   x40,F
049CE:  BRA    493C
....................    } 
049D0:  INCF   x3F,F
049D2:  BRA    4934
....................    } 
....................     
....................    if(x==5){ 
049D4:  MOVF   x3E,W
049D6:  SUBLW  05
049D8:  BNZ   4A7C
....................    for( i = 0 ; i < 64 ; i ++ ) 
049DA:  CLRF   x3F
049DC:  MOVF   x3F,W
049DE:  SUBLW  3F
049E0:  BNC   4A7C
....................    {  for( j = 0 ; j < 16 ; j ++) 
049E2:  CLRF   x40
049E4:  MOVF   x40,W
049E6:  SUBLW  0F
049E8:  BNC   4A78
....................       {  for(k=7;k>-1;k--) 
049EA:  MOVLW  07
049EC:  MOVWF  x41
049EE:  MOVF   x41,W
049F0:  XORLW  80
049F2:  SUBLW  7F
049F4:  BC    4A74
....................          {       
....................             if( bit_test(Ventilador[i][j] ,7-k ))  
049F6:  CLRF   x43
049F8:  MOVFF  63F,642
049FC:  CLRF   x45
049FE:  MOVLW  10
04A00:  MOVWF  x44
04A02:  MOVLB  0
04A04:  RCALL  4860
04A06:  MOVFF  02,643
04A0A:  MOVFF  01,642
04A0E:  MOVLB  6
04A10:  MOVF   x40,W
04A12:  ADDWF  01,W
04A14:  MOVWF  01
04A16:  MOVLW  00
04A18:  ADDWFC 02,W
04A1A:  MOVWF  03
04A1C:  MOVF   01,W
04A1E:  MOVFF  FF2,642
04A22:  BCF    FF2.7
04A24:  MOVFF  03,FF7
04A28:  MOVLB  0
04A2A:  CALL   0AEE
04A2E:  MOVLB  6
04A30:  BTFSC  x42.7
04A32:  BSF    FF2.7
04A34:  MOVWF  x42
04A36:  MOVLW  07
04A38:  BSF    FD8.0
04A3A:  SUBFWB x41,W
04A3C:  MOVWF  x43
04A3E:  MOVFF  642,00
04A42:  MOVF   x43,W
04A44:  MOVWF  01
04A46:  BZ    4A50
04A48:  BCF    FD8.0
04A4A:  RRCF   00,F
04A4C:  DECFSZ 01,F
04A4E:  BRA    4A48
04A50:  BTFSS  00.0
04A52:  BRA    4A70
....................                glcd_pixel( j*8+k,i, ON ); 
04A54:  MOVF   x40,W
04A56:  MULLW  08
04A58:  MOVF   FF3,W
04A5A:  ADDWF  x41,W
04A5C:  MOVWF  x42
04A5E:  MOVWF  x72
04A60:  MOVFF  63F,673
04A64:  MOVLW  01
04A66:  MOVWF  x74
04A68:  MOVLB  0
04A6A:  CALL   3552
04A6E:  MOVLB  6
....................          }   
04A70:  DECF   x41,F
04A72:  BRA    49EE
....................       } 
04A74:  INCF   x40,F
04A76:  BRA    49E4
....................    } 
04A78:  INCF   x3F,F
04A7A:  BRA    49DC
....................    } 
.................... } 
04A7C:  MOVLB  0
04A7E:  RETLW  00
....................  
....................  
.................... void mensajes(int8 x,y){// Funcion para imprimir mensajes de Menu Principal. 
....................   if(x==1) 
....................    {glcd_text57(7, y, tiempo_est, 1, ON);} 
.................... } 
....................   
.................... void displayContrasena(int digito, int x, int y, int sombreado) 
.................... { 
....................    char voltage[9]; 
....................    sprintf(voltage, "%i", digito); 
*
039C6:  MOVLW  06
039C8:  MOVLB  6
039CA:  MOVWF  x3D
039CC:  MOVLW  4C
039CE:  MOVWF  x3C
039D0:  MOVFF  648,655
039D4:  MOVLW  1F
039D6:  MOVWF  x56
039D8:  MOVLB  0
039DA:  RCALL  3474
....................     
....................    if(sombreado==1) 
039DC:  MOVLB  6
039DE:  DECFSZ x4B,W
039E0:  BRA    3A30
....................       {glcd_rect(x, y, x+18, y+24, YES, ON);glcd_text57(x+2, y+1, voltage, 2, OFF);} 
039E2:  MOVLW  12
039E4:  ADDWF  x49,W
039E6:  MOVWF  x55
039E8:  MOVLW  18
039EA:  ADDWF  x4A,W
039EC:  MOVWF  x56
039EE:  MOVFF  649,657
039F2:  MOVFF  64A,658
039F6:  MOVFF  655,659
039FA:  MOVWF  x5A
039FC:  MOVLW  01
039FE:  MOVWF  x5B
03A00:  MOVWF  x5C
03A02:  MOVLB  0
03A04:  RCALL  374C
03A06:  MOVLW  02
03A08:  MOVLB  6
03A0A:  ADDWF  x49,W
03A0C:  MOVWF  x55
03A0E:  MOVLW  01
03A10:  ADDWF  x4A,W
03A12:  MOVWF  x56
03A14:  MOVFF  655,657
03A18:  MOVWF  x58
03A1A:  MOVLW  06
03A1C:  MOVWF  x5A
03A1E:  MOVLW  4C
03A20:  MOVWF  x59
03A22:  MOVLW  02
03A24:  MOVWF  x5B
03A26:  CLRF   x5C
03A28:  MOVLB  0
03A2A:  RCALL  380E
....................    else    
03A2C:  BRA    3A7A
03A2E:  MOVLB  6
....................       {glcd_rect(x, y, x+18, y+24, NO, OFF);glcd_text57(x+2, y+1, voltage, 2, ON);} 
03A30:  MOVLW  12
03A32:  ADDWF  x49,W
03A34:  MOVWF  x55
03A36:  MOVLW  18
03A38:  ADDWF  x4A,W
03A3A:  MOVWF  x56
03A3C:  MOVFF  649,657
03A40:  MOVFF  64A,658
03A44:  MOVFF  655,659
03A48:  MOVWF  x5A
03A4A:  CLRF   x5B
03A4C:  CLRF   x5C
03A4E:  MOVLB  0
03A50:  RCALL  374C
03A52:  MOVLW  02
03A54:  MOVLB  6
03A56:  ADDWF  x49,W
03A58:  MOVWF  x55
03A5A:  MOVLW  01
03A5C:  ADDWF  x4A,W
03A5E:  MOVWF  x56
03A60:  MOVFF  655,657
03A64:  MOVWF  x58
03A66:  MOVLW  06
03A68:  MOVWF  x5A
03A6A:  MOVLW  4C
03A6C:  MOVWF  x59
03A6E:  MOVLW  02
03A70:  MOVWF  x5B
03A72:  MOVLW  01
03A74:  MOVWF  x5C
03A76:  MOVLB  0
03A78:  RCALL  380E
....................  
.................... } 
03A7A:  RETLW  00
....................  
.................... void displayTiempo(int digito, int x, int y, int sombreado, int tamano) 
.................... { 
....................    char voltage[9]; 
....................    sprintf(voltage, "%i", digito); 
*
04332:  MOVLW  06
04334:  MOVLB  6
04336:  MOVWF  x3D
04338:  MOVLW  43
0433A:  MOVWF  x3C
0433C:  MOVFF  63E,655
04340:  MOVLW  1F
04342:  MOVWF  x56
04344:  MOVLB  0
04346:  CALL   3474
....................     
....................    if(sombreado==1) 
0434A:  MOVLB  6
0434C:  DECFSZ x41,W
0434E:  BRA    43A8
....................       {glcd_rect(x, y, x+(tamano*6), y+(tamano*8), YES, ON);glcd_text57(x+2, y+1, voltage, tamano, OFF);} 
04350:  MOVF   x42,W
04352:  MULLW  06
04354:  MOVF   FF3,W
04356:  ADDWF  x3F,W
04358:  MOVWF  x4C
0435A:  MOVF   x42,W
0435C:  MULLW  08
0435E:  MOVF   FF3,W
04360:  ADDWF  x40,W
04362:  MOVWF  x4D
04364:  MOVFF  63F,657
04368:  MOVFF  640,658
0436C:  MOVFF  64C,659
04370:  MOVWF  x5A
04372:  MOVLW  01
04374:  MOVWF  x5B
04376:  MOVWF  x5C
04378:  MOVLB  0
0437A:  CALL   374C
0437E:  MOVLW  02
04380:  MOVLB  6
04382:  ADDWF  x3F,W
04384:  MOVWF  x4C
04386:  MOVLW  01
04388:  ADDWF  x40,W
0438A:  MOVWF  x4D
0438C:  MOVFF  64C,657
04390:  MOVWF  x58
04392:  MOVLW  06
04394:  MOVWF  x5A
04396:  MOVLW  43
04398:  MOVWF  x59
0439A:  MOVFF  642,65B
0439E:  CLRF   x5C
043A0:  MOVLB  0
043A2:  CALL   380E
043A6:  MOVLB  6
....................    if(sombreado==0) 
043A8:  MOVF   x41,F
043AA:  BNZ   4406
....................       {glcd_rect(x, y, x+(tamano*6), y+(tamano*8), YES, OFF);glcd_text57(x+2, y+1, voltage, tamano, ON);} 
043AC:  MOVF   x42,W
043AE:  MULLW  06
043B0:  MOVF   FF3,W
043B2:  ADDWF  x3F,W
043B4:  MOVWF  x4C
043B6:  MOVF   x42,W
043B8:  MULLW  08
043BA:  MOVF   FF3,W
043BC:  ADDWF  x40,W
043BE:  MOVWF  x4D
043C0:  MOVFF  63F,657
043C4:  MOVFF  640,658
043C8:  MOVFF  64C,659
043CC:  MOVWF  x5A
043CE:  MOVLW  01
043D0:  MOVWF  x5B
043D2:  CLRF   x5C
043D4:  MOVLB  0
043D6:  CALL   374C
043DA:  MOVLW  02
043DC:  MOVLB  6
043DE:  ADDWF  x3F,W
043E0:  MOVWF  x4C
043E2:  MOVLW  01
043E4:  ADDWF  x40,W
043E6:  MOVWF  x4D
043E8:  MOVFF  64C,657
043EC:  MOVWF  x58
043EE:  MOVLW  06
043F0:  MOVWF  x5A
043F2:  MOVLW  43
043F4:  MOVWF  x59
043F6:  MOVFF  642,65B
043FA:  MOVLW  01
043FC:  MOVWF  x5C
043FE:  MOVLB  0
04400:  CALL   380E
04404:  MOVLB  6
....................  
.................... } 
04406:  MOVLB  0
04408:  RETLW  00
....................  
.................... void displayMenu(char palabra[100], int x, int y, int sombreado, int tamano) 
.................... { 
....................    strcpy(Menus.Letra,palabra); 
*
03A7C:  MOVLB  6
03A7E:  MOVFF  646,01
03A82:  MOVFF  647,03
03A86:  MOVFF  646,64C
03A8A:  MOVFF  647,64D
03A8E:  MOVLW  06
03A90:  MOVWF  FEA
03A92:  MOVLW  28
03A94:  MOVWF  FE9
03A96:  MOVFF  647,FE2
03A9A:  MOVFF  646,FE1
03A9E:  MOVF   FE7,F
03AA0:  MOVFF  FE6,FEE
03AA4:  BNZ   3A9E
....................    if(sombreado==1) 
03AA6:  DECFSZ x4A,W
03AA8:  BRA    3AF4
....................       {glcd_rect(0, y, 127, y+(tamano*8), YES, ON);glcd_text57(x+1, y+1, Menus.Letra, tamano, OFF);} 
03AAA:  MOVF   x4B,W
03AAC:  MULLW  08
03AAE:  MOVF   FF3,W
03AB0:  ADDWF  x49,W
03AB2:  MOVWF  x4C
03AB4:  CLRF   x57
03AB6:  MOVFF  649,658
03ABA:  MOVLW  7F
03ABC:  MOVWF  x59
03ABE:  MOVFF  64C,65A
03AC2:  MOVLW  01
03AC4:  MOVWF  x5B
03AC6:  MOVWF  x5C
03AC8:  MOVLB  0
03ACA:  RCALL  374C
03ACC:  MOVLW  01
03ACE:  MOVLB  6
03AD0:  ADDWF  x48,W
03AD2:  MOVWF  x4C
03AD4:  MOVLW  01
03AD6:  ADDWF  x49,W
03AD8:  MOVWF  x4D
03ADA:  MOVFF  64C,657
03ADE:  MOVWF  x58
03AE0:  MOVLW  06
03AE2:  MOVWF  x5A
03AE4:  MOVLW  28
03AE6:  MOVWF  x59
03AE8:  MOVFF  64B,65B
03AEC:  CLRF   x5C
03AEE:  MOVLB  0
03AF0:  RCALL  380E
03AF2:  MOVLB  6
....................    if(sombreado==0) 
03AF4:  MOVF   x4A,F
03AF6:  BNZ   3B44
....................       {glcd_rect(0, y, 127, y+(tamano*8), YES, OFF);glcd_text57(x+1, y+1, Menus.Letra, tamano, ON);} 
03AF8:  MOVF   x4B,W
03AFA:  MULLW  08
03AFC:  MOVF   FF3,W
03AFE:  ADDWF  x49,W
03B00:  MOVWF  x4C
03B02:  CLRF   x57
03B04:  MOVFF  649,658
03B08:  MOVLW  7F
03B0A:  MOVWF  x59
03B0C:  MOVFF  64C,65A
03B10:  MOVLW  01
03B12:  MOVWF  x5B
03B14:  CLRF   x5C
03B16:  MOVLB  0
03B18:  RCALL  374C
03B1A:  MOVLW  01
03B1C:  MOVLB  6
03B1E:  ADDWF  x48,W
03B20:  MOVWF  x4C
03B22:  MOVLW  01
03B24:  ADDWF  x49,W
03B26:  MOVWF  x4D
03B28:  MOVFF  64C,657
03B2C:  MOVWF  x58
03B2E:  MOVLW  06
03B30:  MOVWF  x5A
03B32:  MOVLW  28
03B34:  MOVWF  x59
03B36:  MOVFF  64B,65B
03B3A:  MOVLW  01
03B3C:  MOVWF  x5C
03B3E:  MOVLB  0
03B40:  RCALL  380E
03B42:  MOVLB  6
....................  
.................... } 
03B44:  MOVLB  0
03B46:  RETLW  00
....................  
.................... void displayfloat(float adc,int x,int y,int sombreado, int tamano) { 
....................    char voltage[9];     
....................       sprintf(voltage, "%1.2f",adc); // Converts adc to text 
*
0477A:  MOVLW  06
0477C:  MOVLB  6
0477E:  MOVWF  x3D
04780:  MOVLW  4A
04782:  MOVWF  x3C
04784:  MOVLW  89
04786:  MOVWF  FE9
04788:  MOVFF  645,656
0478C:  MOVFF  644,655
04790:  MOVFF  643,654
04794:  MOVFF  642,653
04798:  MOVLW  02
0479A:  MOVWF  x57
0479C:  MOVLB  0
0479E:  BRA    45C4
....................        
....................    if(sombreado==1) 
047A0:  MOVLB  6
047A2:  DECFSZ x48,W
047A4:  BRA    47FE
....................       {glcd_rect(x, y, x+(tamano*48), y+(tamano*8), YES, ON);glcd_text57(x+2, y+1, voltage, tamano, OFF);} 
047A6:  MOVF   x49,W
047A8:  MULLW  30
047AA:  MOVF   FF3,W
047AC:  ADDWF  x46,W
047AE:  MOVWF  x53
047B0:  MOVF   x49,W
047B2:  MULLW  08
047B4:  MOVF   FF3,W
047B6:  ADDWF  x47,W
047B8:  MOVWF  x54
047BA:  MOVFF  646,657
047BE:  MOVFF  647,658
047C2:  MOVFF  653,659
047C6:  MOVWF  x5A
047C8:  MOVLW  01
047CA:  MOVWF  x5B
047CC:  MOVWF  x5C
047CE:  MOVLB  0
047D0:  CALL   374C
047D4:  MOVLW  02
047D6:  MOVLB  6
047D8:  ADDWF  x46,W
047DA:  MOVWF  x53
047DC:  MOVLW  01
047DE:  ADDWF  x47,W
047E0:  MOVWF  x54
047E2:  MOVFF  653,657
047E6:  MOVWF  x58
047E8:  MOVLW  06
047EA:  MOVWF  x5A
047EC:  MOVLW  4A
047EE:  MOVWF  x59
047F0:  MOVFF  649,65B
047F4:  CLRF   x5C
047F6:  MOVLB  0
047F8:  CALL   380E
047FC:  MOVLB  6
....................    if(sombreado==0) 
047FE:  MOVF   x48,F
04800:  BNZ   485C
....................       {glcd_rect(x, y, x+(tamano*48), y+(tamano*8), YES, OFF);glcd_text57(x+2, y+1, voltage, tamano, ON);} 
04802:  MOVF   x49,W
04804:  MULLW  30
04806:  MOVF   FF3,W
04808:  ADDWF  x46,W
0480A:  MOVWF  x53
0480C:  MOVF   x49,W
0480E:  MULLW  08
04810:  MOVF   FF3,W
04812:  ADDWF  x47,W
04814:  MOVWF  x54
04816:  MOVFF  646,657
0481A:  MOVFF  647,658
0481E:  MOVFF  653,659
04822:  MOVWF  x5A
04824:  MOVLW  01
04826:  MOVWF  x5B
04828:  CLRF   x5C
0482A:  MOVLB  0
0482C:  CALL   374C
04830:  MOVLW  02
04832:  MOVLB  6
04834:  ADDWF  x46,W
04836:  MOVWF  x53
04838:  MOVLW  01
0483A:  ADDWF  x47,W
0483C:  MOVWF  x54
0483E:  MOVFF  653,657
04842:  MOVWF  x58
04844:  MOVLW  06
04846:  MOVWF  x5A
04848:  MOVLW  4A
0484A:  MOVWF  x59
0484C:  MOVFF  649,65B
04850:  MOVLW  01
04852:  MOVWF  x5C
04854:  MOVLB  0
04856:  CALL   380E
0485A:  MOVLB  6
....................        
.................... } 
0485C:  MOVLB  0
0485E:  RETLW  00
....................  
.................... Float LeerFlujoInFlow(int media) 
.................... { 
....................     InFlow_adc=sensores(ExFlow); 
*
02E4C:  MOVLB  6
02E4E:  CLRF   x43
02E50:  MOVLB  0
02E52:  RCALL  2D18
02E54:  MOVFF  02,4EF
02E58:  MOVFF  01,4EE
....................        
....................     if(negativo==10) 
02E5C:  MOVLB  4
02E5E:  MOVF   xDC,W
02E60:  SUBLW  0A
02E62:  BNZ   2EAA
....................     { 
....................       x_uno=Inflow_adc+Diferencia; 
02E64:  MOVFF  4EF,644
02E68:  MOVFF  4EE,643
02E6C:  MOVLB  0
02E6E:  CALL   153A
02E72:  BCF    FD8.1
02E74:  MOVFF  03,64A
02E78:  MOVFF  02,649
02E7C:  MOVFF  01,648
02E80:  MOVFF  00,647
02E84:  MOVFF  533,64E
02E88:  MOVFF  532,64D
02E8C:  MOVFF  531,64C
02E90:  MOVFF  530,64B
02E94:  CALL   16CE
02E98:  MOVFF  03,54B
02E9C:  MOVFF  02,54A
02EA0:  MOVFF  01,549
02EA4:  MOVFF  00,548
02EA8:  MOVLB  4
....................     } 
....................     if(negativo==20) 
02EAA:  MOVF   xDC,W
02EAC:  SUBLW  14
02EAE:  BNZ   2EF4
....................     { 
....................       x_uno=Inflow_adc-Diferencia; 
02EB0:  MOVFF  4EF,644
02EB4:  MOVFF  4EE,643
02EB8:  MOVLB  0
02EBA:  CALL   153A
02EBE:  BSF    FD8.1
02EC0:  MOVFF  03,64A
02EC4:  MOVFF  02,649
02EC8:  MOVFF  01,648
02ECC:  MOVFF  00,647
02ED0:  MOVFF  533,64E
02ED4:  MOVFF  532,64D
02ED8:  MOVFF  531,64C
02EDC:  MOVFF  530,64B
02EE0:  CALL   16CE
02EE4:  MOVFF  03,54B
02EE8:  MOVFF  02,54A
02EEC:  MOVFF  01,549
02EF0:  MOVFF  00,548
....................     } 
....................     x_cuadrado=x_uno*x_uno; 
02EF4:  MOVFF  54B,663
02EF8:  MOVFF  54A,662
02EFC:  MOVFF  549,661
02F00:  MOVFF  548,660
02F04:  MOVFF  54B,667
02F08:  MOVFF  54A,666
02F0C:  MOVFF  549,665
02F10:  MOVFF  548,664
02F14:  MOVLB  0
02F16:  RCALL  2D56
02F18:  MOVFF  03,54F
02F1C:  MOVFF  02,54E
02F20:  MOVFF  01,54D
02F24:  MOVFF  00,54C
....................     x_cubo=x_uno*x_cuadrado; 
02F28:  MOVFF  54B,663
02F2C:  MOVFF  54A,662
02F30:  MOVFF  549,661
02F34:  MOVFF  548,660
02F38:  MOVFF  54F,667
02F3C:  MOVFF  54E,666
02F40:  MOVFF  54D,665
02F44:  MOVFF  54C,664
02F48:  RCALL  2D56
02F4A:  MOVFF  03,553
02F4E:  MOVFF  02,552
02F52:  MOVFF  01,551
02F56:  MOVFF  00,550
....................     Velocidad=(x_cubo*a)+(x_cuadrado*b)+(x_uno*c)+d;  
02F5A:  MOVFF  553,663
02F5E:  MOVFF  552,662
02F62:  MOVFF  551,661
02F66:  MOVFF  550,660
02F6A:  MOVFF  56B,667
02F6E:  MOVFF  56A,666
02F72:  MOVFF  569,665
02F76:  MOVFF  568,664
02F7A:  RCALL  2D56
02F7C:  MOVFF  00,63F
02F80:  MOVFF  01,640
02F84:  MOVFF  02,641
02F88:  MOVFF  03,642
02F8C:  MOVFF  54F,663
02F90:  MOVFF  54E,662
02F94:  MOVFF  54D,661
02F98:  MOVFF  54C,660
02F9C:  MOVFF  56F,667
02FA0:  MOVFF  56E,666
02FA4:  MOVFF  56D,665
02FA8:  MOVFF  56C,664
02FAC:  RCALL  2D56
02FAE:  BCF    FD8.1
02FB0:  MOVFF  642,64A
02FB4:  MOVFF  641,649
02FB8:  MOVFF  640,648
02FBC:  MOVFF  63F,647
02FC0:  MOVFF  03,64E
02FC4:  MOVFF  02,64D
02FC8:  MOVFF  01,64C
02FCC:  MOVFF  00,64B
02FD0:  CALL   16CE
02FD4:  MOVFF  00,63F
02FD8:  MOVFF  01,640
02FDC:  MOVFF  02,641
02FE0:  MOVFF  03,642
02FE4:  MOVFF  54B,663
02FE8:  MOVFF  54A,662
02FEC:  MOVFF  549,661
02FF0:  MOVFF  548,660
02FF4:  MOVFF  573,667
02FF8:  MOVFF  572,666
02FFC:  MOVFF  571,665
03000:  MOVFF  570,664
03004:  RCALL  2D56
03006:  BCF    FD8.1
03008:  MOVFF  642,64A
0300C:  MOVFF  641,649
03010:  MOVFF  640,648
03014:  MOVFF  63F,647
03018:  MOVFF  03,64E
0301C:  MOVFF  02,64D
03020:  MOVFF  01,64C
03024:  MOVFF  00,64B
03028:  CALL   16CE
0302C:  MOVFF  00,63F
03030:  MOVFF  01,640
03034:  MOVFF  02,641
03038:  MOVFF  03,642
0303C:  BCF    FD8.1
0303E:  MOVFF  03,64A
03042:  MOVFF  02,649
03046:  MOVFF  01,648
0304A:  MOVFF  00,647
0304E:  MOVFF  577,64E
03052:  MOVFF  576,64D
03056:  MOVFF  575,64C
0305A:  MOVFF  574,64B
0305E:  CALL   16CE
03062:  MOVFF  03,547
03066:  MOVFF  02,546
0306A:  MOVFF  01,545
0306E:  MOVFF  00,544
....................     //Velocidad=Velocidad*correccion;//Ajuste de Temperatura 
....................     Velocidad=Velocidad-0.08; 
03072:  BSF    FD8.1
03074:  MOVFF  547,64A
03078:  MOVFF  546,649
0307C:  MOVFF  545,648
03080:  MOVFF  544,647
03084:  MOVLW  0A
03086:  MOVLB  6
03088:  MOVWF  x4E
0308A:  MOVLW  D7
0308C:  MOVWF  x4D
0308E:  MOVLW  23
03090:  MOVWF  x4C
03092:  MOVLW  7B
03094:  MOVWF  x4B
03096:  MOVLB  0
03098:  CALL   16CE
0309C:  MOVFF  03,547
030A0:  MOVFF  02,546
030A4:  MOVFF  01,545
030A8:  MOVFF  00,544
....................     if(Velocidad<0.0) 
030AC:  MOVFF  547,646
030B0:  MOVFF  546,645
030B4:  MOVFF  545,644
030B8:  MOVFF  544,643
030BC:  MOVLB  6
030BE:  CLRF   x4A
030C0:  CLRF   x49
030C2:  CLRF   x48
030C4:  CLRF   x47
030C6:  MOVLB  0
030C8:  CALL   219C
030CC:  BNC   30D8
....................      {Velocidad=0.0;} 
030CE:  MOVLB  5
030D0:  CLRF   x47
030D2:  CLRF   x46
030D4:  CLRF   x45
030D6:  CLRF   x44
....................       
....................      if(l>=media) 
030D8:  MOVLB  6
030DA:  MOVF   x3E,W
030DC:  MOVLB  4
030DE:  SUBWF  xE3,W
030E0:  BNC   30E4
....................        {l=0;} 
030E2:  CLRF   xE3
....................       
....................      promedio[l]=Velocidad;l++; 
030E4:  MOVF   xE3,W
030E6:  MULLW  04
030E8:  MOVF   FF3,W
030EA:  CLRF   03
030EC:  ADDLW  78
030EE:  MOVWF  FE9
030F0:  MOVLW  05
030F2:  ADDWFC 03,W
030F4:  MOVWF  FEA
030F6:  MOVFF  544,FEF
030FA:  MOVFF  545,FEC
030FE:  MOVFF  546,FEC
03102:  MOVFF  547,FEC
03106:  INCF   xE3,F
....................      Flujo=0; 
03108:  MOVLB  5
0310A:  CLRF   xBB
0310C:  CLRF   xBA
0310E:  CLRF   xB9
03110:  CLRF   xB8
....................         for(h=0;h<=(media-1);h++) 
03112:  MOVLB  4
03114:  CLRF   xE4
03116:  MOVLW  01
03118:  MOVLB  6
0311A:  SUBWF  x3E,W
0311C:  MOVLB  4
0311E:  SUBWF  xE4,W
03120:  BZ    3124
03122:  BC    3194
....................         { 
....................            Flujo+=promedio[h]; 
03124:  MOVF   xE4,W
03126:  MULLW  04
03128:  MOVF   FF3,W
0312A:  CLRF   03
0312C:  ADDLW  78
0312E:  MOVWF  FE9
03130:  MOVLW  05
03132:  ADDWFC 03,W
03134:  MOVWF  FEA
03136:  MOVFF  FEF,00
0313A:  MOVFF  FEC,01
0313E:  MOVFF  FEC,02
03142:  MOVFF  FEC,03
03146:  MOVFF  FEA,640
0314A:  MOVFF  FE9,63F
0314E:  BCF    FD8.1
03150:  MOVFF  5BB,64A
03154:  MOVFF  5BA,649
03158:  MOVFF  5B9,648
0315C:  MOVFF  5B8,647
03160:  MOVFF  03,64E
03164:  MOVFF  02,64D
03168:  MOVFF  01,64C
0316C:  MOVFF  00,64B
03170:  MOVLB  0
03172:  CALL   16CE
03176:  MOVFF  640,FEA
0317A:  MOVFF  63F,FE9
0317E:  MOVFF  03,5BB
03182:  MOVFF  02,5BA
03186:  MOVFF  01,5B9
0318A:  MOVFF  00,5B8
....................         }  
0318E:  MOVLB  4
03190:  INCF   xE4,F
03192:  BRA    3116
....................            Flujo=(Flujo/media)*Ajuste1;  
03194:  MOVLB  6
03196:  CLRF   x44
03198:  MOVFF  63E,643
0319C:  MOVLB  0
0319E:  CALL   153A
031A2:  MOVFF  5BB,646
031A6:  MOVFF  5BA,645
031AA:  MOVFF  5B9,644
031AE:  MOVFF  5B8,643
031B2:  MOVFF  03,64A
031B6:  MOVFF  02,649
031BA:  MOVFF  01,648
031BE:  MOVFF  00,647
031C2:  CALL   1570
031C6:  MOVFF  00,63F
031CA:  MOVFF  01,640
031CE:  MOVFF  02,641
031D2:  MOVFF  03,642
031D6:  MOVFF  03,663
031DA:  MOVFF  02,662
031DE:  MOVFF  01,661
031E2:  MOVFF  00,660
031E6:  MOVFF  557,667
031EA:  MOVFF  556,666
031EE:  MOVFF  555,665
031F2:  MOVFF  554,664
031F6:  RCALL  2D56
031F8:  MOVFF  03,5BB
031FC:  MOVFF  02,5BA
03200:  MOVFF  01,5B9
03204:  MOVFF  00,5B8
....................            return Flujo; 
03208:  MOVFF  5B8,00
0320C:  MOVFF  5B9,01
03210:  MOVFF  5BA,02
03214:  MOVFF  5BB,03
.................... } 
03218:  GOTO   5110 (RETURN)
....................  
.................... float Leer_Sensor_Presion(int media){ 
0321C:  MOVLB  6
0321E:  CLRF   x42
03220:  CLRF   x41
03222:  CLRF   x40
03224:  CLRF   x3F
....................    float promediopresion=0.0; 
....................     
....................    Filtro_Downflow_adc=sensores(PresDownFlow); 
03226:  MOVLW  01
03228:  MOVWF  x43
0322A:  MOVLB  0
0322C:  RCALL  2D18
0322E:  MOVFF  02,4F1
03232:  MOVFF  01,4F0
....................    V1=Filtro_Downflow_adc;  
03236:  MOVFF  4F1,644
0323A:  MOVFF  4F0,643
0323E:  CALL   153A
03242:  MOVFF  03,5C7
03246:  MOVFF  02,5C6
0324A:  MOVFF  01,5C5
0324E:  MOVFF  00,5C4
....................    //V1 = (x_uno*5.0)/1023.0;   //Lectura de Divisor de Voltaje de PT100 con resistencia de 1k (+-10%) 
....................    Presion=(V1/G)-1.0;// Presion=(Voltaje/Ganancia)-1 
03252:  MOVFF  5C7,646
03256:  MOVFF  5C6,645
0325A:  MOVFF  5C5,644
0325E:  MOVFF  5C4,643
03262:  MOVFF  5CF,64A
03266:  MOVFF  5CE,649
0326A:  MOVFF  5CD,648
0326E:  MOVFF  5CC,647
03272:  CALL   1570
03276:  MOVFF  00,643
0327A:  MOVFF  01,644
0327E:  MOVFF  02,645
03282:  MOVFF  03,646
03286:  BSF    FD8.1
03288:  MOVFF  03,64A
0328C:  MOVFF  02,649
03290:  MOVFF  01,648
03294:  MOVFF  00,647
03298:  MOVLB  6
0329A:  CLRF   x4E
0329C:  CLRF   x4D
0329E:  CLRF   x4C
032A0:  MOVLW  7F
032A2:  MOVWF  x4B
032A4:  MOVLB  0
032A6:  CALL   16CE
032AA:  MOVFF  03,5CB
032AE:  MOVFF  02,5CA
032B2:  MOVFF  01,5C9
032B6:  MOVFF  00,5C8
....................     
....................    if(Presion<0.0) 
032BA:  MOVFF  5CB,646
032BE:  MOVFF  5CA,645
032C2:  MOVFF  5C9,644
032C6:  MOVFF  5C8,643
032CA:  MOVLB  6
032CC:  CLRF   x4A
032CE:  CLRF   x49
032D0:  CLRF   x48
032D2:  CLRF   x47
032D4:  MOVLB  0
032D6:  CALL   219C
032DA:  BNC   32E6
....................    { 
....................       Presion=0.0; 
032DC:  MOVLB  5
032DE:  CLRF   xCB
032E0:  CLRF   xCA
032E2:  CLRF   xC9
032E4:  CLRF   xC8
....................    } 
....................  
....................    if(r>media-1) 
032E6:  MOVLW  01
032E8:  MOVLB  6
032EA:  SUBWF  x3E,W
032EC:  MOVLB  4
032EE:  SUBWF  xE2,W
032F0:  BZ    32F6
032F2:  BNC   32F6
....................    {r=0;} 
032F4:  CLRF   xE2
....................    PromPresion[r]=Presion*4.02;r++; 
032F6:  MOVF   xE2,W
032F8:  MULLW  04
032FA:  MOVF   FF3,W
032FC:  CLRF   03
032FE:  ADDLW  98
03300:  MOVWF  FE9
03302:  MOVLW  05
03304:  ADDWFC 03,W
03306:  MOVWF  FEA
03308:  MOVFF  5CB,663
0330C:  MOVFF  5CA,662
03310:  MOVFF  5C9,661
03314:  MOVFF  5C8,660
03318:  MOVLW  D7
0331A:  MOVLB  6
0331C:  MOVWF  x67
0331E:  MOVLW  A3
03320:  MOVWF  x66
03322:  CLRF   x65
03324:  MOVLW  81
03326:  MOVWF  x64
03328:  MOVLB  0
0332A:  RCALL  2D56
0332C:  MOVFF  00,FEF
03330:  MOVFF  01,FEC
03334:  MOVFF  02,FEC
03338:  MOVFF  03,FEC
0333C:  MOVLB  4
0333E:  INCF   xE2,F
....................           
....................    for(q=0;q<=(media-1);q++) 
03340:  CLRF   xE1
03342:  MOVLW  01
03344:  MOVLB  6
03346:  SUBWF  x3E,W
03348:  MOVLB  4
0334A:  SUBWF  xE1,W
0334C:  BZ    3350
0334E:  BC    33C0
....................    { 
....................       promediopresion+=PromPresion[q]; 
03350:  MOVF   xE1,W
03352:  MULLW  04
03354:  MOVF   FF3,W
03356:  CLRF   03
03358:  ADDLW  98
0335A:  MOVWF  FE9
0335C:  MOVLW  05
0335E:  ADDWFC 03,W
03360:  MOVWF  FEA
03362:  MOVFF  FEF,00
03366:  MOVFF  FEC,01
0336A:  MOVFF  FEC,02
0336E:  MOVFF  FEC,03
03372:  MOVFF  FEA,644
03376:  MOVFF  FE9,643
0337A:  BCF    FD8.1
0337C:  MOVFF  642,64A
03380:  MOVFF  641,649
03384:  MOVFF  640,648
03388:  MOVFF  63F,647
0338C:  MOVFF  03,64E
03390:  MOVFF  02,64D
03394:  MOVFF  01,64C
03398:  MOVFF  00,64B
0339C:  MOVLB  0
0339E:  CALL   16CE
033A2:  MOVFF  644,FEA
033A6:  MOVFF  643,FE9
033AA:  MOVFF  03,642
033AE:  MOVFF  02,641
033B2:  MOVFF  01,640
033B6:  MOVFF  00,63F
....................    }  
033BA:  MOVLB  4
033BC:  INCF   xE1,F
033BE:  BRA    3342
....................    promediopresion=promediopresion/media;    
033C0:  MOVLB  6
033C2:  CLRF   x44
033C4:  MOVFF  63E,643
033C8:  MOVLB  0
033CA:  CALL   153A
033CE:  MOVFF  642,646
033D2:  MOVFF  641,645
033D6:  MOVFF  640,644
033DA:  MOVFF  63F,643
033DE:  MOVFF  03,64A
033E2:  MOVFF  02,649
033E6:  MOVFF  01,648
033EA:  MOVFF  00,647
033EE:  CALL   1570
033F2:  MOVFF  03,642
033F6:  MOVFF  02,641
033FA:  MOVFF  01,640
033FE:  MOVFF  00,63F
....................     
....................    return promediopresion*Ajuste2; 
03402:  MOVFF  642,663
03406:  MOVFF  641,662
0340A:  MOVFF  640,661
0340E:  MOVFF  63F,660
03412:  MOVFF  55B,667
03416:  MOVFF  55A,666
0341A:  MOVFF  559,665
0341E:  MOVFF  558,664
03422:  RCALL  2D56
.................... } 
03424:  GOTO   512C (RETURN)
....................  
.................... void LeeEEPROM(void){ 
....................    Password[0]=read_eeprom(0); 
*
01946:  MOVFF  FF2,63E
0194A:  BCF    FF2.7
0194C:  CLRF   FAA
0194E:  CLRF   FA9
01950:  BCF    FA6.6
01952:  BCF    FA6.7
01954:  BSF    FA6.0
01956:  MOVF   FA8,W
01958:  MOVLB  6
0195A:  BTFSC  x3E.7
0195C:  BSF    FF2.7
0195E:  MOVLB  5
01960:  MOVWF  x20
....................    delay_ms(10); 
01962:  MOVLW  0A
01964:  MOVLB  6
01966:  MOVWF  x47
01968:  MOVLB  0
0196A:  RCALL  1512
....................    Password[1]=read_eeprom(1); 
0196C:  MOVFF  FF2,63E
01970:  BCF    FF2.7
01972:  CLRF   FAA
01974:  MOVLW  01
01976:  MOVWF  FA9
01978:  BCF    FA6.6
0197A:  BCF    FA6.7
0197C:  BSF    FA6.0
0197E:  MOVF   FA8,W
01980:  MOVLB  6
01982:  BTFSC  x3E.7
01984:  BSF    FF2.7
01986:  MOVLB  5
01988:  MOVWF  x21
....................    delay_ms(10); 
0198A:  MOVLW  0A
0198C:  MOVLB  6
0198E:  MOVWF  x47
01990:  MOVLB  0
01992:  RCALL  1512
....................    Password[2]=read_eeprom(2); 
01994:  MOVFF  FF2,63E
01998:  BCF    FF2.7
0199A:  CLRF   FAA
0199C:  MOVLW  02
0199E:  MOVWF  FA9
019A0:  BCF    FA6.6
019A2:  BCF    FA6.7
019A4:  BSF    FA6.0
019A6:  MOVF   FA8,W
019A8:  MOVLB  6
019AA:  BTFSC  x3E.7
019AC:  BSF    FF2.7
019AE:  MOVLB  5
019B0:  MOVWF  x22
....................    delay_ms(10); 
019B2:  MOVLW  0A
019B4:  MOVLB  6
019B6:  MOVWF  x47
019B8:  MOVLB  0
019BA:  RCALL  1512
....................    Password[3]=read_eeprom(3); 
019BC:  MOVFF  FF2,63E
019C0:  BCF    FF2.7
019C2:  CLRF   FAA
019C4:  MOVLW  03
019C6:  MOVWF  FA9
019C8:  BCF    FA6.6
019CA:  BCF    FA6.7
019CC:  BSF    FA6.0
019CE:  MOVF   FA8,W
019D0:  MOVLB  6
019D2:  BTFSC  x3E.7
019D4:  BSF    FF2.7
019D6:  MOVLB  5
019D8:  MOVWF  x23
....................    delay_ms(10); 
019DA:  MOVLW  0A
019DC:  MOVLB  6
019DE:  MOVWF  x47
019E0:  MOVLB  0
019E2:  RCALL  1512
....................    Tpurgap[0]=read_eeprom(4); 
019E4:  MOVFF  FF2,63E
019E8:  BCF    FF2.7
019EA:  CLRF   FAA
019EC:  MOVLW  04
019EE:  MOVWF  FA9
019F0:  BCF    FA6.6
019F2:  BCF    FA6.7
019F4:  BSF    FA6.0
019F6:  MOVF   FA8,W
019F8:  MOVLB  6
019FA:  BTFSC  x3E.7
019FC:  BSF    FF2.7
019FE:  MOVLB  5
01A00:  MOVWF  x00
....................    delay_ms(10); 
01A02:  MOVLW  0A
01A04:  MOVLB  6
01A06:  MOVWF  x47
01A08:  MOVLB  0
01A0A:  RCALL  1512
....................    Tpurgap[1]=read_eeprom(5); 
01A0C:  MOVFF  FF2,63E
01A10:  BCF    FF2.7
01A12:  CLRF   FAA
01A14:  MOVLW  05
01A16:  MOVWF  FA9
01A18:  BCF    FA6.6
01A1A:  BCF    FA6.7
01A1C:  BSF    FA6.0
01A1E:  MOVF   FA8,W
01A20:  MOVLB  6
01A22:  BTFSC  x3E.7
01A24:  BSF    FF2.7
01A26:  MOVLB  5
01A28:  MOVWF  x01
....................    delay_ms(10); 
01A2A:  MOVLW  0A
01A2C:  MOVLB  6
01A2E:  MOVWF  x47
01A30:  MOVLB  0
01A32:  RCALL  1512
....................    Tpurgap[2]=read_eeprom(6); 
01A34:  MOVFF  FF2,63E
01A38:  BCF    FF2.7
01A3A:  CLRF   FAA
01A3C:  MOVLW  06
01A3E:  MOVWF  FA9
01A40:  BCF    FA6.6
01A42:  BCF    FA6.7
01A44:  BSF    FA6.0
01A46:  MOVF   FA8,W
01A48:  MOVLB  6
01A4A:  BTFSC  x3E.7
01A4C:  BSF    FF2.7
01A4E:  MOVLB  5
01A50:  MOVWF  x02
....................    delay_ms(10); 
01A52:  MOVLW  0A
01A54:  MOVLB  6
01A56:  MOVWF  x47
01A58:  MOVLB  0
01A5A:  RCALL  1512
....................    Tpurgap[3]=read_eeprom(7); 
01A5C:  MOVFF  FF2,63E
01A60:  BCF    FF2.7
01A62:  CLRF   FAA
01A64:  MOVLW  07
01A66:  MOVWF  FA9
01A68:  BCF    FA6.6
01A6A:  BCF    FA6.7
01A6C:  BSF    FA6.0
01A6E:  MOVF   FA8,W
01A70:  MOVLB  6
01A72:  BTFSC  x3E.7
01A74:  BSF    FF2.7
01A76:  MOVLB  5
01A78:  MOVWF  x03
....................    delay_ms(10); 
01A7A:  MOVLW  0A
01A7C:  MOVLB  6
01A7E:  MOVWF  x47
01A80:  MOVLB  0
01A82:  RCALL  1512
....................    Tppurgap[0]=read_eeprom(8); 
01A84:  MOVFF  FF2,63E
01A88:  BCF    FF2.7
01A8A:  CLRF   FAA
01A8C:  MOVLW  08
01A8E:  MOVWF  FA9
01A90:  BCF    FA6.6
01A92:  BCF    FA6.7
01A94:  BSF    FA6.0
01A96:  MOVF   FA8,W
01A98:  MOVLB  6
01A9A:  BTFSC  x3E.7
01A9C:  BSF    FF2.7
01A9E:  MOVLB  5
01AA0:  MOVWF  x08
....................    delay_ms(10); 
01AA2:  MOVLW  0A
01AA4:  MOVLB  6
01AA6:  MOVWF  x47
01AA8:  MOVLB  0
01AAA:  RCALL  1512
....................    Tppurgap[1]=read_eeprom(9); 
01AAC:  MOVFF  FF2,63E
01AB0:  BCF    FF2.7
01AB2:  CLRF   FAA
01AB4:  MOVLW  09
01AB6:  MOVWF  FA9
01AB8:  BCF    FA6.6
01ABA:  BCF    FA6.7
01ABC:  BSF    FA6.0
01ABE:  MOVF   FA8,W
01AC0:  MOVLB  6
01AC2:  BTFSC  x3E.7
01AC4:  BSF    FF2.7
01AC6:  MOVLB  5
01AC8:  MOVWF  x09
....................    delay_ms(10); 
01ACA:  MOVLW  0A
01ACC:  MOVLB  6
01ACE:  MOVWF  x47
01AD0:  MOVLB  0
01AD2:  RCALL  1512
....................    Tppurgap[2]=read_eeprom(10); 
01AD4:  MOVFF  FF2,63E
01AD8:  BCF    FF2.7
01ADA:  CLRF   FAA
01ADC:  MOVLW  0A
01ADE:  MOVWF  FA9
01AE0:  BCF    FA6.6
01AE2:  BCF    FA6.7
01AE4:  BSF    FA6.0
01AE6:  MOVF   FA8,W
01AE8:  MOVLB  6
01AEA:  BTFSC  x3E.7
01AEC:  BSF    FF2.7
01AEE:  MOVLB  5
01AF0:  MOVWF  x0A
....................    delay_ms(10); 
01AF2:  MOVLW  0A
01AF4:  MOVLB  6
01AF6:  MOVWF  x47
01AF8:  MOVLB  0
01AFA:  RCALL  1512
....................    Tppurgap[3]=read_eeprom(11); 
01AFC:  MOVFF  FF2,63E
01B00:  BCF    FF2.7
01B02:  CLRF   FAA
01B04:  MOVLW  0B
01B06:  MOVWF  FA9
01B08:  BCF    FA6.6
01B0A:  BCF    FA6.7
01B0C:  BSF    FA6.0
01B0E:  MOVF   FA8,W
01B10:  MOVLB  6
01B12:  BTFSC  x3E.7
01B14:  BSF    FF2.7
01B16:  MOVLB  5
01B18:  MOVWF  x0B
....................    delay_ms(10); 
01B1A:  MOVLW  0A
01B1C:  MOVLB  6
01B1E:  MOVWF  x47
01B20:  MOVLB  0
01B22:  RCALL  1512
....................    Tuv[0]=read_eeprom(12); 
01B24:  MOVFF  FF2,63E
01B28:  BCF    FF2.7
01B2A:  CLRF   FAA
01B2C:  MOVLW  0C
01B2E:  MOVWF  FA9
01B30:  BCF    FA6.6
01B32:  BCF    FA6.7
01B34:  BSF    FA6.0
01B36:  MOVF   FA8,W
01B38:  MOVLB  6
01B3A:  BTFSC  x3E.7
01B3C:  BSF    FF2.7
01B3E:  MOVLB  5
01B40:  MOVWF  x0C
....................    delay_ms(10); 
01B42:  MOVLW  0A
01B44:  MOVLB  6
01B46:  MOVWF  x47
01B48:  MOVLB  0
01B4A:  RCALL  1512
....................    Tuv[1]=read_eeprom(13); 
01B4C:  MOVFF  FF2,63E
01B50:  BCF    FF2.7
01B52:  CLRF   FAA
01B54:  MOVLW  0D
01B56:  MOVWF  FA9
01B58:  BCF    FA6.6
01B5A:  BCF    FA6.7
01B5C:  BSF    FA6.0
01B5E:  MOVF   FA8,W
01B60:  MOVLB  6
01B62:  BTFSC  x3E.7
01B64:  BSF    FF2.7
01B66:  MOVLB  5
01B68:  MOVWF  x0D
....................    delay_ms(10); 
01B6A:  MOVLW  0A
01B6C:  MOVLB  6
01B6E:  MOVWF  x47
01B70:  MOVLB  0
01B72:  RCALL  1512
....................    Tuv[2]=read_eeprom(14); 
01B74:  MOVFF  FF2,63E
01B78:  BCF    FF2.7
01B7A:  CLRF   FAA
01B7C:  MOVLW  0E
01B7E:  MOVWF  FA9
01B80:  BCF    FA6.6
01B82:  BCF    FA6.7
01B84:  BSF    FA6.0
01B86:  MOVF   FA8,W
01B88:  MOVLB  6
01B8A:  BTFSC  x3E.7
01B8C:  BSF    FF2.7
01B8E:  MOVLB  5
01B90:  MOVWF  x0E
....................    delay_ms(10); 
01B92:  MOVLW  0A
01B94:  MOVLB  6
01B96:  MOVWF  x47
01B98:  MOVLB  0
01B9A:  RCALL  1512
....................    Tuv[3]=read_eeprom(15); 
01B9C:  MOVFF  FF2,63E
01BA0:  BCF    FF2.7
01BA2:  CLRF   FAA
01BA4:  MOVLW  0F
01BA6:  MOVWF  FA9
01BA8:  BCF    FA6.6
01BAA:  BCF    FA6.7
01BAC:  BSF    FA6.0
01BAE:  MOVF   FA8,W
01BB0:  MOVLB  6
01BB2:  BTFSC  x3E.7
01BB4:  BSF    FF2.7
01BB6:  MOVLB  5
01BB8:  MOVWF  x0F
....................    delay_ms(10); 
01BBA:  MOVLW  0A
01BBC:  MOVLB  6
01BBE:  MOVWF  x47
01BC0:  MOVLB  0
01BC2:  RCALL  1512
....................    Ttrabajo[0]=read_eeprom(16); 
01BC4:  MOVFF  FF2,63E
01BC8:  BCF    FF2.7
01BCA:  CLRF   FAA
01BCC:  MOVLW  10
01BCE:  MOVWF  FA9
01BD0:  BCF    FA6.6
01BD2:  BCF    FA6.7
01BD4:  BSF    FA6.0
01BD6:  MOVF   FA8,W
01BD8:  MOVLB  6
01BDA:  BTFSC  x3E.7
01BDC:  BSF    FF2.7
01BDE:  MOVLB  5
01BE0:  MOVWF  x18
....................    delay_ms(10); 
01BE2:  MOVLW  0A
01BE4:  MOVLB  6
01BE6:  MOVWF  x47
01BE8:  MOVLB  0
01BEA:  RCALL  1512
....................    Ttrabajo[1]=read_eeprom(17); 
01BEC:  MOVFF  FF2,63E
01BF0:  BCF    FF2.7
01BF2:  CLRF   FAA
01BF4:  MOVLW  11
01BF6:  MOVWF  FA9
01BF8:  BCF    FA6.6
01BFA:  BCF    FA6.7
01BFC:  BSF    FA6.0
01BFE:  MOVF   FA8,W
01C00:  MOVLB  6
01C02:  BTFSC  x3E.7
01C04:  BSF    FF2.7
01C06:  MOVLB  5
01C08:  MOVWF  x19
....................    delay_ms(10); 
01C0A:  MOVLW  0A
01C0C:  MOVLB  6
01C0E:  MOVWF  x47
01C10:  MOVLB  0
01C12:  RCALL  1512
....................    Ttrabajo[2]=read_eeprom(18); 
01C14:  MOVFF  FF2,63E
01C18:  BCF    FF2.7
01C1A:  CLRF   FAA
01C1C:  MOVLW  12
01C1E:  MOVWF  FA9
01C20:  BCF    FA6.6
01C22:  BCF    FA6.7
01C24:  BSF    FA6.0
01C26:  MOVF   FA8,W
01C28:  MOVLB  6
01C2A:  BTFSC  x3E.7
01C2C:  BSF    FF2.7
01C2E:  MOVLB  5
01C30:  MOVWF  x1A
....................    delay_ms(10); 
01C32:  MOVLW  0A
01C34:  MOVLB  6
01C36:  MOVWF  x47
01C38:  MOVLB  0
01C3A:  RCALL  1512
....................    Ttrabajo[3]=read_eeprom(19); 
01C3C:  MOVFF  FF2,63E
01C40:  BCF    FF2.7
01C42:  CLRF   FAA
01C44:  MOVLW  13
01C46:  MOVWF  FA9
01C48:  BCF    FA6.6
01C4A:  BCF    FA6.7
01C4C:  BSF    FA6.0
01C4E:  MOVF   FA8,W
01C50:  MOVLB  6
01C52:  BTFSC  x3E.7
01C54:  BSF    FF2.7
01C56:  MOVLB  5
01C58:  MOVWF  x1B
....................    delay_ms(10); 
01C5A:  MOVLW  0A
01C5C:  MOVLB  6
01C5E:  MOVWF  x47
01C60:  MOVLB  0
01C62:  RCALL  1512
....................    //flag_alarma=read_eeprom(20); 
....................    //delay_ms(10); 
....................    Tempouvp[0]=read_eeprom(21); 
01C64:  MOVFF  FF2,63E
01C68:  BCF    FF2.7
01C6A:  CLRF   FAA
01C6C:  MOVLW  15
01C6E:  MOVWF  FA9
01C70:  BCF    FA6.6
01C72:  BCF    FA6.7
01C74:  BSF    FA6.0
01C76:  MOVF   FA8,W
01C78:  MOVLB  6
01C7A:  BTFSC  x3E.7
01C7C:  BSF    FF2.7
01C7E:  MOVLB  5
01C80:  MOVWF  x14
....................    delay_ms(10); 
01C82:  MOVLW  0A
01C84:  MOVLB  6
01C86:  MOVWF  x47
01C88:  MOVLB  0
01C8A:  RCALL  1512
....................    Tempouvp[1]=read_eeprom(22); 
01C8C:  MOVFF  FF2,63E
01C90:  BCF    FF2.7
01C92:  CLRF   FAA
01C94:  MOVLW  16
01C96:  MOVWF  FA9
01C98:  BCF    FA6.6
01C9A:  BCF    FA6.7
01C9C:  BSF    FA6.0
01C9E:  MOVF   FA8,W
01CA0:  MOVLB  6
01CA2:  BTFSC  x3E.7
01CA4:  BSF    FF2.7
01CA6:  MOVLB  5
01CA8:  MOVWF  x15
....................    delay_ms(10); 
01CAA:  MOVLW  0A
01CAC:  MOVLB  6
01CAE:  MOVWF  x47
01CB0:  MOVLB  0
01CB2:  RCALL  1512
....................    Tempouvp[2]=read_eeprom(23); 
01CB4:  MOVFF  FF2,63E
01CB8:  BCF    FF2.7
01CBA:  CLRF   FAA
01CBC:  MOVLW  17
01CBE:  MOVWF  FA9
01CC0:  BCF    FA6.6
01CC2:  BCF    FA6.7
01CC4:  BSF    FA6.0
01CC6:  MOVF   FA8,W
01CC8:  MOVLB  6
01CCA:  BTFSC  x3E.7
01CCC:  BSF    FF2.7
01CCE:  MOVLB  5
01CD0:  MOVWF  x16
....................    delay_ms(10); 
01CD2:  MOVLW  0A
01CD4:  MOVLB  6
01CD6:  MOVWF  x47
01CD8:  MOVLB  0
01CDA:  RCALL  1512
....................    Tempouvp[3]=read_eeprom(24); 
01CDC:  MOVFF  FF2,63E
01CE0:  BCF    FF2.7
01CE2:  CLRF   FAA
01CE4:  MOVLW  18
01CE6:  MOVWF  FA9
01CE8:  BCF    FA6.6
01CEA:  BCF    FA6.7
01CEC:  BSF    FA6.0
01CEE:  MOVF   FA8,W
01CF0:  MOVLB  6
01CF2:  BTFSC  x3E.7
01CF4:  BSF    FF2.7
01CF6:  MOVLB  5
01CF8:  MOVWF  x17
....................     
....................    delay_ms(10); 
01CFA:  MOVLW  0A
01CFC:  MOVLB  6
01CFE:  MOVWF  x47
01D00:  MOVLB  0
01D02:  RCALL  1512
....................    Entero=read_eeprom(25);//Decimal1=read_eeprom(26); 
01D04:  MOVFF  FF2,63E
01D08:  BCF    FF2.7
01D0A:  CLRF   FAA
01D0C:  MOVLW  19
01D0E:  MOVWF  FA9
01D10:  BCF    FA6.6
01D12:  BCF    FA6.7
01D14:  BSF    FA6.0
01D16:  MOVF   FA8,W
01D18:  MOVLB  6
01D1A:  BTFSC  x3E.7
01D1C:  BSF    FF2.7
01D1E:  MOVLB  4
01D20:  MOVWF  xE5
....................    delay_ms(10); 
01D22:  MOVLW  0A
01D24:  MOVLB  6
01D26:  MOVWF  x47
01D28:  MOVLB  0
01D2A:  CALL   1512
....................    Temporal=read_eeprom(26); 
01D2E:  MOVFF  FF2,63E
01D32:  BCF    FF2.7
01D34:  CLRF   FAA
01D36:  MOVLW  1A
01D38:  MOVWF  FA9
01D3A:  BCF    FA6.6
01D3C:  BCF    FA6.7
01D3E:  BSF    FA6.0
01D40:  MOVF   FA8,W
01D42:  MOVLB  6
01D44:  BTFSC  x3E.7
01D46:  BSF    FF2.7
01D48:  CLRF   x44
01D4A:  MOVWF  x43
01D4C:  MOVLB  0
01D4E:  CALL   153A
01D52:  MOVFF  03,563
01D56:  MOVFF  02,562
01D5A:  MOVFF  01,561
01D5E:  MOVFF  00,560
....................    delay_ms(10); 
01D62:  MOVLW  0A
01D64:  MOVLB  6
01D66:  MOVWF  x47
01D68:  MOVLB  0
01D6A:  CALL   1512
....................    Temporal=Temporal/10.0; 
01D6E:  MOVFF  563,646
01D72:  MOVFF  562,645
01D76:  MOVFF  561,644
01D7A:  MOVFF  560,643
01D7E:  MOVLB  6
01D80:  CLRF   x4A
01D82:  CLRF   x49
01D84:  MOVLW  20
01D86:  MOVWF  x48
01D88:  MOVLW  82
01D8A:  MOVWF  x47
01D8C:  MOVLB  0
01D8E:  CALL   1570
01D92:  MOVFF  03,563
01D96:  MOVFF  02,562
01D9A:  MOVFF  01,561
01D9E:  MOVFF  00,560
....................    Ajuste1=Entero+Temporal; 
01DA2:  MOVLB  6
01DA4:  CLRF   x44
01DA6:  MOVFF  4E5,643
01DAA:  MOVLB  0
01DAC:  CALL   153A
01DB0:  BCF    FD8.1
01DB2:  MOVFF  03,64A
01DB6:  MOVFF  02,649
01DBA:  MOVFF  01,648
01DBE:  MOVFF  00,647
01DC2:  MOVFF  563,64E
01DC6:  MOVFF  562,64D
01DCA:  MOVFF  561,64C
01DCE:  MOVFF  560,64B
01DD2:  RCALL  16CE
01DD4:  MOVFF  03,557
01DD8:  MOVFF  02,556
01DDC:  MOVFF  01,555
01DE0:  MOVFF  00,554
....................     
....................     
....................    Entero=read_eeprom(27);//Decimal1=read_eeprom(26); 
01DE4:  MOVFF  FF2,63E
01DE8:  BCF    FF2.7
01DEA:  CLRF   FAA
01DEC:  MOVLW  1B
01DEE:  MOVWF  FA9
01DF0:  BCF    FA6.6
01DF2:  BCF    FA6.7
01DF4:  BSF    FA6.0
01DF6:  MOVF   FA8,W
01DF8:  MOVLB  6
01DFA:  BTFSC  x3E.7
01DFC:  BSF    FF2.7
01DFE:  MOVLB  4
01E00:  MOVWF  xE5
....................    delay_ms(10); 
01E02:  MOVLW  0A
01E04:  MOVLB  6
01E06:  MOVWF  x47
01E08:  MOVLB  0
01E0A:  CALL   1512
....................    Temporal=read_eeprom(28); 
01E0E:  MOVFF  FF2,63E
01E12:  BCF    FF2.7
01E14:  CLRF   FAA
01E16:  MOVLW  1C
01E18:  MOVWF  FA9
01E1A:  BCF    FA6.6
01E1C:  BCF    FA6.7
01E1E:  BSF    FA6.0
01E20:  MOVF   FA8,W
01E22:  MOVLB  6
01E24:  BTFSC  x3E.7
01E26:  BSF    FF2.7
01E28:  CLRF   x44
01E2A:  MOVWF  x43
01E2C:  MOVLB  0
01E2E:  CALL   153A
01E32:  MOVFF  03,563
01E36:  MOVFF  02,562
01E3A:  MOVFF  01,561
01E3E:  MOVFF  00,560
....................    delay_ms(10); 
01E42:  MOVLW  0A
01E44:  MOVLB  6
01E46:  MOVWF  x47
01E48:  MOVLB  0
01E4A:  CALL   1512
....................    Temporal=Temporal/10.0; 
01E4E:  MOVFF  563,646
01E52:  MOVFF  562,645
01E56:  MOVFF  561,644
01E5A:  MOVFF  560,643
01E5E:  MOVLB  6
01E60:  CLRF   x4A
01E62:  CLRF   x49
01E64:  MOVLW  20
01E66:  MOVWF  x48
01E68:  MOVLW  82
01E6A:  MOVWF  x47
01E6C:  MOVLB  0
01E6E:  CALL   1570
01E72:  MOVFF  03,563
01E76:  MOVFF  02,562
01E7A:  MOVFF  01,561
01E7E:  MOVFF  00,560
....................    Ajuste2=Entero+Temporal; 
01E82:  MOVLB  6
01E84:  CLRF   x44
01E86:  MOVFF  4E5,643
01E8A:  MOVLB  0
01E8C:  CALL   153A
01E90:  BCF    FD8.1
01E92:  MOVFF  03,64A
01E96:  MOVFF  02,649
01E9A:  MOVFF  01,648
01E9E:  MOVFF  00,647
01EA2:  MOVFF  563,64E
01EA6:  MOVFF  562,64D
01EAA:  MOVFF  561,64C
01EAE:  MOVFF  560,64B
01EB2:  RCALL  16CE
01EB4:  MOVFF  03,55B
01EB8:  MOVFF  02,55A
01EBC:  MOVFF  01,559
01EC0:  MOVFF  00,558
....................     
....................    zero_actual=make16(read_eeprom(30),read_eeprom(29)); 
01EC4:  MOVFF  FF2,63E
01EC8:  BCF    FF2.7
01ECA:  CLRF   FAA
01ECC:  MOVLW  1E
01ECE:  MOVWF  FA9
01ED0:  BCF    FA6.6
01ED2:  BCF    FA6.7
01ED4:  BSF    FA6.0
01ED6:  MOVF   FA8,W
01ED8:  MOVLB  6
01EDA:  BTFSC  x3E.7
01EDC:  BSF    FF2.7
01EDE:  MOVWF  x3F
01EE0:  MOVFF  FF2,640
01EE4:  BCF    FF2.7
01EE6:  CLRF   FAA
01EE8:  MOVLW  1D
01EEA:  MOVWF  FA9
01EEC:  BCF    FA6.6
01EEE:  BCF    FA6.7
01EF0:  BSF    FA6.0
01EF2:  MOVF   FA8,W
01EF4:  BTFSC  x40.7
01EF6:  BSF    FF2.7
01EF8:  MOVWF  x41
01EFA:  MOVFF  63F,03
01EFE:  MOVF   x41,W
01F00:  MOVWF  x43
01F02:  MOVFF  03,644
01F06:  MOVLB  0
01F08:  CALL   153A
01F0C:  MOVFF  03,5C3
01F10:  MOVFF  02,5C2
01F14:  MOVFF  01,5C1
01F18:  MOVFF  00,5C0
....................    delay_ms(10); 
01F1C:  MOVLW  0A
01F1E:  MOVLB  6
01F20:  MOVWF  x47
01F22:  MOVLB  0
01F24:  CALL   1512
....................    minutos_trabajo=make16(read_eeprom(34),read_eeprom(33)); 
01F28:  MOVFF  FF2,63E
01F2C:  BCF    FF2.7
01F2E:  CLRF   FAA
01F30:  MOVLW  22
01F32:  MOVWF  FA9
01F34:  BCF    FA6.6
01F36:  BCF    FA6.7
01F38:  BSF    FA6.0
01F3A:  MOVF   FA8,W
01F3C:  MOVLB  6
01F3E:  BTFSC  x3E.7
01F40:  BSF    FF2.7
01F42:  MOVWF  x3F
01F44:  MOVFF  FF2,640
01F48:  BCF    FF2.7
01F4A:  CLRF   FAA
01F4C:  MOVLW  21
01F4E:  MOVWF  FA9
01F50:  BCF    FA6.6
01F52:  BCF    FA6.7
01F54:  BSF    FA6.0
01F56:  MOVF   FA8,W
01F58:  BTFSC  x40.7
01F5A:  BSF    FF2.7
01F5C:  MOVWF  x41
01F5E:  MOVFF  63F,4F9
01F62:  MOVFF  641,4F8
....................    delay_ms(10); 
01F66:  MOVLW  0A
01F68:  MOVWF  x47
01F6A:  MOVLB  0
01F6C:  CALL   1512
....................    minutos_uv=read_eeprom(31); 
01F70:  MOVFF  FF2,63E
01F74:  BCF    FF2.7
01F76:  CLRF   FAA
01F78:  MOVLW  1F
01F7A:  MOVWF  FA9
01F7C:  BCF    FA6.6
01F7E:  BCF    FA6.7
01F80:  BSF    FA6.0
01F82:  MOVF   FA8,W
01F84:  MOVLB  6
01F86:  BTFSC  x3E.7
01F88:  BSF    FF2.7
01F8A:  MOVLB  4
01F8C:  MOVWF  xE0
....................    delay_ms(10); 
01F8E:  MOVLW  0A
01F90:  MOVLB  6
01F92:  MOVWF  x47
01F94:  MOVLB  0
01F96:  CALL   1512
....................    VelMotor=read_eeprom(32); 
01F9A:  MOVFF  FF2,63E
01F9E:  BCF    FF2.7
01FA0:  CLRF   FAA
01FA2:  MOVLW  20
01FA4:  MOVWF  FA9
01FA6:  BCF    FA6.6
01FA8:  BCF    FA6.7
01FAA:  BSF    FA6.0
01FAC:  MOVF   FA8,W
01FAE:  MOVLB  6
01FB0:  BTFSC  x3E.7
01FB2:  BSF    FF2.7
01FB4:  MOVLB  4
01FB6:  MOVWF  xED
....................    delay_ms(10); 
01FB8:  MOVLW  0A
01FBA:  MOVLB  6
01FBC:  MOVWF  x47
01FBE:  MOVLB  0
01FC0:  CALL   1512
....................     
....................    Entero=read_eeprom(35); 
01FC4:  MOVFF  FF2,63E
01FC8:  BCF    FF2.7
01FCA:  CLRF   FAA
01FCC:  MOVLW  23
01FCE:  MOVWF  FA9
01FD0:  BCF    FA6.6
01FD2:  BCF    FA6.7
01FD4:  BSF    FA6.0
01FD6:  MOVF   FA8,W
01FD8:  MOVLB  6
01FDA:  BTFSC  x3E.7
01FDC:  BSF    FF2.7
01FDE:  MOVLB  4
01FE0:  MOVWF  xE5
....................    delay_ms(10); 
01FE2:  MOVLW  0A
01FE4:  MOVLB  6
01FE6:  MOVWF  x47
01FE8:  MOVLB  0
01FEA:  CALL   1512
....................    Temporal=read_eeprom(36); 
01FEE:  MOVFF  FF2,63E
01FF2:  BCF    FF2.7
01FF4:  CLRF   FAA
01FF6:  MOVLW  24
01FF8:  MOVWF  FA9
01FFA:  BCF    FA6.6
01FFC:  BCF    FA6.7
01FFE:  BSF    FA6.0
02000:  MOVF   FA8,W
02002:  MOVLB  6
02004:  BTFSC  x3E.7
02006:  BSF    FF2.7
02008:  CLRF   x44
0200A:  MOVWF  x43
0200C:  MOVLB  0
0200E:  CALL   153A
02012:  MOVFF  03,563
02016:  MOVFF  02,562
0201A:  MOVFF  01,561
0201E:  MOVFF  00,560
....................    delay_ms(10); 
02022:  MOVLW  0A
02024:  MOVLB  6
02026:  MOVWF  x47
02028:  MOVLB  0
0202A:  CALL   1512
....................    Temporal=Temporal/100.0; 
0202E:  MOVFF  563,646
02032:  MOVFF  562,645
02036:  MOVFF  561,644
0203A:  MOVFF  560,643
0203E:  MOVLB  6
02040:  CLRF   x4A
02042:  CLRF   x49
02044:  MOVLW  48
02046:  MOVWF  x48
02048:  MOVLW  85
0204A:  MOVWF  x47
0204C:  MOVLB  0
0204E:  CALL   1570
02052:  MOVFF  03,563
02056:  MOVFF  02,562
0205A:  MOVFF  01,561
0205E:  MOVFF  00,560
....................    Relacion=Entero+Temporal; 
02062:  MOVLB  6
02064:  CLRF   x44
02066:  MOVFF  4E5,643
0206A:  MOVLB  0
0206C:  CALL   153A
02070:  BCF    FD8.1
02072:  MOVFF  03,64A
02076:  MOVFF  02,649
0207A:  MOVFF  01,648
0207E:  MOVFF  00,647
02082:  MOVFF  563,64E
02086:  MOVFF  562,64D
0208A:  MOVFF  561,64C
0208E:  MOVFF  560,64B
02092:  CALL   16CE
02096:  MOVFF  03,5D7
0209A:  MOVFF  02,5D6
0209E:  MOVFF  01,5D5
020A2:  MOVFF  00,5D4
....................     
....................    Diferencia=make16(read_eeprom(61),read_eeprom(60)); 
020A6:  MOVFF  FF2,63E
020AA:  BCF    FF2.7
020AC:  CLRF   FAA
020AE:  MOVLW  3D
020B0:  MOVWF  FA9
020B2:  BCF    FA6.6
020B4:  BCF    FA6.7
020B6:  BSF    FA6.0
020B8:  MOVF   FA8,W
020BA:  MOVLB  6
020BC:  BTFSC  x3E.7
020BE:  BSF    FF2.7
020C0:  MOVWF  x3F
020C2:  MOVFF  FF2,640
020C6:  BCF    FF2.7
020C8:  CLRF   FAA
020CA:  MOVLW  3C
020CC:  MOVWF  FA9
020CE:  BCF    FA6.6
020D0:  BCF    FA6.7
020D2:  BSF    FA6.0
020D4:  MOVF   FA8,W
020D6:  BTFSC  x40.7
020D8:  BSF    FF2.7
020DA:  MOVWF  x41
020DC:  MOVFF  63F,03
020E0:  MOVF   x41,W
020E2:  MOVWF  x43
020E4:  MOVFF  03,644
020E8:  MOVLB  0
020EA:  CALL   153A
020EE:  MOVFF  03,533
020F2:  MOVFF  02,532
020F6:  MOVFF  01,531
020FA:  MOVFF  00,530
....................    delay_ms(10); 
020FE:  MOVLW  0A
02100:  MOVLB  6
02102:  MOVWF  x47
02104:  MOVLB  0
02106:  CALL   1512
....................    G=make16(read_eeprom(63),read_eeprom(62)); 
0210A:  MOVFF  FF2,63E
0210E:  BCF    FF2.7
02110:  CLRF   FAA
02112:  MOVLW  3F
02114:  MOVWF  FA9
02116:  BCF    FA6.6
02118:  BCF    FA6.7
0211A:  BSF    FA6.0
0211C:  MOVF   FA8,W
0211E:  MOVLB  6
02120:  BTFSC  x3E.7
02122:  BSF    FF2.7
02124:  MOVWF  x3F
02126:  MOVFF  FF2,640
0212A:  BCF    FF2.7
0212C:  CLRF   FAA
0212E:  MOVLW  3E
02130:  MOVWF  FA9
02132:  BCF    FA6.6
02134:  BCF    FA6.7
02136:  BSF    FA6.0
02138:  MOVF   FA8,W
0213A:  BTFSC  x40.7
0213C:  BSF    FF2.7
0213E:  MOVWF  x41
02140:  MOVFF  63F,03
02144:  MOVF   x41,W
02146:  MOVWF  x43
02148:  MOVFF  03,644
0214C:  MOVLB  0
0214E:  CALL   153A
02152:  MOVFF  03,5CF
02156:  MOVFF  02,5CE
0215A:  MOVFF  01,5CD
0215E:  MOVFF  00,5CC
....................    delay_ms(10); 
02162:  MOVLW  0A
02164:  MOVLB  6
02166:  MOVWF  x47
02168:  MOVLB  0
0216A:  CALL   1512
....................    negativo=read_eeprom(50); 
0216E:  MOVFF  FF2,63E
02172:  BCF    FF2.7
02174:  CLRF   FAA
02176:  MOVLW  32
02178:  MOVWF  FA9
0217A:  BCF    FA6.6
0217C:  BCF    FA6.7
0217E:  BSF    FA6.0
02180:  MOVF   FA8,W
02182:  MOVLB  6
02184:  BTFSC  x3E.7
02186:  BSF    FF2.7
02188:  MOVLB  4
0218A:  MOVWF  xDC
....................    delay_ms(10); 
0218C:  MOVLW  0A
0218E:  MOVLB  6
02190:  MOVWF  x47
02192:  MOVLB  0
02194:  CALL   1512
....................  
.................... } 
02198:  GOTO   50F4 (RETURN)
....................  
.................... void LimitaValores(void){ 
....................    if(Password[0]>9 || Password[0]<0){ 
*
02216:  MOVLB  5
02218:  BTFSC  x20.7
0221A:  BRA    2222
0221C:  MOVF   x20,W
0221E:  SUBLW  09
02220:  BNC   2228
02222:  BTFSC  x20.7
02224:  BRA    2228
02226:  BRA    2254
....................       Password[0]=0;write_eeprom(0,0); 
02228:  CLRF   x20
0222A:  CLRF   FAA
0222C:  CLRF   FA9
0222E:  CLRF   FA8
02230:  BCF    FA6.6
02232:  BCF    FA6.7
02234:  BSF    FA6.2
02236:  MOVF   FF2,W
02238:  MOVWF  00
0223A:  BCF    FF2.7
0223C:  MOVLB  F
0223E:  MOVLW  55
02240:  MOVWF  FA7
02242:  MOVLW  AA
02244:  MOVWF  FA7
02246:  BSF    FA6.1
02248:  BTFSC  FA6.1
0224A:  BRA    2248
0224C:  BCF    FA6.2
0224E:  MOVF   00,W
02250:  IORWF  FF2,F
02252:  MOVLB  5
....................    } 
....................    if(Password[1]>9 || Password[1]<0){ 
02254:  BTFSC  x21.7
02256:  BRA    225E
02258:  MOVF   x21,W
0225A:  SUBLW  09
0225C:  BNC   2264
0225E:  BTFSC  x21.7
02260:  BRA    2264
02262:  BRA    2292
....................       Password[1]=0;write_eeprom(1,0); 
02264:  CLRF   x21
02266:  CLRF   FAA
02268:  MOVLW  01
0226A:  MOVWF  FA9
0226C:  CLRF   FA8
0226E:  BCF    FA6.6
02270:  BCF    FA6.7
02272:  BSF    FA6.2
02274:  MOVF   FF2,W
02276:  MOVWF  00
02278:  BCF    FF2.7
0227A:  MOVLB  F
0227C:  MOVLW  55
0227E:  MOVWF  FA7
02280:  MOVLW  AA
02282:  MOVWF  FA7
02284:  BSF    FA6.1
02286:  BTFSC  FA6.1
02288:  BRA    2286
0228A:  BCF    FA6.2
0228C:  MOVF   00,W
0228E:  IORWF  FF2,F
02290:  MOVLB  5
....................    } 
....................    if(Password[2]>9 || Password[2]<0){ 
02292:  BTFSC  x22.7
02294:  BRA    229C
02296:  MOVF   x22,W
02298:  SUBLW  09
0229A:  BNC   22A2
0229C:  BTFSC  x22.7
0229E:  BRA    22A2
022A0:  BRA    22D0
....................       Password[2]=0;write_eeprom(2,0); 
022A2:  CLRF   x22
022A4:  CLRF   FAA
022A6:  MOVLW  02
022A8:  MOVWF  FA9
022AA:  CLRF   FA8
022AC:  BCF    FA6.6
022AE:  BCF    FA6.7
022B0:  BSF    FA6.2
022B2:  MOVF   FF2,W
022B4:  MOVWF  00
022B6:  BCF    FF2.7
022B8:  MOVLB  F
022BA:  MOVLW  55
022BC:  MOVWF  FA7
022BE:  MOVLW  AA
022C0:  MOVWF  FA7
022C2:  BSF    FA6.1
022C4:  BTFSC  FA6.1
022C6:  BRA    22C4
022C8:  BCF    FA6.2
022CA:  MOVF   00,W
022CC:  IORWF  FF2,F
022CE:  MOVLB  5
....................    } 
....................    if(Password[3]>9 || Password[3]<0){ 
022D0:  BTFSC  x23.7
022D2:  BRA    22DA
022D4:  MOVF   x23,W
022D6:  SUBLW  09
022D8:  BNC   22E0
022DA:  BTFSC  x23.7
022DC:  BRA    22E0
022DE:  BRA    230E
....................       Password[3]=0;write_eeprom(3,0); 
022E0:  CLRF   x23
022E2:  CLRF   FAA
022E4:  MOVLW  03
022E6:  MOVWF  FA9
022E8:  CLRF   FA8
022EA:  BCF    FA6.6
022EC:  BCF    FA6.7
022EE:  BSF    FA6.2
022F0:  MOVF   FF2,W
022F2:  MOVWF  00
022F4:  BCF    FF2.7
022F6:  MOVLB  F
022F8:  MOVLW  55
022FA:  MOVWF  FA7
022FC:  MOVLW  AA
022FE:  MOVWF  FA7
02300:  BSF    FA6.1
02302:  BTFSC  FA6.1
02304:  BRA    2302
02306:  BCF    FA6.2
02308:  MOVF   00,W
0230A:  IORWF  FF2,F
0230C:  MOVLB  5
....................    } 
....................    if(Tpurgap[0]>9 || Tpurgap[0]<0){ 
0230E:  BTFSC  x00.7
02310:  BRA    2318
02312:  MOVF   x00,W
02314:  SUBLW  09
02316:  BNC   231E
02318:  BTFSC  x00.7
0231A:  BRA    231E
0231C:  BRA    234C
....................       Tpurgap[0]=0;write_eeprom(4,0); 
0231E:  CLRF   x00
02320:  CLRF   FAA
02322:  MOVLW  04
02324:  MOVWF  FA9
02326:  CLRF   FA8
02328:  BCF    FA6.6
0232A:  BCF    FA6.7
0232C:  BSF    FA6.2
0232E:  MOVF   FF2,W
02330:  MOVWF  00
02332:  BCF    FF2.7
02334:  MOVLB  F
02336:  MOVLW  55
02338:  MOVWF  FA7
0233A:  MOVLW  AA
0233C:  MOVWF  FA7
0233E:  BSF    FA6.1
02340:  BTFSC  FA6.1
02342:  BRA    2340
02344:  BCF    FA6.2
02346:  MOVF   00,W
02348:  IORWF  FF2,F
0234A:  MOVLB  5
....................    } 
....................    if(Tpurgap[1]>9 || Tpurgap[1]<0){ 
0234C:  BTFSC  x01.7
0234E:  BRA    2356
02350:  MOVF   x01,W
02352:  SUBLW  09
02354:  BNC   235C
02356:  BTFSC  x01.7
02358:  BRA    235C
0235A:  BRA    238A
....................       Tpurgap[1]=0;write_eeprom(5,0); 
0235C:  CLRF   x01
0235E:  CLRF   FAA
02360:  MOVLW  05
02362:  MOVWF  FA9
02364:  CLRF   FA8
02366:  BCF    FA6.6
02368:  BCF    FA6.7
0236A:  BSF    FA6.2
0236C:  MOVF   FF2,W
0236E:  MOVWF  00
02370:  BCF    FF2.7
02372:  MOVLB  F
02374:  MOVLW  55
02376:  MOVWF  FA7
02378:  MOVLW  AA
0237A:  MOVWF  FA7
0237C:  BSF    FA6.1
0237E:  BTFSC  FA6.1
02380:  BRA    237E
02382:  BCF    FA6.2
02384:  MOVF   00,W
02386:  IORWF  FF2,F
02388:  MOVLB  5
....................    } 
....................    if(Tpurgap[2]>9 || Tpurgap[2]<0){ 
0238A:  BTFSC  x02.7
0238C:  BRA    2394
0238E:  MOVF   x02,W
02390:  SUBLW  09
02392:  BNC   239A
02394:  BTFSC  x02.7
02396:  BRA    239A
02398:  BRA    23CC
....................       Tpurgap[2]=2;write_eeprom(6,2); 
0239A:  MOVLW  02
0239C:  MOVWF  x02
0239E:  CLRF   FAA
023A0:  MOVLW  06
023A2:  MOVWF  FA9
023A4:  MOVLW  02
023A6:  MOVWF  FA8
023A8:  BCF    FA6.6
023AA:  BCF    FA6.7
023AC:  BSF    FA6.2
023AE:  MOVF   FF2,W
023B0:  MOVWF  00
023B2:  BCF    FF2.7
023B4:  MOVLB  F
023B6:  MOVLW  55
023B8:  MOVWF  FA7
023BA:  MOVLW  AA
023BC:  MOVWF  FA7
023BE:  BSF    FA6.1
023C0:  BTFSC  FA6.1
023C2:  BRA    23C0
023C4:  BCF    FA6.2
023C6:  MOVF   00,W
023C8:  IORWF  FF2,F
023CA:  MOVLB  5
....................    } 
....................    if(Tpurgap[3]>9 || Tpurgap[3]<0){ 
023CC:  BTFSC  x03.7
023CE:  BRA    23D6
023D0:  MOVF   x03,W
023D2:  SUBLW  09
023D4:  BNC   23DC
023D6:  BTFSC  x03.7
023D8:  BRA    23DC
023DA:  BRA    240A
....................       Tpurgap[3]=0;write_eeprom(7,0); 
023DC:  CLRF   x03
023DE:  CLRF   FAA
023E0:  MOVLW  07
023E2:  MOVWF  FA9
023E4:  CLRF   FA8
023E6:  BCF    FA6.6
023E8:  BCF    FA6.7
023EA:  BSF    FA6.2
023EC:  MOVF   FF2,W
023EE:  MOVWF  00
023F0:  BCF    FF2.7
023F2:  MOVLB  F
023F4:  MOVLW  55
023F6:  MOVWF  FA7
023F8:  MOVLW  AA
023FA:  MOVWF  FA7
023FC:  BSF    FA6.1
023FE:  BTFSC  FA6.1
02400:  BRA    23FE
02402:  BCF    FA6.2
02404:  MOVF   00,W
02406:  IORWF  FF2,F
02408:  MOVLB  5
....................    } 
....................    if(Tppurgap[0]>9 || Tppurgap[0]<0){ 
0240A:  BTFSC  x08.7
0240C:  BRA    2414
0240E:  MOVF   x08,W
02410:  SUBLW  09
02412:  BNC   241A
02414:  BTFSC  x08.7
02416:  BRA    241A
02418:  BRA    2448
....................       Tppurgap[0]=0;write_eeprom(8,0); 
0241A:  CLRF   x08
0241C:  CLRF   FAA
0241E:  MOVLW  08
02420:  MOVWF  FA9
02422:  CLRF   FA8
02424:  BCF    FA6.6
02426:  BCF    FA6.7
02428:  BSF    FA6.2
0242A:  MOVF   FF2,W
0242C:  MOVWF  00
0242E:  BCF    FF2.7
02430:  MOVLB  F
02432:  MOVLW  55
02434:  MOVWF  FA7
02436:  MOVLW  AA
02438:  MOVWF  FA7
0243A:  BSF    FA6.1
0243C:  BTFSC  FA6.1
0243E:  BRA    243C
02440:  BCF    FA6.2
02442:  MOVF   00,W
02444:  IORWF  FF2,F
02446:  MOVLB  5
....................    } 
....................    if(Tppurgap[1]>9 || Tppurgap[1]<0){ 
02448:  BTFSC  x09.7
0244A:  BRA    2452
0244C:  MOVF   x09,W
0244E:  SUBLW  09
02450:  BNC   2458
02452:  BTFSC  x09.7
02454:  BRA    2458
02456:  BRA    2486
....................       Tppurgap[1]=0;write_eeprom(9,0); 
02458:  CLRF   x09
0245A:  CLRF   FAA
0245C:  MOVLW  09
0245E:  MOVWF  FA9
02460:  CLRF   FA8
02462:  BCF    FA6.6
02464:  BCF    FA6.7
02466:  BSF    FA6.2
02468:  MOVF   FF2,W
0246A:  MOVWF  00
0246C:  BCF    FF2.7
0246E:  MOVLB  F
02470:  MOVLW  55
02472:  MOVWF  FA7
02474:  MOVLW  AA
02476:  MOVWF  FA7
02478:  BSF    FA6.1
0247A:  BTFSC  FA6.1
0247C:  BRA    247A
0247E:  BCF    FA6.2
02480:  MOVF   00,W
02482:  IORWF  FF2,F
02484:  MOVLB  5
....................    } 
....................    if(Tppurgap[2]>9 || Tppurgap[2]<0){ 
02486:  BTFSC  x0A.7
02488:  BRA    2490
0248A:  MOVF   x0A,W
0248C:  SUBLW  09
0248E:  BNC   2496
02490:  BTFSC  x0A.7
02492:  BRA    2496
02494:  BRA    24C8
....................       Tppurgap[2]=2;write_eeprom(10,2); 
02496:  MOVLW  02
02498:  MOVWF  x0A
0249A:  CLRF   FAA
0249C:  MOVLW  0A
0249E:  MOVWF  FA9
024A0:  MOVLW  02
024A2:  MOVWF  FA8
024A4:  BCF    FA6.6
024A6:  BCF    FA6.7
024A8:  BSF    FA6.2
024AA:  MOVF   FF2,W
024AC:  MOVWF  00
024AE:  BCF    FF2.7
024B0:  MOVLB  F
024B2:  MOVLW  55
024B4:  MOVWF  FA7
024B6:  MOVLW  AA
024B8:  MOVWF  FA7
024BA:  BSF    FA6.1
024BC:  BTFSC  FA6.1
024BE:  BRA    24BC
024C0:  BCF    FA6.2
024C2:  MOVF   00,W
024C4:  IORWF  FF2,F
024C6:  MOVLB  5
....................    } 
....................    if(Tppurgap[3]>9 || Tppurgap[3]<0){ 
024C8:  BTFSC  x0B.7
024CA:  BRA    24D2
024CC:  MOVF   x0B,W
024CE:  SUBLW  09
024D0:  BNC   24D8
024D2:  BTFSC  x0B.7
024D4:  BRA    24D8
024D6:  BRA    2506
....................       Tppurgap[3]=0;write_eeprom(11,0); 
024D8:  CLRF   x0B
024DA:  CLRF   FAA
024DC:  MOVLW  0B
024DE:  MOVWF  FA9
024E0:  CLRF   FA8
024E2:  BCF    FA6.6
024E4:  BCF    FA6.7
024E6:  BSF    FA6.2
024E8:  MOVF   FF2,W
024EA:  MOVWF  00
024EC:  BCF    FF2.7
024EE:  MOVLB  F
024F0:  MOVLW  55
024F2:  MOVWF  FA7
024F4:  MOVLW  AA
024F6:  MOVWF  FA7
024F8:  BSF    FA6.1
024FA:  BTFSC  FA6.1
024FC:  BRA    24FA
024FE:  BCF    FA6.2
02500:  MOVF   00,W
02502:  IORWF  FF2,F
02504:  MOVLB  5
....................    } 
....................    if(Tuv[0]>9 || Tuv[0]<0){ 
02506:  BTFSC  x0C.7
02508:  BRA    2510
0250A:  MOVF   x0C,W
0250C:  SUBLW  09
0250E:  BNC   2516
02510:  BTFSC  x0C.7
02512:  BRA    2516
02514:  BRA    2544
....................       Tuv[0]=0;write_eeprom(12,0); 
02516:  CLRF   x0C
02518:  CLRF   FAA
0251A:  MOVLW  0C
0251C:  MOVWF  FA9
0251E:  CLRF   FA8
02520:  BCF    FA6.6
02522:  BCF    FA6.7
02524:  BSF    FA6.2
02526:  MOVF   FF2,W
02528:  MOVWF  00
0252A:  BCF    FF2.7
0252C:  MOVLB  F
0252E:  MOVLW  55
02530:  MOVWF  FA7
02532:  MOVLW  AA
02534:  MOVWF  FA7
02536:  BSF    FA6.1
02538:  BTFSC  FA6.1
0253A:  BRA    2538
0253C:  BCF    FA6.2
0253E:  MOVF   00,W
02540:  IORWF  FF2,F
02542:  MOVLB  5
....................    } 
....................    if(Tuv[1]>9 || Tuv[1]<0){ 
02544:  BTFSC  x0D.7
02546:  BRA    254E
02548:  MOVF   x0D,W
0254A:  SUBLW  09
0254C:  BNC   2554
0254E:  BTFSC  x0D.7
02550:  BRA    2554
02552:  BRA    2582
....................       Tuv[1]=0;write_eeprom(13,0); 
02554:  CLRF   x0D
02556:  CLRF   FAA
02558:  MOVLW  0D
0255A:  MOVWF  FA9
0255C:  CLRF   FA8
0255E:  BCF    FA6.6
02560:  BCF    FA6.7
02562:  BSF    FA6.2
02564:  MOVF   FF2,W
02566:  MOVWF  00
02568:  BCF    FF2.7
0256A:  MOVLB  F
0256C:  MOVLW  55
0256E:  MOVWF  FA7
02570:  MOVLW  AA
02572:  MOVWF  FA7
02574:  BSF    FA6.1
02576:  BTFSC  FA6.1
02578:  BRA    2576
0257A:  BCF    FA6.2
0257C:  MOVF   00,W
0257E:  IORWF  FF2,F
02580:  MOVLB  5
....................    } 
....................    if(Tuv[2]>9 || Tuv[2]<0){ 
02582:  BTFSC  x0E.7
02584:  BRA    258C
02586:  MOVF   x0E,W
02588:  SUBLW  09
0258A:  BNC   2592
0258C:  BTFSC  x0E.7
0258E:  BRA    2592
02590:  BRA    25C0
....................       Tuv[2]=0;write_eeprom(14,0); 
02592:  CLRF   x0E
02594:  CLRF   FAA
02596:  MOVLW  0E
02598:  MOVWF  FA9
0259A:  CLRF   FA8
0259C:  BCF    FA6.6
0259E:  BCF    FA6.7
025A0:  BSF    FA6.2
025A2:  MOVF   FF2,W
025A4:  MOVWF  00
025A6:  BCF    FF2.7
025A8:  MOVLB  F
025AA:  MOVLW  55
025AC:  MOVWF  FA7
025AE:  MOVLW  AA
025B0:  MOVWF  FA7
025B2:  BSF    FA6.1
025B4:  BTFSC  FA6.1
025B6:  BRA    25B4
025B8:  BCF    FA6.2
025BA:  MOVF   00,W
025BC:  IORWF  FF2,F
025BE:  MOVLB  5
....................    } 
....................    if(Tuv[3]>9 || Tuv[3]<0){ 
025C0:  BTFSC  x0F.7
025C2:  BRA    25CA
025C4:  MOVF   x0F,W
025C6:  SUBLW  09
025C8:  BNC   25D0
025CA:  BTFSC  x0F.7
025CC:  BRA    25D0
025CE:  BRA    25FE
....................       Tuv[3]=0;write_eeprom(15,0); 
025D0:  CLRF   x0F
025D2:  CLRF   FAA
025D4:  MOVLW  0F
025D6:  MOVWF  FA9
025D8:  CLRF   FA8
025DA:  BCF    FA6.6
025DC:  BCF    FA6.7
025DE:  BSF    FA6.2
025E0:  MOVF   FF2,W
025E2:  MOVWF  00
025E4:  BCF    FF2.7
025E6:  MOVLB  F
025E8:  MOVLW  55
025EA:  MOVWF  FA7
025EC:  MOVLW  AA
025EE:  MOVWF  FA7
025F0:  BSF    FA6.1
025F2:  BTFSC  FA6.1
025F4:  BRA    25F2
025F6:  BCF    FA6.2
025F8:  MOVF   00,W
025FA:  IORWF  FF2,F
025FC:  MOVLB  5
....................    } 
....................    if(Ttrabajo[0]>9 || Ttrabajo[0]<0){ 
025FE:  BTFSC  x18.7
02600:  BRA    2608
02602:  MOVF   x18,W
02604:  SUBLW  09
02606:  BNC   260E
02608:  BTFSC  x18.7
0260A:  BRA    260E
0260C:  BRA    263C
....................       Ttrabajo[0]=0;write_eeprom(16,0); 
0260E:  CLRF   x18
02610:  CLRF   FAA
02612:  MOVLW  10
02614:  MOVWF  FA9
02616:  CLRF   FA8
02618:  BCF    FA6.6
0261A:  BCF    FA6.7
0261C:  BSF    FA6.2
0261E:  MOVF   FF2,W
02620:  MOVWF  00
02622:  BCF    FF2.7
02624:  MOVLB  F
02626:  MOVLW  55
02628:  MOVWF  FA7
0262A:  MOVLW  AA
0262C:  MOVWF  FA7
0262E:  BSF    FA6.1
02630:  BTFSC  FA6.1
02632:  BRA    2630
02634:  BCF    FA6.2
02636:  MOVF   00,W
02638:  IORWF  FF2,F
0263A:  MOVLB  5
....................    } 
....................    if(Ttrabajo[1]>9 || Ttrabajo[1]<0){ 
0263C:  BTFSC  x19.7
0263E:  BRA    2646
02640:  MOVF   x19,W
02642:  SUBLW  09
02644:  BNC   264C
02646:  BTFSC  x19.7
02648:  BRA    264C
0264A:  BRA    267A
....................       Ttrabajo[1]=0;write_eeprom(17,0); 
0264C:  CLRF   x19
0264E:  CLRF   FAA
02650:  MOVLW  11
02652:  MOVWF  FA9
02654:  CLRF   FA8
02656:  BCF    FA6.6
02658:  BCF    FA6.7
0265A:  BSF    FA6.2
0265C:  MOVF   FF2,W
0265E:  MOVWF  00
02660:  BCF    FF2.7
02662:  MOVLB  F
02664:  MOVLW  55
02666:  MOVWF  FA7
02668:  MOVLW  AA
0266A:  MOVWF  FA7
0266C:  BSF    FA6.1
0266E:  BTFSC  FA6.1
02670:  BRA    266E
02672:  BCF    FA6.2
02674:  MOVF   00,W
02676:  IORWF  FF2,F
02678:  MOVLB  5
....................    } 
....................    if(Ttrabajo[2]>9 || Ttrabajo[2]<0){ 
0267A:  BTFSC  x1A.7
0267C:  BRA    2684
0267E:  MOVF   x1A,W
02680:  SUBLW  09
02682:  BNC   268A
02684:  BTFSC  x1A.7
02686:  BRA    268A
02688:  BRA    26B8
....................       Ttrabajo[2]=0;write_eeprom(18,0); 
0268A:  CLRF   x1A
0268C:  CLRF   FAA
0268E:  MOVLW  12
02690:  MOVWF  FA9
02692:  CLRF   FA8
02694:  BCF    FA6.6
02696:  BCF    FA6.7
02698:  BSF    FA6.2
0269A:  MOVF   FF2,W
0269C:  MOVWF  00
0269E:  BCF    FF2.7
026A0:  MOVLB  F
026A2:  MOVLW  55
026A4:  MOVWF  FA7
026A6:  MOVLW  AA
026A8:  MOVWF  FA7
026AA:  BSF    FA6.1
026AC:  BTFSC  FA6.1
026AE:  BRA    26AC
026B0:  BCF    FA6.2
026B2:  MOVF   00,W
026B4:  IORWF  FF2,F
026B6:  MOVLB  5
....................    } 
....................    if(Ttrabajo[3]>9 || Ttrabajo[3]<0){ 
026B8:  BTFSC  x1B.7
026BA:  BRA    26C2
026BC:  MOVF   x1B,W
026BE:  SUBLW  09
026C0:  BNC   26C8
026C2:  BTFSC  x1B.7
026C4:  BRA    26C8
026C6:  BRA    26F6
....................       Ttrabajo[3]=0;write_eeprom(19,0); 
026C8:  CLRF   x1B
026CA:  CLRF   FAA
026CC:  MOVLW  13
026CE:  MOVWF  FA9
026D0:  CLRF   FA8
026D2:  BCF    FA6.6
026D4:  BCF    FA6.7
026D6:  BSF    FA6.2
026D8:  MOVF   FF2,W
026DA:  MOVWF  00
026DC:  BCF    FF2.7
026DE:  MOVLB  F
026E0:  MOVLW  55
026E2:  MOVWF  FA7
026E4:  MOVLW  AA
026E6:  MOVWF  FA7
026E8:  BSF    FA6.1
026EA:  BTFSC  FA6.1
026EC:  BRA    26EA
026EE:  BCF    FA6.2
026F0:  MOVF   00,W
026F2:  IORWF  FF2,F
026F4:  MOVLB  5
....................    } 
....................    if(Tempouvp[0]>9 || Tempouvp[0]<0){ 
026F6:  BTFSC  x14.7
026F8:  BRA    2700
026FA:  MOVF   x14,W
026FC:  SUBLW  09
026FE:  BNC   2706
02700:  BTFSC  x14.7
02702:  BRA    2706
02704:  BRA    2734
....................       Tempouvp[0]=0;write_eeprom(21,0); 
02706:  CLRF   x14
02708:  CLRF   FAA
0270A:  MOVLW  15
0270C:  MOVWF  FA9
0270E:  CLRF   FA8
02710:  BCF    FA6.6
02712:  BCF    FA6.7
02714:  BSF    FA6.2
02716:  MOVF   FF2,W
02718:  MOVWF  00
0271A:  BCF    FF2.7
0271C:  MOVLB  F
0271E:  MOVLW  55
02720:  MOVWF  FA7
02722:  MOVLW  AA
02724:  MOVWF  FA7
02726:  BSF    FA6.1
02728:  BTFSC  FA6.1
0272A:  BRA    2728
0272C:  BCF    FA6.2
0272E:  MOVF   00,W
02730:  IORWF  FF2,F
02732:  MOVLB  5
....................    } 
....................    if(Tempouvp[1]>9 || Tempouvp[1]<0){ 
02734:  BTFSC  x15.7
02736:  BRA    273E
02738:  MOVF   x15,W
0273A:  SUBLW  09
0273C:  BNC   2744
0273E:  BTFSC  x15.7
02740:  BRA    2744
02742:  BRA    2772
....................       Tempouvp[1]=0;write_eeprom(22,0); 
02744:  CLRF   x15
02746:  CLRF   FAA
02748:  MOVLW  16
0274A:  MOVWF  FA9
0274C:  CLRF   FA8
0274E:  BCF    FA6.6
02750:  BCF    FA6.7
02752:  BSF    FA6.2
02754:  MOVF   FF2,W
02756:  MOVWF  00
02758:  BCF    FF2.7
0275A:  MOVLB  F
0275C:  MOVLW  55
0275E:  MOVWF  FA7
02760:  MOVLW  AA
02762:  MOVWF  FA7
02764:  BSF    FA6.1
02766:  BTFSC  FA6.1
02768:  BRA    2766
0276A:  BCF    FA6.2
0276C:  MOVF   00,W
0276E:  IORWF  FF2,F
02770:  MOVLB  5
....................    } 
....................    if(Tempouvp[2]>9 || Tempouvp[2]<0){ 
02772:  BTFSC  x16.7
02774:  BRA    277C
02776:  MOVF   x16,W
02778:  SUBLW  09
0277A:  BNC   2782
0277C:  BTFSC  x16.7
0277E:  BRA    2782
02780:  BRA    27B0
....................       Tempouvp[2]=0;write_eeprom(23,0); 
02782:  CLRF   x16
02784:  CLRF   FAA
02786:  MOVLW  17
02788:  MOVWF  FA9
0278A:  CLRF   FA8
0278C:  BCF    FA6.6
0278E:  BCF    FA6.7
02790:  BSF    FA6.2
02792:  MOVF   FF2,W
02794:  MOVWF  00
02796:  BCF    FF2.7
02798:  MOVLB  F
0279A:  MOVLW  55
0279C:  MOVWF  FA7
0279E:  MOVLW  AA
027A0:  MOVWF  FA7
027A2:  BSF    FA6.1
027A4:  BTFSC  FA6.1
027A6:  BRA    27A4
027A8:  BCF    FA6.2
027AA:  MOVF   00,W
027AC:  IORWF  FF2,F
027AE:  MOVLB  5
....................    } 
....................    if(Tempouvp[3]>9 || Tempouvp[3]<0){ 
027B0:  BTFSC  x17.7
027B2:  BRA    27BA
027B4:  MOVF   x17,W
027B6:  SUBLW  09
027B8:  BNC   27C0
027BA:  BTFSC  x17.7
027BC:  BRA    27C0
027BE:  BRA    27F0
....................       Tempouvp[3]=1;write_eeprom(24,1); 
027C0:  MOVLW  01
027C2:  MOVWF  x17
027C4:  CLRF   FAA
027C6:  MOVLW  18
027C8:  MOVWF  FA9
027CA:  MOVLW  01
027CC:  MOVWF  FA8
027CE:  BCF    FA6.6
027D0:  BCF    FA6.7
027D2:  BSF    FA6.2
027D4:  MOVF   FF2,W
027D6:  MOVWF  00
027D8:  BCF    FF2.7
027DA:  MOVLB  F
027DC:  MOVLW  55
027DE:  MOVWF  FA7
027E0:  MOVLW  AA
027E2:  MOVWF  FA7
027E4:  BSF    FA6.1
027E6:  BTFSC  FA6.1
027E8:  BRA    27E6
027EA:  BCF    FA6.2
027EC:  MOVF   00,W
027EE:  IORWF  FF2,F
....................    } 
....................    if(Ajuste1>25.0){ 
027F0:  MOVLB  6
027F2:  CLRF   x46
027F4:  CLRF   x45
027F6:  MOVLW  48
027F8:  MOVWF  x44
027FA:  MOVLW  83
027FC:  MOVWF  x43
027FE:  MOVFF  557,64A
02802:  MOVFF  556,649
02806:  MOVFF  555,648
0280A:  MOVFF  554,647
0280E:  MOVLB  0
02810:  RCALL  219C
02812:  BNC   2878
....................       Ajuste1=1.5;write_eeprom(25,1);write_eeprom(26,5); 
02814:  MOVLB  5
02816:  CLRF   x57
02818:  CLRF   x56
0281A:  MOVLW  40
0281C:  MOVWF  x55
0281E:  MOVLW  7F
02820:  MOVWF  x54
02822:  CLRF   FAA
02824:  MOVLW  19
02826:  MOVWF  FA9
02828:  MOVLW  01
0282A:  MOVWF  FA8
0282C:  BCF    FA6.6
0282E:  BCF    FA6.7
02830:  BSF    FA6.2
02832:  MOVF   FF2,W
02834:  MOVWF  00
02836:  BCF    FF2.7
02838:  MOVLB  F
0283A:  MOVLW  55
0283C:  MOVWF  FA7
0283E:  MOVLW  AA
02840:  MOVWF  FA7
02842:  BSF    FA6.1
02844:  BTFSC  FA6.1
02846:  BRA    2844
02848:  BCF    FA6.2
0284A:  MOVF   00,W
0284C:  IORWF  FF2,F
0284E:  CLRF   FAA
02850:  MOVLW  1A
02852:  MOVWF  FA9
02854:  MOVLW  05
02856:  MOVWF  FA8
02858:  BCF    FA6.6
0285A:  BCF    FA6.7
0285C:  BSF    FA6.2
0285E:  MOVF   FF2,W
02860:  MOVWF  00
02862:  BCF    FF2.7
02864:  MOVLW  55
02866:  MOVWF  FA7
02868:  MOVLW  AA
0286A:  MOVWF  FA7
0286C:  BSF    FA6.1
0286E:  BTFSC  FA6.1
02870:  BRA    286E
02872:  BCF    FA6.2
02874:  MOVF   00,W
02876:  IORWF  FF2,F
....................    } 
....................    if(Ajuste2>25.0){ 
02878:  MOVLB  6
0287A:  CLRF   x46
0287C:  CLRF   x45
0287E:  MOVLW  48
02880:  MOVWF  x44
02882:  MOVLW  83
02884:  MOVWF  x43
02886:  MOVFF  55B,64A
0288A:  MOVFF  55A,649
0288E:  MOVFF  559,648
02892:  MOVFF  558,647
02896:  MOVLB  0
02898:  RCALL  219C
0289A:  BNC   28FC
....................       Ajuste2=1.0;write_eeprom(27,1);write_eeprom(28,0); 
0289C:  MOVLB  5
0289E:  CLRF   x5B
028A0:  CLRF   x5A
028A2:  CLRF   x59
028A4:  MOVLW  7F
028A6:  MOVWF  x58
028A8:  CLRF   FAA
028AA:  MOVLW  1B
028AC:  MOVWF  FA9
028AE:  MOVLW  01
028B0:  MOVWF  FA8
028B2:  BCF    FA6.6
028B4:  BCF    FA6.7
028B6:  BSF    FA6.2
028B8:  MOVF   FF2,W
028BA:  MOVWF  00
028BC:  BCF    FF2.7
028BE:  MOVLB  F
028C0:  MOVLW  55
028C2:  MOVWF  FA7
028C4:  MOVLW  AA
028C6:  MOVWF  FA7
028C8:  BSF    FA6.1
028CA:  BTFSC  FA6.1
028CC:  BRA    28CA
028CE:  BCF    FA6.2
028D0:  MOVF   00,W
028D2:  IORWF  FF2,F
028D4:  CLRF   FAA
028D6:  MOVLW  1C
028D8:  MOVWF  FA9
028DA:  CLRF   FA8
028DC:  BCF    FA6.6
028DE:  BCF    FA6.7
028E0:  BSF    FA6.2
028E2:  MOVF   FF2,W
028E4:  MOVWF  00
028E6:  BCF    FF2.7
028E8:  MOVLW  55
028EA:  MOVWF  FA7
028EC:  MOVLW  AA
028EE:  MOVWF  FA7
028F0:  BSF    FA6.1
028F2:  BTFSC  FA6.1
028F4:  BRA    28F2
028F6:  BCF    FA6.2
028F8:  MOVF   00,W
028FA:  IORWF  FF2,F
....................    } 
....................    if(zero_actual>300){ 
028FC:  MOVLB  6
028FE:  CLRF   x46
02900:  CLRF   x45
02902:  MOVLW  16
02904:  MOVWF  x44
02906:  MOVLW  87
02908:  MOVWF  x43
0290A:  MOVFF  5C3,64A
0290E:  MOVFF  5C2,649
02912:  MOVFF  5C1,648
02916:  MOVFF  5C0,647
0291A:  MOVLB  0
0291C:  RCALL  219C
0291E:  BNC   2982
....................       zero_actual=203;write_eeprom(29,203);write_eeprom(30,0); 
02920:  MOVLB  5
02922:  CLRF   xC3
02924:  CLRF   xC2
02926:  MOVLW  4B
02928:  MOVWF  xC1
0292A:  MOVLW  86
0292C:  MOVWF  xC0
0292E:  CLRF   FAA
02930:  MOVLW  1D
02932:  MOVWF  FA9
02934:  MOVLW  CB
02936:  MOVWF  FA8
02938:  BCF    FA6.6
0293A:  BCF    FA6.7
0293C:  BSF    FA6.2
0293E:  MOVF   FF2,W
02940:  MOVWF  00
02942:  BCF    FF2.7
02944:  MOVLB  F
02946:  MOVLW  55
02948:  MOVWF  FA7
0294A:  MOVLW  AA
0294C:  MOVWF  FA7
0294E:  BSF    FA6.1
02950:  BTFSC  FA6.1
02952:  BRA    2950
02954:  BCF    FA6.2
02956:  MOVF   00,W
02958:  IORWF  FF2,F
0295A:  CLRF   FAA
0295C:  MOVLW  1E
0295E:  MOVWF  FA9
02960:  CLRF   FA8
02962:  BCF    FA6.6
02964:  BCF    FA6.7
02966:  BSF    FA6.2
02968:  MOVF   FF2,W
0296A:  MOVWF  00
0296C:  BCF    FF2.7
0296E:  MOVLW  55
02970:  MOVWF  FA7
02972:  MOVLW  AA
02974:  MOVWF  FA7
02976:  BSF    FA6.1
02978:  BTFSC  FA6.1
0297A:  BRA    2978
0297C:  BCF    FA6.2
0297E:  MOVF   00,W
02980:  IORWF  FF2,F
....................    } 
....................    if(minutos_uv>60){ 
02982:  MOVLB  4
02984:  MOVF   xE0,W
02986:  SUBLW  3C
02988:  BC    29B8
....................       minutos_uv=0;write_eeprom(31,0); 
0298A:  CLRF   xE0
0298C:  CLRF   FAA
0298E:  MOVLW  1F
02990:  MOVWF  FA9
02992:  CLRF   FA8
02994:  BCF    FA6.6
02996:  BCF    FA6.7
02998:  BSF    FA6.2
0299A:  MOVF   FF2,W
0299C:  MOVWF  00
0299E:  BCF    FF2.7
029A0:  MOVLB  F
029A2:  MOVLW  55
029A4:  MOVWF  FA7
029A6:  MOVLW  AA
029A8:  MOVWF  FA7
029AA:  BSF    FA6.1
029AC:  BTFSC  FA6.1
029AE:  BRA    29AC
029B0:  BCF    FA6.2
029B2:  MOVF   00,W
029B4:  IORWF  FF2,F
029B6:  MOVLB  4
....................    } 
....................    if(VelMotor>6){ 
029B8:  MOVF   xED,W
029BA:  SUBLW  06
029BC:  BC    29F0
....................       VelMotor=2;write_eeprom(32,2); 
029BE:  MOVLW  02
029C0:  MOVWF  xED
029C2:  CLRF   FAA
029C4:  MOVLW  20
029C6:  MOVWF  FA9
029C8:  MOVLW  02
029CA:  MOVWF  FA8
029CC:  BCF    FA6.6
029CE:  BCF    FA6.7
029D0:  BSF    FA6.2
029D2:  MOVF   FF2,W
029D4:  MOVWF  00
029D6:  BCF    FF2.7
029D8:  MOVLB  F
029DA:  MOVLW  55
029DC:  MOVWF  FA7
029DE:  MOVLW  AA
029E0:  MOVWF  FA7
029E2:  BSF    FA6.1
029E4:  BTFSC  FA6.1
029E6:  BRA    29E4
029E8:  BCF    FA6.2
029EA:  MOVF   00,W
029EC:  IORWF  FF2,F
029EE:  MOVLB  4
....................    }    
....................    if(minutos_trabajo>3600){ 
029F0:  MOVF   xF9,W
029F2:  SUBLW  0D
029F4:  BC    2A56
029F6:  XORLW  FF
029F8:  BNZ   2A00
029FA:  MOVF   xF8,W
029FC:  SUBLW  10
029FE:  BC    2A56
....................       minutos_trabajo=0;write_eeprom(33,0);write_eeprom(34,0); 
02A00:  CLRF   xF9
02A02:  CLRF   xF8
02A04:  CLRF   FAA
02A06:  MOVLW  21
02A08:  MOVWF  FA9
02A0A:  CLRF   FA8
02A0C:  BCF    FA6.6
02A0E:  BCF    FA6.7
02A10:  BSF    FA6.2
02A12:  MOVF   FF2,W
02A14:  MOVWF  00
02A16:  BCF    FF2.7
02A18:  MOVLB  F
02A1A:  MOVLW  55
02A1C:  MOVWF  FA7
02A1E:  MOVLW  AA
02A20:  MOVWF  FA7
02A22:  BSF    FA6.1
02A24:  BTFSC  FA6.1
02A26:  BRA    2A24
02A28:  BCF    FA6.2
02A2A:  MOVF   00,W
02A2C:  IORWF  FF2,F
02A2E:  CLRF   FAA
02A30:  MOVLW  22
02A32:  MOVWF  FA9
02A34:  CLRF   FA8
02A36:  BCF    FA6.6
02A38:  BCF    FA6.7
02A3A:  BSF    FA6.2
02A3C:  MOVF   FF2,W
02A3E:  MOVWF  00
02A40:  BCF    FF2.7
02A42:  MOVLW  55
02A44:  MOVWF  FA7
02A46:  MOVLW  AA
02A48:  MOVWF  FA7
02A4A:  BSF    FA6.1
02A4C:  BTFSC  FA6.1
02A4E:  BRA    2A4C
02A50:  BCF    FA6.2
02A52:  MOVF   00,W
02A54:  IORWF  FF2,F
....................    } 
....................    if(Relacion>2.0){ 
02A56:  MOVLB  6
02A58:  CLRF   x46
02A5A:  CLRF   x45
02A5C:  CLRF   x44
02A5E:  MOVLW  80
02A60:  MOVWF  x43
02A62:  MOVFF  5D7,64A
02A66:  MOVFF  5D6,649
02A6A:  MOVFF  5D5,648
02A6E:  MOVFF  5D4,647
02A72:  MOVLB  0
02A74:  CALL   219C
02A78:  BNC   2AE0
....................       Relacion=0.57;write_eeprom(35,0);write_eeprom(36,57); 
02A7A:  MOVLW  85
02A7C:  MOVLB  5
02A7E:  MOVWF  xD7
02A80:  MOVLW  EB
02A82:  MOVWF  xD6
02A84:  MOVLW  11
02A86:  MOVWF  xD5
02A88:  MOVLW  7E
02A8A:  MOVWF  xD4
02A8C:  CLRF   FAA
02A8E:  MOVLW  23
02A90:  MOVWF  FA9
02A92:  CLRF   FA8
02A94:  BCF    FA6.6
02A96:  BCF    FA6.7
02A98:  BSF    FA6.2
02A9A:  MOVF   FF2,W
02A9C:  MOVWF  00
02A9E:  BCF    FF2.7
02AA0:  MOVLB  F
02AA2:  MOVLW  55
02AA4:  MOVWF  FA7
02AA6:  MOVLW  AA
02AA8:  MOVWF  FA7
02AAA:  BSF    FA6.1
02AAC:  BTFSC  FA6.1
02AAE:  BRA    2AAC
02AB0:  BCF    FA6.2
02AB2:  MOVF   00,W
02AB4:  IORWF  FF2,F
02AB6:  CLRF   FAA
02AB8:  MOVLW  24
02ABA:  MOVWF  FA9
02ABC:  MOVLW  39
02ABE:  MOVWF  FA8
02AC0:  BCF    FA6.6
02AC2:  BCF    FA6.7
02AC4:  BSF    FA6.2
02AC6:  MOVF   FF2,W
02AC8:  MOVWF  00
02ACA:  BCF    FF2.7
02ACC:  MOVLW  55
02ACE:  MOVWF  FA7
02AD0:  MOVLW  AA
02AD2:  MOVWF  FA7
02AD4:  BSF    FA6.1
02AD6:  BTFSC  FA6.1
02AD8:  BRA    2AD6
02ADA:  BCF    FA6.2
02ADC:  MOVF   00,W
02ADE:  IORWF  FF2,F
....................    } 
....................    if(Diferencia>200){ 
02AE0:  MOVLB  6
02AE2:  CLRF   x46
02AE4:  CLRF   x45
02AE6:  MOVLW  48
02AE8:  MOVWF  x44
02AEA:  MOVLW  86
02AEC:  MOVWF  x43
02AEE:  MOVFF  533,64A
02AF2:  MOVFF  532,649
02AF6:  MOVFF  531,648
02AFA:  MOVFF  530,647
02AFE:  MOVLB  0
02B00:  CALL   219C
02B04:  BNC   2B62
....................       Diferencia=0;write_eeprom(60,0);write_eeprom(61,0); 
02B06:  MOVLB  5
02B08:  CLRF   x33
02B0A:  CLRF   x32
02B0C:  CLRF   x31
02B0E:  CLRF   x30
02B10:  CLRF   FAA
02B12:  MOVLW  3C
02B14:  MOVWF  FA9
02B16:  CLRF   FA8
02B18:  BCF    FA6.6
02B1A:  BCF    FA6.7
02B1C:  BSF    FA6.2
02B1E:  MOVF   FF2,W
02B20:  MOVWF  00
02B22:  BCF    FF2.7
02B24:  MOVLB  F
02B26:  MOVLW  55
02B28:  MOVWF  FA7
02B2A:  MOVLW  AA
02B2C:  MOVWF  FA7
02B2E:  BSF    FA6.1
02B30:  BTFSC  FA6.1
02B32:  BRA    2B30
02B34:  BCF    FA6.2
02B36:  MOVF   00,W
02B38:  IORWF  FF2,F
02B3A:  CLRF   FAA
02B3C:  MOVLW  3D
02B3E:  MOVWF  FA9
02B40:  CLRF   FA8
02B42:  BCF    FA6.6
02B44:  BCF    FA6.7
02B46:  BSF    FA6.2
02B48:  MOVF   FF2,W
02B4A:  MOVWF  00
02B4C:  BCF    FF2.7
02B4E:  MOVLW  55
02B50:  MOVWF  FA7
02B52:  MOVLW  AA
02B54:  MOVWF  FA7
02B56:  BSF    FA6.1
02B58:  BTFSC  FA6.1
02B5A:  BRA    2B58
02B5C:  BCF    FA6.2
02B5E:  MOVF   00,W
02B60:  IORWF  FF2,F
....................    } 
....................    if(G>900){ 
02B62:  MOVLB  6
02B64:  CLRF   x46
02B66:  CLRF   x45
02B68:  MOVLW  61
02B6A:  MOVWF  x44
02B6C:  MOVLW  88
02B6E:  MOVWF  x43
02B70:  MOVFF  5CF,64A
02B74:  MOVFF  5CE,649
02B78:  MOVFF  5CD,648
02B7C:  MOVFF  5CC,647
02B80:  MOVLB  0
02B82:  CALL   219C
02B86:  BNC   2BEA
....................       G=240;write_eeprom(62,240);write_eeprom(63,0); 
02B88:  MOVLB  5
02B8A:  CLRF   xCF
02B8C:  CLRF   xCE
02B8E:  MOVLW  70
02B90:  MOVWF  xCD
02B92:  MOVLW  86
02B94:  MOVWF  xCC
02B96:  CLRF   FAA
02B98:  MOVLW  3E
02B9A:  MOVWF  FA9
02B9C:  MOVLW  F0
02B9E:  MOVWF  FA8
02BA0:  BCF    FA6.6
02BA2:  BCF    FA6.7
02BA4:  BSF    FA6.2
02BA6:  MOVF   FF2,W
02BA8:  MOVWF  00
02BAA:  BCF    FF2.7
02BAC:  MOVLB  F
02BAE:  MOVLW  55
02BB0:  MOVWF  FA7
02BB2:  MOVLW  AA
02BB4:  MOVWF  FA7
02BB6:  BSF    FA6.1
02BB8:  BTFSC  FA6.1
02BBA:  BRA    2BB8
02BBC:  BCF    FA6.2
02BBE:  MOVF   00,W
02BC0:  IORWF  FF2,F
02BC2:  CLRF   FAA
02BC4:  MOVLW  3F
02BC6:  MOVWF  FA9
02BC8:  CLRF   FA8
02BCA:  BCF    FA6.6
02BCC:  BCF    FA6.7
02BCE:  BSF    FA6.2
02BD0:  MOVF   FF2,W
02BD2:  MOVWF  00
02BD4:  BCF    FF2.7
02BD6:  MOVLW  55
02BD8:  MOVWF  FA7
02BDA:  MOVLW  AA
02BDC:  MOVWF  FA7
02BDE:  BSF    FA6.1
02BE0:  BTFSC  FA6.1
02BE2:  BRA    2BE0
02BE4:  BCF    FA6.2
02BE6:  MOVF   00,W
02BE8:  IORWF  FF2,F
....................    } 
....................    if(negativo>20){ 
02BEA:  MOVLB  4
02BEC:  MOVF   xDC,W
02BEE:  SUBLW  14
02BF0:  BC    2C24
....................       negativo=10;write_eeprom(50,10); 
02BF2:  MOVLW  0A
02BF4:  MOVWF  xDC
02BF6:  CLRF   FAA
02BF8:  MOVLW  32
02BFA:  MOVWF  FA9
02BFC:  MOVLW  0A
02BFE:  MOVWF  FA8
02C00:  BCF    FA6.6
02C02:  BCF    FA6.7
02C04:  BSF    FA6.2
02C06:  MOVF   FF2,W
02C08:  MOVWF  00
02C0A:  BCF    FF2.7
02C0C:  MOVLB  F
02C0E:  MOVLW  55
02C10:  MOVWF  FA7
02C12:  MOVLW  AA
02C14:  MOVWF  FA7
02C16:  BSF    FA6.1
02C18:  BTFSC  FA6.1
02C1A:  BRA    2C18
02C1C:  BCF    FA6.2
02C1E:  MOVF   00,W
02C20:  IORWF  FF2,F
02C22:  MOVLB  4
....................    } 
.................... } 
02C24:  MOVLB  0
02C26:  GOTO   50F8 (RETURN)
....................  
.................... void VelocidadMotor(int8 Vel){ 
....................    if(Vel==0){ 
*
0428A:  MOVLB  6
0428C:  MOVF   x3E,F
0428E:  BNZ   42A2
....................       Motor1L_off; 
04290:  BSF    F8B.4
04292:  BCF    F94.4
....................       Motor1H_off; 
04294:  BSF    F8B.5
04296:  BCF    F94.5
....................       Motor2L_off; 
04298:  BSF    F8B.6
0429A:  BCF    F94.6
....................       Motor2H_off; 
0429C:  BSF    F8B.7
0429E:  BCF    F94.7
....................    }else if(Vel==3){ 
042A0:  BRA    432E
042A2:  MOVF   x3E,W
042A4:  SUBLW  03
042A6:  BNZ   42BA
....................       Motor1L_on; 
042A8:  BCF    F8B.4
042AA:  BCF    F94.4
....................       Motor1H_off; 
042AC:  BSF    F8B.5
042AE:  BCF    F94.5
....................       Motor2L_on; 
042B0:  BCF    F8B.6
042B2:  BCF    F94.6
....................       Motor2H_off; 
042B4:  BSF    F8B.7
042B6:  BCF    F94.7
....................    }else if(Vel==2){ 
042B8:  BRA    432E
042BA:  MOVF   x3E,W
042BC:  SUBLW  02
042BE:  BNZ   42D2
....................       Motor1L_off; 
042C0:  BSF    F8B.4
042C2:  BCF    F94.4
....................       Motor1H_on; 
042C4:  BCF    F8B.5
042C6:  BCF    F94.5
....................       Motor2L_off; 
042C8:  BSF    F8B.6
042CA:  BCF    F94.6
....................       Motor2H_on; 
042CC:  BCF    F8B.7
042CE:  BCF    F94.7
....................    }else if(Vel==1){ 
042D0:  BRA    432E
042D2:  DECFSZ x3E,W
042D4:  BRA    42E8
....................       Motor1L_on; 
042D6:  BCF    F8B.4
042D8:  BCF    F94.4
....................       Motor1H_off; 
042DA:  BSF    F8B.5
042DC:  BCF    F94.5
....................       Motor2L_off; 
042DE:  BSF    F8B.6
042E0:  BCF    F94.6
....................       Motor2H_off; 
042E2:  BSF    F8B.7
042E4:  BCF    F94.7
....................    }else if(Vel==4){ 
042E6:  BRA    432E
042E8:  MOVF   x3E,W
042EA:  SUBLW  04
042EC:  BNZ   4300
....................       Motor1L_off; 
042EE:  BSF    F8B.4
042F0:  BCF    F94.4
....................       Motor1H_on; 
042F2:  BCF    F8B.5
042F4:  BCF    F94.5
....................       Motor2L_off; 
042F6:  BSF    F8B.6
042F8:  BCF    F94.6
....................       Motor2H_off; 
042FA:  BSF    F8B.7
042FC:  BCF    F94.7
....................    }else if(Vel==5){ 
042FE:  BRA    432E
04300:  MOVF   x3E,W
04302:  SUBLW  05
04304:  BNZ   4318
....................       Motor1L_off; 
04306:  BSF    F8B.4
04308:  BCF    F94.4
....................       Motor1H_off; 
0430A:  BSF    F8B.5
0430C:  BCF    F94.5
....................       Motor2L_on; 
0430E:  BCF    F8B.6
04310:  BCF    F94.6
....................       Motor2H_off; 
04312:  BSF    F8B.7
04314:  BCF    F94.7
....................    }else if(Vel==6){ 
04316:  BRA    432E
04318:  MOVF   x3E,W
0431A:  SUBLW  06
0431C:  BNZ   432E
....................       Motor1L_off; 
0431E:  BSF    F8B.4
04320:  BCF    F94.4
....................       Motor1H_off; 
04322:  BSF    F8B.5
04324:  BCF    F94.5
....................       Motor2L_off; 
04326:  BSF    F8B.6
04328:  BCF    F94.6
....................       Motor2H_on; 
0432A:  BCF    F8B.7
0432C:  BCF    F94.7
....................    } 
.................... } 
0432E:  MOVLB  0
04330:  RETLW  00
....................  
.................... short PidePassword(int8 MenuAnt, int8 MenuActual, int8 MenuPost, int8 clave0,int8 clave1, int8 clave2,int8 clave3){ 
....................       if(n==0) 
*
03BA2:  MOVLB  4
03BA4:  BTFSC  x1C.7
03BA6:  BRA    3C3E
....................       { 
....................          displayContrasena(Contrasena[0],20,30,1);displayContrasena(Contrasena[1],40,30,0); 
03BA8:  MOVFF  51C,648
03BAC:  MOVLW  14
03BAE:  MOVLB  6
03BB0:  MOVWF  x49
03BB2:  MOVLW  1E
03BB4:  MOVWF  x4A
03BB6:  MOVLW  01
03BB8:  MOVWF  x4B
03BBA:  MOVLB  0
03BBC:  RCALL  39C6
03BBE:  MOVFF  51D,648
03BC2:  MOVLW  28
03BC4:  MOVLB  6
03BC6:  MOVWF  x49
03BC8:  MOVLW  1E
03BCA:  MOVWF  x4A
03BCC:  CLRF   x4B
03BCE:  MOVLB  0
03BD0:  RCALL  39C6
....................          displayContrasena(Contrasena[2],60,30,0);displayContrasena(Contrasena[0],80,30,0); 
03BD2:  MOVFF  51E,648
03BD6:  MOVLW  3C
03BD8:  MOVLB  6
03BDA:  MOVWF  x49
03BDC:  MOVLW  1E
03BDE:  MOVWF  x4A
03BE0:  CLRF   x4B
03BE2:  MOVLB  0
03BE4:  RCALL  39C6
03BE6:  MOVFF  51C,648
03BEA:  MOVLW  50
03BEC:  MOVLB  6
03BEE:  MOVWF  x49
03BF0:  MOVLW  1E
03BF2:  MOVWF  x4A
03BF4:  CLRF   x4B
03BF6:  MOVLB  0
03BF8:  RCALL  39C6
....................          strcpy(Menus.Letra,"Clave"); 
03BFA:  MOVLW  06
03BFC:  MOVWF  FEA
03BFE:  MOVLW  28
03C00:  MOVWF  FE9
03C02:  MOVFF  FF2,646
03C06:  BCF    FF2.7
03C08:  MOVLW  00
03C0A:  CALL   0F0A
03C0E:  TBLRD*-
03C10:  TBLRD*+
03C12:  MOVF   FF5,W
03C14:  MOVWF  FEE
03C16:  IORLW  00
03C18:  BNZ   3C10
03C1A:  MOVLB  6
03C1C:  BTFSC  x46.7
03C1E:  BSF    FF2.7
....................          displayMenu(Menus.Letra,20,0,1,3); 
03C20:  MOVLW  06
03C22:  MOVWF  x47
03C24:  MOVLW  28
03C26:  MOVWF  x46
03C28:  MOVLW  14
03C2A:  MOVWF  x48
03C2C:  CLRF   x49
03C2E:  MOVLW  01
03C30:  MOVWF  x4A
03C32:  MOVLW  03
03C34:  MOVWF  x4B
03C36:  MOVLB  0
03C38:  RCALL  3A7C
....................          n=1; 
03C3A:  MOVLB  4
03C3C:  BSF    x1C.7
....................       } 
....................        
....................       if(UP){ 
03C3E:  BSF    F92.4
03C40:  BTFSC  F80.4
03C42:  BRA    3D1A
....................          flag_latencia=0;t_latencia=0; 
03C44:  BCF    x1C.3
03C46:  CLRF   xF5
03C48:  CLRF   xF4
....................          if(Flanco == 0){ 
03C4A:  BTFSC  x1A.0
03C4C:  BRA    3D18
....................             Flanco = 1;delay_ms(5); 
03C4E:  BSF    x1A.0
03C50:  MOVLW  05
03C52:  MOVLB  6
03C54:  MOVWF  x47
03C56:  MOVLB  0
03C58:  CALL   1512
....................             for(i=1;i<=4;i++){ 
03C5C:  MOVLW  01
03C5E:  MOVLB  4
03C60:  MOVWF  x19
03C62:  MOVF   x19,W
03C64:  SUBLW  04
03C66:  BNC   3D18
....................                if(unidad==i){ 
03C68:  MOVF   x19,W
03C6A:  SUBWF  xD9,W
03C6C:  BNZ   3CE2
....................                   Contrasena[i-1]++; 
03C6E:  MOVLW  01
03C70:  SUBWF  x19,W
03C72:  CLRF   03
03C74:  ADDLW  1C
03C76:  MOVWF  FE9
03C78:  MOVLW  05
03C7A:  ADDWFC 03,W
03C7C:  MOVWF  FEA
03C7E:  INCF   FEF,F
....................                   if(Contrasena[i-1]>9){ 
03C80:  MOVLW  01
03C82:  SUBWF  x19,W
03C84:  CLRF   03
03C86:  ADDLW  1C
03C88:  MOVWF  FE9
03C8A:  MOVLW  05
03C8C:  ADDWFC 03,W
03C8E:  MOVWF  FEA
03C90:  BTFSC  FEF.7
03C92:  BRA    3CAC
03C94:  MOVF   FEF,W
03C96:  SUBLW  09
03C98:  BC    3CAC
....................                      Contrasena[i-1]=0; 
03C9A:  MOVLW  01
03C9C:  SUBWF  x19,W
03C9E:  CLRF   03
03CA0:  ADDLW  1C
03CA2:  MOVWF  FE9
03CA4:  MOVLW  05
03CA6:  ADDWFC 03,W
03CA8:  MOVWF  FEA
03CAA:  CLRF   FEF
....................                   } 
....................                   displayContrasena(Contrasena[i-1],i*20,30,1); 
03CAC:  MOVLW  01
03CAE:  SUBWF  x19,W
03CB0:  CLRF   03
03CB2:  ADDLW  1C
03CB4:  MOVWF  FE9
03CB6:  MOVLW  05
03CB8:  ADDWFC 03,W
03CBA:  MOVWF  FEA
03CBC:  MOVFF  FEF,646
03CC0:  MOVF   x19,W
03CC2:  MULLW  14
03CC4:  MOVFF  FF3,647
03CC8:  MOVLB  6
03CCA:  MOVFF  646,648
03CCE:  MOVFF  647,649
03CD2:  MOVLW  1E
03CD4:  MOVWF  x4A
03CD6:  MOVLW  01
03CD8:  MOVWF  x4B
03CDA:  MOVLB  0
03CDC:  RCALL  39C6
....................                }else{ 
03CDE:  BRA    3D12
03CE0:  MOVLB  4
....................                   displayContrasena(Contrasena[i-1],i*20,30,0); 
03CE2:  MOVLW  01
03CE4:  SUBWF  x19,W
03CE6:  CLRF   03
03CE8:  ADDLW  1C
03CEA:  MOVWF  FE9
03CEC:  MOVLW  05
03CEE:  ADDWFC 03,W
03CF0:  MOVWF  FEA
03CF2:  MOVFF  FEF,646
03CF6:  MOVF   x19,W
03CF8:  MULLW  14
03CFA:  MOVFF  FF3,647
03CFE:  MOVLB  6
03D00:  MOVFF  646,648
03D04:  MOVFF  647,649
03D08:  MOVLW  1E
03D0A:  MOVWF  x4A
03D0C:  CLRF   x4B
03D0E:  MOVLB  0
03D10:  RCALL  39C6
....................                } 
....................             } 
03D12:  MOVLB  4
03D14:  INCF   x19,F
03D16:  BRA    3C62
....................          } 
....................       }else{ 
03D18:  BRA    3D1C
....................          Flanco = 0; 
03D1A:  BCF    x1A.0
....................       } 
....................              
....................       if(DOWN){ 
03D1C:  BSF    F92.5
03D1E:  BTFSC  F80.5
03D20:  BRA    3DF6
....................          flag_latencia=0;t_latencia=0; 
03D22:  BCF    x1C.3
03D24:  CLRF   xF5
03D26:  CLRF   xF4
....................          if(Flanco2 == 0){ 
03D28:  BTFSC  x1A.2
03D2A:  BRA    3DF4
....................             Flanco2 = 1;delay_ms(5); 
03D2C:  BSF    x1A.2
03D2E:  MOVLW  05
03D30:  MOVLB  6
03D32:  MOVWF  x47
03D34:  MOVLB  0
03D36:  CALL   1512
....................             for(i=1;i<=4;i++){ 
03D3A:  MOVLW  01
03D3C:  MOVLB  4
03D3E:  MOVWF  x19
03D40:  MOVF   x19,W
03D42:  SUBLW  04
03D44:  BNC   3DF4
....................                if(unidad==i){ 
03D46:  MOVF   x19,W
03D48:  SUBWF  xD9,W
03D4A:  BNZ   3DBE
....................                   Contrasena[i-1]--; 
03D4C:  MOVLW  01
03D4E:  SUBWF  x19,W
03D50:  CLRF   03
03D52:  ADDLW  1C
03D54:  MOVWF  FE9
03D56:  MOVLW  05
03D58:  ADDWFC 03,W
03D5A:  MOVWF  FEA
03D5C:  DECF   FEF,F
....................                   if(Contrasena[i-1]<0){ 
03D5E:  MOVLW  01
03D60:  SUBWF  x19,W
03D62:  CLRF   03
03D64:  ADDLW  1C
03D66:  MOVWF  FE9
03D68:  MOVLW  05
03D6A:  ADDWFC 03,W
03D6C:  MOVWF  FEA
03D6E:  BTFSC  FEF.7
03D70:  BRA    3D74
03D72:  BRA    3D88
....................                      Contrasena[i-1]=9; 
03D74:  MOVLW  01
03D76:  SUBWF  x19,W
03D78:  CLRF   03
03D7A:  ADDLW  1C
03D7C:  MOVWF  FE9
03D7E:  MOVLW  05
03D80:  ADDWFC 03,W
03D82:  MOVWF  FEA
03D84:  MOVLW  09
03D86:  MOVWF  FEF
....................                   } 
....................                   displayContrasena(Contrasena[i-1],i*20,30,1); 
03D88:  MOVLW  01
03D8A:  SUBWF  x19,W
03D8C:  CLRF   03
03D8E:  ADDLW  1C
03D90:  MOVWF  FE9
03D92:  MOVLW  05
03D94:  ADDWFC 03,W
03D96:  MOVWF  FEA
03D98:  MOVFF  FEF,646
03D9C:  MOVF   x19,W
03D9E:  MULLW  14
03DA0:  MOVFF  FF3,647
03DA4:  MOVLB  6
03DA6:  MOVFF  646,648
03DAA:  MOVFF  647,649
03DAE:  MOVLW  1E
03DB0:  MOVWF  x4A
03DB2:  MOVLW  01
03DB4:  MOVWF  x4B
03DB6:  MOVLB  0
03DB8:  RCALL  39C6
....................                }else{ 
03DBA:  BRA    3DEE
03DBC:  MOVLB  4
....................                   displayContrasena(Contrasena[i-1],i*20,30,0); 
03DBE:  MOVLW  01
03DC0:  SUBWF  x19,W
03DC2:  CLRF   03
03DC4:  ADDLW  1C
03DC6:  MOVWF  FE9
03DC8:  MOVLW  05
03DCA:  ADDWFC 03,W
03DCC:  MOVWF  FEA
03DCE:  MOVFF  FEF,646
03DD2:  MOVF   x19,W
03DD4:  MULLW  14
03DD6:  MOVFF  FF3,647
03DDA:  MOVLB  6
03DDC:  MOVFF  646,648
03DE0:  MOVFF  647,649
03DE4:  MOVLW  1E
03DE6:  MOVWF  x4A
03DE8:  CLRF   x4B
03DEA:  MOVLB  0
03DEC:  RCALL  39C6
....................                } 
....................             }       
03DEE:  MOVLB  4
03DF0:  INCF   x19,F
03DF2:  BRA    3D40
....................          }      
....................       }else{ 
03DF4:  BRA    3DF8
....................          Flanco2 = 0; 
03DF6:  BCF    x1A.2
....................       } 
....................              
....................       if(RIGHT){ 
03DF8:  BSF    F96.0
03DFA:  BTFSC  F84.0
03DFC:  BRA    3E98
....................          flag_latencia=0;t_latencia=0; 
03DFE:  BCF    x1C.3
03E00:  CLRF   xF5
03E02:  CLRF   xF4
....................          if(Flanco1 == 0){ 
03E04:  BTFSC  x1A.1
03E06:  BRA    3E96
....................             Flanco1 = 1;delay_ms(5);unidad++; 
03E08:  BSF    x1A.1
03E0A:  MOVLW  05
03E0C:  MOVLB  6
03E0E:  MOVWF  x47
03E10:  MOVLB  0
03E12:  CALL   1512
03E16:  MOVLB  4
03E18:  INCF   xD9,F
....................             for(i=1;i<=4;i++){ 
03E1A:  MOVLW  01
03E1C:  MOVWF  x19
03E1E:  MOVF   x19,W
03E20:  SUBLW  04
03E22:  BNC   3E96
....................                if(unidad==i){ 
03E24:  MOVF   x19,W
03E26:  SUBWF  xD9,W
03E28:  BNZ   3E60
....................                   displayContrasena(Contrasena[i-1],i*20,30,1); 
03E2A:  MOVLW  01
03E2C:  SUBWF  x19,W
03E2E:  CLRF   03
03E30:  ADDLW  1C
03E32:  MOVWF  FE9
03E34:  MOVLW  05
03E36:  ADDWFC 03,W
03E38:  MOVWF  FEA
03E3A:  MOVFF  FEF,646
03E3E:  MOVF   x19,W
03E40:  MULLW  14
03E42:  MOVFF  FF3,647
03E46:  MOVLB  6
03E48:  MOVFF  646,648
03E4C:  MOVFF  647,649
03E50:  MOVLW  1E
03E52:  MOVWF  x4A
03E54:  MOVLW  01
03E56:  MOVWF  x4B
03E58:  MOVLB  0
03E5A:  RCALL  39C6
....................                }else{ 
03E5C:  BRA    3E90
03E5E:  MOVLB  4
....................                   displayContrasena(Contrasena[i-1],i*20,30,0); 
03E60:  MOVLW  01
03E62:  SUBWF  x19,W
03E64:  CLRF   03
03E66:  ADDLW  1C
03E68:  MOVWF  FE9
03E6A:  MOVLW  05
03E6C:  ADDWFC 03,W
03E6E:  MOVWF  FEA
03E70:  MOVFF  FEF,646
03E74:  MOVF   x19,W
03E76:  MULLW  14
03E78:  MOVFF  FF3,647
03E7C:  MOVLB  6
03E7E:  MOVFF  646,648
03E82:  MOVFF  647,649
03E86:  MOVLW  1E
03E88:  MOVWF  x4A
03E8A:  CLRF   x4B
03E8C:  MOVLB  0
03E8E:  RCALL  39C6
....................                } 
....................             } 
03E90:  MOVLB  4
03E92:  INCF   x19,F
03E94:  BRA    3E1E
....................          } 
....................       }else{ 
03E96:  BRA    3E9A
....................          Flanco1 = 0; 
03E98:  BCF    x1A.1
....................       } 
....................        
....................       if(LEFT){ 
03E9A:  BSF    F96.1
03E9C:  BTFSC  F84.1
03E9E:  BRA    3EE6
....................          delay_ms(100); 
03EA0:  MOVLW  64
03EA2:  MOVLB  6
03EA4:  MOVWF  x47
03EA6:  MOVLB  0
03EA8:  CALL   1512
....................          if(LEFT){ 
03EAC:  BSF    F96.1
03EAE:  BTFSC  F84.1
03EB0:  BRA    3EE4
....................             Menu=MenuAnt;glcd_fillScreen(OFF);n=0;Opcion=1;unidad=1; 
03EB2:  MOVFF  63F,4D8
03EB6:  MOVLB  6
03EB8:  CLRF   x46
03EBA:  MOVLB  0
03EBC:  RCALL  3B48
03EBE:  MOVLB  4
03EC0:  BCF    x1C.7
03EC2:  MOVLW  01
03EC4:  MOVWF  xDA
03EC6:  MOVWF  xD9
....................             Contrasena[0]=0;Contrasena[1]=0;Contrasena[2]=0;Contrasena[3]=0; 
03EC8:  MOVLB  5
03ECA:  CLRF   x1C
03ECC:  CLRF   x1D
03ECE:  CLRF   x1E
03ED0:  CLRF   x1F
....................             glcd_fillScreen(OFF);glcd_update(); 
03ED2:  MOVLB  6
03ED4:  CLRF   x46
03ED6:  MOVLB  0
03ED8:  RCALL  3B48
03EDA:  CALL   2C60
....................             return 1; 
03EDE:  MOVLW  01
03EE0:  MOVWF  01
03EE2:  BRA    4284
03EE4:  MOVLB  4
....................          } 
....................       } 
....................      
....................       if(unidad>4){ 
03EE6:  MOVF   xD9,W
03EE8:  SUBLW  04
03EEA:  BTFSC  FD8.0
03EEC:  BRA    4286
....................          glcd_fillScreen(OFF);unidad=1;flag_latencia=0;t_latencia=0; 
03EEE:  MOVLB  6
03EF0:  CLRF   x46
03EF2:  MOVLB  0
03EF4:  RCALL  3B48
03EF6:  MOVLW  01
03EF8:  MOVLB  4
03EFA:  MOVWF  xD9
03EFC:  BCF    x1C.3
03EFE:  CLRF   xF5
03F00:  CLRF   xF4
....................           
....................          if(Contrasena[0]==3&&Contrasena[1]==8&&Contrasena[2]==9&&Contrasena[3]==2 && MenuActual==0){ // Si Ingresa clave para reset general del sistema. 
03F02:  MOVLB  5
03F04:  MOVF   x1C,W
03F06:  SUBLW  03
03F08:  BTFSS  FD8.2
03F0A:  BRA    4004
03F0C:  MOVF   x1D,W
03F0E:  SUBLW  08
03F10:  BTFSS  FD8.2
03F12:  BRA    4004
03F14:  MOVF   x1E,W
03F16:  SUBLW  09
03F18:  BNZ   4004
03F1A:  MOVF   x1F,W
03F1C:  SUBLW  02
03F1E:  BNZ   4004
03F20:  MOVLB  6
03F22:  MOVF   x40,F
03F24:  BTFSC  FD8.2
03F26:  BRA    3F2C
03F28:  MOVLB  5
03F2A:  BRA    4004
....................             write_eeprom(0,0);delay_ms(20);write_eeprom(1,0);delay_ms(20);// Reestablece a contrasea de Fabrica y reinicia Programa. 
03F2C:  CLRF   FAA
03F2E:  CLRF   FA9
03F30:  CLRF   FA8
03F32:  BCF    FA6.6
03F34:  BCF    FA6.7
03F36:  BSF    FA6.2
03F38:  MOVF   FF2,W
03F3A:  MOVWF  00
03F3C:  BCF    FF2.7
03F3E:  MOVLB  F
03F40:  MOVLW  55
03F42:  MOVWF  FA7
03F44:  MOVLW  AA
03F46:  MOVWF  FA7
03F48:  BSF    FA6.1
03F4A:  BTFSC  FA6.1
03F4C:  BRA    3F4A
03F4E:  BCF    FA6.2
03F50:  MOVF   00,W
03F52:  IORWF  FF2,F
03F54:  MOVLW  14
03F56:  MOVLB  6
03F58:  MOVWF  x47
03F5A:  MOVLB  0
03F5C:  CALL   1512
03F60:  CLRF   FAA
03F62:  MOVLW  01
03F64:  MOVWF  FA9
03F66:  CLRF   FA8
03F68:  BCF    FA6.6
03F6A:  BCF    FA6.7
03F6C:  BSF    FA6.2
03F6E:  MOVF   FF2,W
03F70:  MOVWF  00
03F72:  BCF    FF2.7
03F74:  MOVLB  F
03F76:  MOVLW  55
03F78:  MOVWF  FA7
03F7A:  MOVLW  AA
03F7C:  MOVWF  FA7
03F7E:  BSF    FA6.1
03F80:  BTFSC  FA6.1
03F82:  BRA    3F80
03F84:  BCF    FA6.2
03F86:  MOVF   00,W
03F88:  IORWF  FF2,F
03F8A:  MOVLW  14
03F8C:  MOVLB  6
03F8E:  MOVWF  x47
03F90:  MOVLB  0
03F92:  CALL   1512
....................             write_eeprom(2,0);delay_ms(20);write_eeprom(3,0);delay_ms(20); 
03F96:  CLRF   FAA
03F98:  MOVLW  02
03F9A:  MOVWF  FA9
03F9C:  CLRF   FA8
03F9E:  BCF    FA6.6
03FA0:  BCF    FA6.7
03FA2:  BSF    FA6.2
03FA4:  MOVF   FF2,W
03FA6:  MOVWF  00
03FA8:  BCF    FF2.7
03FAA:  MOVLB  F
03FAC:  MOVLW  55
03FAE:  MOVWF  FA7
03FB0:  MOVLW  AA
03FB2:  MOVWF  FA7
03FB4:  BSF    FA6.1
03FB6:  BTFSC  FA6.1
03FB8:  BRA    3FB6
03FBA:  BCF    FA6.2
03FBC:  MOVF   00,W
03FBE:  IORWF  FF2,F
03FC0:  MOVLW  14
03FC2:  MOVLB  6
03FC4:  MOVWF  x47
03FC6:  MOVLB  0
03FC8:  CALL   1512
03FCC:  CLRF   FAA
03FCE:  MOVLW  03
03FD0:  MOVWF  FA9
03FD2:  CLRF   FA8
03FD4:  BCF    FA6.6
03FD6:  BCF    FA6.7
03FD8:  BSF    FA6.2
03FDA:  MOVF   FF2,W
03FDC:  MOVWF  00
03FDE:  BCF    FF2.7
03FE0:  MOVLB  F
03FE2:  MOVLW  55
03FE4:  MOVWF  FA7
03FE6:  MOVLW  AA
03FE8:  MOVWF  FA7
03FEA:  BSF    FA6.1
03FEC:  BTFSC  FA6.1
03FEE:  BRA    3FEC
03FF0:  BCF    FA6.2
03FF2:  MOVF   00,W
03FF4:  IORWF  FF2,F
03FF6:  MOVLW  14
03FF8:  MOVLB  6
03FFA:  MOVWF  x47
03FFC:  MOVLB  0
03FFE:  CALL   1512
....................             reset_cpu(); 
04002:  RESET
....................          } 
....................        
....................          if((Contrasena[0]==clave0)&&(Contrasena[1]==clave1)&&(Contrasena[2]==clave2)&&(Contrasena[3]==clave3)){ 
04004:  MOVLB  6
04006:  MOVF   x42,W
04008:  MOVLB  5
0400A:  SUBWF  x1C,W
0400C:  BTFSS  FD8.2
0400E:  BRA    40FE
04010:  MOVLB  6
04012:  MOVF   x43,W
04014:  MOVLB  5
04016:  SUBWF  x1D,W
04018:  BTFSS  FD8.2
0401A:  BRA    40FE
0401C:  MOVLB  6
0401E:  MOVF   x44,W
04020:  MOVLB  5
04022:  SUBWF  x1E,W
04024:  BNZ   40FE
04026:  MOVLB  6
04028:  MOVF   x45,W
0402A:  MOVLB  5
0402C:  SUBWF  x1F,W
0402E:  BNZ   40FE
....................             glcd_fillScreen(OFF); 
04030:  MOVLB  6
04032:  CLRF   x46
04034:  MOVLB  0
04036:  RCALL  3B48
....................             strcpy(Menus.Letra,"Clave"); 
04038:  MOVLW  06
0403A:  MOVWF  FEA
0403C:  MOVLW  28
0403E:  MOVWF  FE9
04040:  MOVFF  FF2,646
04044:  BCF    FF2.7
04046:  MOVLW  00
04048:  CALL   0F0A
0404C:  TBLRD*-
0404E:  TBLRD*+
04050:  MOVF   FF5,W
04052:  MOVWF  FEE
04054:  IORLW  00
04056:  BNZ   404E
04058:  MOVLB  6
0405A:  BTFSC  x46.7
0405C:  BSF    FF2.7
....................             displayMenu(Menus.Letra,30,0,0,2); 
0405E:  MOVLW  06
04060:  MOVWF  x47
04062:  MOVLW  28
04064:  MOVWF  x46
04066:  MOVLW  1E
04068:  MOVWF  x48
0406A:  CLRF   x49
0406C:  CLRF   x4A
0406E:  MOVLW  02
04070:  MOVWF  x4B
04072:  MOVLB  0
04074:  RCALL  3A7C
....................             strcpy(Menus.Letra,"Correcta"); 
04076:  MOVLW  06
04078:  MOVWF  FEA
0407A:  MOVLW  28
0407C:  MOVWF  FE9
0407E:  MOVFF  FF2,646
04082:  BCF    FF2.7
04084:  MOVLW  00
04086:  CALL   0F2E
0408A:  TBLRD*-
0408C:  TBLRD*+
0408E:  MOVF   FF5,W
04090:  MOVWF  FEE
04092:  IORLW  00
04094:  BNZ   408C
04096:  MOVLB  6
04098:  BTFSC  x46.7
0409A:  BSF    FF2.7
....................             displayMenu(Menus.Letra,15,30,0,2); 
0409C:  MOVLW  06
0409E:  MOVWF  x47
040A0:  MOVLW  28
040A2:  MOVWF  x46
040A4:  MOVLW  0F
040A6:  MOVWF  x48
040A8:  MOVLW  1E
040AA:  MOVWF  x49
040AC:  CLRF   x4A
040AE:  MOVLW  02
040B0:  MOVWF  x4B
040B2:  MOVLB  0
040B4:  RCALL  3A7C
....................             Menu=MenuPost;glcd_update();delay_ms(1000);glcd_fillScreen(OFF); 
040B6:  MOVFF  641,4D8
040BA:  CALL   2C60
040BE:  MOVLW  04
040C0:  MOVLB  6
040C2:  MOVWF  x46
040C4:  MOVLW  FA
040C6:  MOVWF  x47
040C8:  MOVLB  0
040CA:  CALL   1512
040CE:  MOVLB  6
040D0:  DECFSZ x46,F
040D2:  BRA    40C4
040D4:  CLRF   x46
040D6:  MOVLB  0
040D8:  RCALL  3B48
....................             Contrasena[0]=0;Contrasena[1]=0;Contrasena[2]=0;Contrasena[3]=0; 
040DA:  MOVLB  5
040DC:  CLRF   x1C
040DE:  CLRF   x1D
040E0:  CLRF   x1E
040E2:  CLRF   x1F
....................             if(MenuActual==0)tiempo_purga=1;n=0; 
040E4:  MOVLB  6
040E6:  MOVF   x40,F
040E8:  BNZ   40EE
040EA:  MOVLB  4
040EC:  BSF    x1B.6
040EE:  MOVLB  4
040F0:  BCF    x1C.7
....................             return 1; 
040F2:  MOVLW  01
040F4:  MOVWF  01
040F6:  MOVLB  0
040F8:  BRA    4284
....................          }else{ 
040FA:  BRA    4284
040FC:  MOVLB  5
....................             glcd_fillScreen(OFF); 
040FE:  MOVLB  6
04100:  CLRF   x46
04102:  MOVLB  0
04104:  RCALL  3B48
....................             strcpy(Menus.Letra,"Clave"); 
04106:  MOVLW  06
04108:  MOVWF  FEA
0410A:  MOVLW  28
0410C:  MOVWF  FE9
0410E:  MOVFF  FF2,646
04112:  BCF    FF2.7
04114:  MOVLW  00
04116:  CALL   0F0A
0411A:  TBLRD*-
0411C:  TBLRD*+
0411E:  MOVF   FF5,W
04120:  MOVWF  FEE
04122:  IORLW  00
04124:  BNZ   411C
04126:  MOVLB  6
04128:  BTFSC  x46.7
0412A:  BSF    FF2.7
....................             displayMenu(Menus.Letra,30,0,0,2); 
0412C:  MOVLW  06
0412E:  MOVWF  x47
04130:  MOVLW  28
04132:  MOVWF  x46
04134:  MOVLW  1E
04136:  MOVWF  x48
04138:  CLRF   x49
0413A:  CLRF   x4A
0413C:  MOVLW  02
0413E:  MOVWF  x4B
04140:  MOVLB  0
04142:  RCALL  3A7C
....................             strcpy(Menus.Letra,"Incorrecta"); 
04144:  MOVLW  06
04146:  MOVWF  FEA
04148:  MOVLW  28
0414A:  MOVWF  FE9
0414C:  MOVFF  FF2,646
04150:  BCF    FF2.7
04152:  MOVLW  00
04154:  CALL   0F56
04158:  TBLRD*-
0415A:  TBLRD*+
0415C:  MOVF   FF5,W
0415E:  MOVWF  FEE
04160:  IORLW  00
04162:  BNZ   415A
04164:  MOVLB  6
04166:  BTFSC  x46.7
04168:  BSF    FF2.7
....................             displayMenu(Menus.Letra,0,30,0,2); 
0416A:  MOVLW  06
0416C:  MOVWF  x47
0416E:  MOVLW  28
04170:  MOVWF  x46
04172:  CLRF   x48
04174:  MOVLW  1E
04176:  MOVWF  x49
04178:  CLRF   x4A
0417A:  MOVLW  02
0417C:  MOVWF  x4B
0417E:  MOVLB  0
04180:  RCALL  3A7C
....................             unidad=1;glcd_update();delay_ms(1000);Contrasena[0]=0;Contrasena[1]=0;Contrasena[2]=0;Contrasena[3]=0;glcd_fillScreen(OFF); 
04182:  MOVLW  01
04184:  MOVLB  4
04186:  MOVWF  xD9
04188:  MOVLB  0
0418A:  CALL   2C60
0418E:  MOVLW  04
04190:  MOVLB  6
04192:  MOVWF  x46
04194:  MOVLW  FA
04196:  MOVWF  x47
04198:  MOVLB  0
0419A:  CALL   1512
0419E:  MOVLB  6
041A0:  DECFSZ x46,F
041A2:  BRA    4194
041A4:  MOVLB  5
041A6:  CLRF   x1C
041A8:  CLRF   x1D
041AA:  CLRF   x1E
041AC:  CLRF   x1F
041AE:  MOVLB  6
041B0:  CLRF   x46
041B2:  MOVLB  0
041B4:  RCALL  3B48
....................             glcd_rect(0, 0, 127, 25, YES, ON);strcpy(Menus.Letra,"Clave");glcd_text57(25, 1, Menus.Letra, 3, OFF);displayContrasena(Contrasena[0],20,30,1); 
041B6:  MOVLB  6
041B8:  CLRF   x57
041BA:  CLRF   x58
041BC:  MOVLW  7F
041BE:  MOVWF  x59
041C0:  MOVLW  19
041C2:  MOVWF  x5A
041C4:  MOVLW  01
041C6:  MOVWF  x5B
041C8:  MOVWF  x5C
041CA:  MOVLB  0
041CC:  CALL   374C
041D0:  MOVLW  06
041D2:  MOVWF  FEA
041D4:  MOVLW  28
041D6:  MOVWF  FE9
041D8:  MOVFF  FF2,646
041DC:  BCF    FF2.7
041DE:  MOVLW  00
041E0:  CALL   0F0A
041E4:  TBLRD*-
041E6:  TBLRD*+
041E8:  MOVF   FF5,W
041EA:  MOVWF  FEE
041EC:  IORLW  00
041EE:  BNZ   41E6
041F0:  MOVLB  6
041F2:  BTFSC  x46.7
041F4:  BSF    FF2.7
041F6:  MOVLW  19
041F8:  MOVWF  x57
041FA:  MOVLW  01
041FC:  MOVWF  x58
041FE:  MOVLW  06
04200:  MOVWF  x5A
04202:  MOVLW  28
04204:  MOVWF  x59
04206:  MOVLW  03
04208:  MOVWF  x5B
0420A:  CLRF   x5C
0420C:  MOVLB  0
0420E:  CALL   380E
04212:  MOVFF  51C,648
04216:  MOVLW  14
04218:  MOVLB  6
0421A:  MOVWF  x49
0421C:  MOVLW  1E
0421E:  MOVWF  x4A
04220:  MOVLW  01
04222:  MOVWF  x4B
04224:  MOVLB  0
04226:  CALL   39C6
....................             displayContrasena(Contrasena[1],40,30,0);displayContrasena(Contrasena[2],60,30,0);displayContrasena(Contrasena[0],80,30,0); 
0422A:  MOVFF  51D,648
0422E:  MOVLW  28
04230:  MOVLB  6
04232:  MOVWF  x49
04234:  MOVLW  1E
04236:  MOVWF  x4A
04238:  CLRF   x4B
0423A:  MOVLB  0
0423C:  CALL   39C6
04240:  MOVFF  51E,648
04244:  MOVLW  3C
04246:  MOVLB  6
04248:  MOVWF  x49
0424A:  MOVLW  1E
0424C:  MOVWF  x4A
0424E:  CLRF   x4B
04250:  MOVLB  0
04252:  CALL   39C6
04256:  MOVFF  51C,648
0425A:  MOVLW  50
0425C:  MOVLB  6
0425E:  MOVWF  x49
04260:  MOVLW  1E
04262:  MOVWF  x4A
04264:  CLRF   x4B
04266:  MOVLB  0
04268:  CALL   39C6
....................             Menu=MenuAnt;glcd_fillScreen(OFF);n=0; 
0426C:  MOVFF  63F,4D8
04270:  MOVLB  6
04272:  CLRF   x46
04274:  MOVLB  0
04276:  RCALL  3B48
04278:  MOVLB  4
0427A:  BCF    x1C.7
....................             return 0; 
0427C:  MOVLW  00
0427E:  MOVWF  01
04280:  MOVLB  0
04282:  BRA    4284
04284:  MOVLB  4
....................          } 
....................       } 
.................... } 
04286:  MOVLB  0
04288:  RETLW  00
....................  
....................  
.................... //---Interrupcin TIMER0---// 
.................... #int_TIMER1 
.................... void temp1s(void){ 
....................    set_timer1(40536); 
*
013E2:  MOVLW  9E
013E4:  MOVWF  FCF
013E6:  MOVLW  58
013E8:  MOVWF  FCE
....................    tiempos++; 
013EA:  MOVLB  4
013EC:  INCF   x17,F
013EE:  BTFSC  FD8.2
013F0:  INCF   x18,F
....................     
....................    if(flag_latencia==1)    
013F2:  BTFSS  x1C.3
013F4:  BRA    13FC
....................       t_latencia++;          
013F6:  INCF   xF4,F
013F8:  BTFSC  FD8.2
013FA:  INCF   xF5,F
....................     
....................    if(t_latencia>=3000) 
013FC:  MOVF   xF5,W
013FE:  SUBLW  0A
01400:  BC    140E
01402:  XORLW  FF
01404:  BNZ   140C
01406:  MOVF   xF4,W
01408:  SUBLW  B7
0140A:  BC    140E
....................       Latencia=1; 
0140C:  BSF    x1C.2
....................                  
....................    if(tiempos>=200){ 
0140E:  MOVF   x18,F
01410:  BNZ   141A
01412:  MOVF   x17,W
01414:  SUBLW  C7
01416:  BTFSC  FD8.0
01418:  BRA    150A
....................       tiempos=0;imprimir=1;inicie++;Lectura=1;tiemporeset++; 
0141A:  CLRF   x18
0141C:  CLRF   x17
0141E:  BSF    x1A.7
01420:  INCF   xDB,F
01422:  BSF    x1C.6
01424:  INCF   xDF,F
....................        
....................       if(Alarma==5){ 
01426:  MOVF   xE9,W
01428:  SUBLW  05
0142A:  BNZ   143E
....................          if(flag_alarma2==0){ 
0142C:  BTFSC  x1D.0
0142E:  BRA    1438
....................             Alarma_on; 
01430:  BSF    F8B.1
01432:  BCF    F94.1
....................             flag_alarma2=1; 
01434:  BSF    x1D.0
....................          }else{ 
01436:  BRA    143E
....................             Alarma_off; 
01438:  BCF    F8B.1
0143A:  BCF    F94.1
....................             flag_alarma2=0; 
0143C:  BCF    x1D.0
....................          } 
....................       } 
....................     
....................       if(tiempo_postpurga){ 
0143E:  BTFSS  x1C.1
01440:  BRA    147E
....................          Tppurga[0]++; 
01442:  MOVLB  5
01444:  INCF   x04,F
....................          if(Tppurga[0]>9){ 
01446:  BTFSC  x04.7
01448:  BRA    1454
0144A:  MOVF   x04,W
0144C:  SUBLW  09
0144E:  BC    1454
....................             Tppurga[0]=0; 
01450:  CLRF   x04
....................             Tppurga[1]++; 
01452:  INCF   x05,F
....................          } 
....................          if(Tppurga[1]>5){   
01454:  BTFSC  x05.7
01456:  BRA    1462
01458:  MOVF   x05,W
0145A:  SUBLW  05
0145C:  BC    1462
....................             Tppurga[1]=0; 
0145E:  CLRF   x05
....................             Tppurga[2]++; 
01460:  INCF   x06,F
....................          } 
....................          if(Tppurga[2]>9){ 
01462:  BTFSC  x06.7
01464:  BRA    1470
01466:  MOVF   x06,W
01468:  SUBLW  09
0146A:  BC    1470
....................             Tppurga[2]=0; 
0146C:  CLRF   x06
....................             Tppurga[3]++; 
0146E:  INCF   x07,F
....................          } 
....................          if(Tppurga[3]>5){ 
01470:  BTFSC  x07.7
01472:  BRA    147C
01474:  MOVF   x07,W
01476:  SUBLW  05
01478:  BC    147C
....................             Tppurga[3]=0; 
0147A:  CLRF   x07
0147C:  MOVLB  4
....................          } 
....................       } 
....................     
....................       if(tiempo_uv==1){ 
0147E:  BTFSS  x1B.7
01480:  BRA    14C4
....................          segundos_uv++; 
01482:  INCF   xF6,F
01484:  BTFSC  FD8.2
01486:  INCF   xF7,F
....................        
....................          Tempouv[0]++; 
01488:  MOVLB  5
0148A:  INCF   x10,F
....................          if(Tempouv[0]>9){ 
0148C:  BTFSC  x10.7
0148E:  BRA    149A
01490:  MOVF   x10,W
01492:  SUBLW  09
01494:  BC    149A
....................             Tempouv[0]=0; 
01496:  CLRF   x10
....................             Tempouv[1]++; 
01498:  INCF   x11,F
....................          } 
....................          if(Tempouv[1]>5){ 
0149A:  BTFSC  x11.7
0149C:  BRA    14A8
0149E:  MOVF   x11,W
014A0:  SUBLW  05
014A2:  BC    14A8
....................             Tempouv[1]=0; 
014A4:  CLRF   x11
....................             Tempouv[2]++; 
014A6:  INCF   x12,F
....................          } 
....................          if(Tempouv[2]>9){ 
014A8:  BTFSC  x12.7
014AA:  BRA    14B6
014AC:  MOVF   x12,W
014AE:  SUBLW  09
014B0:  BC    14B6
....................             Tempouv[2]=0; 
014B2:  CLRF   x12
....................             Tempouv[3]++; 
014B4:  INCF   x13,F
....................          } 
....................          if(Tempouv[3]>5){ 
014B6:  BTFSC  x13.7
014B8:  BRA    14C2
014BA:  MOVF   x13,W
014BC:  SUBLW  05
014BE:  BC    14C2
....................             Tempouv[3]=0; 
014C0:  CLRF   x13
014C2:  MOVLB  4
....................          }      
....................       } 
....................     
....................       if(flag_blower==1) 
014C4:  BTFSS  x1B.1
014C6:  BRA    14CE
....................          minutos_trabajo++;  
014C8:  INCF   xF8,F
014CA:  BTFSC  FD8.2
014CC:  INCF   xF9,F
....................    
....................       if(tiempo_purga==1){                   
014CE:  BTFSS  x1B.6
014D0:  BRA    150A
....................          Tpurga[0]++; 
014D2:  INCF   xFC,F
....................          if(Tpurga[0]>9){ 
014D4:  BTFSC  xFC.7
014D6:  BRA    14E2
014D8:  MOVF   xFC,W
014DA:  SUBLW  09
014DC:  BC    14E2
....................             Tpurga[0]=0; 
014DE:  CLRF   xFC
....................             Tpurga[1]++; 
014E0:  INCF   xFD,F
....................          } 
....................          if(Tpurga[1]>5){ 
014E2:  BTFSC  xFD.7
014E4:  BRA    14F0
014E6:  MOVF   xFD,W
014E8:  SUBLW  05
014EA:  BC    14F0
....................             Tpurga[1]=0; 
014EC:  CLRF   xFD
....................             Tpurga[2]++; 
014EE:  INCF   xFE,F
....................          } 
....................          if(Tpurga[2]>9){ 
014F0:  BTFSC  xFE.7
014F2:  BRA    14FE
014F4:  MOVF   xFE,W
014F6:  SUBLW  09
014F8:  BC    14FE
....................             Tpurga[2]=0; 
014FA:  CLRF   xFE
....................             Tpurga[3]++; 
014FC:  INCF   xFF,F
....................          } 
....................          if(Tpurga[3]>5) 
014FE:  BTFSC  xFF.7
01500:  BRA    150A
01502:  MOVF   xFF,W
01504:  SUBLW  05
01506:  BC    150A
....................             Tpurga[3]=0; 
01508:  CLRF   xFF
....................       }          
....................    } 
.................... } 
....................  
0150A:  BCF    F9E.0
0150C:  MOVLB  0
0150E:  GOTO   0058
.................... void main(){ 
*
04B7C:  CLRF   FF8
04B7E:  BCF    FD0.7
04B80:  BSF    07.7
04B82:  CLRF   FEA
04B84:  CLRF   FE9
04B86:  MOVLB  4
04B88:  CLRF   x18
04B8A:  CLRF   x17
04B8C:  CLRF   x19
04B8E:  BCF    x1A.0
04B90:  BCF    x1A.1
04B92:  BCF    x1A.2
04B94:  BCF    x1A.3
04B96:  BCF    x1A.4
04B98:  BCF    x1A.5
04B9A:  BCF    x1A.6
04B9C:  BCF    x1A.7
04B9E:  BCF    x1B.0
04BA0:  BCF    x1B.1
04BA2:  BCF    x1B.2
04BA4:  BCF    x1B.3
04BA6:  BCF    x1B.4
04BA8:  BCF    x1B.5
04BAA:  BCF    x1B.6
04BAC:  BCF    x1B.7
04BAE:  BCF    x1C.0
04BB0:  BCF    x1C.1
04BB2:  BCF    x1C.2
04BB4:  BCF    x1C.3
04BB6:  BCF    x1C.4
04BB8:  BCF    x1C.5
04BBA:  BCF    x1C.6
04BBC:  BCF    x1C.7
04BBE:  BCF    x1D.0
04BC0:  MOVLW  C8
04BC2:  MOVWF  xD8
04BC4:  MOVLW  01
04BC6:  MOVWF  xD9
04BC8:  MOVWF  xDA
04BCA:  CLRF   xDB
04BCC:  MOVLW  0A
04BCE:  MOVWF  xDC
04BD0:  CLRF   xDD
04BD2:  CLRF   xDE
04BD4:  CLRF   xDF
04BD6:  CLRF   xE0
04BD8:  CLRF   xE1
04BDA:  CLRF   xE2
04BDC:  CLRF   xE3
04BDE:  CLRF   xE4
04BE0:  CLRF   xE5
04BE2:  CLRF   xE6
04BE4:  MOVWF  xE7
04BE6:  MOVWF  xE8
04BE8:  MOVWF  xE9
04BEA:  CLRF   xEA
04BEC:  CLRF   xEB
04BEE:  CLRF   xEC
04BF0:  CLRF   xED
04BF2:  CLRF   xEF
04BF4:  CLRF   xEE
04BF6:  CLRF   xF1
04BF8:  CLRF   xF0
04BFA:  CLRF   xF3
04BFC:  CLRF   xF2
04BFE:  CLRF   xF5
04C00:  CLRF   xF4
04C02:  CLRF   xF7
04C04:  CLRF   xF6
04C06:  CLRF   xF9
04C08:  CLRF   xF8
04C0A:  CLRF   xFB
04C0C:  CLRF   xFA
04C0E:  MOVLB  5
04C10:  CLRF   x27
04C12:  CLRF   x26
04C14:  CLRF   x25
04C16:  CLRF   x24
04C18:  CLRF   x2B
04C1A:  CLRF   x2A
04C1C:  CLRF   x29
04C1E:  CLRF   x28
04C20:  CLRF   x2F
04C22:  CLRF   x2E
04C24:  CLRF   x2D
04C26:  CLRF   x2C
04C28:  CLRF   x33
04C2A:  CLRF   x32
04C2C:  CLRF   x31
04C2E:  CLRF   x30
04C30:  CLRF   x37
04C32:  CLRF   x36
04C34:  CLRF   x35
04C36:  CLRF   x34
04C38:  CLRF   x3B
04C3A:  CLRF   x3A
04C3C:  CLRF   x39
04C3E:  CLRF   x38
04C40:  CLRF   x3F
04C42:  CLRF   x3E
04C44:  CLRF   x3D
04C46:  CLRF   x3C
04C48:  CLRF   x43
04C4A:  CLRF   x42
04C4C:  CLRF   x41
04C4E:  CLRF   x40
04C50:  CLRF   x47
04C52:  CLRF   x46
04C54:  CLRF   x45
04C56:  CLRF   x44
04C58:  CLRF   x4B
04C5A:  CLRF   x4A
04C5C:  CLRF   x49
04C5E:  CLRF   x48
04C60:  CLRF   x4F
04C62:  CLRF   x4E
04C64:  CLRF   x4D
04C66:  CLRF   x4C
04C68:  CLRF   x53
04C6A:  CLRF   x52
04C6C:  CLRF   x51
04C6E:  CLRF   x50
04C70:  CLRF   x57
04C72:  CLRF   x56
04C74:  CLRF   x55
04C76:  CLRF   x54
04C78:  CLRF   x5B
04C7A:  CLRF   x5A
04C7C:  CLRF   x59
04C7E:  CLRF   x58
04C80:  CLRF   x5F
04C82:  CLRF   x5E
04C84:  CLRF   x5D
04C86:  CLRF   x5C
04C88:  CLRF   x63
04C8A:  CLRF   x62
04C8C:  CLRF   x61
04C8E:  CLRF   x60
04C90:  CLRF   x67
04C92:  CLRF   x66
04C94:  CLRF   x65
04C96:  CLRF   x64
04C98:  MOVLW  19
04C9A:  MOVWF  x6B
04C9C:  MOVLW  53
04C9E:  MOVWF  x6A
04CA0:  MOVLW  18
04CA2:  MOVWF  x69
04CA4:  MOVLW  68
04CA6:  MOVWF  x68
04CA8:  MOVLW  E9
04CAA:  MOVWF  x6F
04CAC:  MOVLW  BD
04CAE:  MOVWF  x6E
04CB0:  MOVLW  C6
04CB2:  MOVWF  x6D
04CB4:  MOVLW  71
04CB6:  MOVWF  x6C
04CB8:  MOVLW  BE
04CBA:  MOVWF  x73
04CBC:  MOVLW  96
04CBE:  MOVWF  x72
04CC0:  MOVLW  24
04CC2:  MOVWF  x71
04CC4:  MOVLW  7A
04CC6:  MOVWF  x70
04CC8:  MOVLW  F3
04CCA:  MOVWF  x77
04CCC:  MOVLW  5A
04CCE:  MOVWF  x76
04CD0:  MOVLW  AB
04CD2:  MOVWF  x75
04CD4:  MOVLW  81
04CD6:  MOVWF  x74
04CD8:  CLRF   xBB
04CDA:  CLRF   xBA
04CDC:  CLRF   xB9
04CDE:  CLRF   xB8
04CE0:  CLRF   xBF
04CE2:  CLRF   xBE
04CE4:  MOVLW  4B
04CE6:  MOVWF  xBD
04CE8:  MOVLW  86
04CEA:  MOVWF  xBC
04CEC:  CLRF   xC3
04CEE:  CLRF   xC2
04CF0:  CLRF   xC1
04CF2:  CLRF   xC0
04CF4:  CLRF   xC7
04CF6:  CLRF   xC6
04CF8:  CLRF   xC5
04CFA:  CLRF   xC4
04CFC:  CLRF   xCB
04CFE:  CLRF   xCA
04D00:  CLRF   xC9
04D02:  CLRF   xC8
04D04:  CLRF   xCF
04D06:  CLRF   xCE
04D08:  CLRF   xCD
04D0A:  MOVLW  80
04D0C:  MOVWF  xCC
04D0E:  CLRF   xD3
04D10:  CLRF   xD2
04D12:  CLRF   xD1
04D14:  CLRF   xD0
04D16:  MOVLW  85
04D18:  MOVWF  xD7
04D1A:  MOVLW  EB
04D1C:  MOVWF  xD6
04D1E:  MOVLW  11
04D20:  MOVWF  xD5
04D22:  MOVLW  7E
04D24:  MOVWF  xD4
04D26:  MOVF   FC1,W
04D28:  ANDLW  C0
04D2A:  IORLW  0F
04D2C:  MOVWF  FC1
04D2E:  MOVLW  07
04D30:  MOVWF  FB4
04D32:  MOVLW  4A
04D34:  MOVLB  4
04D36:  MOVWF  x1E
04D38:  MOVLW  50
04D3A:  MOVWF  x1F
04D3C:  MOVLW  20
04D3E:  MOVWF  x20
04D40:  MOVLW  49
04D42:  MOVWF  x21
04D44:  MOVLW  6E
04D46:  MOVWF  x22
04D48:  MOVLW  67
04D4A:  MOVWF  x23
04D4C:  MOVLW  6C
04D4E:  MOVWF  x24
04D50:  MOVLW  6F
04D52:  MOVWF  x25
04D54:  MOVLW  62
04D56:  MOVWF  x26
04D58:  MOVLW  61
04D5A:  MOVWF  x27
04D5C:  MOVLW  6C
04D5E:  MOVWF  x28
04D60:  CLRF   x29
04D62:  MOVLW  43
04D64:  MOVWF  x2A
04D66:  MOVLW  61
04D68:  MOVWF  x2B
04D6A:  MOVLW  62
04D6C:  MOVWF  x2C
04D6E:  MOVLW  69
04D70:  MOVWF  x2D
04D72:  MOVLW  6E
04D74:  MOVWF  x2E
04D76:  MOVLW  61
04D78:  MOVWF  x2F
04D7A:  MOVLW  20
04D7C:  MOVWF  x30
04D7E:  MOVLW  46
04D80:  MOVWF  x31
04D82:  MOVLW  6C
04D84:  MOVWF  x32
04D86:  MOVLW  75
04D88:  MOVWF  x33
04D8A:  MOVLW  6A
04D8C:  MOVWF  x34
04D8E:  MOVLW  6F
04D90:  MOVWF  x35
04D92:  MOVLW  20
04D94:  MOVWF  x36
04D96:  MOVLW  4C
04D98:  MOVWF  x37
04D9A:  MOVLW  61
04D9C:  MOVWF  x38
04D9E:  MOVLW  6D
04DA0:  MOVWF  x39
04DA2:  MOVLW  69
04DA4:  MOVWF  x3A
04DA6:  MOVLW  6E
04DA8:  MOVWF  x3B
04DAA:  MOVLW  61
04DAC:  MOVWF  x3C
04DAE:  MOVLW  72
04DB0:  MOVWF  x3D
04DB2:  CLRF   x3E
04DB4:  MOVLW  54
04DB6:  MOVWF  x3F
04DB8:  MOVLW  20
04DBA:  MOVWF  x40
04DBC:  MOVLW  65
04DBE:  MOVWF  x41
04DC0:  MOVLW  73
04DC2:  MOVWF  x42
04DC4:  MOVLW  74
04DC6:  MOVWF  x43
04DC8:  MOVLW  3D
04DCA:  MOVWF  x44
04DCC:  CLRF   x45
04DCE:  MOVLW  3A
04DD0:  MOVWF  x46
04DD2:  CLRF   x47
04DD4:  MOVLW  48
04DD6:  MOVWF  x48
04DD8:  MOVLW  6F
04DDA:  MOVWF  x49
04DDC:  MOVLW  72
04DDE:  MOVWF  x4A
04DE0:  MOVLW  69
04DE2:  MOVWF  x4B
04DE4:  MOVLW  7A
04DE6:  MOVWF  x4C
04DE8:  MOVLW  6F
04DEA:  MOVWF  x4D
04DEC:  MOVLW  6E
04DEE:  MOVWF  x4E
04DF0:  MOVLW  74
04DF2:  MOVWF  x4F
04DF4:  MOVLW  61
04DF6:  MOVWF  x50
04DF8:  MOVLW  6C
04DFA:  MOVWF  x51
04DFC:  CLRF   x52
04DFE:  MOVLW  54
04E00:  MOVWF  x53
04E02:  MOVLW  69
04E04:  MOVWF  x54
04E06:  MOVLW  65
04E08:  MOVWF  x55
04E0A:  MOVLW  6D
04E0C:  MOVWF  x56
04E0E:  MOVLW  70
04E10:  MOVWF  x57
04E12:  MOVLW  6F
04E14:  MOVWF  x58
04E16:  MOVLW  20
04E18:  MOVWF  x59
04E1A:  MOVLW  64
04E1C:  MOVWF  x5A
04E1E:  MOVLW  65
04E20:  MOVWF  x5B
04E22:  MOVLW  20
04E24:  MOVWF  x5C
04E26:  MOVLW  50
04E28:  MOVWF  x5D
04E2A:  MOVLW  75
04E2C:  MOVWF  x5E
04E2E:  MOVLW  72
04E30:  MOVWF  x5F
04E32:  MOVLW  67
04E34:  MOVWF  x60
04E36:  MOVLW  61
04E38:  MOVWF  x61
04E3A:  CLRF   x62
04E3C:  MOVLW  55
04E3E:  MOVWF  x63
04E40:  MOVLW  56
04E42:  MOVWF  x64
04E44:  CLRF   x65
04E46:  MOVLW  21
04E48:  MOVWF  x66
04E4A:  MOVWF  x67
04E4C:  MOVLW  55
04E4E:  MOVWF  x68
04E50:  MOVLW  62
04E52:  MOVWF  x69
04E54:  MOVLW  69
04E56:  MOVWF  x6A
04E58:  MOVLW  71
04E5A:  MOVWF  x6B
04E5C:  MOVLW  75
04E5E:  MOVWF  x6C
04E60:  MOVLW  65
04E62:  MOVWF  x6D
04E64:  MOVLW  20
04E66:  MOVWF  x6E
04E68:  MOVLW  56
04E6A:  MOVWF  x6F
04E6C:  MOVLW  69
04E6E:  MOVWF  x70
04E70:  MOVLW  64
04E72:  MOVWF  x71
04E74:  MOVLW  72
04E76:  MOVWF  x72
04E78:  MOVLW  69
04E7A:  MOVWF  x73
04E7C:  MOVLW  6F
04E7E:  MOVWF  x74
04E80:  MOVLW  21
04E82:  MOVWF  x75
04E84:  MOVWF  x76
04E86:  CLRF   x77
04E88:  MOVLW  46
04E8A:  MOVWF  x78
04E8C:  MOVLW  6C
04E8E:  MOVWF  x79
04E90:  MOVLW  6F
04E92:  MOVWF  x7A
04E94:  MOVLW  77
04E96:  MOVWF  x7B
04E98:  MOVLW  20
04E9A:  MOVWF  x7C
04E9C:  MOVLW  28
04E9E:  MOVWF  x7D
04EA0:  MOVLW  6D
04EA2:  MOVWF  x7E
04EA4:  MOVLW  2F
04EA6:  MOVWF  x7F
04EA8:  MOVLW  73
04EAA:  MOVWF  x80
04EAC:  MOVLW  29
04EAE:  MOVWF  x81
04EB0:  MOVLW  20
04EB2:  MOVWF  x82
04EB4:  MOVLW  3A
04EB6:  MOVWF  x83
04EB8:  CLRF   x84
04EBA:  MOVLW  4A
04EBC:  MOVWF  x85
04EBE:  MOVLW  50
04EC0:  MOVWF  x86
04EC2:  MOVLW  43
04EC4:  MOVWF  x87
04EC6:  MOVLW  46
04EC8:  MOVWF  x88
04ECA:  MOVLW  4C
04ECC:  MOVWF  x89
04ECE:  MOVLW  48
04ED0:  MOVWF  x8A
04ED2:  CLRF   x8B
04ED4:  MOVLW  46
04ED6:  MOVWF  x8C
04ED8:  MOVLW  61
04EDA:  MOVWF  x8D
04EDC:  MOVLW  62
04EDE:  MOVWF  x8E
04EE0:  MOVLW  72
04EE2:  MOVWF  x8F
04EE4:  MOVLW  69
04EE6:  MOVWF  x90
04EE8:  MOVLW  63
04EEA:  MOVWF  x91
04EEC:  MOVLW  61
04EEE:  MOVWF  x92
04EF0:  MOVLW  3A
04EF2:  MOVWF  x93
04EF4:  MOVLW  32
04EF6:  MOVWF  x94
04EF8:  MOVLW  30
04EFA:  MOVWF  x95
04EFC:  MOVLW  33
04EFE:  MOVWF  x96
04F00:  MOVLW  2E
04F02:  MOVWF  x97
04F04:  MOVLW  30
04F06:  MOVWF  x98
04F08:  CLRF   x99
04F0A:  MOVLW  41
04F0C:  MOVWF  x9A
04F0E:  MOVLW  63
04F10:  MOVWF  x9B
04F12:  MOVLW  74
04F14:  MOVWF  x9C
04F16:  MOVLW  75
04F18:  MOVWF  x9D
04F1A:  MOVLW  61
04F1C:  MOVWF  x9E
04F1E:  MOVLW  6C
04F20:  MOVWF  x9F
04F22:  MOVLW  3A
04F24:  MOVWF  xA0
04F26:  CLRF   xA1
04F28:  MOVLW  41
04F2A:  MOVWF  xA2
04F2C:  MOVLW  6A
04F2E:  MOVWF  xA3
04F30:  MOVLW  75
04F32:  MOVWF  xA4
04F34:  MOVLW  73
04F36:  MOVWF  xA5
04F38:  MOVLW  74
04F3A:  MOVWF  xA6
04F3C:  MOVLW  65
04F3E:  MOVWF  xA7
04F40:  MOVLW  3A
04F42:  MOVWF  xA8
04F44:  CLRF   xA9
04F46:  MOVLW  55
04F48:  MOVWF  xAA
04F4A:  MOVLW  56
04F4C:  MOVWF  xAB
04F4E:  MOVLW  4C
04F50:  MOVWF  xAC
04F52:  MOVLW  69
04F54:  MOVWF  xAD
04F56:  MOVLW  66
04F58:  MOVWF  xAE
04F5A:  MOVLW  65
04F5C:  MOVWF  xAF
04F5E:  MOVLW  3A
04F60:  MOVWF  xB0
04F62:  CLRF   xB1
04F64:  MOVLW  46
04F66:  MOVWF  xB2
04F68:  MOVLW  69
04F6A:  MOVWF  xB3
04F6C:  MOVLW  6C
04F6E:  MOVWF  xB4
04F70:  MOVLW  74
04F72:  MOVWF  xB5
04F74:  MOVLW  65
04F76:  MOVWF  xB6
04F78:  MOVLW  72
04F7A:  MOVWF  xB7
04F7C:  MOVLW  3A
04F7E:  MOVWF  xB8
04F80:  CLRF   xB9
04F82:  MOVLW  46
04F84:  MOVWF  xBA
04F86:  MOVLW  61
04F88:  MOVWF  xBB
04F8A:  MOVLW  62
04F8C:  MOVWF  xBC
04F8E:  MOVLW  72
04F90:  MOVWF  xBD
04F92:  MOVLW  69
04F94:  MOVWF  xBE
04F96:  MOVLW  63
04F98:  MOVWF  xBF
04F9A:  MOVLW  61
04F9C:  MOVWF  xC0
04F9E:  MOVLW  3A
04FA0:  MOVWF  xC1
04FA2:  MOVLW  32
04FA4:  MOVWF  xC2
04FA6:  MOVLW  33
04FA8:  MOVWF  xC3
04FAA:  MOVLW  35
04FAC:  MOVWF  xC4
04FAE:  MOVLW  2E
04FB0:  MOVWF  xC5
04FB2:  MOVLW  30
04FB4:  MOVWF  xC6
04FB6:  CLRF   xC7
04FB8:  MOVLW  21
04FBA:  MOVWF  xC8
04FBC:  MOVLW  50
04FBE:  MOVWF  xC9
04FC0:  MOVLW  65
04FC2:  MOVWF  xCA
04FC4:  MOVLW  72
04FC6:  MOVWF  xCB
04FC8:  MOVLW  64
04FCA:  MOVWF  xCC
04FCC:  MOVLW  69
04FCE:  MOVWF  xCD
04FD0:  MOVLW  64
04FD2:  MOVWF  xCE
04FD4:  MOVLW  61
04FD6:  MOVWF  xCF
04FD8:  MOVLW  20
04FDA:  MOVWF  xD0
04FDC:  MOVLW  46
04FDE:  MOVWF  xD1
04FE0:  MOVLW  6C
04FE2:  MOVWF  xD2
04FE4:  MOVLW  75
04FE6:  MOVWF  xD3
04FE8:  MOVLW  6A
04FEA:  MOVWF  xD4
04FEC:  MOVLW  6F
04FEE:  MOVWF  xD5
04FF0:  MOVLW  21
04FF2:  MOVWF  xD6
04FF4:  CLRF   xD7
04FF6:  CLRF   xFC
04FF8:  CLRF   xFD
04FFA:  CLRF   xFE
04FFC:  CLRF   xFF
04FFE:  MOVLW  09
05000:  MOVLB  5
05002:  MOVWF  x00
05004:  CLRF   x01
05006:  CLRF   x02
05008:  CLRF   x03
0500A:  CLRF   x04
0500C:  CLRF   x05
0500E:  CLRF   x06
05010:  CLRF   x07
05012:  MOVWF  x08
05014:  CLRF   x09
05016:  CLRF   x0A
05018:  CLRF   x0B
0501A:  CLRF   x0C
0501C:  CLRF   x0D
0501E:  CLRF   x0E
05020:  CLRF   x0F
05022:  CLRF   x10
05024:  CLRF   x11
05026:  CLRF   x12
05028:  CLRF   x13
0502A:  CLRF   x14
0502C:  CLRF   x15
0502E:  CLRF   x16
05030:  CLRF   x17
05032:  CLRF   x18
05034:  CLRF   x19
05036:  CLRF   x1A
05038:  CLRF   x1B
0503A:  CLRF   x1C
0503C:  CLRF   x1D
0503E:  CLRF   x1E
05040:  CLRF   x1F
05042:  CLRF   x20
05044:  CLRF   x21
05046:  CLRF   x22
05048:  CLRF   x23
0504A:  CLRF   x78
0504C:  CLRF   x79
0504E:  CLRF   x7A
05050:  CLRF   x7B
05052:  CLRF   x7C
05054:  CLRF   x7D
05056:  CLRF   x7E
05058:  CLRF   x7F
0505A:  CLRF   x80
0505C:  CLRF   x81
0505E:  CLRF   x82
05060:  CLRF   x83
05062:  CLRF   x84
05064:  CLRF   x85
05066:  CLRF   x86
05068:  CLRF   x87
0506A:  CLRF   x88
0506C:  CLRF   x89
0506E:  CLRF   x8A
05070:  CLRF   x8B
05072:  CLRF   x8C
05074:  CLRF   x8D
05076:  CLRF   x8E
05078:  CLRF   x8F
0507A:  CLRF   x90
0507C:  CLRF   x91
0507E:  CLRF   x92
05080:  CLRF   x93
05082:  CLRF   x94
05084:  CLRF   x95
05086:  CLRF   x96
05088:  CLRF   x97
0508A:  CLRF   x98
0508C:  CLRF   x99
0508E:  CLRF   x9A
05090:  CLRF   x9B
05092:  CLRF   x9C
05094:  CLRF   x9D
05096:  CLRF   x9E
05098:  CLRF   x9F
0509A:  CLRF   xA0
0509C:  CLRF   xA1
0509E:  CLRF   xA2
050A0:  CLRF   xA3
050A2:  CLRF   xA4
050A4:  CLRF   xA5
050A6:  CLRF   xA6
050A8:  CLRF   xA7
050AA:  CLRF   xA8
050AC:  CLRF   xA9
050AE:  CLRF   xAA
050B0:  CLRF   xAB
050B2:  CLRF   xAC
050B4:  CLRF   xAD
050B6:  CLRF   xAE
050B8:  CLRF   xAF
050BA:  CLRF   xB0
050BC:  CLRF   xB1
050BE:  CLRF   xB2
050C0:  CLRF   xB3
050C2:  CLRF   xB4
050C4:  CLRF   xB5
050C6:  CLRF   xB6
050C8:  CLRF   xB7
050CA:  MOVLB  6
050CC:  CLRF   x3C
050CE:  CLRF   x3D
....................  
....................    setup_timer_1(T1_INTERNAL|T1_DIV_BY_1);    
050D0:  MOVLW  85
050D2:  MOVWF  FCD
....................    enable_interrupts(INT_TIMER1); 
050D4:  BSF    F9D.0
....................    setup_adc_ports(AN0_TO_AN1); 
050D6:  MOVF   FC1,W
050D8:  ANDLW  C0
050DA:  IORLW  0D
050DC:  MOVWF  FC1
....................    setup_adc(ADC_CLOCK_DIV_32 ); 
050DE:  MOVF   FC0,W
050E0:  ANDLW  C0
050E2:  IORLW  02
050E4:  MOVWF  FC0
050E6:  BSF    FC0.7
050E8:  BSF    FC2.0
....................    enable_interrupts(global);    
050EA:  MOVLW  C0
050EC:  IORWF  FF2,F
....................     
....................    LeeEEPROM(); // Lectura de variables almacenadas en la EEPROM 
050EE:  MOVLB  0
050F0:  GOTO   1946
....................     
....................    LimitaValores(); 
050F4:  GOTO   2216
....................     
....................    while(true){ 
....................     
....................    glcd_update(); 
050F8:  CALL   2C60
....................  
.................... //**Actualizacin de Lectura de Sensores**// 
....................    if(Lectura==1){ 
050FC:  MOVLB  4
050FE:  BTFSS  x1C.6
05100:  BRA    513E
....................       Lectura=0; 
05102:  BCF    x1C.6
....................       InFlow=LeerFlujoInFlow(8); 
05104:  MOVLW  08
05106:  MOVLB  6
05108:  MOVWF  x3E
0510A:  MOVLB  0
0510C:  GOTO   2E4C
05110:  MOVFF  03,527
05114:  MOVFF  02,526
05118:  MOVFF  01,525
0511C:  MOVFF  00,524
....................       Filtro_DownFlow=Leer_Sensor_Presion(8); 
05120:  MOVLW  08
05122:  MOVLB  6
05124:  MOVWF  x3E
05126:  MOVLB  0
05128:  GOTO   321C
0512C:  MOVFF  03,52F
05130:  MOVFF  02,52E
05134:  MOVFF  01,52D
05138:  MOVFF  00,52C
0513C:  MOVLB  4
....................    } 
.................... //----------------------------------------// 
....................  
.................... //**Contador de Tiempo de Trabajo del filtro**// 
....................    if(minutos_trabajo>=3600){ // Tiempo de Trabajo 
0513E:  MOVF   xF9,W
05140:  SUBLW  0D
05142:  BTFSC  FD8.0
05144:  BRA    52EC
05146:  XORLW  FF
05148:  BNZ   5152
0514A:  MOVF   xF8,W
0514C:  SUBLW  0F
0514E:  BTFSC  FD8.0
05150:  BRA    52EC
....................       minutos_trabajo=0; //Minutos Trabajo realmente son segundos. 
05152:  CLRF   xF9
05154:  CLRF   xF8
....................       write_eeprom(33,make8(minutos_trabajo,0)); 
05156:  MOVFF  4F8,63E
0515A:  CLRF   FAA
0515C:  MOVLW  21
0515E:  MOVWF  FA9
05160:  MOVFF  63E,FA8
05164:  BCF    FA6.6
05166:  BCF    FA6.7
05168:  BSF    FA6.2
0516A:  MOVF   FF2,W
0516C:  MOVWF  00
0516E:  BCF    FF2.7
05170:  MOVLB  F
05172:  MOVLW  55
05174:  MOVWF  FA7
05176:  MOVLW  AA
05178:  MOVWF  FA7
0517A:  BSF    FA6.1
0517C:  BTFSC  FA6.1
0517E:  BRA    517C
05180:  BCF    FA6.2
05182:  MOVF   00,W
05184:  IORWF  FF2,F
....................       delay_ms(20); 
05186:  MOVLW  14
05188:  MOVLB  6
0518A:  MOVWF  x47
0518C:  MOVLB  0
0518E:  CALL   1512
....................       write_eeprom(34,make8(minutos_trabajo,1)); 
05192:  MOVFF  4F9,63E
05196:  CLRF   FAA
05198:  MOVLW  22
0519A:  MOVWF  FA9
0519C:  MOVFF  63E,FA8
051A0:  BCF    FA6.6
051A2:  BCF    FA6.7
051A4:  BSF    FA6.2
051A6:  MOVF   FF2,W
051A8:  MOVWF  00
051AA:  BCF    FF2.7
051AC:  MOVLB  F
051AE:  MOVLW  55
051B0:  MOVWF  FA7
051B2:  MOVLW  AA
051B4:  MOVWF  FA7
051B6:  BSF    FA6.1
051B8:  BTFSC  FA6.1
051BA:  BRA    51B8
051BC:  BCF    FA6.2
051BE:  MOVF   00,W
051C0:  IORWF  FF2,F
....................       delay_ms(20); 
051C2:  MOVLW  14
051C4:  MOVLB  6
051C6:  MOVWF  x47
051C8:  MOVLB  0
051CA:  CALL   1512
....................       Ttrabajo[0]++; 
051CE:  MOVLB  5
051D0:  INCF   x18,F
....................       if(Ttrabajo[0]>9){ 
051D2:  BTFSC  x18.7
051D4:  BRA    51E0
051D6:  MOVF   x18,W
051D8:  SUBLW  09
051DA:  BC    51E0
....................          Ttrabajo[0]=0; 
051DC:  CLRF   x18
....................          Ttrabajo[1]++; 
051DE:  INCF   x19,F
....................       } 
....................       if(Ttrabajo[1]>9){ 
051E0:  BTFSC  x19.7
051E2:  BRA    51EE
051E4:  MOVF   x19,W
051E6:  SUBLW  09
051E8:  BC    51EE
....................          Ttrabajo[1]=0; 
051EA:  CLRF   x19
....................          Ttrabajo[2]++; 
051EC:  INCF   x1A,F
....................       } 
....................       if(Ttrabajo[2]>9){ 
051EE:  BTFSC  x1A.7
051F0:  BRA    51FC
051F2:  MOVF   x1A,W
051F4:  SUBLW  09
051F6:  BC    51FC
....................          Ttrabajo[2]=0; 
051F8:  CLRF   x1A
....................          Ttrabajo[3]++; 
051FA:  INCF   x1B,F
....................       } 
....................       if(Ttrabajo[3]>9){ 
051FC:  BTFSC  x1B.7
051FE:  BRA    5208
05200:  MOVF   x1B,W
05202:  SUBLW  09
05204:  BC    5208
....................          Ttrabajo[3]=0; 
05206:  CLRF   x1B
....................       } 
....................       write_eeprom(16,Ttrabajo[0]); 
05208:  CLRF   FAA
0520A:  MOVLW  10
0520C:  MOVWF  FA9
0520E:  MOVFF  518,FA8
05212:  BCF    FA6.6
05214:  BCF    FA6.7
05216:  BSF    FA6.2
05218:  MOVF   FF2,W
0521A:  MOVWF  00
0521C:  BCF    FF2.7
0521E:  MOVLB  F
05220:  MOVLW  55
05222:  MOVWF  FA7
05224:  MOVLW  AA
05226:  MOVWF  FA7
05228:  BSF    FA6.1
0522A:  BTFSC  FA6.1
0522C:  BRA    522A
0522E:  BCF    FA6.2
05230:  MOVF   00,W
05232:  IORWF  FF2,F
....................       delay_ms(20); 
05234:  MOVLW  14
05236:  MOVLB  6
05238:  MOVWF  x47
0523A:  MOVLB  0
0523C:  CALL   1512
....................       write_eeprom(17,Ttrabajo[1]); 
05240:  CLRF   FAA
05242:  MOVLW  11
05244:  MOVWF  FA9
05246:  MOVFF  519,FA8
0524A:  BCF    FA6.6
0524C:  BCF    FA6.7
0524E:  BSF    FA6.2
05250:  MOVF   FF2,W
05252:  MOVWF  00
05254:  BCF    FF2.7
05256:  MOVLB  F
05258:  MOVLW  55
0525A:  MOVWF  FA7
0525C:  MOVLW  AA
0525E:  MOVWF  FA7
05260:  BSF    FA6.1
05262:  BTFSC  FA6.1
05264:  BRA    5262
05266:  BCF    FA6.2
05268:  MOVF   00,W
0526A:  IORWF  FF2,F
....................       delay_ms(20); 
0526C:  MOVLW  14
0526E:  MOVLB  6
05270:  MOVWF  x47
05272:  MOVLB  0
05274:  CALL   1512
....................       write_eeprom(18,Ttrabajo[2]); 
05278:  CLRF   FAA
0527A:  MOVLW  12
0527C:  MOVWF  FA9
0527E:  MOVFF  51A,FA8
05282:  BCF    FA6.6
05284:  BCF    FA6.7
05286:  BSF    FA6.2
05288:  MOVF   FF2,W
0528A:  MOVWF  00
0528C:  BCF    FF2.7
0528E:  MOVLB  F
05290:  MOVLW  55
05292:  MOVWF  FA7
05294:  MOVLW  AA
05296:  MOVWF  FA7
05298:  BSF    FA6.1
0529A:  BTFSC  FA6.1
0529C:  BRA    529A
0529E:  BCF    FA6.2
052A0:  MOVF   00,W
052A2:  IORWF  FF2,F
....................       delay_ms(20); 
052A4:  MOVLW  14
052A6:  MOVLB  6
052A8:  MOVWF  x47
052AA:  MOVLB  0
052AC:  CALL   1512
....................       write_eeprom(19,Ttrabajo[3]); 
052B0:  CLRF   FAA
052B2:  MOVLW  13
052B4:  MOVWF  FA9
052B6:  MOVFF  51B,FA8
052BA:  BCF    FA6.6
052BC:  BCF    FA6.7
052BE:  BSF    FA6.2
052C0:  MOVF   FF2,W
052C2:  MOVWF  00
052C4:  BCF    FF2.7
052C6:  MOVLB  F
052C8:  MOVLW  55
052CA:  MOVWF  FA7
052CC:  MOVLW  AA
052CE:  MOVWF  FA7
052D0:  BSF    FA6.1
052D2:  BTFSC  FA6.1
052D4:  BRA    52D2
052D6:  BCF    FA6.2
052D8:  MOVF   00,W
052DA:  IORWF  FF2,F
....................       delay_ms(20); 
052DC:  MOVLW  14
052DE:  MOVLB  6
052E0:  MOVWF  x47
052E2:  MOVLB  0
052E4:  CALL   1512
....................    }else if(minutos_trabajo==900 || minutos_trabajo==1800 || minutos_trabajo==2700 ){ 
052E8:  BRA    5388
052EA:  MOVLB  4
052EC:  MOVF   xF8,W
052EE:  SUBLW  84
052F0:  BNZ   52F8
052F2:  MOVF   xF9,W
052F4:  SUBLW  03
052F6:  BZ    5310
052F8:  MOVF   xF8,W
052FA:  SUBLW  08
052FC:  BNZ   5304
052FE:  MOVF   xF9,W
05300:  SUBLW  07
05302:  BZ    5310
05304:  MOVF   xF8,W
05306:  SUBLW  8C
05308:  BNZ   538A
0530A:  MOVF   xF9,W
0530C:  SUBLW  0A
0530E:  BNZ   538A
....................       write_eeprom(33,make8(minutos_trabajo,0)); 
05310:  MOVFF  4F8,63E
05314:  CLRF   FAA
05316:  MOVLW  21
05318:  MOVWF  FA9
0531A:  MOVFF  63E,FA8
0531E:  BCF    FA6.6
05320:  BCF    FA6.7
05322:  BSF    FA6.2
05324:  MOVF   FF2,W
05326:  MOVWF  00
05328:  BCF    FF2.7
0532A:  MOVLB  F
0532C:  MOVLW  55
0532E:  MOVWF  FA7
05330:  MOVLW  AA
05332:  MOVWF  FA7
05334:  BSF    FA6.1
05336:  BTFSC  FA6.1
05338:  BRA    5336
0533A:  BCF    FA6.2
0533C:  MOVF   00,W
0533E:  IORWF  FF2,F
....................       delay_ms(20); 
05340:  MOVLW  14
05342:  MOVLB  6
05344:  MOVWF  x47
05346:  MOVLB  0
05348:  CALL   1512
....................       write_eeprom(34,make8(minutos_trabajo,1)); 
0534C:  MOVFF  4F9,63E
05350:  CLRF   FAA
05352:  MOVLW  22
05354:  MOVWF  FA9
05356:  MOVFF  63E,FA8
0535A:  BCF    FA6.6
0535C:  BCF    FA6.7
0535E:  BSF    FA6.2
05360:  MOVF   FF2,W
05362:  MOVWF  00
05364:  BCF    FF2.7
05366:  MOVLB  F
05368:  MOVLW  55
0536A:  MOVWF  FA7
0536C:  MOVLW  AA
0536E:  MOVWF  FA7
05370:  BSF    FA6.1
05372:  BTFSC  FA6.1
05374:  BRA    5372
05376:  BCF    FA6.2
05378:  MOVF   00,W
0537A:  IORWF  FF2,F
....................       delay_ms(20); 
0537C:  MOVLW  14
0537E:  MOVLB  6
05380:  MOVWF  x47
05382:  MOVLB  0
05384:  CALL   1512
05388:  MOVLB  4
....................    } 
.................... //----------------------------------------// 
....................  
.................... //**Contador de Tiempo de Trabajo de UV**// 
....................          if(segundos_uv>=60){ 
0538A:  MOVF   xF7,F
0538C:  BNZ   5394
0538E:  MOVF   xF6,W
05390:  SUBLW  3B
05392:  BC    539A
....................             segundos_uv=0; 
05394:  CLRF   xF7
05396:  CLRF   xF6
....................             minutos_uv++; 
05398:  INCF   xE0,F
....................          } 
....................           
....................          if(minutos_uv>=60){ 
0539A:  MOVF   xE0,W
0539C:  SUBLW  3B
0539E:  BTFSC  FD8.0
053A0:  BRA    54FA
....................             minutos_uv=0; 
053A2:  CLRF   xE0
....................             Tuv[0]++; 
053A4:  MOVLB  5
053A6:  INCF   x0C,F
....................             if(Tuv[0]>9){ 
053A8:  BTFSC  x0C.7
053AA:  BRA    53B6
053AC:  MOVF   x0C,W
053AE:  SUBLW  09
053B0:  BC    53B6
....................                Tuv[0]=0; 
053B2:  CLRF   x0C
....................                Tuv[1]++; 
053B4:  INCF   x0D,F
....................             } 
....................             if(Tuv[1]>9){ 
053B6:  BTFSC  x0D.7
053B8:  BRA    53C4
053BA:  MOVF   x0D,W
053BC:  SUBLW  09
053BE:  BC    53C4
....................                Tuv[1]=0; 
053C0:  CLRF   x0D
....................                Tuv[2]++; 
053C2:  INCF   x0E,F
....................             } 
....................             if(Tuv[2]>9){ 
053C4:  BTFSC  x0E.7
053C6:  BRA    53D2
053C8:  MOVF   x0E,W
053CA:  SUBLW  09
053CC:  BC    53D2
....................                Tuv[2]=0; 
053CE:  CLRF   x0E
....................                Tuv[3]++; 
053D0:  INCF   x0F,F
....................             } 
....................             if(Tuv[3]>9){ 
053D2:  BTFSC  x0F.7
053D4:  BRA    53DE
053D6:  MOVF   x0F,W
053D8:  SUBLW  09
053DA:  BC    53DE
....................                Tuv[3]=0; 
053DC:  CLRF   x0F
....................             } 
....................             write_eeprom(31,minutos_uv); 
053DE:  CLRF   FAA
053E0:  MOVLW  1F
053E2:  MOVWF  FA9
053E4:  MOVFF  4E0,FA8
053E8:  BCF    FA6.6
053EA:  BCF    FA6.7
053EC:  BSF    FA6.2
053EE:  MOVF   FF2,W
053F0:  MOVWF  00
053F2:  BCF    FF2.7
053F4:  MOVLB  F
053F6:  MOVLW  55
053F8:  MOVWF  FA7
053FA:  MOVLW  AA
053FC:  MOVWF  FA7
053FE:  BSF    FA6.1
05400:  BTFSC  FA6.1
05402:  BRA    5400
05404:  BCF    FA6.2
05406:  MOVF   00,W
05408:  IORWF  FF2,F
....................             delay_ms(20); 
0540A:  MOVLW  14
0540C:  MOVLB  6
0540E:  MOVWF  x47
05410:  MOVLB  0
05412:  CALL   1512
....................             write_eeprom(12,Tuv[0]); 
05416:  CLRF   FAA
05418:  MOVLW  0C
0541A:  MOVWF  FA9
0541C:  MOVFF  50C,FA8
05420:  BCF    FA6.6
05422:  BCF    FA6.7
05424:  BSF    FA6.2
05426:  MOVF   FF2,W
05428:  MOVWF  00
0542A:  BCF    FF2.7
0542C:  MOVLB  F
0542E:  MOVLW  55
05430:  MOVWF  FA7
05432:  MOVLW  AA
05434:  MOVWF  FA7
05436:  BSF    FA6.1
05438:  BTFSC  FA6.1
0543A:  BRA    5438
0543C:  BCF    FA6.2
0543E:  MOVF   00,W
05440:  IORWF  FF2,F
....................             delay_ms(20); 
05442:  MOVLW  14
05444:  MOVLB  6
05446:  MOVWF  x47
05448:  MOVLB  0
0544A:  CALL   1512
....................             write_eeprom(13,Tuv[1]); 
0544E:  CLRF   FAA
05450:  MOVLW  0D
05452:  MOVWF  FA9
05454:  MOVFF  50D,FA8
05458:  BCF    FA6.6
0545A:  BCF    FA6.7
0545C:  BSF    FA6.2
0545E:  MOVF   FF2,W
05460:  MOVWF  00
05462:  BCF    FF2.7
05464:  MOVLB  F
05466:  MOVLW  55
05468:  MOVWF  FA7
0546A:  MOVLW  AA
0546C:  MOVWF  FA7
0546E:  BSF    FA6.1
05470:  BTFSC  FA6.1
05472:  BRA    5470
05474:  BCF    FA6.2
05476:  MOVF   00,W
05478:  IORWF  FF2,F
....................             delay_ms(20); 
0547A:  MOVLW  14
0547C:  MOVLB  6
0547E:  MOVWF  x47
05480:  MOVLB  0
05482:  CALL   1512
....................             write_eeprom(14,Tuv[2]); 
05486:  CLRF   FAA
05488:  MOVLW  0E
0548A:  MOVWF  FA9
0548C:  MOVFF  50E,FA8
05490:  BCF    FA6.6
05492:  BCF    FA6.7
05494:  BSF    FA6.2
05496:  MOVF   FF2,W
05498:  MOVWF  00
0549A:  BCF    FF2.7
0549C:  MOVLB  F
0549E:  MOVLW  55
054A0:  MOVWF  FA7
054A2:  MOVLW  AA
054A4:  MOVWF  FA7
054A6:  BSF    FA6.1
054A8:  BTFSC  FA6.1
054AA:  BRA    54A8
054AC:  BCF    FA6.2
054AE:  MOVF   00,W
054B0:  IORWF  FF2,F
....................             delay_ms(20); 
054B2:  MOVLW  14
054B4:  MOVLB  6
054B6:  MOVWF  x47
054B8:  MOVLB  0
054BA:  CALL   1512
....................             write_eeprom(15,Tuv[3]); 
054BE:  CLRF   FAA
054C0:  MOVLW  0F
054C2:  MOVWF  FA9
054C4:  MOVFF  50F,FA8
054C8:  BCF    FA6.6
054CA:  BCF    FA6.7
054CC:  BSF    FA6.2
054CE:  MOVF   FF2,W
054D0:  MOVWF  00
054D2:  BCF    FF2.7
054D4:  MOVLB  F
054D6:  MOVLW  55
054D8:  MOVWF  FA7
054DA:  MOVLW  AA
054DC:  MOVWF  FA7
054DE:  BSF    FA6.1
054E0:  BTFSC  FA6.1
054E2:  BRA    54E0
054E4:  BCF    FA6.2
054E6:  MOVF   00,W
054E8:  IORWF  FF2,F
....................             delay_ms(20); 
054EA:  MOVLW  14
054EC:  MOVLB  6
054EE:  MOVWF  x47
054F0:  MOVLB  0
054F2:  CALL   1512
....................          }else if(minutos_uv==15 || minutos_uv==30 || minutos_uv==45){ 
054F6:  BRA    5544
054F8:  MOVLB  4
054FA:  MOVF   xE0,W
054FC:  SUBLW  0F
054FE:  BZ    550C
05500:  MOVF   xE0,W
05502:  SUBLW  1E
05504:  BZ    550C
05506:  MOVF   xE0,W
05508:  SUBLW  2D
0550A:  BNZ   5546
....................             write_eeprom(31,minutos_uv); 
0550C:  CLRF   FAA
0550E:  MOVLW  1F
05510:  MOVWF  FA9
05512:  MOVFF  4E0,FA8
05516:  BCF    FA6.6
05518:  BCF    FA6.7
0551A:  BSF    FA6.2
0551C:  MOVF   FF2,W
0551E:  MOVWF  00
05520:  BCF    FF2.7
05522:  MOVLB  F
05524:  MOVLW  55
05526:  MOVWF  FA7
05528:  MOVLW  AA
0552A:  MOVWF  FA7
0552C:  BSF    FA6.1
0552E:  BTFSC  FA6.1
05530:  BRA    552E
05532:  BCF    FA6.2
05534:  MOVF   00,W
05536:  IORWF  FF2,F
....................             delay_ms(20); 
05538:  MOVLW  14
0553A:  MOVLB  6
0553C:  MOVWF  x47
0553E:  MOVLB  0
05540:  CALL   1512
05544:  MOVLB  4
....................          } 
.................... //----------------------------------------// 
....................  
....................    if(Menu!=2){ // Si no esta en el menu de estados apaga la alarma 
05546:  MOVF   xD8,W
05548:  SUBLW  02
0554A:  BZ    5554
....................       Alarma_off; 
0554C:  BCF    F8B.1
0554E:  BCF    F94.1
....................       Alarma=10; 
05550:  MOVLW  0A
05552:  MOVWF  xE9
....................    } 
.................... //_-------------------------------------------------------------------------------------------------------------------------------------------------------- 
....................    if(Menu==0){ //Menu de Contrasea. 
05554:  MOVF   xD8,F
05556:  BNZ   557A
....................       PidePassword(0,0,1,Password[0],Password[1],Password[2],Password[3]); 
05558:  MOVLB  6
0555A:  CLRF   x3F
0555C:  CLRF   x40
0555E:  MOVLW  01
05560:  MOVWF  x41
05562:  MOVFF  520,642
05566:  MOVFF  521,643
0556A:  MOVFF  522,644
0556E:  MOVFF  523,645
05572:  MOVLB  0
05574:  CALL   3BA2
05578:  MOVLB  4
....................    } 
.................... //_--------------------------------------------------------------------------------------------------------------------------------------------------------        
....................  
.................... //_-------------------------------------------------------------------------------------------------------------------------------------------------------- 
....................       if(Menu==1)//Menu de Purga. 
0557A:  DECFSZ xD8,W
0557C:  BRA    56FC
....................       {  
....................          glcd_text57(15, 1, Tiempo, 1, ON); 
0557E:  MOVLW  0F
05580:  MOVLB  6
05582:  MOVWF  x57
05584:  MOVLW  01
05586:  MOVWF  x58
05588:  MOVLW  04
0558A:  MOVWF  x5A
0558C:  MOVLW  53
0558E:  MOVWF  x59
05590:  MOVLW  01
05592:  MOVWF  x5B
05594:  MOVWF  x5C
05596:  MOVLB  0
05598:  CALL   380E
....................          tiempo_purga=1;LuzBlanca_off;LuzUV_off;Toma_off;Alarma_off;VelocidadMotor(VelMotor); 
0559C:  MOVLB  4
0559E:  BSF    x1B.6
055A0:  BSF    F8B.2
055A2:  BCF    F94.2
055A4:  BSF    F8B.3
055A6:  BCF    F94.3
055A8:  BSF    F8B.0
055AA:  BCF    F94.0
055AC:  BCF    F8B.1
055AE:  BCF    F94.1
055B0:  MOVFF  4ED,63E
055B4:  MOVLB  0
055B6:  CALL   428A
....................          glcd_rect(9, 54, 120, 64, YES, OFF); 
055BA:  MOVLW  09
055BC:  MOVLB  6
055BE:  MOVWF  x57
055C0:  MOVLW  36
055C2:  MOVWF  x58
055C4:  MOVLW  78
055C6:  MOVWF  x59
055C8:  MOVLW  40
055CA:  MOVWF  x5A
055CC:  MOVLW  01
055CE:  MOVWF  x5B
055D0:  CLRF   x5C
055D2:  MOVLB  0
055D4:  CALL   374C
....................           
....................          displayTiempo(Tpurga[3],20,20,0,2);displayTiempo(Tpurga[2],40,20,0,2);glcd_text57(60, 22, Dos_puntos, 2, ON); 
055D8:  MOVFF  4FF,63E
055DC:  MOVLW  14
055DE:  MOVLB  6
055E0:  MOVWF  x3F
055E2:  MOVWF  x40
055E4:  CLRF   x41
055E6:  MOVLW  02
055E8:  MOVWF  x42
055EA:  MOVLB  0
055EC:  CALL   4332
055F0:  MOVFF  4FE,63E
055F4:  MOVLW  28
055F6:  MOVLB  6
055F8:  MOVWF  x3F
055FA:  MOVLW  14
055FC:  MOVWF  x40
055FE:  CLRF   x41
05600:  MOVLW  02
05602:  MOVWF  x42
05604:  MOVLB  0
05606:  CALL   4332
0560A:  MOVLW  3C
0560C:  MOVLB  6
0560E:  MOVWF  x57
05610:  MOVLW  16
05612:  MOVWF  x58
05614:  MOVLW  04
05616:  MOVWF  x5A
05618:  MOVLW  46
0561A:  MOVWF  x59
0561C:  MOVLW  02
0561E:  MOVWF  x5B
05620:  MOVLW  01
05622:  MOVWF  x5C
05624:  MOVLB  0
05626:  CALL   380E
....................          displayTiempo(Tpurga[1],70,20,0,2);displayTiempo(Tpurga[0],90,20,0,2);         
0562A:  MOVFF  4FD,63E
0562E:  MOVLW  46
05630:  MOVLB  6
05632:  MOVWF  x3F
05634:  MOVLW  14
05636:  MOVWF  x40
05638:  CLRF   x41
0563A:  MOVLW  02
0563C:  MOVWF  x42
0563E:  MOVLB  0
05640:  CALL   4332
05644:  MOVFF  4FC,63E
05648:  MOVLW  5A
0564A:  MOVLB  6
0564C:  MOVWF  x3F
0564E:  MOVLW  14
05650:  MOVWF  x40
05652:  CLRF   x41
05654:  MOVLW  02
05656:  MOVWF  x42
05658:  MOVLB  0
0565A:  CALL   4332
....................        
....................          if(RIGHT){ // Modo de saltarse el tiempo de purga. 
0565E:  BSF    F96.0
05660:  BTFSC  F84.0
05662:  BRA    5692
....................             delay_ms(1000); 
05664:  MOVLW  04
05666:  MOVLB  6
05668:  MOVWF  x3E
0566A:  MOVLW  FA
0566C:  MOVWF  x47
0566E:  MOVLB  0
05670:  CALL   1512
05674:  MOVLB  6
05676:  DECFSZ x3E,F
05678:  BRA    566A
....................             if(RIGHT){ 
0567A:  BSF    F96.0
0567C:  BTFSC  F84.0
0567E:  BRA    5694
....................                tiempo_purga=0;Menu=2;glcd_fillScreen(OFF); 
05680:  MOVLB  4
05682:  BCF    x1B.6
05684:  MOVLW  02
05686:  MOVWF  xD8
05688:  MOVLB  6
0568A:  CLRF   x46
0568C:  MOVLB  0
0568E:  CALL   3B48
05692:  MOVLB  6
....................             } 
....................          } 
....................         
....................          if((Tpurga[0]>=Tpurgap[0])&&(Tpurga[1]>=Tpurgap[1])&&(Tpurga[2]>=Tpurgap[2])&&(Tpurga[3]>=Tpurgap[3])){//Si cumplio el tiempo 
05694:  MOVLB  5
05696:  MOVF   x00,W
05698:  XORLW  80
0569A:  MOVWF  00
0569C:  MOVLB  4
0569E:  MOVF   xFC,W
056A0:  XORLW  80
056A2:  SUBWF  00,W
056A4:  BZ    56A8
056A6:  BC    56FC
056A8:  MOVLB  5
056AA:  MOVF   x01,W
056AC:  XORLW  80
056AE:  MOVWF  00
056B0:  MOVLB  4
056B2:  MOVF   xFD,W
056B4:  XORLW  80
056B6:  SUBWF  00,W
056B8:  BZ    56BC
056BA:  BC    56FC
056BC:  MOVLB  5
056BE:  MOVF   x02,W
056C0:  XORLW  80
056C2:  MOVWF  00
056C4:  MOVLB  4
056C6:  MOVF   xFE,W
056C8:  XORLW  80
056CA:  SUBWF  00,W
056CC:  BZ    56D0
056CE:  BC    56FC
056D0:  MOVLB  5
056D2:  MOVF   x03,W
056D4:  XORLW  80
056D6:  MOVWF  00
056D8:  MOVLB  4
056DA:  MOVF   xFF,W
056DC:  XORLW  80
056DE:  SUBWF  00,W
056E0:  BZ    56E4
056E2:  BC    56FC
....................             tiempo_purga=0;Menu=2;glcd_fillScreen(OFF);flag_luz=!flag_luz;flag_blower=1;flag_toma=1; 
056E4:  BCF    x1B.6
056E6:  MOVLW  02
056E8:  MOVWF  xD8
056EA:  MOVLB  6
056EC:  CLRF   x46
056EE:  MOVLB  0
056F0:  CALL   3B48
056F4:  MOVLB  4
056F6:  BTG    x1B.3
056F8:  BSF    x1B.1
056FA:  BSF    x1B.2
....................          }       
....................       } 
.................... //_--------------------------------------------------------------------------------------------------------------------------------------------------------        
....................  
.................... //_-------------------------------------------------------------------------------------------------------------------------------------------------------- 
....................       if(Menu==2) //Menu General. 
056FC:  MOVF   xD8,W
056FE:  SUBLW  02
05700:  BTFSS  FD8.2
05702:  GOTO   639A
....................       {          
....................          w=0; 
05706:  BCF    x1B.5
....................          glcd_text57(0, 1, Downflowt, 1, ON); 
05708:  MOVLB  6
0570A:  CLRF   x57
0570C:  MOVLW  01
0570E:  MOVWF  x58
05710:  MOVLW  04
05712:  MOVWF  x5A
05714:  MOVLW  85
05716:  MOVWF  x59
05718:  MOVLW  01
0571A:  MOVWF  x5B
0571C:  MOVWF  x5C
0571E:  MOVLB  0
05720:  CALL   380E
....................          glcd_text57(0, 15, Inflowt, 1, ON); 
05724:  MOVLB  6
05726:  CLRF   x57
05728:  MOVLW  0F
0572A:  MOVWF  x58
0572C:  MOVLW  04
0572E:  MOVWF  x5A
05730:  MOVLW  78
05732:  MOVWF  x59
05734:  MOVLW  01
05736:  MOVWF  x5B
05738:  MOVWF  x5C
0573A:  MOVLB  0
0573C:  CALL   380E
....................          glcd_text57(0, 29, Vida_Filtro, 1, ON); 
05740:  MOVLB  6
05742:  CLRF   x57
05744:  MOVLW  1D
05746:  MOVWF  x58
05748:  MOVLW  04
0574A:  MOVWF  x5A
0574C:  MOVLW  B2
0574E:  MOVWF  x59
05750:  MOVLW  01
05752:  MOVWF  x5B
05754:  MOVWF  x5C
05756:  MOVLB  0
05758:  CALL   380E
....................          glcd_text57(0, 43, Vida_UV, 1, ON); 
0575C:  MOVLB  6
0575E:  CLRF   x57
05760:  MOVLW  2B
05762:  MOVWF  x58
05764:  MOVLW  04
05766:  MOVWF  x5A
05768:  MOVLW  AA
0576A:  MOVWF  x59
0576C:  MOVLW  01
0576E:  MOVWF  x5B
05770:  MOVWF  x5C
05772:  MOVLB  0
05774:  CALL   380E
....................          UVTime=Tuv[0]+(Tuv[1]*10)+(Tuv[2]*100)+(Tuv[3]*1000);          
05778:  MOVFF  50D,63F
0577C:  MOVLW  0A
0577E:  MOVLB  6
05780:  MOVWF  x40
05782:  MOVLB  0
05784:  CALL   440A
05788:  MOVF   01,W
0578A:  MOVLB  5
0578C:  ADDWF  x0C,W
0578E:  MOVLB  6
05790:  MOVWF  x3E
05792:  MOVFF  50E,63F
05796:  MOVLW  64
05798:  MOVWF  x40
0579A:  MOVLB  0
0579C:  CALL   440A
057A0:  MOVF   01,W
057A2:  MOVLB  6
057A4:  ADDWF  x3E,F
057A6:  CLRF   03
057A8:  MOVLB  5
057AA:  MOVF   x0F,W
057AC:  MOVWF  00
057AE:  BTFSC  FE8.7
057B0:  DECF   03,F
057B2:  MOVLB  6
057B4:  MOVWF  x3F
057B6:  MOVFF  03,640
057BA:  MOVFF  03,642
057BE:  MOVWF  x41
057C0:  MOVLW  03
057C2:  MOVWF  x44
057C4:  MOVLW  E8
057C6:  MOVWF  x43
057C8:  MOVLB  0
057CA:  GOTO   4458
057CE:  MOVFF  02,03
057D2:  MOVF   01,W
057D4:  MOVLB  6
057D6:  ADDWF  x3E,W
057D8:  MOVWF  01
057DA:  MOVLW  00
057DC:  ADDWFC 03,F
057DE:  MOVFF  01,63E
057E2:  MOVFF  03,63F
057E6:  MOVLB  0
057E8:  GOTO   44AE
057EC:  MOVFF  03,5D3
057F0:  MOVFF  02,5D2
057F4:  MOVFF  01,5D1
057F8:  MOVFF  00,5D0
....................           
....................          if(imprimir==1){ 
057FC:  MOVLB  4
057FE:  BTFSS  x1A.7
05800:  BRA    582C
....................             displayfloat(Inflow,70,15,0,1); 
05802:  MOVFF  527,645
05806:  MOVFF  526,644
0580A:  MOVFF  525,643
0580E:  MOVFF  524,642
05812:  MOVLW  46
05814:  MOVLB  6
05816:  MOVWF  x46
05818:  MOVLW  0F
0581A:  MOVWF  x47
0581C:  CLRF   x48
0581E:  MOVLW  01
05820:  MOVWF  x49
05822:  MOVLB  0
05824:  CALL   477A
....................             imprimir=0; 
05828:  MOVLB  4
0582A:  BCF    x1A.7
....................          } 
....................           
....................          if(flag_blower==1){ 
0582C:  BTFSS  x1B.1
0582E:  BRA    59AE
....................             glcd_imagen(5);tiempo_trabajo=1;VelocidadMotor(VelMotor); 
05830:  MOVLW  05
05832:  MOVLB  6
05834:  MOVWF  x3E
05836:  MOVLB  0
05838:  CALL   4882
0583C:  MOVLB  4
0583E:  BSF    x1C.0
05840:  MOVFF  4ED,63E
05844:  MOVLB  0
05846:  CALL   428A
....................             if(guardatrabajo==1){ 
0584A:  MOVLB  4
0584C:  BTFSS  x1C.5
0584E:  BRA    59AC
....................                guardatrabajo=0; 
05850:  BCF    x1C.5
....................                write_eeprom(33,make8(minutos_trabajo,0)); 
05852:  MOVFF  4F8,63E
05856:  CLRF   FAA
05858:  MOVLW  21
0585A:  MOVWF  FA9
0585C:  MOVFF  63E,FA8
05860:  BCF    FA6.6
05862:  BCF    FA6.7
05864:  BSF    FA6.2
05866:  MOVF   FF2,W
05868:  MOVWF  00
0586A:  BCF    FF2.7
0586C:  MOVLB  F
0586E:  MOVLW  55
05870:  MOVWF  FA7
05872:  MOVLW  AA
05874:  MOVWF  FA7
05876:  BSF    FA6.1
05878:  BTFSC  FA6.1
0587A:  BRA    5878
0587C:  BCF    FA6.2
0587E:  MOVF   00,W
05880:  IORWF  FF2,F
....................                delay_ms(20); 
05882:  MOVLW  14
05884:  MOVLB  6
05886:  MOVWF  x47
05888:  MOVLB  0
0588A:  CALL   1512
....................                write_eeprom(34,make8(minutos_trabajo,1)); 
0588E:  MOVFF  4F9,63E
05892:  CLRF   FAA
05894:  MOVLW  22
05896:  MOVWF  FA9
05898:  MOVFF  63E,FA8
0589C:  BCF    FA6.6
0589E:  BCF    FA6.7
058A0:  BSF    FA6.2
058A2:  MOVF   FF2,W
058A4:  MOVWF  00
058A6:  BCF    FF2.7
058A8:  MOVLB  F
058AA:  MOVLW  55
058AC:  MOVWF  FA7
058AE:  MOVLW  AA
058B0:  MOVWF  FA7
058B2:  BSF    FA6.1
058B4:  BTFSC  FA6.1
058B6:  BRA    58B4
058B8:  BCF    FA6.2
058BA:  MOVF   00,W
058BC:  IORWF  FF2,F
....................                delay_ms(20); 
058BE:  MOVLW  14
058C0:  MOVLB  6
058C2:  MOVWF  x47
058C4:  MOVLB  0
058C6:  CALL   1512
....................                write_eeprom(16,Ttrabajo[0]); 
058CA:  CLRF   FAA
058CC:  MOVLW  10
058CE:  MOVWF  FA9
058D0:  MOVFF  518,FA8
058D4:  BCF    FA6.6
058D6:  BCF    FA6.7
058D8:  BSF    FA6.2
058DA:  MOVF   FF2,W
058DC:  MOVWF  00
058DE:  BCF    FF2.7
058E0:  MOVLB  F
058E2:  MOVLW  55
058E4:  MOVWF  FA7
058E6:  MOVLW  AA
058E8:  MOVWF  FA7
058EA:  BSF    FA6.1
058EC:  BTFSC  FA6.1
058EE:  BRA    58EC
058F0:  BCF    FA6.2
058F2:  MOVF   00,W
058F4:  IORWF  FF2,F
....................                delay_ms(20); 
058F6:  MOVLW  14
058F8:  MOVLB  6
058FA:  MOVWF  x47
058FC:  MOVLB  0
058FE:  CALL   1512
....................                write_eeprom(17,Ttrabajo[1]); 
05902:  CLRF   FAA
05904:  MOVLW  11
05906:  MOVWF  FA9
05908:  MOVFF  519,FA8
0590C:  BCF    FA6.6
0590E:  BCF    FA6.7
05910:  BSF    FA6.2
05912:  MOVF   FF2,W
05914:  MOVWF  00
05916:  BCF    FF2.7
05918:  MOVLB  F
0591A:  MOVLW  55
0591C:  MOVWF  FA7
0591E:  MOVLW  AA
05920:  MOVWF  FA7
05922:  BSF    FA6.1
05924:  BTFSC  FA6.1
05926:  BRA    5924
05928:  BCF    FA6.2
0592A:  MOVF   00,W
0592C:  IORWF  FF2,F
....................                delay_ms(20); 
0592E:  MOVLW  14
05930:  MOVLB  6
05932:  MOVWF  x47
05934:  MOVLB  0
05936:  CALL   1512
....................                write_eeprom(18,Ttrabajo[2]); 
0593A:  CLRF   FAA
0593C:  MOVLW  12
0593E:  MOVWF  FA9
05940:  MOVFF  51A,FA8
05944:  BCF    FA6.6
05946:  BCF    FA6.7
05948:  BSF    FA6.2
0594A:  MOVF   FF2,W
0594C:  MOVWF  00
0594E:  BCF    FF2.7
05950:  MOVLB  F
05952:  MOVLW  55
05954:  MOVWF  FA7
05956:  MOVLW  AA
05958:  MOVWF  FA7
0595A:  BSF    FA6.1
0595C:  BTFSC  FA6.1
0595E:  BRA    595C
05960:  BCF    FA6.2
05962:  MOVF   00,W
05964:  IORWF  FF2,F
....................                delay_ms(20); 
05966:  MOVLW  14
05968:  MOVLB  6
0596A:  MOVWF  x47
0596C:  MOVLB  0
0596E:  CALL   1512
....................                write_eeprom(19,Ttrabajo[3]); 
05972:  CLRF   FAA
05974:  MOVLW  13
05976:  MOVWF  FA9
05978:  MOVFF  51B,FA8
0597C:  BCF    FA6.6
0597E:  BCF    FA6.7
05980:  BSF    FA6.2
05982:  MOVF   FF2,W
05984:  MOVWF  00
05986:  BCF    FF2.7
05988:  MOVLB  F
0598A:  MOVLW  55
0598C:  MOVWF  FA7
0598E:  MOVLW  AA
05990:  MOVWF  FA7
05992:  BSF    FA6.1
05994:  BTFSC  FA6.1
05996:  BRA    5994
05998:  BCF    FA6.2
0599A:  MOVF   00,W
0599C:  IORWF  FF2,F
....................                delay_ms(20); 
0599E:  MOVLW  14
059A0:  MOVLB  6
059A2:  MOVWF  x47
059A4:  MOVLB  0
059A6:  CALL   1512
059AA:  MOVLB  4
....................             } 
....................          }else{ 
059AC:  BRA    5B46
....................             Filtro_Downflow=0; 
059AE:  MOVLB  5
059B0:  CLRF   x2F
059B2:  CLRF   x2E
059B4:  CLRF   x2D
059B6:  CLRF   x2C
....................             glcd_rect(102, 45, 127, 64, YES, OFF);tiempo_trabajo=0;VelocidadMotor(0); 
059B8:  MOVLW  66
059BA:  MOVLB  6
059BC:  MOVWF  x57
059BE:  MOVLW  2D
059C0:  MOVWF  x58
059C2:  MOVLW  7F
059C4:  MOVWF  x59
059C6:  MOVLW  40
059C8:  MOVWF  x5A
059CA:  MOVLW  01
059CC:  MOVWF  x5B
059CE:  CLRF   x5C
059D0:  MOVLB  0
059D2:  CALL   374C
059D6:  MOVLB  4
059D8:  BCF    x1C.0
059DA:  MOVLB  6
059DC:  CLRF   x3E
059DE:  MOVLB  0
059E0:  CALL   428A
....................             if(guardatrabajo==0){ 
059E4:  MOVLB  4
059E6:  BTFSC  x1C.5
059E8:  BRA    5B46
....................                guardatrabajo=1; 
059EA:  BSF    x1C.5
....................                write_eeprom(33,make8(minutos_trabajo,0)); 
059EC:  MOVFF  4F8,63E
059F0:  CLRF   FAA
059F2:  MOVLW  21
059F4:  MOVWF  FA9
059F6:  MOVFF  63E,FA8
059FA:  BCF    FA6.6
059FC:  BCF    FA6.7
059FE:  BSF    FA6.2
05A00:  MOVF   FF2,W
05A02:  MOVWF  00
05A04:  BCF    FF2.7
05A06:  MOVLB  F
05A08:  MOVLW  55
05A0A:  MOVWF  FA7
05A0C:  MOVLW  AA
05A0E:  MOVWF  FA7
05A10:  BSF    FA6.1
05A12:  BTFSC  FA6.1
05A14:  BRA    5A12
05A16:  BCF    FA6.2
05A18:  MOVF   00,W
05A1A:  IORWF  FF2,F
....................                delay_ms(20); 
05A1C:  MOVLW  14
05A1E:  MOVLB  6
05A20:  MOVWF  x47
05A22:  MOVLB  0
05A24:  CALL   1512
....................                write_eeprom(34,make8(minutos_trabajo,1)); 
05A28:  MOVFF  4F9,63E
05A2C:  CLRF   FAA
05A2E:  MOVLW  22
05A30:  MOVWF  FA9
05A32:  MOVFF  63E,FA8
05A36:  BCF    FA6.6
05A38:  BCF    FA6.7
05A3A:  BSF    FA6.2
05A3C:  MOVF   FF2,W
05A3E:  MOVWF  00
05A40:  BCF    FF2.7
05A42:  MOVLB  F
05A44:  MOVLW  55
05A46:  MOVWF  FA7
05A48:  MOVLW  AA
05A4A:  MOVWF  FA7
05A4C:  BSF    FA6.1
05A4E:  BTFSC  FA6.1
05A50:  BRA    5A4E
05A52:  BCF    FA6.2
05A54:  MOVF   00,W
05A56:  IORWF  FF2,F
....................                delay_ms(20); 
05A58:  MOVLW  14
05A5A:  MOVLB  6
05A5C:  MOVWF  x47
05A5E:  MOVLB  0
05A60:  CALL   1512
....................                write_eeprom(16,Ttrabajo[0]); 
05A64:  CLRF   FAA
05A66:  MOVLW  10
05A68:  MOVWF  FA9
05A6A:  MOVFF  518,FA8
05A6E:  BCF    FA6.6
05A70:  BCF    FA6.7
05A72:  BSF    FA6.2
05A74:  MOVF   FF2,W
05A76:  MOVWF  00
05A78:  BCF    FF2.7
05A7A:  MOVLB  F
05A7C:  MOVLW  55
05A7E:  MOVWF  FA7
05A80:  MOVLW  AA
05A82:  MOVWF  FA7
05A84:  BSF    FA6.1
05A86:  BTFSC  FA6.1
05A88:  BRA    5A86
05A8A:  BCF    FA6.2
05A8C:  MOVF   00,W
05A8E:  IORWF  FF2,F
....................                delay_ms(20); 
05A90:  MOVLW  14
05A92:  MOVLB  6
05A94:  MOVWF  x47
05A96:  MOVLB  0
05A98:  CALL   1512
....................                write_eeprom(17,Ttrabajo[1]); 
05A9C:  CLRF   FAA
05A9E:  MOVLW  11
05AA0:  MOVWF  FA9
05AA2:  MOVFF  519,FA8
05AA6:  BCF    FA6.6
05AA8:  BCF    FA6.7
05AAA:  BSF    FA6.2
05AAC:  MOVF   FF2,W
05AAE:  MOVWF  00
05AB0:  BCF    FF2.7
05AB2:  MOVLB  F
05AB4:  MOVLW  55
05AB6:  MOVWF  FA7
05AB8:  MOVLW  AA
05ABA:  MOVWF  FA7
05ABC:  BSF    FA6.1
05ABE:  BTFSC  FA6.1
05AC0:  BRA    5ABE
05AC2:  BCF    FA6.2
05AC4:  MOVF   00,W
05AC6:  IORWF  FF2,F
....................                delay_ms(20); 
05AC8:  MOVLW  14
05ACA:  MOVLB  6
05ACC:  MOVWF  x47
05ACE:  MOVLB  0
05AD0:  CALL   1512
....................                write_eeprom(18,Ttrabajo[2]); 
05AD4:  CLRF   FAA
05AD6:  MOVLW  12
05AD8:  MOVWF  FA9
05ADA:  MOVFF  51A,FA8
05ADE:  BCF    FA6.6
05AE0:  BCF    FA6.7
05AE2:  BSF    FA6.2
05AE4:  MOVF   FF2,W
05AE6:  MOVWF  00
05AE8:  BCF    FF2.7
05AEA:  MOVLB  F
05AEC:  MOVLW  55
05AEE:  MOVWF  FA7
05AF0:  MOVLW  AA
05AF2:  MOVWF  FA7
05AF4:  BSF    FA6.1
05AF6:  BTFSC  FA6.1
05AF8:  BRA    5AF6
05AFA:  BCF    FA6.2
05AFC:  MOVF   00,W
05AFE:  IORWF  FF2,F
....................                delay_ms(20); 
05B00:  MOVLW  14
05B02:  MOVLB  6
05B04:  MOVWF  x47
05B06:  MOVLB  0
05B08:  CALL   1512
....................                write_eeprom(19,Ttrabajo[3]); 
05B0C:  CLRF   FAA
05B0E:  MOVLW  13
05B10:  MOVWF  FA9
05B12:  MOVFF  51B,FA8
05B16:  BCF    FA6.6
05B18:  BCF    FA6.7
05B1A:  BSF    FA6.2
05B1C:  MOVF   FF2,W
05B1E:  MOVWF  00
05B20:  BCF    FF2.7
05B22:  MOVLB  F
05B24:  MOVLW  55
05B26:  MOVWF  FA7
05B28:  MOVLW  AA
05B2A:  MOVWF  FA7
05B2C:  BSF    FA6.1
05B2E:  BTFSC  FA6.1
05B30:  BRA    5B2E
05B32:  BCF    FA6.2
05B34:  MOVF   00,W
05B36:  IORWF  FF2,F
....................                delay_ms(20); 
05B38:  MOVLW  14
05B3A:  MOVLB  6
05B3C:  MOVWF  x47
05B3E:  MOVLB  0
05B40:  CALL   1512
05B44:  MOVLB  4
....................             } 
....................          } 
....................           
.................... // Dibujo de barra de estado de filtro                   
....................          barra=100.0*(Filtro_Downflow/1.5); 
05B46:  MOVFF  52F,646
05B4A:  MOVFF  52E,645
05B4E:  MOVFF  52D,644
05B52:  MOVFF  52C,643
05B56:  MOVLB  6
05B58:  CLRF   x4A
05B5A:  CLRF   x49
05B5C:  MOVLW  40
05B5E:  MOVWF  x48
05B60:  MOVLW  7F
05B62:  MOVWF  x47
05B64:  MOVLB  0
05B66:  CALL   1570
05B6A:  MOVLB  6
05B6C:  CLRF   x63
05B6E:  CLRF   x62
05B70:  MOVLW  48
05B72:  MOVWF  x61
05B74:  MOVLW  85
05B76:  MOVWF  x60
05B78:  MOVFF  03,667
05B7C:  MOVFF  02,666
05B80:  MOVFF  01,665
05B84:  MOVFF  00,664
05B88:  MOVLB  0
05B8A:  CALL   2D56
05B8E:  MOVFF  03,537
05B92:  MOVFF  02,536
05B96:  MOVFF  01,535
05B9A:  MOVFF  00,534
....................          if(barra>100.0) 
05B9E:  MOVLB  6
05BA0:  CLRF   x46
05BA2:  CLRF   x45
05BA4:  MOVLW  48
05BA6:  MOVWF  x44
05BA8:  MOVLW  85
05BAA:  MOVWF  x43
05BAC:  MOVFF  537,64A
05BB0:  MOVFF  536,649
05BB4:  MOVFF  535,648
05BB8:  MOVFF  534,647
05BBC:  MOVLB  0
05BBE:  CALL   219C
05BC2:  BNC   5BD2
....................             barra=100.0; 
05BC4:  MOVLB  5
05BC6:  CLRF   x37
05BC8:  CLRF   x36
05BCA:  MOVLW  48
05BCC:  MOVWF  x35
05BCE:  MOVLW  85
05BD0:  MOVWF  x34
....................          barra=barra/2; 
05BD2:  MOVFF  537,646
05BD6:  MOVFF  536,645
05BDA:  MOVFF  535,644
05BDE:  MOVFF  534,643
05BE2:  MOVLB  6
05BE4:  CLRF   x4A
05BE6:  CLRF   x49
05BE8:  CLRF   x48
05BEA:  MOVLW  80
05BEC:  MOVWF  x47
05BEE:  MOVLB  0
05BF0:  CALL   1570
05BF4:  MOVFF  03,537
05BF8:  MOVFF  02,536
05BFC:  MOVFF  01,535
05C00:  MOVFF  00,534
....................          glcd_rect(42, 28, (int8)(barra_old)+42, 35, YES, OFF);  // Clears the old bar 
05C04:  MOVFF  53B,641
05C08:  MOVFF  53A,640
05C0C:  MOVFF  539,63F
05C10:  MOVFF  538,63E
05C14:  CALL   4A80
05C18:  MOVLW  2A
05C1A:  ADDWF  01,W
05C1C:  MOVLB  6
05C1E:  MOVWF  x3E
05C20:  MOVLW  2A
05C22:  MOVWF  x57
05C24:  MOVLW  1C
05C26:  MOVWF  x58
05C28:  MOVFF  63E,659
05C2C:  MOVLW  23
05C2E:  MOVWF  x5A
05C30:  MOVLW  01
05C32:  MOVWF  x5B
05C34:  CLRF   x5C
05C36:  MOVLB  0
05C38:  CALL   374C
....................          glcd_rect(42, 28, (int8)(barra)+42, 35, YES, ON);             // Draws a new bar 
05C3C:  MOVFF  537,641
05C40:  MOVFF  536,640
05C44:  MOVFF  535,63F
05C48:  MOVFF  534,63E
05C4C:  CALL   4A80
05C50:  MOVLW  2A
05C52:  ADDWF  01,W
05C54:  MOVLB  6
05C56:  MOVWF  x3E
05C58:  MOVLW  2A
05C5A:  MOVWF  x57
05C5C:  MOVLW  1C
05C5E:  MOVWF  x58
05C60:  MOVFF  63E,659
05C64:  MOVLW  23
05C66:  MOVWF  x5A
05C68:  MOVLW  01
05C6A:  MOVWF  x5B
05C6C:  MOVWF  x5C
05C6E:  MOVLB  0
05C70:  CALL   374C
....................          glcd_rect(40, 26, 94, 37, NO, ON);             // Draws a new bar 
05C74:  MOVLW  28
05C76:  MOVLB  6
05C78:  MOVWF  x57
05C7A:  MOVLW  1A
05C7C:  MOVWF  x58
05C7E:  MOVLW  5E
05C80:  MOVWF  x59
05C82:  MOVLW  25
05C84:  MOVWF  x5A
05C86:  CLRF   x5B
05C88:  MOVLW  01
05C8A:  MOVWF  x5C
05C8C:  MOVLB  0
05C8E:  CALL   374C
....................          barra_old=barra; 
05C92:  MOVFF  537,53B
05C96:  MOVFF  536,53A
05C9A:  MOVFF  535,539
05C9E:  MOVFF  534,538
.................... // Fin de Dibujo de barra de estado de Filtro 
....................  
.................... // Dibujo de barra de estado de Luz UV 
....................          barra2=100.0*(UVTime/1000.0); 
05CA2:  MOVFF  5D3,646
05CA6:  MOVFF  5D2,645
05CAA:  MOVFF  5D1,644
05CAE:  MOVFF  5D0,643
05CB2:  MOVLB  6
05CB4:  CLRF   x4A
05CB6:  CLRF   x49
05CB8:  MOVLW  7A
05CBA:  MOVWF  x48
05CBC:  MOVLW  88
05CBE:  MOVWF  x47
05CC0:  MOVLB  0
05CC2:  CALL   1570
05CC6:  MOVLB  6
05CC8:  CLRF   x63
05CCA:  CLRF   x62
05CCC:  MOVLW  48
05CCE:  MOVWF  x61
05CD0:  MOVLW  85
05CD2:  MOVWF  x60
05CD4:  MOVFF  03,667
05CD8:  MOVFF  02,666
05CDC:  MOVFF  01,665
05CE0:  MOVFF  00,664
05CE4:  MOVLB  0
05CE6:  CALL   2D56
05CEA:  MOVFF  03,53F
05CEE:  MOVFF  02,53E
05CF2:  MOVFF  01,53D
05CF6:  MOVFF  00,53C
....................          if(barra2>100.0) 
05CFA:  MOVLB  6
05CFC:  CLRF   x46
05CFE:  CLRF   x45
05D00:  MOVLW  48
05D02:  MOVWF  x44
05D04:  MOVLW  85
05D06:  MOVWF  x43
05D08:  MOVFF  53F,64A
05D0C:  MOVFF  53E,649
05D10:  MOVFF  53D,648
05D14:  MOVFF  53C,647
05D18:  MOVLB  0
05D1A:  CALL   219C
05D1E:  BNC   5D2E
....................             barra2=100.0; 
05D20:  MOVLB  5
05D22:  CLRF   x3F
05D24:  CLRF   x3E
05D26:  MOVLW  48
05D28:  MOVWF  x3D
05D2A:  MOVLW  85
05D2C:  MOVWF  x3C
....................          barra2=barra2/2; 
05D2E:  MOVFF  53F,646
05D32:  MOVFF  53E,645
05D36:  MOVFF  53D,644
05D3A:  MOVFF  53C,643
05D3E:  MOVLB  6
05D40:  CLRF   x4A
05D42:  CLRF   x49
05D44:  CLRF   x48
05D46:  MOVLW  80
05D48:  MOVWF  x47
05D4A:  MOVLB  0
05D4C:  CALL   1570
05D50:  MOVFF  03,53F
05D54:  MOVFF  02,53E
05D58:  MOVFF  01,53D
05D5C:  MOVFF  00,53C
....................          glcd_rect(42, 42, (int8)(barra_old2)+42, 49, YES, OFF);  // Clears the old bar 
05D60:  MOVFF  543,641
05D64:  MOVFF  542,640
05D68:  MOVFF  541,63F
05D6C:  MOVFF  540,63E
05D70:  CALL   4A80
05D74:  MOVLW  2A
05D76:  ADDWF  01,W
05D78:  MOVLB  6
05D7A:  MOVWF  x3E
05D7C:  MOVLW  2A
05D7E:  MOVWF  x57
05D80:  MOVWF  x58
05D82:  MOVFF  63E,659
05D86:  MOVLW  31
05D88:  MOVWF  x5A
05D8A:  MOVLW  01
05D8C:  MOVWF  x5B
05D8E:  CLRF   x5C
05D90:  MOVLB  0
05D92:  CALL   374C
....................          glcd_rect(42, 42, (int8)(barra2)+42, 49, YES, ON);             // Draws a new bar 
05D96:  MOVFF  53F,641
05D9A:  MOVFF  53E,640
05D9E:  MOVFF  53D,63F
05DA2:  MOVFF  53C,63E
05DA6:  CALL   4A80
05DAA:  MOVLW  2A
05DAC:  ADDWF  01,W
05DAE:  MOVLB  6
05DB0:  MOVWF  x3E
05DB2:  MOVLW  2A
05DB4:  MOVWF  x57
05DB6:  MOVWF  x58
05DB8:  MOVFF  63E,659
05DBC:  MOVLW  31
05DBE:  MOVWF  x5A
05DC0:  MOVLW  01
05DC2:  MOVWF  x5B
05DC4:  MOVWF  x5C
05DC6:  MOVLB  0
05DC8:  CALL   374C
....................          glcd_rect(40, 40, 94, 51, NO, ON);             // Draws a new bar 
05DCC:  MOVLW  28
05DCE:  MOVLB  6
05DD0:  MOVWF  x57
05DD2:  MOVWF  x58
05DD4:  MOVLW  5E
05DD6:  MOVWF  x59
05DD8:  MOVLW  33
05DDA:  MOVWF  x5A
05DDC:  CLRF   x5B
05DDE:  MOVLW  01
05DE0:  MOVWF  x5C
05DE2:  MOVLB  0
05DE4:  CALL   374C
....................          barra_old2=barra2; 
05DE8:  MOVFF  53F,543
05DEC:  MOVFF  53E,542
05DF0:  MOVFF  53D,541
05DF4:  MOVFF  53C,540
.................... // Fin de Dibujo de barra de estado de Luz UV 
....................  
....................  
....................          if(Inflow<0.30 && tiempo_uv==0){ 
05DF8:  MOVFF  527,646
05DFC:  MOVFF  526,645
05E00:  MOVFF  525,644
05E04:  MOVFF  524,643
05E08:  MOVLW  9A
05E0A:  MOVLB  6
05E0C:  MOVWF  x4A
05E0E:  MOVLW  99
05E10:  MOVWF  x49
05E12:  MOVLW  19
05E14:  MOVWF  x48
05E16:  MOVLW  7D
05E18:  MOVWF  x47
05E1A:  MOVLB  0
05E1C:  CALL   219C
05E20:  BNC   5E6E
05E22:  MOVLB  4
05E24:  BTFSS  x1B.7
05E26:  BRA    5E2C
05E28:  MOVLB  0
05E2A:  BRA    5E6E
....................             flag_latencia=1; 
05E2C:  BSF    x1C.3
....................             if(Latencia==1){          
05E2E:  BTFSS  x1C.2
05E30:  BRA    5E6A
....................                if(Inflow<0.30 && tiempo_uv==0){ 
05E32:  MOVFF  527,646
05E36:  MOVFF  526,645
05E3A:  MOVFF  525,644
05E3E:  MOVFF  524,643
05E42:  MOVLW  9A
05E44:  MOVLB  6
05E46:  MOVWF  x4A
05E48:  MOVLW  99
05E4A:  MOVWF  x49
05E4C:  MOVLW  19
05E4E:  MOVWF  x48
05E50:  MOVLW  7D
05E52:  MOVWF  x47
05E54:  MOVLB  0
05E56:  CALL   219C
05E5A:  BNC   5E6C
05E5C:  MOVLB  4
05E5E:  BTFSS  x1B.7
05E60:  BRA    5E66
05E62:  MOVLB  0
05E64:  BRA    5E6C
....................                   Alarma=5; 
05E66:  MOVLW  05
05E68:  MOVWF  xE9
05E6A:  MOVLB  0
....................                } 
....................             } 
....................          }else{ 
05E6C:  BRA    5E9E
....................             Latencia=0;t_latencia=0;flag_latencia=0; 
05E6E:  MOVLB  4
05E70:  BCF    x1C.2
05E72:  CLRF   xF5
05E74:  CLRF   xF4
05E76:  BCF    x1C.3
....................             glcd_rect(0, 54, 104, 64, YES, OFF);Alarma_off;Alarma=10; 
05E78:  MOVLB  6
05E7A:  CLRF   x57
05E7C:  MOVLW  36
05E7E:  MOVWF  x58
05E80:  MOVLW  68
05E82:  MOVWF  x59
05E84:  MOVLW  40
05E86:  MOVWF  x5A
05E88:  MOVLW  01
05E8A:  MOVWF  x5B
05E8C:  CLRF   x5C
05E8E:  MOVLB  0
05E90:  CALL   374C
05E94:  BCF    F8B.1
05E96:  BCF    F94.1
05E98:  MOVLW  0A
05E9A:  MOVLB  4
05E9C:  MOVWF  xE9
....................          } 
....................        
....................          if(flag_luz==1){ 
05E9E:  MOVLB  4
05EA0:  BTFSS  x1B.3
05EA2:  BRA    5EB8
....................             glcd_imagen(3);LuzBlanca_on; 
05EA4:  MOVLW  03
05EA6:  MOVLB  6
05EA8:  MOVWF  x3E
05EAA:  MOVLB  0
05EAC:  CALL   4882
05EB0:  BCF    F8B.2
05EB2:  BCF    F94.2
....................          }else{ 
05EB4:  BRA    5EDA
05EB6:  MOVLB  4
....................             glcd_rect(102, 14, 127, 28, YES, OFF);LuzBlanca_off; 
05EB8:  MOVLW  66
05EBA:  MOVLB  6
05EBC:  MOVWF  x57
05EBE:  MOVLW  0E
05EC0:  MOVWF  x58
05EC2:  MOVLW  7F
05EC4:  MOVWF  x59
05EC6:  MOVLW  1C
05EC8:  MOVWF  x5A
05ECA:  MOVLW  01
05ECC:  MOVWF  x5B
05ECE:  CLRF   x5C
05ED0:  MOVLB  0
05ED2:  CALL   374C
05ED6:  BSF    F8B.2
05ED8:  BCF    F94.2
....................          } 
....................          
....................          if(UV2==10){ 
05EDA:  MOVLB  4
05EDC:  MOVF   xEA,W
05EDE:  SUBLW  0A
05EE0:  BTFSS  FD8.2
05EE2:  BRA    6072
....................             glcd_rect(0, 55, 100, 63, YES, OFF); 
05EE4:  MOVLB  6
05EE6:  CLRF   x57
05EE8:  MOVLW  37
05EEA:  MOVWF  x58
05EEC:  MOVLW  64
05EEE:  MOVWF  x59
05EF0:  MOVLW  3F
05EF2:  MOVWF  x5A
05EF4:  MOVLW  01
05EF6:  MOVWF  x5B
05EF8:  CLRF   x5C
05EFA:  MOVLB  0
05EFC:  CALL   374C
....................             flag_Luz=0;LuzBlanca_off; 
05F00:  MOVLB  4
05F02:  BCF    x1B.3
05F04:  BSF    F8B.2
05F06:  BCF    F94.2
....................             flag_blower=0; 
05F08:  BCF    x1B.1
....................             VelocidadMotor(0); 
05F0A:  MOVLB  6
05F0C:  CLRF   x3E
05F0E:  MOVLB  0
05F10:  CALL   428A
....................             tiempo_uv=1; 
05F14:  MOVLB  4
05F16:  BSF    x1B.7
....................             LuzUV_on; 
05F18:  BCF    F8B.3
05F1A:  BCF    F94.3
....................             glcd_text57(105, 0, UV, 2, ON); 
05F1C:  MOVLW  69
05F1E:  MOVLB  6
05F20:  MOVWF  x57
05F22:  CLRF   x58
05F24:  MOVLW  04
05F26:  MOVWF  x5A
05F28:  MOVLW  63
05F2A:  MOVWF  x59
05F2C:  MOVLW  02
05F2E:  MOVWF  x5B
05F30:  MOVLW  01
05F32:  MOVWF  x5C
05F34:  MOVLB  0
05F36:  CALL   380E
....................             if(guardauv==1){ 
05F3A:  MOVLB  4
05F3C:  BTFSS  x1C.4
05F3E:  BRA    6070
....................                guardauv=0; 
05F40:  BCF    x1C.4
....................                write_eeprom(31,minutos_uv); 
05F42:  CLRF   FAA
05F44:  MOVLW  1F
05F46:  MOVWF  FA9
05F48:  MOVFF  4E0,FA8
05F4C:  BCF    FA6.6
05F4E:  BCF    FA6.7
05F50:  BSF    FA6.2
05F52:  MOVF   FF2,W
05F54:  MOVWF  00
05F56:  BCF    FF2.7
05F58:  MOVLB  F
05F5A:  MOVLW  55
05F5C:  MOVWF  FA7
05F5E:  MOVLW  AA
05F60:  MOVWF  FA7
05F62:  BSF    FA6.1
05F64:  BTFSC  FA6.1
05F66:  BRA    5F64
05F68:  BCF    FA6.2
05F6A:  MOVF   00,W
05F6C:  IORWF  FF2,F
....................                delay_ms(20); 
05F6E:  MOVLW  14
05F70:  MOVLB  6
05F72:  MOVWF  x47
05F74:  MOVLB  0
05F76:  CALL   1512
....................                write_eeprom(12,Tuv[0]); 
05F7A:  CLRF   FAA
05F7C:  MOVLW  0C
05F7E:  MOVWF  FA9
05F80:  MOVFF  50C,FA8
05F84:  BCF    FA6.6
05F86:  BCF    FA6.7
05F88:  BSF    FA6.2
05F8A:  MOVF   FF2,W
05F8C:  MOVWF  00
05F8E:  BCF    FF2.7
05F90:  MOVLB  F
05F92:  MOVLW  55
05F94:  MOVWF  FA7
05F96:  MOVLW  AA
05F98:  MOVWF  FA7
05F9A:  BSF    FA6.1
05F9C:  BTFSC  FA6.1
05F9E:  BRA    5F9C
05FA0:  BCF    FA6.2
05FA2:  MOVF   00,W
05FA4:  IORWF  FF2,F
....................                delay_ms(20); 
05FA6:  MOVLW  14
05FA8:  MOVLB  6
05FAA:  MOVWF  x47
05FAC:  MOVLB  0
05FAE:  CALL   1512
....................                write_eeprom(13,Tuv[1]); 
05FB2:  CLRF   FAA
05FB4:  MOVLW  0D
05FB6:  MOVWF  FA9
05FB8:  MOVFF  50D,FA8
05FBC:  BCF    FA6.6
05FBE:  BCF    FA6.7
05FC0:  BSF    FA6.2
05FC2:  MOVF   FF2,W
05FC4:  MOVWF  00
05FC6:  BCF    FF2.7
05FC8:  MOVLB  F
05FCA:  MOVLW  55
05FCC:  MOVWF  FA7
05FCE:  MOVLW  AA
05FD0:  MOVWF  FA7
05FD2:  BSF    FA6.1
05FD4:  BTFSC  FA6.1
05FD6:  BRA    5FD4
05FD8:  BCF    FA6.2
05FDA:  MOVF   00,W
05FDC:  IORWF  FF2,F
....................                delay_ms(20); 
05FDE:  MOVLW  14
05FE0:  MOVLB  6
05FE2:  MOVWF  x47
05FE4:  MOVLB  0
05FE6:  CALL   1512
....................                write_eeprom(14,Tuv[2]); 
05FEA:  CLRF   FAA
05FEC:  MOVLW  0E
05FEE:  MOVWF  FA9
05FF0:  MOVFF  50E,FA8
05FF4:  BCF    FA6.6
05FF6:  BCF    FA6.7
05FF8:  BSF    FA6.2
05FFA:  MOVF   FF2,W
05FFC:  MOVWF  00
05FFE:  BCF    FF2.7
06000:  MOVLB  F
06002:  MOVLW  55
06004:  MOVWF  FA7
06006:  MOVLW  AA
06008:  MOVWF  FA7
0600A:  BSF    FA6.1
0600C:  BTFSC  FA6.1
0600E:  BRA    600C
06010:  BCF    FA6.2
06012:  MOVF   00,W
06014:  IORWF  FF2,F
....................                delay_ms(20); 
06016:  MOVLW  14
06018:  MOVLB  6
0601A:  MOVWF  x47
0601C:  MOVLB  0
0601E:  CALL   1512
....................                write_eeprom(15,Tuv[3]); 
06022:  CLRF   FAA
06024:  MOVLW  0F
06026:  MOVWF  FA9
06028:  MOVFF  50F,FA8
0602C:  BCF    FA6.6
0602E:  BCF    FA6.7
06030:  BSF    FA6.2
06032:  MOVF   FF2,W
06034:  MOVWF  00
06036:  BCF    FF2.7
06038:  MOVLB  F
0603A:  MOVLW  55
0603C:  MOVWF  FA7
0603E:  MOVLW  AA
06040:  MOVWF  FA7
06042:  BSF    FA6.1
06044:  BTFSC  FA6.1
06046:  BRA    6044
06048:  BCF    FA6.2
0604A:  MOVF   00,W
0604C:  IORWF  FF2,F
....................                delay_ms(500); 
0604E:  MOVLW  02
06050:  MOVLB  6
06052:  MOVWF  x3E
06054:  MOVLW  FA
06056:  MOVWF  x47
06058:  MOVLB  0
0605A:  CALL   1512
0605E:  MOVLB  6
06060:  DECFSZ x3E,F
06062:  BRA    6054
....................                glcd_init(ON); 
06064:  MOVLW  01
06066:  MOVWF  x3E
06068:  MOVLB  0
0606A:  CALL   4ABC
0606E:  MOVLB  4
....................             }                
....................          }else{ 
06070:  BRA    61CA
....................             LuzUV_off;tiempo_uv=0; 
06072:  BSF    F8B.3
06074:  BCF    F94.3
06076:  BCF    x1B.7
....................             glcd_rect(102, 0, 127, 14, YES, OFF); 
06078:  MOVLW  66
0607A:  MOVLB  6
0607C:  MOVWF  x57
0607E:  CLRF   x58
06080:  MOVLW  7F
06082:  MOVWF  x59
06084:  MOVLW  0E
06086:  MOVWF  x5A
06088:  MOVLW  01
0608A:  MOVWF  x5B
0608C:  CLRF   x5C
0608E:  MOVLB  0
06090:  CALL   374C
....................             if(guardauv==0){ 
06094:  MOVLB  4
06096:  BTFSC  x1C.4
06098:  BRA    61CA
....................                guardauv=1; 
0609A:  BSF    x1C.4
....................                write_eeprom(31,minutos_uv); 
0609C:  CLRF   FAA
0609E:  MOVLW  1F
060A0:  MOVWF  FA9
060A2:  MOVFF  4E0,FA8
060A6:  BCF    FA6.6
060A8:  BCF    FA6.7
060AA:  BSF    FA6.2
060AC:  MOVF   FF2,W
060AE:  MOVWF  00
060B0:  BCF    FF2.7
060B2:  MOVLB  F
060B4:  MOVLW  55
060B6:  MOVWF  FA7
060B8:  MOVLW  AA
060BA:  MOVWF  FA7
060BC:  BSF    FA6.1
060BE:  BTFSC  FA6.1
060C0:  BRA    60BE
060C2:  BCF    FA6.2
060C4:  MOVF   00,W
060C6:  IORWF  FF2,F
....................                delay_ms(20); 
060C8:  MOVLW  14
060CA:  MOVLB  6
060CC:  MOVWF  x47
060CE:  MOVLB  0
060D0:  CALL   1512
....................                write_eeprom(12,Tuv[0]); 
060D4:  CLRF   FAA
060D6:  MOVLW  0C
060D8:  MOVWF  FA9
060DA:  MOVFF  50C,FA8
060DE:  BCF    FA6.6
060E0:  BCF    FA6.7
060E2:  BSF    FA6.2
060E4:  MOVF   FF2,W
060E6:  MOVWF  00
060E8:  BCF    FF2.7
060EA:  MOVLB  F
060EC:  MOVLW  55
060EE:  MOVWF  FA7
060F0:  MOVLW  AA
060F2:  MOVWF  FA7
060F4:  BSF    FA6.1
060F6:  BTFSC  FA6.1
060F8:  BRA    60F6
060FA:  BCF    FA6.2
060FC:  MOVF   00,W
060FE:  IORWF  FF2,F
....................                delay_ms(20); 
06100:  MOVLW  14
06102:  MOVLB  6
06104:  MOVWF  x47
06106:  MOVLB  0
06108:  CALL   1512
....................                write_eeprom(13,Tuv[1]); 
0610C:  CLRF   FAA
0610E:  MOVLW  0D
06110:  MOVWF  FA9
06112:  MOVFF  50D,FA8
06116:  BCF    FA6.6
06118:  BCF    FA6.7
0611A:  BSF    FA6.2
0611C:  MOVF   FF2,W
0611E:  MOVWF  00
06120:  BCF    FF2.7
06122:  MOVLB  F
06124:  MOVLW  55
06126:  MOVWF  FA7
06128:  MOVLW  AA
0612A:  MOVWF  FA7
0612C:  BSF    FA6.1
0612E:  BTFSC  FA6.1
06130:  BRA    612E
06132:  BCF    FA6.2
06134:  MOVF   00,W
06136:  IORWF  FF2,F
....................                delay_ms(20); 
06138:  MOVLW  14
0613A:  MOVLB  6
0613C:  MOVWF  x47
0613E:  MOVLB  0
06140:  CALL   1512
....................                write_eeprom(14,Tuv[2]); 
06144:  CLRF   FAA
06146:  MOVLW  0E
06148:  MOVWF  FA9
0614A:  MOVFF  50E,FA8
0614E:  BCF    FA6.6
06150:  BCF    FA6.7
06152:  BSF    FA6.2
06154:  MOVF   FF2,W
06156:  MOVWF  00
06158:  BCF    FF2.7
0615A:  MOVLB  F
0615C:  MOVLW  55
0615E:  MOVWF  FA7
06160:  MOVLW  AA
06162:  MOVWF  FA7
06164:  BSF    FA6.1
06166:  BTFSC  FA6.1
06168:  BRA    6166
0616A:  BCF    FA6.2
0616C:  MOVF   00,W
0616E:  IORWF  FF2,F
....................                delay_ms(20); 
06170:  MOVLW  14
06172:  MOVLB  6
06174:  MOVWF  x47
06176:  MOVLB  0
06178:  CALL   1512
....................                write_eeprom(15,Tuv[3]); 
0617C:  CLRF   FAA
0617E:  MOVLW  0F
06180:  MOVWF  FA9
06182:  MOVFF  50F,FA8
06186:  BCF    FA6.6
06188:  BCF    FA6.7
0618A:  BSF    FA6.2
0618C:  MOVF   FF2,W
0618E:  MOVWF  00
06190:  BCF    FF2.7
06192:  MOVLB  F
06194:  MOVLW  55
06196:  MOVWF  FA7
06198:  MOVLW  AA
0619A:  MOVWF  FA7
0619C:  BSF    FA6.1
0619E:  BTFSC  FA6.1
061A0:  BRA    619E
061A2:  BCF    FA6.2
061A4:  MOVF   00,W
061A6:  IORWF  FF2,F
....................                delay_ms(500); 
061A8:  MOVLW  02
061AA:  MOVLB  6
061AC:  MOVWF  x3E
061AE:  MOVLW  FA
061B0:  MOVWF  x47
061B2:  MOVLB  0
061B4:  CALL   1512
061B8:  MOVLB  6
061BA:  DECFSZ x3E,F
061BC:  BRA    61AE
....................                glcd_init(ON); 
061BE:  MOVLW  01
061C0:  MOVWF  x3E
061C2:  MOVLB  0
061C4:  CALL   4ABC
061C8:  MOVLB  4
....................             } 
....................          } 
....................           
....................          if(Alarma==5){ 
061CA:  MOVF   xE9,W
061CC:  SUBLW  05
061CE:  BNZ   620C
....................             glcd_rect(0, 55, 100, 63, YES, OFF); 
061D0:  MOVLB  6
061D2:  CLRF   x57
061D4:  MOVLW  37
061D6:  MOVWF  x58
061D8:  MOVLW  64
061DA:  MOVWF  x59
061DC:  MOVLW  3F
061DE:  MOVWF  x5A
061E0:  MOVLW  01
061E2:  MOVWF  x5B
061E4:  CLRF   x5C
061E6:  MOVLB  0
061E8:  CALL   374C
....................             glcd_text57(0,55, Perdida, 1, ON); 
061EC:  MOVLB  6
061EE:  CLRF   x57
061F0:  MOVLW  37
061F2:  MOVWF  x58
061F4:  MOVLW  04
061F6:  MOVWF  x5A
061F8:  MOVLW  C8
061FA:  MOVWF  x59
061FC:  MOVLW  01
061FE:  MOVWF  x5B
06200:  MOVWF  x5C
06202:  MOVLB  0
06204:  CALL   380E
....................          }else{ 
06208:  BRA    6228
0620A:  MOVLB  4
....................             glcd_rect(0, 55, 100, 63, YES, OFF); 
0620C:  MOVLB  6
0620E:  CLRF   x57
06210:  MOVLW  37
06212:  MOVWF  x58
06214:  MOVLW  64
06216:  MOVWF  x59
06218:  MOVLW  3F
0621A:  MOVWF  x5A
0621C:  MOVLW  01
0621E:  MOVWF  x5B
06220:  CLRF   x5C
06222:  MOVLB  0
06224:  CALL   374C
....................          } 
....................              
....................          if(RIGHT){//Si oprime boton de Blower. 
06228:  BSF    F96.0
0622A:  BTFSC  F84.0
0622C:  BRA    624A
....................             if(Flanco3 == 0){ 
0622E:  MOVLB  4
06230:  BTFSC  x1A.3
06232:  BRA    6246
....................                Flanco3 = 1;delay_ms(5);flag_blower=!flag_blower; 
06234:  BSF    x1A.3
06236:  MOVLW  05
06238:  MOVLB  6
0623A:  MOVWF  x47
0623C:  MOVLB  0
0623E:  CALL   1512
06242:  MOVLB  4
06244:  BTG    x1B.1
....................             } 
....................          }else{ 
06246:  BRA    624E
06248:  MOVLB  0
....................             Flanco3 = 0; 
0624A:  MOVLB  4
0624C:  BCF    x1A.3
....................          } 
....................              
....................          if(LEFT){//Si oprime boton de Luz UV.          
0624E:  BSF    F96.1
06250:  BTFSC  F84.1
06252:  BRA    6278
....................             if(Flanco4 == 0){ 
06254:  BTFSC  x1A.4
06256:  BRA    6276
....................                Flanco4 = 1;delay_ms(5);flag_uv=!flag_uv; 
06258:  BSF    x1A.4
0625A:  MOVLW  05
0625C:  MOVLB  6
0625E:  MOVWF  x47
06260:  MOVLB  0
06262:  CALL   1512
06266:  MOVLB  4
06268:  BTG    x1B.0
....................                if(UV2==0) 
0626A:  MOVF   xEA,F
0626C:  BNZ   6274
....................                   UV2=10; 
0626E:  MOVLW  0A
06270:  MOVWF  xEA
....................                else 
06272:  BRA    6276
....................                   UV2=0; 
06274:  CLRF   xEA
....................             } 
....................          }else{ 
06276:  BRA    627A
....................             Flanco4 = 0; 
06278:  BCF    x1A.4
....................          } 
....................              
....................          if(DOWN){//Si oprime boton de Luz Blanca. 
0627A:  BSF    F92.5
0627C:  BTFSC  F80.5
0627E:  BRA    6298
....................             if(Flanco5 == 0){ 
06280:  BTFSC  x1A.5
06282:  BRA    6296
....................                Flanco5 = 1;delay_ms(5);flag_luz=!flag_luz; 
06284:  BSF    x1A.5
06286:  MOVLW  05
06288:  MOVLB  6
0628A:  MOVWF  x47
0628C:  MOVLB  0
0628E:  CALL   1512
06292:  MOVLB  4
06294:  BTG    x1B.3
....................             } 
....................          }else{ 
06296:  BRA    629A
....................             Flanco5 = 0; 
06298:  BCF    x1A.5
....................          } 
....................        
....................          if(UP){//Si oprime boton de Toma.          
0629A:  BSF    F92.4
0629C:  BTFSC  F80.4
0629E:  BRA    6310
....................             delay_ms(500); 
062A0:  MOVLW  02
062A2:  MOVLB  6
062A4:  MOVWF  x3E
062A6:  MOVLW  FA
062A8:  MOVWF  x47
062AA:  MOVLB  0
062AC:  CALL   1512
062B0:  MOVLB  6
062B2:  DECFSZ x3E,F
062B4:  BRA    62A6
....................             if(UP){//Si oprime boton de Toma. 
062B6:  BSF    F92.4
062B8:  BTFSC  F80.4
062BA:  BRA    62F2
....................                delay_ms(30);Menu=3;//glcd_fillScreen(OFF); 
062BC:  MOVLW  1E
062BE:  MOVWF  x47
062C0:  MOVLB  0
062C2:  CALL   1512
062C6:  MOVLW  03
062C8:  MOVLB  4
062CA:  MOVWF  xD8
....................                glcd_init(ON);             //Inicializa la glcd 
062CC:  MOVLW  01
062CE:  MOVLB  6
062D0:  MOVWF  x3E
062D2:  MOVLB  0
062D4:  CALL   4ABC
....................                glcd_fillScreen(OFF);      //Limpia la pantalla 
062D8:  MOVLB  6
062DA:  CLRF   x46
062DC:  MOVLB  0
062DE:  CALL   3B48
....................                glcd_update();   
062E2:  CALL   2C60
....................                LuzBlanca_off;LuzUV_off; 
062E6:  BSF    F8B.2
062E8:  BCF    F94.2
062EA:  BSF    F8B.3
062EC:  BCF    F94.3
....................             }else{ 
062EE:  BRA    630C
062F0:  MOVLB  6
....................                if(Flanco6 == 0){ 
062F2:  MOVLB  4
062F4:  BTFSC  x1A.6
062F6:  BRA    630A
....................                   Flanco6 = 1;delay_ms(30);flag_toma=!flag_toma; 
062F8:  BSF    x1A.6
062FA:  MOVLW  1E
062FC:  MOVLB  6
062FE:  MOVWF  x47
06300:  MOVLB  0
06302:  CALL   1512
06306:  MOVLB  4
06308:  BTG    x1B.2
0630A:  MOVLB  0
....................                } 
....................             } 
....................          }else{ 
0630C:  BRA    6312
0630E:  MOVLB  4
....................             Flanco6 = 0; 
06310:  BCF    x1A.6
....................          } 
....................              
....................          if((Tempouv[0]>=Tempouvp[0])&&(Tempouv[1]>=Tempouvp[1])&&(Tempouv[2]>=Tempouvp[2])&&(Tempouv[3]>=Tempouvp[3]))      { 
06312:  MOVLB  5
06314:  MOVF   x14,W
06316:  XORLW  80
06318:  MOVWF  00
0631A:  MOVF   x10,W
0631C:  XORLW  80
0631E:  SUBWF  00,W
06320:  BZ    6324
06322:  BC    639C
06324:  MOVF   x15,W
06326:  XORLW  80
06328:  MOVWF  00
0632A:  MOVF   x11,W
0632C:  XORLW  80
0632E:  SUBWF  00,W
06330:  BZ    6334
06332:  BC    639C
06334:  MOVF   x16,W
06336:  XORLW  80
06338:  MOVWF  00
0633A:  MOVF   x12,W
0633C:  XORLW  80
0633E:  SUBWF  00,W
06340:  BZ    6344
06342:  BC    639C
06344:  MOVF   x17,W
06346:  XORLW  80
06348:  MOVWF  00
0634A:  MOVF   x13,W
0634C:  XORLW  80
0634E:  SUBWF  00,W
06350:  BZ    6354
06352:  BC    639C
....................             if((Tempouvp[0]==0)&&(Tempouvp[1]==0)&&(Tempouvp[2]==0)&&(Tempouvp[3]==0)){ 
06354:  MOVF   x14,F
06356:  BNZ   6366
06358:  MOVF   x15,F
0635A:  BNZ   6366
0635C:  MOVF   x16,F
0635E:  BNZ   6366
06360:  MOVF   x17,F
06362:  BNZ   6366
....................             }else{ 
06364:  BRA    639C
....................                tiempo_uv=0;LuzUV=10;flag_uv=!flag_uv;glcd_rect(102, 0, 127, 14, YES, OFF); 
06366:  MOVLB  4
06368:  BCF    x1B.7
0636A:  MOVLW  0A
0636C:  MOVWF  xE7
0636E:  BTG    x1B.0
06370:  MOVLW  66
06372:  MOVLB  6
06374:  MOVWF  x57
06376:  CLRF   x58
06378:  MOVLW  7F
0637A:  MOVWF  x59
0637C:  MOVLW  0E
0637E:  MOVWF  x5A
06380:  MOVLW  01
06382:  MOVWF  x5B
06384:  CLRF   x5C
06386:  MOVLB  0
06388:  CALL   374C
....................                Tempouv[0]=0;Tempouv[1]=0;Tempouv[2]=0;Tempouv[3]=0;UV2=0; 
0638C:  MOVLB  5
0638E:  CLRF   x10
06390:  CLRF   x11
06392:  CLRF   x12
06394:  CLRF   x13
06396:  MOVLB  4
06398:  CLRF   xEA
0639A:  MOVLB  5
....................             } 
....................          } 
....................       } 
.................... //_--------------------------------------------------------------------------------------------------------------------------------------------------------        
....................  
.................... //_-------------------------------------------------------------------------------------------------------------------------------------------------------- 
....................       if(Menu==3){ //Menu Principal. 
0639C:  MOVLB  4
0639E:  MOVF   xD8,W
063A0:  SUBLW  03
063A2:  BTFSS  FD8.2
063A4:  BRA    668A
....................              
....................       strcpy(Menus.Letra,"Menu"); 
063A6:  MOVLW  06
063A8:  MOVWF  FEA
063AA:  MOVLW  28
063AC:  MOVWF  FE9
063AE:  MOVFF  FF2,63E
063B2:  BCF    FF2.7
063B4:  MOVLW  00
063B6:  MOVLB  0
063B8:  CALL   0F80
063BC:  TBLRD*-
063BE:  TBLRD*+
063C0:  MOVF   FF5,W
063C2:  MOVWF  FEE
063C4:  IORLW  00
063C6:  BNZ   63BE
063C8:  MOVLB  6
063CA:  BTFSC  x3E.7
063CC:  BSF    FF2.7
....................       displayMenu(Menus.Letra,40,0,1,2); 
063CE:  MOVLW  06
063D0:  MOVWF  x47
063D2:  MOVLW  28
063D4:  MOVWF  x46
063D6:  MOVWF  x48
063D8:  CLRF   x49
063DA:  MOVLW  01
063DC:  MOVWF  x4A
063DE:  MOVLW  02
063E0:  MOVWF  x4B
063E2:  MOVLB  0
063E4:  CALL   3A7C
....................        
....................       if(Opcion==1){ 
063E8:  MOVLB  4
063EA:  DECFSZ xDA,W
063EC:  BRA    6434
....................          strcpy(Menus.Letra,"Ajustes"); 
063EE:  MOVLW  06
063F0:  MOVWF  FEA
063F2:  MOVLW  28
063F4:  MOVWF  FE9
063F6:  MOVFF  FF2,63E
063FA:  BCF    FF2.7
063FC:  MOVLW  00
063FE:  MOVLB  0
06400:  CALL   0FA4
06404:  TBLRD*-
06406:  TBLRD*+
06408:  MOVF   FF5,W
0640A:  MOVWF  FEE
0640C:  IORLW  00
0640E:  BNZ   6406
06410:  MOVLB  6
06412:  BTFSC  x3E.7
06414:  BSF    FF2.7
....................          displayMenu(Menus.Letra,0,19,1,1); 
06416:  MOVLW  06
06418:  MOVWF  x47
0641A:  MOVLW  28
0641C:  MOVWF  x46
0641E:  CLRF   x48
06420:  MOVLW  13
06422:  MOVWF  x49
06424:  MOVLW  01
06426:  MOVWF  x4A
06428:  MOVWF  x4B
0642A:  MOVLB  0
0642C:  CALL   3A7C
....................       }else{ 
06430:  BRA    6476
06432:  MOVLB  4
....................          strcpy(Menus.Letra,"Ajustes"); 
06434:  MOVLW  06
06436:  MOVWF  FEA
06438:  MOVLW  28
0643A:  MOVWF  FE9
0643C:  MOVFF  FF2,63E
06440:  BCF    FF2.7
06442:  MOVLW  00
06444:  MOVLB  0
06446:  CALL   0FA4
0644A:  TBLRD*-
0644C:  TBLRD*+
0644E:  MOVF   FF5,W
06450:  MOVWF  FEE
06452:  IORLW  00
06454:  BNZ   644C
06456:  MOVLB  6
06458:  BTFSC  x3E.7
0645A:  BSF    FF2.7
....................          displayMenu(Menus.Letra,0,19,0,1); 
0645C:  MOVLW  06
0645E:  MOVWF  x47
06460:  MOVLW  28
06462:  MOVWF  x46
06464:  CLRF   x48
06466:  MOVLW  13
06468:  MOVWF  x49
0646A:  CLRF   x4A
0646C:  MOVLW  01
0646E:  MOVWF  x4B
06470:  MOVLB  0
06472:  CALL   3A7C
....................       } 
....................           
....................       if(Opcion==2){ 
06476:  MOVLB  4
06478:  MOVF   xDA,W
0647A:  SUBLW  02
0647C:  BNZ   64C4
....................          strcpy(Menus.Letra,"Cambio de Clave"); 
0647E:  MOVLW  06
06480:  MOVWF  FEA
06482:  MOVLW  28
06484:  MOVWF  FE9
06486:  MOVFF  FF2,63E
0648A:  BCF    FF2.7
0648C:  MOVLW  00
0648E:  MOVLB  0
06490:  CALL   0FCA
06494:  TBLRD*-
06496:  TBLRD*+
06498:  MOVF   FF5,W
0649A:  MOVWF  FEE
0649C:  IORLW  00
0649E:  BNZ   6496
064A0:  MOVLB  6
064A2:  BTFSC  x3E.7
064A4:  BSF    FF2.7
....................          displayMenu(Menus.Letra,0,35,1,1); 
064A6:  MOVLW  06
064A8:  MOVWF  x47
064AA:  MOVLW  28
064AC:  MOVWF  x46
064AE:  CLRF   x48
064B0:  MOVLW  23
064B2:  MOVWF  x49
064B4:  MOVLW  01
064B6:  MOVWF  x4A
064B8:  MOVWF  x4B
064BA:  MOVLB  0
064BC:  CALL   3A7C
....................       }else{ 
064C0:  BRA    6506
064C2:  MOVLB  4
....................          strcpy(Menus.Letra,"Cambio de Clave"); 
064C4:  MOVLW  06
064C6:  MOVWF  FEA
064C8:  MOVLW  28
064CA:  MOVWF  FE9
064CC:  MOVFF  FF2,63E
064D0:  BCF    FF2.7
064D2:  MOVLW  00
064D4:  MOVLB  0
064D6:  CALL   0FCA
064DA:  TBLRD*-
064DC:  TBLRD*+
064DE:  MOVF   FF5,W
064E0:  MOVWF  FEE
064E2:  IORLW  00
064E4:  BNZ   64DC
064E6:  MOVLB  6
064E8:  BTFSC  x3E.7
064EA:  BSF    FF2.7
....................          displayMenu(Menus.Letra,0,35,0,1); 
064EC:  MOVLW  06
064EE:  MOVWF  x47
064F0:  MOVLW  28
064F2:  MOVWF  x46
064F4:  CLRF   x48
064F6:  MOVLW  23
064F8:  MOVWF  x49
064FA:  CLRF   x4A
064FC:  MOVLW  01
064FE:  MOVWF  x4B
06500:  MOVLB  0
06502:  CALL   3A7C
....................       } 
....................           
....................       if(Opcion==3){ 
06506:  MOVLB  4
06508:  MOVF   xDA,W
0650A:  SUBLW  03
0650C:  BNZ   6554
....................          strcpy(Menus.Letra,"Modo"); 
0650E:  MOVLW  06
06510:  MOVWF  FEA
06512:  MOVLW  28
06514:  MOVWF  FE9
06516:  MOVFF  FF2,63E
0651A:  BCF    FF2.7
0651C:  MOVLW  00
0651E:  MOVLB  0
06520:  CALL   0FF8
06524:  TBLRD*-
06526:  TBLRD*+
06528:  MOVF   FF5,W
0652A:  MOVWF  FEE
0652C:  IORLW  00
0652E:  BNZ   6526
06530:  MOVLB  6
06532:  BTFSC  x3E.7
06534:  BSF    FF2.7
....................          displayMenu(Menus.Letra,0,51,1,1); 
06536:  MOVLW  06
06538:  MOVWF  x47
0653A:  MOVLW  28
0653C:  MOVWF  x46
0653E:  CLRF   x48
06540:  MOVLW  33
06542:  MOVWF  x49
06544:  MOVLW  01
06546:  MOVWF  x4A
06548:  MOVWF  x4B
0654A:  MOVLB  0
0654C:  CALL   3A7C
....................       }else{ 
06550:  BRA    6596
06552:  MOVLB  4
....................          strcpy(Menus.Letra,"Modo"); 
06554:  MOVLW  06
06556:  MOVWF  FEA
06558:  MOVLW  28
0655A:  MOVWF  FE9
0655C:  MOVFF  FF2,63E
06560:  BCF    FF2.7
06562:  MOVLW  00
06564:  MOVLB  0
06566:  CALL   0FF8
0656A:  TBLRD*-
0656C:  TBLRD*+
0656E:  MOVF   FF5,W
06570:  MOVWF  FEE
06572:  IORLW  00
06574:  BNZ   656C
06576:  MOVLB  6
06578:  BTFSC  x3E.7
0657A:  BSF    FF2.7
....................          displayMenu(Menus.Letra,0,51,0,1); 
0657C:  MOVLW  06
0657E:  MOVWF  x47
06580:  MOVLW  28
06582:  MOVWF  x46
06584:  CLRF   x48
06586:  MOVLW  33
06588:  MOVWF  x49
0658A:  CLRF   x4A
0658C:  MOVLW  01
0658E:  MOVWF  x4B
06590:  MOVLB  0
06592:  CALL   3A7C
....................       } 
....................       glcd_update();  
06596:  CALL   2C60
....................        
....................       if(w==0){ 
0659A:  MOVLB  4
0659C:  BTFSC  x1B.5
0659E:  BRA    65BA
....................          delay_ms(500);w=1; 
065A0:  MOVLW  02
065A2:  MOVLB  6
065A4:  MOVWF  x3E
065A6:  MOVLW  FA
065A8:  MOVWF  x47
065AA:  MOVLB  0
065AC:  CALL   1512
065B0:  MOVLB  6
065B2:  DECFSZ x3E,F
065B4:  BRA    65A6
065B6:  MOVLB  4
065B8:  BSF    x1B.5
....................       } 
....................           
....................       if(UP){//Si oprime hacia arriba         
065BA:  BSF    F92.4
065BC:  BTFSC  F80.4
065BE:  BRA    65D8
....................          if(Flanco == 0){ 
065C0:  BTFSC  x1A.0
065C2:  BRA    65D6
....................             Flanco = 1;delay_ms(30);Opcion--; 
065C4:  BSF    x1A.0
065C6:  MOVLW  1E
065C8:  MOVLB  6
065CA:  MOVWF  x47
065CC:  MOVLB  0
065CE:  CALL   1512
065D2:  MOVLB  4
065D4:  DECF   xDA,F
....................          } 
....................       }else{ 
065D6:  BRA    65DA
....................          Flanco = 0; 
065D8:  BCF    x1A.0
....................       } 
....................              
....................       if(DOWN){//Si oprime hacia abajo 
065DA:  BSF    F92.5
065DC:  BTFSC  F80.5
065DE:  BRA    65F8
....................          if(Flanco2 == 0){ 
065E0:  BTFSC  x1A.2
065E2:  BRA    65F6
....................             Flanco2 = 1;delay_ms(30);Opcion++; 
065E4:  BSF    x1A.2
065E6:  MOVLW  1E
065E8:  MOVLB  6
065EA:  MOVWF  x47
065EC:  MOVLB  0
065EE:  CALL   1512
065F2:  MOVLB  4
065F4:  INCF   xDA,F
....................          } 
....................       }else{ 
065F6:  BRA    65FA
....................          Flanco2 = 0; 
065F8:  BCF    x1A.2
....................       } 
....................              
....................       if(RIGHT){//Si oprime SET 
065FA:  BSF    F96.0
065FC:  BTFSC  F84.0
065FE:  BRA    6648
....................          if(Flanco1 == 0){ 
06600:  BTFSC  x1A.1
06602:  BRA    6646
....................             Flanco1 = 1;delay_ms(500);Menu=Opcion+3;Opcion=1;glcd_fillscreen(OFF);unidad=1; 
06604:  BSF    x1A.1
06606:  MOVLW  02
06608:  MOVLB  6
0660A:  MOVWF  x3E
0660C:  MOVLW  FA
0660E:  MOVWF  x47
06610:  MOVLB  0
06612:  CALL   1512
06616:  MOVLB  6
06618:  DECFSZ x3E,F
0661A:  BRA    660C
0661C:  MOVLW  03
0661E:  MOVLB  4
06620:  ADDWF  xDA,W
06622:  MOVWF  xD8
06624:  MOVLW  01
06626:  MOVWF  xDA
06628:  MOVLB  6
0662A:  CLRF   x46
0662C:  MOVLB  0
0662E:  CALL   3B48
06632:  MOVLW  01
06634:  MOVLB  4
06636:  MOVWF  xD9
....................             Contrasena[0]=0;Contrasena[1]=0;Contrasena[2]=0;Contrasena[3]=0;n=0; 
06638:  MOVLB  5
0663A:  CLRF   x1C
0663C:  CLRF   x1D
0663E:  CLRF   x1E
06640:  CLRF   x1F
06642:  MOVLB  4
06644:  BCF    x1C.7
....................          } 
....................       }else{ 
06646:  BRA    664A
....................          Flanco1 = 0; 
06648:  BCF    x1A.1
....................       } 
....................              
....................       if(LEFT){//Si oprime boton de Toma. 
0664A:  BSF    F96.1
0664C:  BTFSC  F84.1
0664E:  BRA    6678
....................          delay_ms(700);Menu=2;glcd_fillscreen(OFF); 
06650:  MOVLW  04
06652:  MOVLB  6
06654:  MOVWF  x3E
06656:  MOVLW  AF
06658:  MOVWF  x47
0665A:  MOVLB  0
0665C:  CALL   1512
06660:  MOVLB  6
06662:  DECFSZ x3E,F
06664:  BRA    6656
06666:  MOVLW  02
06668:  MOVLB  4
0666A:  MOVWF  xD8
0666C:  MOVLB  6
0666E:  CLRF   x46
06670:  MOVLB  0
06672:  CALL   3B48
06676:  MOVLB  4
....................       } 
....................              
....................       if(Opcion>3) 
06678:  MOVF   xDA,W
0667A:  SUBLW  03
0667C:  BC    6682
....................          Opcion=1; 
0667E:  MOVLW  01
06680:  MOVWF  xDA
....................       if(Opcion<1) 
06682:  MOVF   xDA,F
06684:  BNZ   668A
....................          Opcion=3; 
06686:  MOVLW  03
06688:  MOVWF  xDA
....................     } 
.................... //_--------------------------------------------------------------------------------------------------------------------------------------------------------        
....................  
.................... //_-------------------------------------------------------------------------------------------------------------------------------------------------------- 
....................       if(Menu==4){ //Menu de Ajustes. 
0668A:  MOVF   xD8,W
0668C:  SUBLW  04
0668E:  BTFSS  FD8.2
06690:  BRA    68B0
....................        
....................       strcpy(Menus.Letra,"Ajustes"); 
06692:  MOVLW  06
06694:  MOVWF  FEA
06696:  MOVLW  28
06698:  MOVWF  FE9
0669A:  MOVFF  FF2,63E
0669E:  BCF    FF2.7
066A0:  MOVLW  00
066A2:  MOVLB  0
066A4:  CALL   0FA4
066A8:  TBLRD*-
066AA:  TBLRD*+
066AC:  MOVF   FF5,W
066AE:  MOVWF  FEE
066B0:  IORLW  00
066B2:  BNZ   66AA
066B4:  MOVLB  6
066B6:  BTFSC  x3E.7
066B8:  BSF    FF2.7
....................       displayMenu(Menus.Letra,0,0,1,2); 
066BA:  MOVLW  06
066BC:  MOVWF  x47
066BE:  MOVLW  28
066C0:  MOVWF  x46
066C2:  CLRF   x48
066C4:  CLRF   x49
066C6:  MOVLW  01
066C8:  MOVWF  x4A
066CA:  MOVLW  02
066CC:  MOVWF  x4B
066CE:  MOVLB  0
066D0:  CALL   3A7C
....................        
....................       if(Opcion==1)    
066D4:  MOVLB  4
066D6:  DECFSZ xDA,W
066D8:  BRA    6720
....................          {strcpy(Menus.Letra,"Tiempo Purga"); 
066DA:  MOVLW  06
066DC:  MOVWF  FEA
066DE:  MOVLW  28
066E0:  MOVWF  FE9
066E2:  MOVFF  FF2,63E
066E6:  BCF    FF2.7
066E8:  MOVLW  00
066EA:  MOVLB  0
066EC:  CALL   101C
066F0:  TBLRD*-
066F2:  TBLRD*+
066F4:  MOVF   FF5,W
066F6:  MOVWF  FEE
066F8:  IORLW  00
066FA:  BNZ   66F2
066FC:  MOVLB  6
066FE:  BTFSC  x3E.7
06700:  BSF    FF2.7
....................          displayMenu(Menus.Letra,0,20,1,1);} 
06702:  MOVLW  06
06704:  MOVWF  x47
06706:  MOVLW  28
06708:  MOVWF  x46
0670A:  CLRF   x48
0670C:  MOVLW  14
0670E:  MOVWF  x49
06710:  MOVLW  01
06712:  MOVWF  x4A
06714:  MOVWF  x4B
06716:  MOVLB  0
06718:  CALL   3A7C
....................       else 
0671C:  BRA    6762
0671E:  MOVLB  4
....................          {strcpy(Menus.Letra,"Tiempo Purga"); 
06720:  MOVLW  06
06722:  MOVWF  FEA
06724:  MOVLW  28
06726:  MOVWF  FE9
06728:  MOVFF  FF2,63E
0672C:  BCF    FF2.7
0672E:  MOVLW  00
06730:  MOVLB  0
06732:  CALL   101C
06736:  TBLRD*-
06738:  TBLRD*+
0673A:  MOVF   FF5,W
0673C:  MOVWF  FEE
0673E:  IORLW  00
06740:  BNZ   6738
06742:  MOVLB  6
06744:  BTFSC  x3E.7
06746:  BSF    FF2.7
....................          displayMenu(Menus.Letra,0,20,0,1);} 
06748:  MOVLW  06
0674A:  MOVWF  x47
0674C:  MOVLW  28
0674E:  MOVWF  x46
06750:  CLRF   x48
06752:  MOVLW  14
06754:  MOVWF  x49
06756:  CLRF   x4A
06758:  MOVLW  01
0675A:  MOVWF  x4B
0675C:  MOVLB  0
0675E:  CALL   3A7C
....................           
....................       if(Opcion==2)    
06762:  MOVLB  4
06764:  MOVF   xDA,W
06766:  SUBLW  02
06768:  BNZ   67B0
....................          {strcpy(Menus.Letra,"Tempo UV"); 
0676A:  MOVLW  06
0676C:  MOVWF  FEA
0676E:  MOVLW  28
06770:  MOVWF  FE9
06772:  MOVFF  FF2,63E
06776:  BCF    FF2.7
06778:  MOVLW  00
0677A:  MOVLB  0
0677C:  CALL   1048
06780:  TBLRD*-
06782:  TBLRD*+
06784:  MOVF   FF5,W
06786:  MOVWF  FEE
06788:  IORLW  00
0678A:  BNZ   6782
0678C:  MOVLB  6
0678E:  BTFSC  x3E.7
06790:  BSF    FF2.7
....................          displayMenu(Menus.Letra,0,35,1,1);} 
06792:  MOVLW  06
06794:  MOVWF  x47
06796:  MOVLW  28
06798:  MOVWF  x46
0679A:  CLRF   x48
0679C:  MOVLW  23
0679E:  MOVWF  x49
067A0:  MOVLW  01
067A2:  MOVWF  x4A
067A4:  MOVWF  x4B
067A6:  MOVLB  0
067A8:  CALL   3A7C
....................       else 
067AC:  BRA    67F2
067AE:  MOVLB  4
....................          {strcpy(Menus.Letra,"Tempo UV"); 
067B0:  MOVLW  06
067B2:  MOVWF  FEA
067B4:  MOVLW  28
067B6:  MOVWF  FE9
067B8:  MOVFF  FF2,63E
067BC:  BCF    FF2.7
067BE:  MOVLW  00
067C0:  MOVLB  0
067C2:  CALL   1048
067C6:  TBLRD*-
067C8:  TBLRD*+
067CA:  MOVF   FF5,W
067CC:  MOVWF  FEE
067CE:  IORLW  00
067D0:  BNZ   67C8
067D2:  MOVLB  6
067D4:  BTFSC  x3E.7
067D6:  BSF    FF2.7
....................          displayMenu(Menus.Letra,0,35,0,1);}               
067D8:  MOVLW  06
067DA:  MOVWF  x47
067DC:  MOVLW  28
067DE:  MOVWF  x46
067E0:  CLRF   x48
067E2:  MOVLW  23
067E4:  MOVWF  x49
067E6:  CLRF   x4A
067E8:  MOVLW  01
067EA:  MOVWF  x4B
067EC:  MOVLB  0
067EE:  CALL   3A7C
....................          
....................       if(UP)//Si oprime hacia arriba 
067F2:  BSF    F92.4
067F4:  BTFSC  F80.4
067F6:  BRA    6812
....................       {  if(Flanco == 0)  
067F8:  MOVLB  4
067FA:  BTFSC  x1A.0
067FC:  BRA    6810
....................             {Flanco = 1;delay_ms(30);Opcion--; 
067FE:  BSF    x1A.0
06800:  MOVLW  1E
06802:  MOVLB  6
06804:  MOVWF  x47
06806:  MOVLB  0
06808:  CALL   1512
0680C:  MOVLB  4
0680E:  DECF   xDA,F
....................             } 
....................       } 
....................          else 
06810:  BRA    6816
....................             {Flanco = 0;} 
06812:  MOVLB  4
06814:  BCF    x1A.0
....................              
....................       if(DOWN)//Si oprime hacia abajo 
06816:  BSF    F92.5
06818:  BTFSC  F80.5
0681A:  BRA    6834
....................       {  if(Flanco2 == 0)  
0681C:  BTFSC  x1A.2
0681E:  BRA    6832
....................             {Flanco2 = 1;delay_ms(30);Opcion++; 
06820:  BSF    x1A.2
06822:  MOVLW  1E
06824:  MOVLB  6
06826:  MOVWF  x47
06828:  MOVLB  0
0682A:  CALL   1512
0682E:  MOVLB  4
06830:  INCF   xDA,F
....................             }      
....................       } 
....................          else 
06832:  BRA    6836
....................             {Flanco2 = 0;}   
06834:  BCF    x1A.2
....................              
....................       if(RIGHT)//Si oprime SET 
06836:  BSF    F96.0
06838:  BTFSC  F84.0
0683A:  BRA    686E
....................       {  if(Flanco1 == 0)  
0683C:  BTFSC  x1A.1
0683E:  BRA    686C
....................             {Flanco1 = 1;delay_ms(500);Menu=Opcion+10;glcd_fillScreen(OFF); 
06840:  BSF    x1A.1
06842:  MOVLW  02
06844:  MOVLB  6
06846:  MOVWF  x3E
06848:  MOVLW  FA
0684A:  MOVWF  x47
0684C:  MOVLB  0
0684E:  CALL   1512
06852:  MOVLB  6
06854:  DECFSZ x3E,F
06856:  BRA    6848
06858:  MOVLW  0A
0685A:  MOVLB  4
0685C:  ADDWF  xDA,W
0685E:  MOVWF  xD8
06860:  MOVLB  6
06862:  CLRF   x46
06864:  MOVLB  0
06866:  CALL   3B48
0686A:  MOVLB  4
....................             } 
....................       } 
....................          else 
0686C:  BRA    6870
....................             {Flanco1 = 0;}   
0686E:  BCF    x1A.1
....................              
....................       if(LEFT)//Si oprime boton de Toma. 
06870:  BSF    F96.1
06872:  BTFSC  F84.1
06874:  BRA    689E
....................         {delay_ms(700);Menu=3;glcd_fillscreen(OFF);} 
06876:  MOVLW  04
06878:  MOVLB  6
0687A:  MOVWF  x3E
0687C:  MOVLW  AF
0687E:  MOVWF  x47
06880:  MOVLB  0
06882:  CALL   1512
06886:  MOVLB  6
06888:  DECFSZ x3E,F
0688A:  BRA    687C
0688C:  MOVLW  03
0688E:  MOVLB  4
06890:  MOVWF  xD8
06892:  MOVLB  6
06894:  CLRF   x46
06896:  MOVLB  0
06898:  CALL   3B48
0689C:  MOVLB  4
....................        
....................       if(Opcion>2) 
0689E:  MOVF   xDA,W
068A0:  SUBLW  02
068A2:  BC    68A8
....................       {Opcion=1;} 
068A4:  MOVLW  01
068A6:  MOVWF  xDA
....................       if(Opcion<1) 
068A8:  MOVF   xDA,F
068AA:  BNZ   68B0
....................       {Opcion=2;} 
068AC:  MOVLW  02
068AE:  MOVWF  xDA
....................      
....................     } 
.................... //_--------------------------------------------------------------------------------------------------------------------------------------------------------        
.................... //_-------------------------------------------------------------------------------------------------------------------------------------------------------- 
....................       if(Menu==6){ //Menu de Modo. 
068B0:  MOVF   xD8,W
068B2:  SUBLW  06
068B4:  BTFSS  FD8.2
068B6:  BRA    6ADC
....................        
....................       strcpy(Menus.Letra,"Modo"); 
068B8:  MOVLW  06
068BA:  MOVWF  FEA
068BC:  MOVLW  28
068BE:  MOVWF  FE9
068C0:  MOVFF  FF2,63E
068C4:  BCF    FF2.7
068C6:  MOVLW  00
068C8:  MOVLB  0
068CA:  CALL   0FF8
068CE:  TBLRD*-
068D0:  TBLRD*+
068D2:  MOVF   FF5,W
068D4:  MOVWF  FEE
068D6:  IORLW  00
068D8:  BNZ   68D0
068DA:  MOVLB  6
068DC:  BTFSC  x3E.7
068DE:  BSF    FF2.7
....................       displayMenu(Menus.Letra,40,0,1,2); 
068E0:  MOVLW  06
068E2:  MOVWF  x47
068E4:  MOVLW  28
068E6:  MOVWF  x46
068E8:  MOVWF  x48
068EA:  CLRF   x49
068EC:  MOVLW  01
068EE:  MOVWF  x4A
068F0:  MOVLW  02
068F2:  MOVWF  x4B
068F4:  MOVLB  0
068F6:  CALL   3A7C
....................           
....................       if(Opcion==1)    
068FA:  MOVLB  4
068FC:  DECFSZ xDA,W
068FE:  BRA    6946
....................          {strcpy(Menus.Letra,"Mantenimiento"); 
06900:  MOVLW  06
06902:  MOVWF  FEA
06904:  MOVLW  28
06906:  MOVWF  FE9
06908:  MOVFF  FF2,63E
0690C:  BCF    FF2.7
0690E:  MOVLW  00
06910:  MOVLB  0
06912:  CALL   1070
06916:  TBLRD*-
06918:  TBLRD*+
0691A:  MOVF   FF5,W
0691C:  MOVWF  FEE
0691E:  IORLW  00
06920:  BNZ   6918
06922:  MOVLB  6
06924:  BTFSC  x3E.7
06926:  BSF    FF2.7
....................          displayMenu(Menus.Letra,0,19,1,1);} 
06928:  MOVLW  06
0692A:  MOVWF  x47
0692C:  MOVLW  28
0692E:  MOVWF  x46
06930:  CLRF   x48
06932:  MOVLW  13
06934:  MOVWF  x49
06936:  MOVLW  01
06938:  MOVWF  x4A
0693A:  MOVWF  x4B
0693C:  MOVLB  0
0693E:  CALL   3A7C
....................       else 
06942:  BRA    6988
06944:  MOVLB  4
....................          {strcpy(Menus.Letra,"Mantenimiento"); 
06946:  MOVLW  06
06948:  MOVWF  FEA
0694A:  MOVLW  28
0694C:  MOVWF  FE9
0694E:  MOVFF  FF2,63E
06952:  BCF    FF2.7
06954:  MOVLW  00
06956:  MOVLB  0
06958:  CALL   1070
0695C:  TBLRD*-
0695E:  TBLRD*+
06960:  MOVF   FF5,W
06962:  MOVWF  FEE
06964:  IORLW  00
06966:  BNZ   695E
06968:  MOVLB  6
0696A:  BTFSC  x3E.7
0696C:  BSF    FF2.7
....................          displayMenu(Menus.Letra,0,19,0,1);}    
0696E:  MOVLW  06
06970:  MOVWF  x47
06972:  MOVLW  28
06974:  MOVWF  x46
06976:  CLRF   x48
06978:  MOVLW  13
0697A:  MOVWF  x49
0697C:  CLRF   x4A
0697E:  MOVLW  01
06980:  MOVWF  x4B
06982:  MOVLB  0
06984:  CALL   3A7C
....................           
....................       if(Opcion==2)    
06988:  MOVLB  4
0698A:  MOVF   xDA,W
0698C:  SUBLW  02
0698E:  BNZ   69D6
....................          {strcpy(Menus.Letra,"Servicio"); 
06990:  MOVLW  06
06992:  MOVWF  FEA
06994:  MOVLW  28
06996:  MOVWF  FE9
06998:  MOVFF  FF2,63E
0699C:  BCF    FF2.7
0699E:  MOVLW  00
069A0:  MOVLB  0
069A2:  CALL   109C
069A6:  TBLRD*-
069A8:  TBLRD*+
069AA:  MOVF   FF5,W
069AC:  MOVWF  FEE
069AE:  IORLW  00
069B0:  BNZ   69A8
069B2:  MOVLB  6
069B4:  BTFSC  x3E.7
069B6:  BSF    FF2.7
....................          displayMenu(Menus.Letra,0,35,1,1);} 
069B8:  MOVLW  06
069BA:  MOVWF  x47
069BC:  MOVLW  28
069BE:  MOVWF  x46
069C0:  CLRF   x48
069C2:  MOVLW  23
069C4:  MOVWF  x49
069C6:  MOVLW  01
069C8:  MOVWF  x4A
069CA:  MOVWF  x4B
069CC:  MOVLB  0
069CE:  CALL   3A7C
....................       else 
069D2:  BRA    6A18
069D4:  MOVLB  4
....................          {strcpy(Menus.Letra,"Servicio"); 
069D6:  MOVLW  06
069D8:  MOVWF  FEA
069DA:  MOVLW  28
069DC:  MOVWF  FE9
069DE:  MOVFF  FF2,63E
069E2:  BCF    FF2.7
069E4:  MOVLW  00
069E6:  MOVLB  0
069E8:  CALL   109C
069EC:  TBLRD*-
069EE:  TBLRD*+
069F0:  MOVF   FF5,W
069F2:  MOVWF  FEE
069F4:  IORLW  00
069F6:  BNZ   69EE
069F8:  MOVLB  6
069FA:  BTFSC  x3E.7
069FC:  BSF    FF2.7
....................          displayMenu(Menus.Letra,0,35,0,1);}  
069FE:  MOVLW  06
06A00:  MOVWF  x47
06A02:  MOVLW  28
06A04:  MOVWF  x46
06A06:  CLRF   x48
06A08:  MOVLW  23
06A0A:  MOVWF  x49
06A0C:  CLRF   x4A
06A0E:  MOVLW  01
06A10:  MOVWF  x4B
06A12:  MOVLB  0
06A14:  CALL   3A7C
....................          
....................       if(UP)//Si oprime hacia arriba 
06A18:  BSF    F92.4
06A1A:  BTFSC  F80.4
06A1C:  BRA    6A38
....................       {  if(Flanco == 0)  
06A1E:  MOVLB  4
06A20:  BTFSC  x1A.0
06A22:  BRA    6A36
....................             {Flanco = 1;delay_ms(30);Opcion--; 
06A24:  BSF    x1A.0
06A26:  MOVLW  1E
06A28:  MOVLB  6
06A2A:  MOVWF  x47
06A2C:  MOVLB  0
06A2E:  CALL   1512
06A32:  MOVLB  4
06A34:  DECF   xDA,F
....................             } 
....................       } 
....................          else 
06A36:  BRA    6A3C
....................             {Flanco = 0;} 
06A38:  MOVLB  4
06A3A:  BCF    x1A.0
....................              
....................       if(DOWN)//Si oprime hacia abajo 
06A3C:  BSF    F92.5
06A3E:  BTFSC  F80.5
06A40:  BRA    6A5A
....................       {  if(Flanco2 == 0)  
06A42:  BTFSC  x1A.2
06A44:  BRA    6A58
....................             {Flanco2 = 1;delay_ms(30);Opcion++; 
06A46:  BSF    x1A.2
06A48:  MOVLW  1E
06A4A:  MOVLB  6
06A4C:  MOVWF  x47
06A4E:  MOVLB  0
06A50:  CALL   1512
06A54:  MOVLB  4
06A56:  INCF   xDA,F
....................             }      
....................       } 
....................          else 
06A58:  BRA    6A5C
....................             {Flanco2 = 0;}   
06A5A:  BCF    x1A.2
....................              
....................       if(RIGHT)//Si oprime SET 
06A5C:  BSF    F96.0
06A5E:  BTFSC  F84.0
06A60:  BRA    6A9A
....................       {  if(Flanco1 == 0)  
06A62:  BTFSC  x1A.1
06A64:  BRA    6A98
....................             {Flanco1 = 1;delay_ms(500);Menu=Opcion+30;glcd_fillScreen(OFF);Opcion=1;unidad=1; 
06A66:  BSF    x1A.1
06A68:  MOVLW  02
06A6A:  MOVLB  6
06A6C:  MOVWF  x3E
06A6E:  MOVLW  FA
06A70:  MOVWF  x47
06A72:  MOVLB  0
06A74:  CALL   1512
06A78:  MOVLB  6
06A7A:  DECFSZ x3E,F
06A7C:  BRA    6A6E
06A7E:  MOVLW  1E
06A80:  MOVLB  4
06A82:  ADDWF  xDA,W
06A84:  MOVWF  xD8
06A86:  MOVLB  6
06A88:  CLRF   x46
06A8A:  MOVLB  0
06A8C:  CALL   3B48
06A90:  MOVLW  01
06A92:  MOVLB  4
06A94:  MOVWF  xDA
06A96:  MOVWF  xD9
....................             } 
....................       } 
....................          else 
06A98:  BRA    6A9C
....................             {Flanco1 = 0;}   
06A9A:  BCF    x1A.1
....................              
....................       if(LEFT)//Si oprime boton de Toma. 
06A9C:  BSF    F96.1
06A9E:  BTFSC  F84.1
06AA0:  BRA    6ACA
....................         {delay_ms(700);Menu=3;glcd_fillscreen(OFF);} 
06AA2:  MOVLW  04
06AA4:  MOVLB  6
06AA6:  MOVWF  x3E
06AA8:  MOVLW  AF
06AAA:  MOVWF  x47
06AAC:  MOVLB  0
06AAE:  CALL   1512
06AB2:  MOVLB  6
06AB4:  DECFSZ x3E,F
06AB6:  BRA    6AA8
06AB8:  MOVLW  03
06ABA:  MOVLB  4
06ABC:  MOVWF  xD8
06ABE:  MOVLB  6
06AC0:  CLRF   x46
06AC2:  MOVLB  0
06AC4:  CALL   3B48
06AC8:  MOVLB  4
....................       if(Opcion>2) 
06ACA:  MOVF   xDA,W
06ACC:  SUBLW  02
06ACE:  BC    6AD4
....................       {Opcion=1;} 
06AD0:  MOVLW  01
06AD2:  MOVWF  xDA
....................       if(Opcion<1) 
06AD4:  MOVF   xDA,F
06AD6:  BNZ   6ADC
....................       {Opcion=2;} 
06AD8:  MOVLW  02
06ADA:  MOVWF  xDA
....................      
....................     } 
.................... //_--------------------------------------------------------------------------------------------------------------------------------------------------------        
....................  
.................... //_-------------------------------------------------------------------------------------------------------------------------------------------------------- 
....................       if(Menu==11){ //Menu de Purga. 
06ADC:  MOVF   xD8,W
06ADE:  SUBLW  0B
06AE0:  BTFSS  FD8.2
06AE2:  BRA    6E90
....................        
....................       strcpy(Menus.Letra,"T. Purga"); 
06AE4:  MOVLW  06
06AE6:  MOVWF  FEA
06AE8:  MOVLW  28
06AEA:  MOVWF  FE9
06AEC:  MOVFF  FF2,63E
06AF0:  BCF    FF2.7
06AF2:  MOVLW  00
06AF4:  MOVLB  0
06AF6:  CALL   10C4
06AFA:  TBLRD*-
06AFC:  TBLRD*+
06AFE:  MOVF   FF5,W
06B00:  MOVWF  FEE
06B02:  IORLW  00
06B04:  BNZ   6AFC
06B06:  MOVLB  6
06B08:  BTFSC  x3E.7
06B0A:  BSF    FF2.7
....................       displayMenu(Menus.Letra,10,0,1,2); 
06B0C:  MOVLW  06
06B0E:  MOVWF  x47
06B10:  MOVLW  28
06B12:  MOVWF  x46
06B14:  MOVLW  0A
06B16:  MOVWF  x48
06B18:  CLRF   x49
06B1A:  MOVLW  01
06B1C:  MOVWF  x4A
06B1E:  MOVLW  02
06B20:  MOVWF  x4B
06B22:  MOVLB  0
06B24:  CALL   3A7C
....................        
....................       if(unidad==4) 
06B28:  MOVLB  4
06B2A:  MOVF   xD9,W
06B2C:  SUBLW  04
06B2E:  BNZ   6B4E
....................       {displayTiempo(Tpurgap[3],20,40,1,2);} 
06B30:  MOVFF  503,63E
06B34:  MOVLW  14
06B36:  MOVLB  6
06B38:  MOVWF  x3F
06B3A:  MOVLW  28
06B3C:  MOVWF  x40
06B3E:  MOVLW  01
06B40:  MOVWF  x41
06B42:  MOVLW  02
06B44:  MOVWF  x42
06B46:  MOVLB  0
06B48:  CALL   4332
....................       else 
06B4C:  BRA    6B68
....................       {displayTiempo(Tpurgap[3],20,40,0,2);} 
06B4E:  MOVFF  503,63E
06B52:  MOVLW  14
06B54:  MOVLB  6
06B56:  MOVWF  x3F
06B58:  MOVLW  28
06B5A:  MOVWF  x40
06B5C:  CLRF   x41
06B5E:  MOVLW  02
06B60:  MOVWF  x42
06B62:  MOVLB  0
06B64:  CALL   4332
....................        
....................       if(unidad==3) 
06B68:  MOVLB  4
06B6A:  MOVF   xD9,W
06B6C:  SUBLW  03
06B6E:  BNZ   6B8C
....................       {displayTiempo(Tpurgap[2],40,40,1,2);} 
06B70:  MOVFF  502,63E
06B74:  MOVLW  28
06B76:  MOVLB  6
06B78:  MOVWF  x3F
06B7A:  MOVWF  x40
06B7C:  MOVLW  01
06B7E:  MOVWF  x41
06B80:  MOVLW  02
06B82:  MOVWF  x42
06B84:  MOVLB  0
06B86:  CALL   4332
....................       else 
06B8A:  BRA    6BA4
....................       {displayTiempo(Tpurgap[2],40,40,0,2);} 
06B8C:  MOVFF  502,63E
06B90:  MOVLW  28
06B92:  MOVLB  6
06B94:  MOVWF  x3F
06B96:  MOVWF  x40
06B98:  CLRF   x41
06B9A:  MOVLW  02
06B9C:  MOVWF  x42
06B9E:  MOVLB  0
06BA0:  CALL   4332
....................        
....................       if(unidad==2) 
06BA4:  MOVLB  4
06BA6:  MOVF   xD9,W
06BA8:  SUBLW  02
06BAA:  BNZ   6BCA
....................       {displayTiempo(Tpurgap[1],70,40,1,2);} 
06BAC:  MOVFF  501,63E
06BB0:  MOVLW  46
06BB2:  MOVLB  6
06BB4:  MOVWF  x3F
06BB6:  MOVLW  28
06BB8:  MOVWF  x40
06BBA:  MOVLW  01
06BBC:  MOVWF  x41
06BBE:  MOVLW  02
06BC0:  MOVWF  x42
06BC2:  MOVLB  0
06BC4:  CALL   4332
....................       else 
06BC8:  BRA    6BE4
....................       {displayTiempo(Tpurgap[1],70,40,0,2);} 
06BCA:  MOVFF  501,63E
06BCE:  MOVLW  46
06BD0:  MOVLB  6
06BD2:  MOVWF  x3F
06BD4:  MOVLW  28
06BD6:  MOVWF  x40
06BD8:  CLRF   x41
06BDA:  MOVLW  02
06BDC:  MOVWF  x42
06BDE:  MOVLB  0
06BE0:  CALL   4332
....................        
....................       if(unidad==1) 
06BE4:  MOVLB  4
06BE6:  DECFSZ xD9,W
06BE8:  BRA    6C08
....................       {displayTiempo(Tpurgap[0],90,40,1,2);} 
06BEA:  MOVFF  500,63E
06BEE:  MOVLW  5A
06BF0:  MOVLB  6
06BF2:  MOVWF  x3F
06BF4:  MOVLW  28
06BF6:  MOVWF  x40
06BF8:  MOVLW  01
06BFA:  MOVWF  x41
06BFC:  MOVLW  02
06BFE:  MOVWF  x42
06C00:  MOVLB  0
06C02:  CALL   4332
....................       else 
06C06:  BRA    6C22
....................       {displayTiempo(Tpurgap[0],90,40,0,2);} 
06C08:  MOVFF  500,63E
06C0C:  MOVLW  5A
06C0E:  MOVLB  6
06C10:  MOVWF  x3F
06C12:  MOVLW  28
06C14:  MOVWF  x40
06C16:  CLRF   x41
06C18:  MOVLW  02
06C1A:  MOVWF  x42
06C1C:  MOVLB  0
06C1E:  CALL   4332
....................        
....................       glcd_text57(60, 42, Dos_puntos, 2, ON); 
06C22:  MOVLW  3C
06C24:  MOVLB  6
06C26:  MOVWF  x57
06C28:  MOVLW  2A
06C2A:  MOVWF  x58
06C2C:  MOVLW  04
06C2E:  MOVWF  x5A
06C30:  MOVLW  46
06C32:  MOVWF  x59
06C34:  MOVLW  02
06C36:  MOVWF  x5B
06C38:  MOVLW  01
06C3A:  MOVWF  x5C
06C3C:  MOVLB  0
06C3E:  CALL   380E
....................           
....................          
....................       if(UP)//Si oprime hacia arriba 
06C42:  BSF    F92.4
06C44:  BTFSC  F80.4
06C46:  BRA    6C70
....................       {  if(Flanco == 0)  
06C48:  MOVLB  4
06C4A:  BTFSC  x1A.0
06C4C:  BRA    6C6E
....................             {Flanco = 1;delay_ms(30);Tpurgap[unidad-1]++; 
06C4E:  BSF    x1A.0
06C50:  MOVLW  1E
06C52:  MOVLB  6
06C54:  MOVWF  x47
06C56:  MOVLB  0
06C58:  CALL   1512
06C5C:  MOVLW  01
06C5E:  MOVLB  4
06C60:  SUBWF  xD9,W
06C62:  CLRF   03
06C64:  MOVWF  FE9
06C66:  MOVLW  05
06C68:  ADDWF  03,W
06C6A:  MOVWF  FEA
06C6C:  INCF   FEF,F
....................             } 
....................       } 
....................          else 
06C6E:  BRA    6C74
....................             {Flanco = 0;} 
06C70:  MOVLB  4
06C72:  BCF    x1A.0
....................              
....................       if(DOWN)//Si oprime hacia abajo 
06C74:  BSF    F92.5
06C76:  BTFSC  F80.5
06C78:  BRA    6CA0
....................       {  if(Flanco2 == 0)  
06C7A:  BTFSC  x1A.2
06C7C:  BRA    6C9E
....................             {Flanco2 = 1;delay_ms(30);Tpurgap[unidad-1]--; 
06C7E:  BSF    x1A.2
06C80:  MOVLW  1E
06C82:  MOVLB  6
06C84:  MOVWF  x47
06C86:  MOVLB  0
06C88:  CALL   1512
06C8C:  MOVLW  01
06C8E:  MOVLB  4
06C90:  SUBWF  xD9,W
06C92:  CLRF   03
06C94:  MOVWF  FE9
06C96:  MOVLW  05
06C98:  ADDWF  03,W
06C9A:  MOVWF  FEA
06C9C:  DECF   FEF,F
....................             }      
....................       } 
....................          else 
06C9E:  BRA    6CA2
....................             {Flanco2 = 0;}   
06CA0:  BCF    x1A.2
....................              
....................       if(RIGHT)//Si oprime SET 
06CA2:  BSF    F96.0
06CA4:  BTFSC  F84.0
06CA6:  BRA    6CC0
....................       {  if(Flanco1 == 0)  
06CA8:  BTFSC  x1A.1
06CAA:  BRA    6CBE
....................             {Flanco1 = 1;delay_ms(30);unidad--; 
06CAC:  BSF    x1A.1
06CAE:  MOVLW  1E
06CB0:  MOVLB  6
06CB2:  MOVWF  x47
06CB4:  MOVLB  0
06CB6:  CALL   1512
06CBA:  MOVLB  4
06CBC:  DECF   xD9,F
....................             } 
....................       } 
....................          else 
06CBE:  BRA    6CC2
....................             {Flanco1 = 0;}   
06CC0:  BCF    x1A.1
....................              
....................       if(LEFT)//Si oprime boton de Toma. 
06CC2:  BSF    F96.1
06CC4:  BTFSC  F84.1
06CC6:  BRA    6DD8
....................       { 
....................          delay_ms(700);Menu=4;glcd_fillscreen(OFF);Opcion=1;unidad=1; 
06CC8:  MOVLW  04
06CCA:  MOVLB  6
06CCC:  MOVWF  x3E
06CCE:  MOVLW  AF
06CD0:  MOVWF  x47
06CD2:  MOVLB  0
06CD4:  CALL   1512
06CD8:  MOVLB  6
06CDA:  DECFSZ x3E,F
06CDC:  BRA    6CCE
06CDE:  MOVLW  04
06CE0:  MOVLB  4
06CE2:  MOVWF  xD8
06CE4:  MOVLB  6
06CE6:  CLRF   x46
06CE8:  MOVLB  0
06CEA:  CALL   3B48
06CEE:  MOVLW  01
06CF0:  MOVLB  4
06CF2:  MOVWF  xDA
06CF4:  MOVWF  xD9
....................          write_eeprom(4,Tpurgap[0]); 
06CF6:  CLRF   FAA
06CF8:  MOVLW  04
06CFA:  MOVWF  FA9
06CFC:  MOVFF  500,FA8
06D00:  BCF    FA6.6
06D02:  BCF    FA6.7
06D04:  BSF    FA6.2
06D06:  MOVF   FF2,W
06D08:  MOVWF  00
06D0A:  BCF    FF2.7
06D0C:  MOVLB  F
06D0E:  MOVLW  55
06D10:  MOVWF  FA7
06D12:  MOVLW  AA
06D14:  MOVWF  FA7
06D16:  BSF    FA6.1
06D18:  BTFSC  FA6.1
06D1A:  BRA    6D18
06D1C:  BCF    FA6.2
06D1E:  MOVF   00,W
06D20:  IORWF  FF2,F
....................          delay_ms(20); 
06D22:  MOVLW  14
06D24:  MOVLB  6
06D26:  MOVWF  x47
06D28:  MOVLB  0
06D2A:  CALL   1512
....................          write_eeprom(5,Tpurgap[1]); 
06D2E:  CLRF   FAA
06D30:  MOVLW  05
06D32:  MOVWF  FA9
06D34:  MOVFF  501,FA8
06D38:  BCF    FA6.6
06D3A:  BCF    FA6.7
06D3C:  BSF    FA6.2
06D3E:  MOVF   FF2,W
06D40:  MOVWF  00
06D42:  BCF    FF2.7
06D44:  MOVLB  F
06D46:  MOVLW  55
06D48:  MOVWF  FA7
06D4A:  MOVLW  AA
06D4C:  MOVWF  FA7
06D4E:  BSF    FA6.1
06D50:  BTFSC  FA6.1
06D52:  BRA    6D50
06D54:  BCF    FA6.2
06D56:  MOVF   00,W
06D58:  IORWF  FF2,F
....................          delay_ms(20); 
06D5A:  MOVLW  14
06D5C:  MOVLB  6
06D5E:  MOVWF  x47
06D60:  MOVLB  0
06D62:  CALL   1512
....................          write_eeprom(6,Tpurgap[2]); 
06D66:  CLRF   FAA
06D68:  MOVLW  06
06D6A:  MOVWF  FA9
06D6C:  MOVFF  502,FA8
06D70:  BCF    FA6.6
06D72:  BCF    FA6.7
06D74:  BSF    FA6.2
06D76:  MOVF   FF2,W
06D78:  MOVWF  00
06D7A:  BCF    FF2.7
06D7C:  MOVLB  F
06D7E:  MOVLW  55
06D80:  MOVWF  FA7
06D82:  MOVLW  AA
06D84:  MOVWF  FA7
06D86:  BSF    FA6.1
06D88:  BTFSC  FA6.1
06D8A:  BRA    6D88
06D8C:  BCF    FA6.2
06D8E:  MOVF   00,W
06D90:  IORWF  FF2,F
....................          delay_ms(20); 
06D92:  MOVLW  14
06D94:  MOVLB  6
06D96:  MOVWF  x47
06D98:  MOVLB  0
06D9A:  CALL   1512
....................          write_eeprom(7,Tpurgap[3]); 
06D9E:  CLRF   FAA
06DA0:  MOVLW  07
06DA2:  MOVWF  FA9
06DA4:  MOVFF  503,FA8
06DA8:  BCF    FA6.6
06DAA:  BCF    FA6.7
06DAC:  BSF    FA6.2
06DAE:  MOVF   FF2,W
06DB0:  MOVWF  00
06DB2:  BCF    FF2.7
06DB4:  MOVLB  F
06DB6:  MOVLW  55
06DB8:  MOVWF  FA7
06DBA:  MOVLW  AA
06DBC:  MOVWF  FA7
06DBE:  BSF    FA6.1
06DC0:  BTFSC  FA6.1
06DC2:  BRA    6DC0
06DC4:  BCF    FA6.2
06DC6:  MOVF   00,W
06DC8:  IORWF  FF2,F
....................          delay_ms(20); 
06DCA:  MOVLW  14
06DCC:  MOVLB  6
06DCE:  MOVWF  x47
06DD0:  MOVLB  0
06DD2:  CALL   1512
06DD6:  MOVLB  4
....................       } 
....................        
....................       for(i=0;i<4;i++) 
06DD8:  CLRF   x19
06DDA:  MOVF   x19,W
06DDC:  SUBLW  03
06DDE:  BNC   6E2A
....................       { 
....................          if(Tpurgap[i]>9) 
06DE0:  CLRF   03
06DE2:  MOVFF  419,FE9
06DE6:  MOVLW  05
06DE8:  ADDWF  03,W
06DEA:  MOVWF  FEA
06DEC:  BTFSC  FEF.7
06DEE:  BRA    6E04
06DF0:  MOVF   FEF,W
06DF2:  SUBLW  09
06DF4:  BC    6E04
....................          {Tpurgap[i]=0;} 
06DF6:  CLRF   03
06DF8:  MOVFF  419,FE9
06DFC:  MOVLW  05
06DFE:  ADDWF  03,W
06E00:  MOVWF  FEA
06E02:  CLRF   FEF
....................           
....................          if(Tpurgap[i]<0) 
06E04:  CLRF   03
06E06:  MOVFF  419,FE9
06E0A:  MOVLW  05
06E0C:  ADDWF  03,W
06E0E:  MOVWF  FEA
06E10:  BTFSC  FEF.7
06E12:  BRA    6E16
06E14:  BRA    6E26
....................          {Tpurgap[i]=9;} 
06E16:  CLRF   03
06E18:  MOVFF  419,FE9
06E1C:  MOVLW  05
06E1E:  ADDWF  03,W
06E20:  MOVWF  FEA
06E22:  MOVLW  09
06E24:  MOVWF  FEF
....................       }       
06E26:  INCF   x19,F
06E28:  BRA    6DDA
....................       for(i=1;i<4;i++) 
06E2A:  MOVLW  01
06E2C:  MOVWF  x19
06E2E:  MOVF   x19,W
06E30:  SUBLW  03
06E32:  BNC   6E80
....................       { 
....................          if(Tpurgap[i]>5) 
06E34:  CLRF   03
06E36:  MOVFF  419,FE9
06E3A:  MOVLW  05
06E3C:  ADDWF  03,W
06E3E:  MOVWF  FEA
06E40:  BTFSC  FEF.7
06E42:  BRA    6E58
06E44:  MOVF   FEF,W
06E46:  SUBLW  05
06E48:  BC    6E58
....................          {Tpurgap[i]=0;} 
06E4A:  CLRF   03
06E4C:  MOVFF  419,FE9
06E50:  MOVLW  05
06E52:  ADDWF  03,W
06E54:  MOVWF  FEA
06E56:  CLRF   FEF
....................           
....................          if(Tpurgap[i]<0) 
06E58:  CLRF   03
06E5A:  MOVFF  419,FE9
06E5E:  MOVLW  05
06E60:  ADDWF  03,W
06E62:  MOVWF  FEA
06E64:  BTFSC  FEF.7
06E66:  BRA    6E6A
06E68:  BRA    6E7A
....................          {Tpurgap[i]=5;} 
06E6A:  CLRF   03
06E6C:  MOVFF  419,FE9
06E70:  MOVLW  05
06E72:  ADDWF  03,W
06E74:  MOVWF  FEA
06E76:  MOVLW  05
06E78:  MOVWF  FEF
....................         i++;  
06E7A:  INCF   x19,F
....................       } 
06E7C:  INCF   x19,F
06E7E:  BRA    6E2E
....................       if(unidad<1) 
06E80:  MOVF   xD9,F
06E82:  BNZ   6E88
....................       {unidad=4;} 
06E84:  MOVLW  04
06E86:  MOVWF  xD9
....................       if(Opcion<1) 
06E88:  MOVF   xDA,F
06E8A:  BNZ   6E90
....................       {Opcion=4;} 
06E8C:  MOVLW  04
06E8E:  MOVWF  xDA
....................      
....................     } 
.................... //_--------------------------------------------------------------------------------------------------------------------------------------------------------        
....................  
.................... //_-------------------------------------------------------------------------------------------------------------------------------------------------------- 
....................       if(Menu==12){ //Menu de Tempo UV. 
06E90:  MOVF   xD8,W
06E92:  SUBLW  0C
06E94:  BTFSS  FD8.2
06E96:  BRA    7264
....................        
....................       strcpy(Menus.Letra,"T. UV"); 
06E98:  MOVLW  06
06E9A:  MOVWF  FEA
06E9C:  MOVLW  28
06E9E:  MOVWF  FE9
06EA0:  MOVFF  FF2,63E
06EA4:  BCF    FF2.7
06EA6:  MOVLW  00
06EA8:  MOVLB  0
06EAA:  CALL   10EC
06EAE:  TBLRD*-
06EB0:  TBLRD*+
06EB2:  MOVF   FF5,W
06EB4:  MOVWF  FEE
06EB6:  IORLW  00
06EB8:  BNZ   6EB0
06EBA:  MOVLB  6
06EBC:  BTFSC  x3E.7
06EBE:  BSF    FF2.7
....................       displayMenu(Menus.Letra,30,0,1,2); 
06EC0:  MOVLW  06
06EC2:  MOVWF  x47
06EC4:  MOVLW  28
06EC6:  MOVWF  x46
06EC8:  MOVLW  1E
06ECA:  MOVWF  x48
06ECC:  CLRF   x49
06ECE:  MOVLW  01
06ED0:  MOVWF  x4A
06ED2:  MOVLW  02
06ED4:  MOVWF  x4B
06ED6:  MOVLB  0
06ED8:  CALL   3A7C
....................        
....................       if(unidad==4) 
06EDC:  MOVLB  4
06EDE:  MOVF   xD9,W
06EE0:  SUBLW  04
06EE2:  BNZ   6F02
....................       {displayTiempo(Tempouvp[3],20,40,1,2);} 
06EE4:  MOVFF  517,63E
06EE8:  MOVLW  14
06EEA:  MOVLB  6
06EEC:  MOVWF  x3F
06EEE:  MOVLW  28
06EF0:  MOVWF  x40
06EF2:  MOVLW  01
06EF4:  MOVWF  x41
06EF6:  MOVLW  02
06EF8:  MOVWF  x42
06EFA:  MOVLB  0
06EFC:  CALL   4332
....................       else 
06F00:  BRA    6F1C
....................       {displayTiempo(Tempouvp[3],20,40,0,2);} 
06F02:  MOVFF  517,63E
06F06:  MOVLW  14
06F08:  MOVLB  6
06F0A:  MOVWF  x3F
06F0C:  MOVLW  28
06F0E:  MOVWF  x40
06F10:  CLRF   x41
06F12:  MOVLW  02
06F14:  MOVWF  x42
06F16:  MOVLB  0
06F18:  CALL   4332
....................        
....................       if(unidad==3) 
06F1C:  MOVLB  4
06F1E:  MOVF   xD9,W
06F20:  SUBLW  03
06F22:  BNZ   6F40
....................       {displayTiempo(Tempouvp[2],40,40,1,2);} 
06F24:  MOVFF  516,63E
06F28:  MOVLW  28
06F2A:  MOVLB  6
06F2C:  MOVWF  x3F
06F2E:  MOVWF  x40
06F30:  MOVLW  01
06F32:  MOVWF  x41
06F34:  MOVLW  02
06F36:  MOVWF  x42
06F38:  MOVLB  0
06F3A:  CALL   4332
....................       else 
06F3E:  BRA    6F58
....................       {displayTiempo(Tempouvp[2],40,40,0,2);} 
06F40:  MOVFF  516,63E
06F44:  MOVLW  28
06F46:  MOVLB  6
06F48:  MOVWF  x3F
06F4A:  MOVWF  x40
06F4C:  CLRF   x41
06F4E:  MOVLW  02
06F50:  MOVWF  x42
06F52:  MOVLB  0
06F54:  CALL   4332
....................        
....................       if(unidad==2) 
06F58:  MOVLB  4
06F5A:  MOVF   xD9,W
06F5C:  SUBLW  02
06F5E:  BNZ   6F7E
....................       {displayTiempo(Tempouvp[1],70,40,1,2);} 
06F60:  MOVFF  515,63E
06F64:  MOVLW  46
06F66:  MOVLB  6
06F68:  MOVWF  x3F
06F6A:  MOVLW  28
06F6C:  MOVWF  x40
06F6E:  MOVLW  01
06F70:  MOVWF  x41
06F72:  MOVLW  02
06F74:  MOVWF  x42
06F76:  MOVLB  0
06F78:  CALL   4332
....................       else 
06F7C:  BRA    6F98
....................       {displayTiempo(Tempouvp[1],70,40,0,2);} 
06F7E:  MOVFF  515,63E
06F82:  MOVLW  46
06F84:  MOVLB  6
06F86:  MOVWF  x3F
06F88:  MOVLW  28
06F8A:  MOVWF  x40
06F8C:  CLRF   x41
06F8E:  MOVLW  02
06F90:  MOVWF  x42
06F92:  MOVLB  0
06F94:  CALL   4332
....................        
....................       if(unidad==1) 
06F98:  MOVLB  4
06F9A:  DECFSZ xD9,W
06F9C:  BRA    6FBC
....................       {displayTiempo(Tempouvp[0],90,40,1,2);} 
06F9E:  MOVFF  514,63E
06FA2:  MOVLW  5A
06FA4:  MOVLB  6
06FA6:  MOVWF  x3F
06FA8:  MOVLW  28
06FAA:  MOVWF  x40
06FAC:  MOVLW  01
06FAE:  MOVWF  x41
06FB0:  MOVLW  02
06FB2:  MOVWF  x42
06FB4:  MOVLB  0
06FB6:  CALL   4332
....................       else 
06FBA:  BRA    6FD6
....................       {displayTiempo(Tempouvp[0],90,40,0,2);} 
06FBC:  MOVFF  514,63E
06FC0:  MOVLW  5A
06FC2:  MOVLB  6
06FC4:  MOVWF  x3F
06FC6:  MOVLW  28
06FC8:  MOVWF  x40
06FCA:  CLRF   x41
06FCC:  MOVLW  02
06FCE:  MOVWF  x42
06FD0:  MOVLB  0
06FD2:  CALL   4332
....................        
....................       glcd_text57(60, 42, Dos_puntos, 2, ON); 
06FD6:  MOVLW  3C
06FD8:  MOVLB  6
06FDA:  MOVWF  x57
06FDC:  MOVLW  2A
06FDE:  MOVWF  x58
06FE0:  MOVLW  04
06FE2:  MOVWF  x5A
06FE4:  MOVLW  46
06FE6:  MOVWF  x59
06FE8:  MOVLW  02
06FEA:  MOVWF  x5B
06FEC:  MOVLW  01
06FEE:  MOVWF  x5C
06FF0:  MOVLB  0
06FF2:  CALL   380E
....................           
....................          
....................       if(UP)//Si oprime hacia arriba 
06FF6:  BSF    F92.4
06FF8:  BTFSC  F80.4
06FFA:  BRA    7026
....................       {  if(Flanco == 0)  
06FFC:  MOVLB  4
06FFE:  BTFSC  x1A.0
07000:  BRA    7024
....................             {Flanco = 1;delay_ms(30);Tempouvp[unidad-1]++; 
07002:  BSF    x1A.0
07004:  MOVLW  1E
07006:  MOVLB  6
07008:  MOVWF  x47
0700A:  MOVLB  0
0700C:  CALL   1512
07010:  MOVLW  01
07012:  MOVLB  4
07014:  SUBWF  xD9,W
07016:  CLRF   03
07018:  ADDLW  14
0701A:  MOVWF  FE9
0701C:  MOVLW  05
0701E:  ADDWFC 03,W
07020:  MOVWF  FEA
07022:  INCF   FEF,F
....................             } 
....................       } 
....................          else 
07024:  BRA    702A
....................             {Flanco = 0;} 
07026:  MOVLB  4
07028:  BCF    x1A.0
....................              
....................       if(DOWN )//Si oprime hacia abajo 
0702A:  BSF    F92.5
0702C:  BTFSC  F80.5
0702E:  BRA    7058
....................       {  if(Flanco2 == 0)  
07030:  BTFSC  x1A.2
07032:  BRA    7056
....................             {Flanco2 = 1;delay_ms(30);Tempouvp[unidad-1]--; 
07034:  BSF    x1A.2
07036:  MOVLW  1E
07038:  MOVLB  6
0703A:  MOVWF  x47
0703C:  MOVLB  0
0703E:  CALL   1512
07042:  MOVLW  01
07044:  MOVLB  4
07046:  SUBWF  xD9,W
07048:  CLRF   03
0704A:  ADDLW  14
0704C:  MOVWF  FE9
0704E:  MOVLW  05
07050:  ADDWFC 03,W
07052:  MOVWF  FEA
07054:  DECF   FEF,F
....................             }      
....................       } 
....................          else 
07056:  BRA    705A
....................             {Flanco2 = 0;}   
07058:  BCF    x1A.2
....................              
....................       if(RIGHT)//Si oprime SET 
0705A:  BSF    F96.0
0705C:  BTFSC  F84.0
0705E:  BRA    7078
....................       {  if(Flanco1 == 0)  
07060:  BTFSC  x1A.1
07062:  BRA    7076
....................             {Flanco1 = 1;delay_ms(30);unidad--; 
07064:  BSF    x1A.1
07066:  MOVLW  1E
07068:  MOVLB  6
0706A:  MOVWF  x47
0706C:  MOVLB  0
0706E:  CALL   1512
07072:  MOVLB  4
07074:  DECF   xD9,F
....................             } 
....................       } 
....................          else 
07076:  BRA    707A
....................             {Flanco1 = 0;}   
07078:  BCF    x1A.1
....................              
....................       if(LEFT)//Si oprime boton de Toma. 
0707A:  BSF    F96.1
0707C:  BTFSC  F84.1
0707E:  BRA    719A
....................       { 
....................          delay_ms(700);Menu=4;glcd_fillscreen(OFF);Opcion=1;unidad=1; 
07080:  MOVLW  04
07082:  MOVLB  6
07084:  MOVWF  x3E
07086:  MOVLW  AF
07088:  MOVWF  x47
0708A:  MOVLB  0
0708C:  CALL   1512
07090:  MOVLB  6
07092:  DECFSZ x3E,F
07094:  BRA    7086
07096:  MOVLW  04
07098:  MOVLB  4
0709A:  MOVWF  xD8
0709C:  MOVLB  6
0709E:  CLRF   x46
070A0:  MOVLB  0
070A2:  CALL   3B48
070A6:  MOVLW  01
070A8:  MOVLB  4
070AA:  MOVWF  xDA
070AC:  MOVWF  xD9
....................          write_eeprom(21,Tempouvp[0]); 
070AE:  CLRF   FAA
070B0:  MOVLW  15
070B2:  MOVWF  FA9
070B4:  MOVFF  514,FA8
070B8:  BCF    FA6.6
070BA:  BCF    FA6.7
070BC:  BSF    FA6.2
070BE:  MOVF   FF2,W
070C0:  MOVWF  00
070C2:  BCF    FF2.7
070C4:  MOVLB  F
070C6:  MOVLW  55
070C8:  MOVWF  FA7
070CA:  MOVLW  AA
070CC:  MOVWF  FA7
070CE:  BSF    FA6.1
070D0:  BTFSC  FA6.1
070D2:  BRA    70D0
070D4:  BCF    FA6.2
070D6:  MOVF   00,W
070D8:  IORWF  FF2,F
....................          delay_ms(20); 
070DA:  MOVLW  14
070DC:  MOVLB  6
070DE:  MOVWF  x47
070E0:  MOVLB  0
070E2:  CALL   1512
....................          write_eeprom(22,Tempouvp[1]); 
070E6:  CLRF   FAA
070E8:  MOVLW  16
070EA:  MOVWF  FA9
070EC:  MOVFF  515,FA8
070F0:  BCF    FA6.6
070F2:  BCF    FA6.7
070F4:  BSF    FA6.2
070F6:  MOVF   FF2,W
070F8:  MOVWF  00
070FA:  BCF    FF2.7
070FC:  MOVLB  F
070FE:  MOVLW  55
07100:  MOVWF  FA7
07102:  MOVLW  AA
07104:  MOVWF  FA7
07106:  BSF    FA6.1
07108:  BTFSC  FA6.1
0710A:  BRA    7108
0710C:  BCF    FA6.2
0710E:  MOVF   00,W
07110:  IORWF  FF2,F
....................          delay_ms(20); 
07112:  MOVLW  14
07114:  MOVLB  6
07116:  MOVWF  x47
07118:  MOVLB  0
0711A:  CALL   1512
....................          write_eeprom(23,Tempouvp[2]); 
0711E:  CLRF   FAA
07120:  MOVLW  17
07122:  MOVWF  FA9
07124:  MOVFF  516,FA8
07128:  BCF    FA6.6
0712A:  BCF    FA6.7
0712C:  BSF    FA6.2
0712E:  MOVF   FF2,W
07130:  MOVWF  00
07132:  BCF    FF2.7
07134:  MOVLB  F
07136:  MOVLW  55
07138:  MOVWF  FA7
0713A:  MOVLW  AA
0713C:  MOVWF  FA7
0713E:  BSF    FA6.1
07140:  BTFSC  FA6.1
07142:  BRA    7140
07144:  BCF    FA6.2
07146:  MOVF   00,W
07148:  IORWF  FF2,F
....................          delay_ms(20); 
0714A:  MOVLW  14
0714C:  MOVLB  6
0714E:  MOVWF  x47
07150:  MOVLB  0
07152:  CALL   1512
....................          write_eeprom(24,Tempouvp[3]); 
07156:  CLRF   FAA
07158:  MOVLW  18
0715A:  MOVWF  FA9
0715C:  MOVFF  517,FA8
07160:  BCF    FA6.6
07162:  BCF    FA6.7
07164:  BSF    FA6.2
07166:  MOVF   FF2,W
07168:  MOVWF  00
0716A:  BCF    FF2.7
0716C:  MOVLB  F
0716E:  MOVLW  55
07170:  MOVWF  FA7
07172:  MOVLW  AA
07174:  MOVWF  FA7
07176:  BSF    FA6.1
07178:  BTFSC  FA6.1
0717A:  BRA    7178
0717C:  BCF    FA6.2
0717E:  MOVF   00,W
07180:  IORWF  FF2,F
....................          delay_ms(20); 
07182:  MOVLW  14
07184:  MOVLB  6
07186:  MOVWF  x47
07188:  MOVLB  0
0718A:  CALL   1512
....................          Tempouv[0]=0;Tempouv[1]=0;Tempouv[2]=0;Tempouv[3]=0; 
0718E:  MOVLB  5
07190:  CLRF   x10
07192:  CLRF   x11
07194:  CLRF   x12
07196:  CLRF   x13
07198:  MOVLB  4
....................       } 
....................              
....................       for(i=0;i<3;i++) 
0719A:  CLRF   x19
0719C:  MOVF   x19,W
0719E:  SUBLW  02
071A0:  BNC   71F6
....................       { 
....................          if(Tempouvp[i]>9) 
071A2:  CLRF   03
071A4:  MOVF   x19,W
071A6:  ADDLW  14
071A8:  MOVWF  FE9
071AA:  MOVLW  05
071AC:  ADDWFC 03,W
071AE:  MOVWF  FEA
071B0:  BTFSC  FEF.7
071B2:  BRA    71CA
071B4:  MOVF   FEF,W
071B6:  SUBLW  09
071B8:  BC    71CA
....................          {Tempouvp[i]=0;} 
071BA:  CLRF   03
071BC:  MOVF   x19,W
071BE:  ADDLW  14
071C0:  MOVWF  FE9
071C2:  MOVLW  05
071C4:  ADDWFC 03,W
071C6:  MOVWF  FEA
071C8:  CLRF   FEF
....................           
....................          if(Tempouvp[i]<0) 
071CA:  CLRF   03
071CC:  MOVF   x19,W
071CE:  ADDLW  14
071D0:  MOVWF  FE9
071D2:  MOVLW  05
071D4:  ADDWFC 03,W
071D6:  MOVWF  FEA
071D8:  BTFSC  FEF.7
071DA:  BRA    71DE
071DC:  BRA    71F0
....................          {Tempouvp[i]=9;} 
071DE:  CLRF   03
071E0:  MOVF   x19,W
071E2:  ADDLW  14
071E4:  MOVWF  FE9
071E6:  MOVLW  05
071E8:  ADDWFC 03,W
071EA:  MOVWF  FEA
071EC:  MOVLW  09
071EE:  MOVWF  FEF
....................          i++; 
071F0:  INCF   x19,F
....................       }       
071F2:  INCF   x19,F
071F4:  BRA    719C
....................       for(i=1;i<4;i++) 
071F6:  MOVLW  01
071F8:  MOVWF  x19
071FA:  MOVF   x19,W
071FC:  SUBLW  03
071FE:  BNC   7254
....................       { 
....................          if(Tempouvp[i]>5) 
07200:  CLRF   03
07202:  MOVF   x19,W
07204:  ADDLW  14
07206:  MOVWF  FE9
07208:  MOVLW  05
0720A:  ADDWFC 03,W
0720C:  MOVWF  FEA
0720E:  BTFSC  FEF.7
07210:  BRA    7228
07212:  MOVF   FEF,W
07214:  SUBLW  05
07216:  BC    7228
....................          {Tempouvp[i]=0;} 
07218:  CLRF   03
0721A:  MOVF   x19,W
0721C:  ADDLW  14
0721E:  MOVWF  FE9
07220:  MOVLW  05
07222:  ADDWFC 03,W
07224:  MOVWF  FEA
07226:  CLRF   FEF
....................           
....................          if(Tempouvp[i]<0) 
07228:  CLRF   03
0722A:  MOVF   x19,W
0722C:  ADDLW  14
0722E:  MOVWF  FE9
07230:  MOVLW  05
07232:  ADDWFC 03,W
07234:  MOVWF  FEA
07236:  BTFSC  FEF.7
07238:  BRA    723C
0723A:  BRA    724E
....................          {Tempouvp[i]=5;} 
0723C:  CLRF   03
0723E:  MOVF   x19,W
07240:  ADDLW  14
07242:  MOVWF  FE9
07244:  MOVLW  05
07246:  ADDWFC 03,W
07248:  MOVWF  FEA
0724A:  MOVLW  05
0724C:  MOVWF  FEF
....................         i++;  
0724E:  INCF   x19,F
....................       }       
07250:  INCF   x19,F
07252:  BRA    71FA
....................       if(unidad<1) 
07254:  MOVF   xD9,F
07256:  BNZ   725C
....................       {unidad=4;} 
07258:  MOVLW  04
0725A:  MOVWF  xD9
....................       if(Opcion<1) 
0725C:  MOVF   xDA,F
0725E:  BNZ   7264
....................       {Opcion=4;} 
07260:  MOVLW  04
07262:  MOVWF  xDA
....................      
....................     } 
.................... //_--------------------------------------------------------------------------------------------------------------------------------------------------------        
....................  
.................... //_-------------------------------------------------------------------------------------------------------------------------------------------------------- 
....................       if(Menu==5){ //Menu de Clave. 
07264:  MOVF   xD8,W
07266:  SUBLW  05
07268:  BNZ   72C8
....................  
....................       PidePassword(3,5,211,Password[0],Password[1],Password[2],Password[3]); 
0726A:  MOVLW  03
0726C:  MOVLB  6
0726E:  MOVWF  x3F
07270:  MOVLW  05
07272:  MOVWF  x40
07274:  MOVLW  D3
07276:  MOVWF  x41
07278:  MOVFF  520,642
0727C:  MOVFF  521,643
07280:  MOVFF  522,644
07284:  MOVFF  523,645
07288:  MOVLB  0
0728A:  CALL   3BA2
....................              
....................       if(LEFT)//Si oprime boton de Toma. 
0728E:  BSF    F96.1
07290:  BTFSC  F84.1
07292:  BRA    72CA
....................       { 
....................          delay_ms(200); 
07294:  MOVLW  C8
07296:  MOVLB  6
07298:  MOVWF  x47
0729A:  MOVLB  0
0729C:  CALL   1512
....................          if(unidad==1){ 
072A0:  MOVLB  4
072A2:  DECFSZ xD9,W
072A4:  BRA    72C8
....................             Menu=3;glcd_fillscreen(OFF);Opcion=1;unidad=1;Contrasena[0]=0;Contrasena[1]=0;Contrasena[2]=0;Contrasena[3]=0; 
072A6:  MOVLW  03
072A8:  MOVWF  xD8
072AA:  MOVLB  6
072AC:  CLRF   x46
072AE:  MOVLB  0
072B0:  CALL   3B48
072B4:  MOVLW  01
072B6:  MOVLB  4
072B8:  MOVWF  xDA
072BA:  MOVWF  xD9
072BC:  MOVLB  5
072BE:  CLRF   x1C
072C0:  CLRF   x1D
072C2:  CLRF   x1E
072C4:  CLRF   x1F
072C6:  MOVLB  4
072C8:  MOVLB  0
....................          } 
....................       }  
....................     } 
.................... //_--------------------------------------------------------------------------------------------------------------------------------------------------------        
....................  
.................... //_-------------------------------------------------------------------------------------------------------------------------------------------------------- 
....................       if(Menu==211){ //Menu de Cambio Clave. 
072CA:  MOVLB  4
072CC:  MOVF   xD8,W
072CE:  SUBLW  D3
072D0:  BTFSS  FD8.2
072D2:  BRA    776A
....................        
....................       if(n==0) 
072D4:  BTFSC  x1C.7
072D6:  BRA    7336
....................       { 
....................          displayContrasena(Contrasena[0],20,30,1);displayContrasena(Contrasena[1],40,30,0); 
072D8:  MOVFF  51C,648
072DC:  MOVLW  14
072DE:  MOVLB  6
072E0:  MOVWF  x49
072E2:  MOVLW  1E
072E4:  MOVWF  x4A
072E6:  MOVLW  01
072E8:  MOVWF  x4B
072EA:  MOVLB  0
072EC:  CALL   39C6
072F0:  MOVFF  51D,648
072F4:  MOVLW  28
072F6:  MOVLB  6
072F8:  MOVWF  x49
072FA:  MOVLW  1E
072FC:  MOVWF  x4A
072FE:  CLRF   x4B
07300:  MOVLB  0
07302:  CALL   39C6
....................          displayContrasena(Contrasena[2],60,30,0);displayContrasena(Contrasena[0],80,30,0); 
07306:  MOVFF  51E,648
0730A:  MOVLW  3C
0730C:  MOVLB  6
0730E:  MOVWF  x49
07310:  MOVLW  1E
07312:  MOVWF  x4A
07314:  CLRF   x4B
07316:  MOVLB  0
07318:  CALL   39C6
0731C:  MOVFF  51C,648
07320:  MOVLW  50
07322:  MOVLB  6
07324:  MOVWF  x49
07326:  MOVLW  1E
07328:  MOVWF  x4A
0732A:  CLRF   x4B
0732C:  MOVLB  0
0732E:  CALL   39C6
....................          n=1; 
07332:  MOVLB  4
07334:  BSF    x1C.7
....................       } 
....................       strcpy(Menus.Letra,"Clave Nueva"); 
07336:  MOVLW  06
07338:  MOVWF  FEA
0733A:  MOVLW  28
0733C:  MOVWF  FE9
0733E:  MOVFF  FF2,63E
07342:  BCF    FF2.7
07344:  MOVLW  00
07346:  MOVLB  0
07348:  CALL   1110
0734C:  TBLRD*-
0734E:  TBLRD*+
07350:  MOVF   FF5,W
07352:  MOVWF  FEE
07354:  IORLW  00
07356:  BNZ   734E
07358:  MOVLB  6
0735A:  BTFSC  x3E.7
0735C:  BSF    FF2.7
....................       displayMenu(Menus.Letra,0,0,1,2); 
0735E:  MOVLW  06
07360:  MOVWF  x47
07362:  MOVLW  28
07364:  MOVWF  x46
07366:  CLRF   x48
07368:  CLRF   x49
0736A:  MOVLW  01
0736C:  MOVWF  x4A
0736E:  MOVLW  02
07370:  MOVWF  x4B
07372:  MOVLB  0
07374:  CALL   3A7C
....................          
....................        
....................       if(UP)//Si oprime hacia arriba 
07378:  BSF    F92.4
0737A:  BTFSC  F80.4
0737C:  BRA    7454
....................       {  if(Flanco == 0)  
0737E:  MOVLB  4
07380:  BTFSC  x1A.0
07382:  BRA    7452
....................             {Flanco = 1;delay_ms(30); 
07384:  BSF    x1A.0
07386:  MOVLW  1E
07388:  MOVLB  6
0738A:  MOVWF  x47
0738C:  MOVLB  0
0738E:  CALL   1512
....................             for(i=1;i<=4;i++) 
07392:  MOVLW  01
07394:  MOVLB  4
07396:  MOVWF  x19
07398:  MOVF   x19,W
0739A:  SUBLW  04
0739C:  BNC   7452
....................                { 
....................                   if(unidad==i) 
0739E:  MOVF   x19,W
073A0:  SUBWF  xD9,W
073A2:  BNZ   741A
....................                   {Contrasena[i-1]++; 
073A4:  MOVLW  01
073A6:  SUBWF  x19,W
073A8:  CLRF   03
073AA:  ADDLW  1C
073AC:  MOVWF  FE9
073AE:  MOVLW  05
073B0:  ADDWFC 03,W
073B2:  MOVWF  FEA
073B4:  INCF   FEF,F
....................                   if(Contrasena[i-1]>9) 
073B6:  MOVLW  01
073B8:  SUBWF  x19,W
073BA:  CLRF   03
073BC:  ADDLW  1C
073BE:  MOVWF  FE9
073C0:  MOVLW  05
073C2:  ADDWFC 03,W
073C4:  MOVWF  FEA
073C6:  BTFSC  FEF.7
073C8:  BRA    73E2
073CA:  MOVF   FEF,W
073CC:  SUBLW  09
073CE:  BC    73E2
....................                         {Contrasena[i-1]=0;} 
073D0:  MOVLW  01
073D2:  SUBWF  x19,W
073D4:  CLRF   03
073D6:  ADDLW  1C
073D8:  MOVWF  FE9
073DA:  MOVLW  05
073DC:  ADDWFC 03,W
073DE:  MOVWF  FEA
073E0:  CLRF   FEF
....................                   displayContrasena(Contrasena[i-1],i*20,30,1);} 
073E2:  MOVLW  01
073E4:  SUBWF  x19,W
073E6:  CLRF   03
073E8:  ADDLW  1C
073EA:  MOVWF  FE9
073EC:  MOVLW  05
073EE:  ADDWFC 03,W
073F0:  MOVWF  FEA
073F2:  MOVFF  FEF,63E
073F6:  MOVF   x19,W
073F8:  MULLW  14
073FA:  MOVFF  FF3,63F
073FE:  MOVLB  6
07400:  MOVFF  63E,648
07404:  MOVFF  63F,649
07408:  MOVLW  1E
0740A:  MOVWF  x4A
0740C:  MOVLW  01
0740E:  MOVWF  x4B
07410:  MOVLB  0
07412:  CALL   39C6
....................                   else 
07416:  BRA    744C
07418:  MOVLB  4
....................                   {displayContrasena(Contrasena[i-1],i*20,30,0);} 
0741A:  MOVLW  01
0741C:  SUBWF  x19,W
0741E:  CLRF   03
07420:  ADDLW  1C
07422:  MOVWF  FE9
07424:  MOVLW  05
07426:  ADDWFC 03,W
07428:  MOVWF  FEA
0742A:  MOVFF  FEF,63E
0742E:  MOVF   x19,W
07430:  MULLW  14
07432:  MOVFF  FF3,63F
07436:  MOVLB  6
07438:  MOVFF  63E,648
0743C:  MOVFF  63F,649
07440:  MOVLW  1E
07442:  MOVWF  x4A
07444:  CLRF   x4B
07446:  MOVLB  0
07448:  CALL   39C6
....................                } 
0744C:  MOVLB  4
0744E:  INCF   x19,F
07450:  BRA    7398
....................             } 
....................       } 
....................          else 
07452:  BRA    7458
....................             {Flanco = 0;} 
07454:  MOVLB  4
07456:  BCF    x1A.0
....................              
....................       if(DOWN )//Si oprime hacia abajo 
07458:  BSF    F92.5
0745A:  BTFSC  F80.5
0745C:  BRA    7530
....................       {  if(Flanco2 == 0)  
0745E:  BTFSC  x1A.2
07460:  BRA    752E
....................             {Flanco2 = 1;delay_ms(30); 
07462:  BSF    x1A.2
07464:  MOVLW  1E
07466:  MOVLB  6
07468:  MOVWF  x47
0746A:  MOVLB  0
0746C:  CALL   1512
....................                for(i=1;i<=4;i++) 
07470:  MOVLW  01
07472:  MOVLB  4
07474:  MOVWF  x19
07476:  MOVF   x19,W
07478:  SUBLW  04
0747A:  BNC   752E
....................                { 
....................                   if(unidad==i) 
0747C:  MOVF   x19,W
0747E:  SUBWF  xD9,W
07480:  BNZ   74F6
....................                   {Contrasena[i-1]--;  
07482:  MOVLW  01
07484:  SUBWF  x19,W
07486:  CLRF   03
07488:  ADDLW  1C
0748A:  MOVWF  FE9
0748C:  MOVLW  05
0748E:  ADDWFC 03,W
07490:  MOVWF  FEA
07492:  DECF   FEF,F
....................                      if(Contrasena[i-1]<0) 
07494:  MOVLW  01
07496:  SUBWF  x19,W
07498:  CLRF   03
0749A:  ADDLW  1C
0749C:  MOVWF  FE9
0749E:  MOVLW  05
074A0:  ADDWFC 03,W
074A2:  MOVWF  FEA
074A4:  BTFSC  FEF.7
074A6:  BRA    74AA
074A8:  BRA    74BE
....................                         {Contrasena[i-1]=9;} 
074AA:  MOVLW  01
074AC:  SUBWF  x19,W
074AE:  CLRF   03
074B0:  ADDLW  1C
074B2:  MOVWF  FE9
074B4:  MOVLW  05
074B6:  ADDWFC 03,W
074B8:  MOVWF  FEA
074BA:  MOVLW  09
074BC:  MOVWF  FEF
....................                    displayContrasena(Contrasena[i-1],i*20,30,1);} 
074BE:  MOVLW  01
074C0:  SUBWF  x19,W
074C2:  CLRF   03
074C4:  ADDLW  1C
074C6:  MOVWF  FE9
074C8:  MOVLW  05
074CA:  ADDWFC 03,W
074CC:  MOVWF  FEA
074CE:  MOVFF  FEF,63E
074D2:  MOVF   x19,W
074D4:  MULLW  14
074D6:  MOVFF  FF3,63F
074DA:  MOVLB  6
074DC:  MOVFF  63E,648
074E0:  MOVFF  63F,649
074E4:  MOVLW  1E
074E6:  MOVWF  x4A
074E8:  MOVLW  01
074EA:  MOVWF  x4B
074EC:  MOVLB  0
074EE:  CALL   39C6
....................                   else 
074F2:  BRA    7528
074F4:  MOVLB  4
....................                   {displayContrasena(Contrasena[i-1],i*20,30,0);} 
074F6:  MOVLW  01
074F8:  SUBWF  x19,W
074FA:  CLRF   03
074FC:  ADDLW  1C
074FE:  MOVWF  FE9
07500:  MOVLW  05
07502:  ADDWFC 03,W
07504:  MOVWF  FEA
07506:  MOVFF  FEF,63E
0750A:  MOVF   x19,W
0750C:  MULLW  14
0750E:  MOVFF  FF3,63F
07512:  MOVLB  6
07514:  MOVFF  63E,648
07518:  MOVFF  63F,649
0751C:  MOVLW  1E
0751E:  MOVWF  x4A
07520:  CLRF   x4B
07522:  MOVLB  0
07524:  CALL   39C6
....................                }       
07528:  MOVLB  4
0752A:  INCF   x19,F
0752C:  BRA    7476
....................             }      
....................       } 
....................          else 
0752E:  BRA    7532
....................             {Flanco2 = 0;}   
07530:  BCF    x1A.2
....................              
....................       if(RIGHT)//Si oprime SET 
07532:  BSF    F96.0
07534:  BTFSC  F84.0
07536:  BRA    75D0
....................       {  if(Flanco1 == 0)  
07538:  BTFSC  x1A.1
0753A:  BRA    75CE
....................             {Flanco1 = 1;delay_ms(30);unidad++; 
0753C:  BSF    x1A.1
0753E:  MOVLW  1E
07540:  MOVLB  6
07542:  MOVWF  x47
07544:  MOVLB  0
07546:  CALL   1512
0754A:  MOVLB  4
0754C:  INCF   xD9,F
....................                for(i=1;i<=4;i++) 
0754E:  MOVLW  01
07550:  MOVWF  x19
07552:  MOVF   x19,W
07554:  SUBLW  04
07556:  BNC   75CE
....................                { 
....................                   if(unidad==i) 
07558:  MOVF   x19,W
0755A:  SUBWF  xD9,W
0755C:  BNZ   7596
....................                   {displayContrasena(Contrasena[i-1],i*20,30,1);} 
0755E:  MOVLW  01
07560:  SUBWF  x19,W
07562:  CLRF   03
07564:  ADDLW  1C
07566:  MOVWF  FE9
07568:  MOVLW  05
0756A:  ADDWFC 03,W
0756C:  MOVWF  FEA
0756E:  MOVFF  FEF,63E
07572:  MOVF   x19,W
07574:  MULLW  14
07576:  MOVFF  FF3,63F
0757A:  MOVLB  6
0757C:  MOVFF  63E,648
07580:  MOVFF  63F,649
07584:  MOVLW  1E
07586:  MOVWF  x4A
07588:  MOVLW  01
0758A:  MOVWF  x4B
0758C:  MOVLB  0
0758E:  CALL   39C6
....................                   else 
07592:  BRA    75C8
07594:  MOVLB  4
....................                   {displayContrasena(Contrasena[i-1],i*20,30,0);} 
07596:  MOVLW  01
07598:  SUBWF  x19,W
0759A:  CLRF   03
0759C:  ADDLW  1C
0759E:  MOVWF  FE9
075A0:  MOVLW  05
075A2:  ADDWFC 03,W
075A4:  MOVWF  FEA
075A6:  MOVFF  FEF,63E
075AA:  MOVF   x19,W
075AC:  MULLW  14
075AE:  MOVFF  FF3,63F
075B2:  MOVLB  6
075B4:  MOVFF  63E,648
075B8:  MOVFF  63F,649
075BC:  MOVLW  1E
075BE:  MOVWF  x4A
075C0:  CLRF   x4B
075C2:  MOVLB  0
075C4:  CALL   39C6
....................                } 
075C8:  MOVLB  4
075CA:  INCF   x19,F
075CC:  BRA    7552
....................             } 
....................       } 
....................          else 
075CE:  BRA    75D2
....................             {Flanco1 = 0;}   
075D0:  BCF    x1A.1
....................              
....................       if(LEFT)//Si oprime boton de Toma. 
075D2:  BSF    F96.1
075D4:  BTFSC  F84.1
075D6:  BRA    7616
....................       { 
....................          
....................          delay_ms(700); 
075D8:  MOVLW  04
075DA:  MOVLB  6
075DC:  MOVWF  x3E
075DE:  MOVLW  AF
075E0:  MOVWF  x47
075E2:  MOVLB  0
075E4:  CALL   1512
075E8:  MOVLB  6
075EA:  DECFSZ x3E,F
075EC:  BRA    75DE
....................          if(unidad==1){ 
075EE:  MOVLB  4
075F0:  DECFSZ xD9,W
075F2:  BRA    7616
....................             Menu=3;glcd_fillscreen(OFF);Opcion=1;unidad=1;Contrasena[0]=0;Contrasena[1]=0;Contrasena[2]=0;Contrasena[3]=0; 
075F4:  MOVLW  03
075F6:  MOVWF  xD8
075F8:  MOVLB  6
075FA:  CLRF   x46
075FC:  MOVLB  0
075FE:  CALL   3B48
07602:  MOVLW  01
07604:  MOVLB  4
07606:  MOVWF  xDA
07608:  MOVWF  xD9
0760A:  MOVLB  5
0760C:  CLRF   x1C
0760E:  CLRF   x1D
07610:  CLRF   x1E
07612:  CLRF   x1F
07614:  MOVLB  4
....................          } 
....................       } 
....................        
....................       if(unidad>4) 
07616:  MOVF   xD9,W
07618:  SUBLW  04
0761A:  BTFSC  FD8.0
0761C:  BRA    776A
....................       { 
....................          Opcion=1;glcd_fillscreen(OFF);unidad=1;n=0; 
0761E:  MOVLW  01
07620:  MOVWF  xDA
07622:  MOVLB  6
07624:  CLRF   x46
07626:  MOVLB  0
07628:  CALL   3B48
0762C:  MOVLW  01
0762E:  MOVLB  4
07630:  MOVWF  xD9
07632:  BCF    x1C.7
....................          Password[0]=Contrasena[0];Password[1]=Contrasena[1];Password[2]=Contrasena[2];Password[3]=Contrasena[3]; 
07634:  MOVFF  51C,520
07638:  MOVFF  51D,521
0763C:  MOVFF  51E,522
07640:  MOVFF  51F,523
....................          write_eeprom(0,Password[0]); 
07644:  CLRF   FAA
07646:  CLRF   FA9
07648:  MOVFF  520,FA8
0764C:  BCF    FA6.6
0764E:  BCF    FA6.7
07650:  BSF    FA6.2
07652:  MOVF   FF2,W
07654:  MOVWF  00
07656:  BCF    FF2.7
07658:  MOVLB  F
0765A:  MOVLW  55
0765C:  MOVWF  FA7
0765E:  MOVLW  AA
07660:  MOVWF  FA7
07662:  BSF    FA6.1
07664:  BTFSC  FA6.1
07666:  BRA    7664
07668:  BCF    FA6.2
0766A:  MOVF   00,W
0766C:  IORWF  FF2,F
....................          delay_ms(20); 
0766E:  MOVLW  14
07670:  MOVLB  6
07672:  MOVWF  x47
07674:  MOVLB  0
07676:  CALL   1512
....................          write_eeprom(1,Password[1]); 
0767A:  CLRF   FAA
0767C:  MOVLW  01
0767E:  MOVWF  FA9
07680:  MOVFF  521,FA8
07684:  BCF    FA6.6
07686:  BCF    FA6.7
07688:  BSF    FA6.2
0768A:  MOVF   FF2,W
0768C:  MOVWF  00
0768E:  BCF    FF2.7
07690:  MOVLB  F
07692:  MOVLW  55
07694:  MOVWF  FA7
07696:  MOVLW  AA
07698:  MOVWF  FA7
0769A:  BSF    FA6.1
0769C:  BTFSC  FA6.1
0769E:  BRA    769C
076A0:  BCF    FA6.2
076A2:  MOVF   00,W
076A4:  IORWF  FF2,F
....................          delay_ms(20); 
076A6:  MOVLW  14
076A8:  MOVLB  6
076AA:  MOVWF  x47
076AC:  MOVLB  0
076AE:  CALL   1512
....................          write_eeprom(2,Password[2]); 
076B2:  CLRF   FAA
076B4:  MOVLW  02
076B6:  MOVWF  FA9
076B8:  MOVFF  522,FA8
076BC:  BCF    FA6.6
076BE:  BCF    FA6.7
076C0:  BSF    FA6.2
076C2:  MOVF   FF2,W
076C4:  MOVWF  00
076C6:  BCF    FF2.7
076C8:  MOVLB  F
076CA:  MOVLW  55
076CC:  MOVWF  FA7
076CE:  MOVLW  AA
076D0:  MOVWF  FA7
076D2:  BSF    FA6.1
076D4:  BTFSC  FA6.1
076D6:  BRA    76D4
076D8:  BCF    FA6.2
076DA:  MOVF   00,W
076DC:  IORWF  FF2,F
....................          delay_ms(20); 
076DE:  MOVLW  14
076E0:  MOVLB  6
076E2:  MOVWF  x47
076E4:  MOVLB  0
076E6:  CALL   1512
....................          write_eeprom(3,Password[3]); 
076EA:  CLRF   FAA
076EC:  MOVLW  03
076EE:  MOVWF  FA9
076F0:  MOVFF  523,FA8
076F4:  BCF    FA6.6
076F6:  BCF    FA6.7
076F8:  BSF    FA6.2
076FA:  MOVF   FF2,W
076FC:  MOVWF  00
076FE:  BCF    FF2.7
07700:  MOVLB  F
07702:  MOVLW  55
07704:  MOVWF  FA7
07706:  MOVLW  AA
07708:  MOVWF  FA7
0770A:  BSF    FA6.1
0770C:  BTFSC  FA6.1
0770E:  BRA    770C
07710:  BCF    FA6.2
07712:  MOVF   00,W
07714:  IORWF  FF2,F
....................          delay_ms(20); 
07716:  MOVLW  14
07718:  MOVLB  6
0771A:  MOVWF  x47
0771C:  MOVLB  0
0771E:  CALL   1512
....................          glcd_imagen(1);glcd_update();Menu=211;delay_ms(1000);glcd_fillScreen(OFF);Menu=3; 
07722:  MOVLW  01
07724:  MOVLB  6
07726:  MOVWF  x3E
07728:  MOVLB  0
0772A:  CALL   4882
0772E:  CALL   2C60
07732:  MOVLW  D3
07734:  MOVLB  4
07736:  MOVWF  xD8
07738:  MOVLW  04
0773A:  MOVLB  6
0773C:  MOVWF  x3E
0773E:  MOVLW  FA
07740:  MOVWF  x47
07742:  MOVLB  0
07744:  CALL   1512
07748:  MOVLB  6
0774A:  DECFSZ x3E,F
0774C:  BRA    773E
0774E:  CLRF   x46
07750:  MOVLB  0
07752:  CALL   3B48
07756:  MOVLW  03
07758:  MOVLB  4
0775A:  MOVWF  xD8
....................          n=0; 
0775C:  BCF    x1C.7
....................          Contrasena[0]=0;Contrasena[1]=0;Contrasena[2]=0;Contrasena[3]=0; 
0775E:  MOVLB  5
07760:  CLRF   x1C
07762:  CLRF   x1D
07764:  CLRF   x1E
07766:  CLRF   x1F
07768:  MOVLB  4
....................       } 
....................      
....................     } 
.................... //_--------------------------------------------------------------------------------------------------------------------------------------------------------        
....................  
.................... //_-------------------------------------------------------------------------------------------------------------------------------------------------------- 
....................       if(Menu==31){ //Menu de Mantenimiento. 
0776A:  MOVF   xD8,W
0776C:  SUBLW  1F
0776E:  BTFSS  FD8.2
07770:  BRA    7B92
....................        
....................          strcpy(Menus.Letra,"Manteniento"); 
07772:  MOVLW  06
07774:  MOVWF  FEA
07776:  MOVLW  28
07778:  MOVWF  FE9
0777A:  MOVFF  FF2,63E
0777E:  BCF    FF2.7
07780:  MOVLW  00
07782:  MOVLB  0
07784:  CALL   113A
07788:  TBLRD*-
0778A:  TBLRD*+
0778C:  MOVF   FF5,W
0778E:  MOVWF  FEE
07790:  IORLW  00
07792:  BNZ   778A
07794:  MOVLB  6
07796:  BTFSC  x3E.7
07798:  BSF    FF2.7
....................          displayMenu(Menus.Letra,0,0,1,2); 
0779A:  MOVLW  06
0779C:  MOVWF  x47
0779E:  MOVLW  28
077A0:  MOVWF  x46
077A2:  CLRF   x48
077A4:  CLRF   x49
077A6:  MOVLW  01
077A8:  MOVWF  x4A
077AA:  MOVLW  02
077AC:  MOVWF  x4B
077AE:  MOVLB  0
077B0:  CALL   3A7C
....................           
....................          strcpy(Menus.Letra,"Trabajo Filtro(h):"); 
077B4:  MOVLW  06
077B6:  MOVWF  FEA
077B8:  MOVLW  28
077BA:  MOVWF  FE9
077BC:  MOVFF  FF2,63E
077C0:  BCF    FF2.7
077C2:  MOVLW  00
077C4:  CALL   1164
077C8:  TBLRD*-
077CA:  TBLRD*+
077CC:  MOVF   FF5,W
077CE:  MOVWF  FEE
077D0:  IORLW  00
077D2:  BNZ   77CA
077D4:  MOVLB  6
077D6:  BTFSC  x3E.7
077D8:  BSF    FF2.7
....................          displayMenu(Menus.Letra,10,20,1,1); 
077DA:  MOVLW  06
077DC:  MOVWF  x47
077DE:  MOVLW  28
077E0:  MOVWF  x46
077E2:  MOVLW  0A
077E4:  MOVWF  x48
077E6:  MOVLW  14
077E8:  MOVWF  x49
077EA:  MOVLW  01
077EC:  MOVWF  x4A
077EE:  MOVWF  x4B
077F0:  MOVLB  0
077F2:  CALL   3A7C
....................          glcd_text57(0, 31, Vida_Filtro, 1, ON); 
077F6:  MOVLB  6
077F8:  CLRF   x57
077FA:  MOVLW  1F
077FC:  MOVWF  x58
077FE:  MOVLW  04
07800:  MOVWF  x5A
07802:  MOVLW  B2
07804:  MOVWF  x59
07806:  MOVLW  01
07808:  MOVWF  x5B
0780A:  MOVWF  x5C
0780C:  MOVLB  0
0780E:  CALL   380E
....................          displayTiempo(Ttrabajo[3],60,30,0,1);displayTiempo(Ttrabajo[2],67,30,0,1);displayTiempo(Ttrabajo[1],74,30,0,1);displayTiempo(Ttrabajo[0],82,30,0,1); 
07812:  MOVFF  51B,63E
07816:  MOVLW  3C
07818:  MOVLB  6
0781A:  MOVWF  x3F
0781C:  MOVLW  1E
0781E:  MOVWF  x40
07820:  CLRF   x41
07822:  MOVLW  01
07824:  MOVWF  x42
07826:  MOVLB  0
07828:  CALL   4332
0782C:  MOVFF  51A,63E
07830:  MOVLW  43
07832:  MOVLB  6
07834:  MOVWF  x3F
07836:  MOVLW  1E
07838:  MOVWF  x40
0783A:  CLRF   x41
0783C:  MOVLW  01
0783E:  MOVWF  x42
07840:  MOVLB  0
07842:  CALL   4332
07846:  MOVFF  519,63E
0784A:  MOVLW  4A
0784C:  MOVLB  6
0784E:  MOVWF  x3F
07850:  MOVLW  1E
07852:  MOVWF  x40
07854:  CLRF   x41
07856:  MOVLW  01
07858:  MOVWF  x42
0785A:  MOVLB  0
0785C:  CALL   4332
07860:  MOVFF  518,63E
07864:  MOVLW  52
07866:  MOVLB  6
07868:  MOVWF  x3F
0786A:  MOVLW  1E
0786C:  MOVWF  x40
0786E:  CLRF   x41
07870:  MOVLW  01
07872:  MOVWF  x42
07874:  MOVLB  0
07876:  CALL   4332
....................           
....................          strcpy(Menus.Letra,"Trabajo Luz UV(h):"); 
0787A:  MOVLW  06
0787C:  MOVWF  FEA
0787E:  MOVLW  28
07880:  MOVWF  FE9
07882:  MOVFF  FF2,63E
07886:  BCF    FF2.7
07888:  MOVLW  00
0788A:  CALL   1196
0788E:  TBLRD*-
07890:  TBLRD*+
07892:  MOVF   FF5,W
07894:  MOVWF  FEE
07896:  IORLW  00
07898:  BNZ   7890
0789A:  MOVLB  6
0789C:  BTFSC  x3E.7
0789E:  BSF    FF2.7
....................          displayMenu(Menus.Letra,0,40,1,1); 
078A0:  MOVLW  06
078A2:  MOVWF  x47
078A4:  MOVLW  28
078A6:  MOVWF  x46
078A8:  CLRF   x48
078AA:  MOVWF  x49
078AC:  MOVLW  01
078AE:  MOVWF  x4A
078B0:  MOVWF  x4B
078B2:  MOVLB  0
078B4:  CALL   3A7C
....................          glcd_text57(0, 53, Vida_UV, 1, ON); 
078B8:  MOVLB  6
078BA:  CLRF   x57
078BC:  MOVLW  35
078BE:  MOVWF  x58
078C0:  MOVLW  04
078C2:  MOVWF  x5A
078C4:  MOVLW  AA
078C6:  MOVWF  x59
078C8:  MOVLW  01
078CA:  MOVWF  x5B
078CC:  MOVWF  x5C
078CE:  MOVLB  0
078D0:  CALL   380E
....................          displayTiempo(Tuv[3],60,52,0,1);displayTiempo(Tuv[2],67,52,0,1);displayTiempo(Tuv[1],74,52,0,1);displayTiempo(Tuv[0],82,52,0,1);                  
078D4:  MOVFF  50F,63E
078D8:  MOVLW  3C
078DA:  MOVLB  6
078DC:  MOVWF  x3F
078DE:  MOVLW  34
078E0:  MOVWF  x40
078E2:  CLRF   x41
078E4:  MOVLW  01
078E6:  MOVWF  x42
078E8:  MOVLB  0
078EA:  CALL   4332
078EE:  MOVFF  50E,63E
078F2:  MOVLW  43
078F4:  MOVLB  6
078F6:  MOVWF  x3F
078F8:  MOVLW  34
078FA:  MOVWF  x40
078FC:  CLRF   x41
078FE:  MOVLW  01
07900:  MOVWF  x42
07902:  MOVLB  0
07904:  CALL   4332
07908:  MOVFF  50D,63E
0790C:  MOVLW  4A
0790E:  MOVLB  6
07910:  MOVWF  x3F
07912:  MOVLW  34
07914:  MOVWF  x40
07916:  CLRF   x41
07918:  MOVLW  01
0791A:  MOVWF  x42
0791C:  MOVLB  0
0791E:  CALL   4332
07922:  MOVFF  50C,63E
07926:  MOVLW  52
07928:  MOVLB  6
0792A:  MOVWF  x3F
0792C:  MOVLW  34
0792E:  MOVWF  x40
07930:  CLRF   x41
07932:  MOVLW  01
07934:  MOVWF  x42
07936:  MOVLB  0
07938:  CALL   4332
....................          LuzBlanca_on; 
0793C:  BCF    F8B.2
0793E:  BCF    F94.2
....................           
....................             if(UP && RIGHT) // Reinicia Tiempo de Luz UV 
07940:  BSF    F92.4
07942:  BTFSC  F80.4
07944:  BRA    7A58
07946:  BSF    F96.0
07948:  BTFSC  F84.0
0794A:  BRA    7A58
....................             { 
....................                   delay_ms(2000); 
0794C:  MOVLW  08
0794E:  MOVLB  6
07950:  MOVWF  x3E
07952:  MOVLW  FA
07954:  MOVWF  x47
07956:  MOVLB  0
07958:  CALL   1512
0795C:  MOVLB  6
0795E:  DECFSZ x3E,F
07960:  BRA    7952
....................                   write_eeprom(12,0); 
07962:  CLRF   FAA
07964:  MOVLW  0C
07966:  MOVWF  FA9
07968:  CLRF   FA8
0796A:  BCF    FA6.6
0796C:  BCF    FA6.7
0796E:  BSF    FA6.2
07970:  MOVF   FF2,W
07972:  MOVWF  00
07974:  BCF    FF2.7
07976:  MOVLB  F
07978:  MOVLW  55
0797A:  MOVWF  FA7
0797C:  MOVLW  AA
0797E:  MOVWF  FA7
07980:  BSF    FA6.1
07982:  BTFSC  FA6.1
07984:  BRA    7982
07986:  BCF    FA6.2
07988:  MOVF   00,W
0798A:  IORWF  FF2,F
....................                   delay_ms(20); 
0798C:  MOVLW  14
0798E:  MOVLB  6
07990:  MOVWF  x47
07992:  MOVLB  0
07994:  CALL   1512
....................                   write_eeprom(13,0); 
07998:  CLRF   FAA
0799A:  MOVLW  0D
0799C:  MOVWF  FA9
0799E:  CLRF   FA8
079A0:  BCF    FA6.6
079A2:  BCF    FA6.7
079A4:  BSF    FA6.2
079A6:  MOVF   FF2,W
079A8:  MOVWF  00
079AA:  BCF    FF2.7
079AC:  MOVLB  F
079AE:  MOVLW  55
079B0:  MOVWF  FA7
079B2:  MOVLW  AA
079B4:  MOVWF  FA7
079B6:  BSF    FA6.1
079B8:  BTFSC  FA6.1
079BA:  BRA    79B8
079BC:  BCF    FA6.2
079BE:  MOVF   00,W
079C0:  IORWF  FF2,F
....................                   delay_ms(20); 
079C2:  MOVLW  14
079C4:  MOVLB  6
079C6:  MOVWF  x47
079C8:  MOVLB  0
079CA:  CALL   1512
....................                   write_eeprom(14,0); 
079CE:  CLRF   FAA
079D0:  MOVLW  0E
079D2:  MOVWF  FA9
079D4:  CLRF   FA8
079D6:  BCF    FA6.6
079D8:  BCF    FA6.7
079DA:  BSF    FA6.2
079DC:  MOVF   FF2,W
079DE:  MOVWF  00
079E0:  BCF    FF2.7
079E2:  MOVLB  F
079E4:  MOVLW  55
079E6:  MOVWF  FA7
079E8:  MOVLW  AA
079EA:  MOVWF  FA7
079EC:  BSF    FA6.1
079EE:  BTFSC  FA6.1
079F0:  BRA    79EE
079F2:  BCF    FA6.2
079F4:  MOVF   00,W
079F6:  IORWF  FF2,F
....................                   delay_ms(20); 
079F8:  MOVLW  14
079FA:  MOVLB  6
079FC:  MOVWF  x47
079FE:  MOVLB  0
07A00:  CALL   1512
....................                   write_eeprom(15,0); 
07A04:  CLRF   FAA
07A06:  MOVLW  0F
07A08:  MOVWF  FA9
07A0A:  CLRF   FA8
07A0C:  BCF    FA6.6
07A0E:  BCF    FA6.7
07A10:  BSF    FA6.2
07A12:  MOVF   FF2,W
07A14:  MOVWF  00
07A16:  BCF    FF2.7
07A18:  MOVLB  F
07A1A:  MOVLW  55
07A1C:  MOVWF  FA7
07A1E:  MOVLW  AA
07A20:  MOVWF  FA7
07A22:  BSF    FA6.1
07A24:  BTFSC  FA6.1
07A26:  BRA    7A24
07A28:  BCF    FA6.2
07A2A:  MOVF   00,W
07A2C:  IORWF  FF2,F
....................                   delay_ms(20); 
07A2E:  MOVLW  14
07A30:  MOVLB  6
07A32:  MOVWF  x47
07A34:  MOVLB  0
07A36:  CALL   1512
....................                   Tuv[3]=0;Tuv[2]=0;Tuv[1]=0;Tuv[0]=0; 
07A3A:  MOVLB  5
07A3C:  CLRF   x0F
07A3E:  CLRF   x0E
07A40:  CLRF   x0D
07A42:  CLRF   x0C
....................                   Menu=3;glcd_fillscreen(OFF);LuzBlanca_off; 
07A44:  MOVLW  03
07A46:  MOVLB  4
07A48:  MOVWF  xD8
07A4A:  MOVLB  6
07A4C:  CLRF   x46
07A4E:  MOVLB  0
07A50:  CALL   3B48
07A54:  BSF    F8B.2
07A56:  BCF    F94.2
....................                 
....................             } 
....................             if(DOWN && RIGHT) // Reinicia Tiempo de Trabajo 
07A58:  BSF    F92.5
07A5A:  BTFSC  F80.5
07A5C:  BRA    7B70
07A5E:  BSF    F96.0
07A60:  BTFSC  F84.0
07A62:  BRA    7B70
....................             { 
....................                   delay_ms(2000); 
07A64:  MOVLW  08
07A66:  MOVLB  6
07A68:  MOVWF  x3E
07A6A:  MOVLW  FA
07A6C:  MOVWF  x47
07A6E:  MOVLB  0
07A70:  CALL   1512
07A74:  MOVLB  6
07A76:  DECFSZ x3E,F
07A78:  BRA    7A6A
....................                   write_eeprom(16,0); 
07A7A:  CLRF   FAA
07A7C:  MOVLW  10
07A7E:  MOVWF  FA9
07A80:  CLRF   FA8
07A82:  BCF    FA6.6
07A84:  BCF    FA6.7
07A86:  BSF    FA6.2
07A88:  MOVF   FF2,W
07A8A:  MOVWF  00
07A8C:  BCF    FF2.7
07A8E:  MOVLB  F
07A90:  MOVLW  55
07A92:  MOVWF  FA7
07A94:  MOVLW  AA
07A96:  MOVWF  FA7
07A98:  BSF    FA6.1
07A9A:  BTFSC  FA6.1
07A9C:  BRA    7A9A
07A9E:  BCF    FA6.2
07AA0:  MOVF   00,W
07AA2:  IORWF  FF2,F
....................                   delay_ms(20); 
07AA4:  MOVLW  14
07AA6:  MOVLB  6
07AA8:  MOVWF  x47
07AAA:  MOVLB  0
07AAC:  CALL   1512
....................                   write_eeprom(17,0); 
07AB0:  CLRF   FAA
07AB2:  MOVLW  11
07AB4:  MOVWF  FA9
07AB6:  CLRF   FA8
07AB8:  BCF    FA6.6
07ABA:  BCF    FA6.7
07ABC:  BSF    FA6.2
07ABE:  MOVF   FF2,W
07AC0:  MOVWF  00
07AC2:  BCF    FF2.7
07AC4:  MOVLB  F
07AC6:  MOVLW  55
07AC8:  MOVWF  FA7
07ACA:  MOVLW  AA
07ACC:  MOVWF  FA7
07ACE:  BSF    FA6.1
07AD0:  BTFSC  FA6.1
07AD2:  BRA    7AD0
07AD4:  BCF    FA6.2
07AD6:  MOVF   00,W
07AD8:  IORWF  FF2,F
....................                   delay_ms(20); 
07ADA:  MOVLW  14
07ADC:  MOVLB  6
07ADE:  MOVWF  x47
07AE0:  MOVLB  0
07AE2:  CALL   1512
....................                   write_eeprom(18,0); 
07AE6:  CLRF   FAA
07AE8:  MOVLW  12
07AEA:  MOVWF  FA9
07AEC:  CLRF   FA8
07AEE:  BCF    FA6.6
07AF0:  BCF    FA6.7
07AF2:  BSF    FA6.2
07AF4:  MOVF   FF2,W
07AF6:  MOVWF  00
07AF8:  BCF    FF2.7
07AFA:  MOVLB  F
07AFC:  MOVLW  55
07AFE:  MOVWF  FA7
07B00:  MOVLW  AA
07B02:  MOVWF  FA7
07B04:  BSF    FA6.1
07B06:  BTFSC  FA6.1
07B08:  BRA    7B06
07B0A:  BCF    FA6.2
07B0C:  MOVF   00,W
07B0E:  IORWF  FF2,F
....................                   delay_ms(20); 
07B10:  MOVLW  14
07B12:  MOVLB  6
07B14:  MOVWF  x47
07B16:  MOVLB  0
07B18:  CALL   1512
....................                   write_eeprom(19,0); 
07B1C:  CLRF   FAA
07B1E:  MOVLW  13
07B20:  MOVWF  FA9
07B22:  CLRF   FA8
07B24:  BCF    FA6.6
07B26:  BCF    FA6.7
07B28:  BSF    FA6.2
07B2A:  MOVF   FF2,W
07B2C:  MOVWF  00
07B2E:  BCF    FF2.7
07B30:  MOVLB  F
07B32:  MOVLW  55
07B34:  MOVWF  FA7
07B36:  MOVLW  AA
07B38:  MOVWF  FA7
07B3A:  BSF    FA6.1
07B3C:  BTFSC  FA6.1
07B3E:  BRA    7B3C
07B40:  BCF    FA6.2
07B42:  MOVF   00,W
07B44:  IORWF  FF2,F
....................                   delay_ms(20); 
07B46:  MOVLW  14
07B48:  MOVLB  6
07B4A:  MOVWF  x47
07B4C:  MOVLB  0
07B4E:  CALL   1512
....................                   Ttrabajo[3]=0;Ttrabajo[2]=0;Ttrabajo[1]=0;Ttrabajo[0]=0; 
07B52:  MOVLB  5
07B54:  CLRF   x1B
07B56:  CLRF   x1A
07B58:  CLRF   x19
07B5A:  CLRF   x18
....................                   Menu=3;glcd_fillscreen(OFF);LuzBlanca_off; 
07B5C:  MOVLW  03
07B5E:  MOVLB  4
07B60:  MOVWF  xD8
07B62:  MOVLB  6
07B64:  CLRF   x46
07B66:  MOVLB  0
07B68:  CALL   3B48
07B6C:  BSF    F8B.2
07B6E:  BCF    F94.2
....................             } 
....................              
....................             if(LEFT) 
07B70:  BSF    F96.1
07B72:  BTFSC  F84.1
07B74:  BRA    7B94
....................             { 
....................                Menu=6;glcd_fillscreen(OFF);LuzBlanca_off;Opcion=1;unidad=1; 
07B76:  MOVLW  06
07B78:  MOVLB  4
07B7A:  MOVWF  xD8
07B7C:  MOVLB  6
07B7E:  CLRF   x46
07B80:  MOVLB  0
07B82:  CALL   3B48
07B86:  BSF    F8B.2
07B88:  BCF    F94.2
07B8A:  MOVLW  01
07B8C:  MOVLB  4
07B8E:  MOVWF  xDA
07B90:  MOVWF  xD9
07B92:  MOVLB  0
....................             } 
....................     } 
.................... //_--------------------------------------------------------------------------------------------------------------------------------------------------------        
....................  
.................... //_-------------------------------------------------------------------------------------------------------------------------------------------------------- 
....................       if(Menu==32){ //Menu de Servicio 
07B94:  MOVLB  4
07B96:  MOVF   xD8,W
07B98:  SUBLW  20
07B9A:  BTFSS  FD8.2
07B9C:  BRA    7F40
....................        
....................       strcpy(Menus.Letra,"Servicio"); 
07B9E:  MOVLW  06
07BA0:  MOVWF  FEA
07BA2:  MOVLW  28
07BA4:  MOVWF  FE9
07BA6:  MOVFF  FF2,63E
07BAA:  BCF    FF2.7
07BAC:  MOVLW  00
07BAE:  MOVLB  0
07BB0:  CALL   109C
07BB4:  TBLRD*-
07BB6:  TBLRD*+
07BB8:  MOVF   FF5,W
07BBA:  MOVWF  FEE
07BBC:  IORLW  00
07BBE:  BNZ   7BB6
07BC0:  MOVLB  6
07BC2:  BTFSC  x3E.7
07BC4:  BSF    FF2.7
....................       displayMenu(Menus.Letra,10,0,1,2); 
07BC6:  MOVLW  06
07BC8:  MOVWF  x47
07BCA:  MOVLW  28
07BCC:  MOVWF  x46
07BCE:  MOVLW  0A
07BD0:  MOVWF  x48
07BD2:  CLRF   x49
07BD4:  MOVLW  01
07BD6:  MOVWF  x4A
07BD8:  MOVLW  02
07BDA:  MOVWF  x4B
07BDC:  MOVLB  0
07BDE:  CALL   3A7C
....................        
....................       if(Opcion==1)    
07BE2:  MOVLB  4
07BE4:  DECFSZ xDA,W
07BE6:  BRA    7C2E
....................          {strcpy(Menus.Letra,"Sensor de Flujo"); 
07BE8:  MOVLW  06
07BEA:  MOVWF  FEA
07BEC:  MOVLW  28
07BEE:  MOVWF  FE9
07BF0:  MOVFF  FF2,63E
07BF4:  BCF    FF2.7
07BF6:  MOVLW  00
07BF8:  MOVLB  0
07BFA:  CALL   11C8
07BFE:  TBLRD*-
07C00:  TBLRD*+
07C02:  MOVF   FF5,W
07C04:  MOVWF  FEE
07C06:  IORLW  00
07C08:  BNZ   7C00
07C0A:  MOVLB  6
07C0C:  BTFSC  x3E.7
07C0E:  BSF    FF2.7
....................          displayMenu(Menus.Letra,0,18,1,1);} 
07C10:  MOVLW  06
07C12:  MOVWF  x47
07C14:  MOVLW  28
07C16:  MOVWF  x46
07C18:  CLRF   x48
07C1A:  MOVLW  12
07C1C:  MOVWF  x49
07C1E:  MOVLW  01
07C20:  MOVWF  x4A
07C22:  MOVWF  x4B
07C24:  MOVLB  0
07C26:  CALL   3A7C
....................       else 
07C2A:  BRA    7C70
07C2C:  MOVLB  4
....................          {strcpy(Menus.Letra,"Sensor de Flujo"); 
07C2E:  MOVLW  06
07C30:  MOVWF  FEA
07C32:  MOVLW  28
07C34:  MOVWF  FE9
07C36:  MOVFF  FF2,63E
07C3A:  BCF    FF2.7
07C3C:  MOVLW  00
07C3E:  MOVLB  0
07C40:  CALL   11C8
07C44:  TBLRD*-
07C46:  TBLRD*+
07C48:  MOVF   FF5,W
07C4A:  MOVWF  FEE
07C4C:  IORLW  00
07C4E:  BNZ   7C46
07C50:  MOVLB  6
07C52:  BTFSC  x3E.7
07C54:  BSF    FF2.7
....................          displayMenu(Menus.Letra,0,18,0,1);}  
07C56:  MOVLW  06
07C58:  MOVWF  x47
07C5A:  MOVLW  28
07C5C:  MOVWF  x46
07C5E:  CLRF   x48
07C60:  MOVLW  12
07C62:  MOVWF  x49
07C64:  CLRF   x4A
07C66:  MOVLW  01
07C68:  MOVWF  x4B
07C6A:  MOVLB  0
07C6C:  CALL   3A7C
....................           
....................       if(Opcion==2)    
07C70:  MOVLB  4
07C72:  MOVF   xDA,W
07C74:  SUBLW  02
07C76:  BNZ   7CBE
....................          {strcpy(Menus.Letra,"Sensor de Presion"); 
07C78:  MOVLW  06
07C7A:  MOVWF  FEA
07C7C:  MOVLW  28
07C7E:  MOVWF  FE9
07C80:  MOVFF  FF2,63E
07C84:  BCF    FF2.7
07C86:  MOVLW  00
07C88:  MOVLB  0
07C8A:  CALL   11F6
07C8E:  TBLRD*-
07C90:  TBLRD*+
07C92:  MOVF   FF5,W
07C94:  MOVWF  FEE
07C96:  IORLW  00
07C98:  BNZ   7C90
07C9A:  MOVLB  6
07C9C:  BTFSC  x3E.7
07C9E:  BSF    FF2.7
....................          displayMenu(Menus.Letra,0,29,1,1);} 
07CA0:  MOVLW  06
07CA2:  MOVWF  x47
07CA4:  MOVLW  28
07CA6:  MOVWF  x46
07CA8:  CLRF   x48
07CAA:  MOVLW  1D
07CAC:  MOVWF  x49
07CAE:  MOVLW  01
07CB0:  MOVWF  x4A
07CB2:  MOVWF  x4B
07CB4:  MOVLB  0
07CB6:  CALL   3A7C
....................       else 
07CBA:  BRA    7D00
07CBC:  MOVLB  4
....................          {strcpy(Menus.Letra,"Sensor de Presion"); 
07CBE:  MOVLW  06
07CC0:  MOVWF  FEA
07CC2:  MOVLW  28
07CC4:  MOVWF  FE9
07CC6:  MOVFF  FF2,63E
07CCA:  BCF    FF2.7
07CCC:  MOVLW  00
07CCE:  MOVLB  0
07CD0:  CALL   11F6
07CD4:  TBLRD*-
07CD6:  TBLRD*+
07CD8:  MOVF   FF5,W
07CDA:  MOVWF  FEE
07CDC:  IORLW  00
07CDE:  BNZ   7CD6
07CE0:  MOVLB  6
07CE2:  BTFSC  x3E.7
07CE4:  BSF    FF2.7
....................          displayMenu(Menus.Letra,0,29,0,1);}   
07CE6:  MOVLW  06
07CE8:  MOVWF  x47
07CEA:  MOVLW  28
07CEC:  MOVWF  x46
07CEE:  CLRF   x48
07CF0:  MOVLW  1D
07CF2:  MOVWF  x49
07CF4:  CLRF   x4A
07CF6:  MOVLW  01
07CF8:  MOVWF  x4B
07CFA:  MOVLB  0
07CFC:  CALL   3A7C
....................        
....................       if(Opcion==3)    
07D00:  MOVLB  4
07D02:  MOVF   xDA,W
07D04:  SUBLW  03
07D06:  BNZ   7D4C
....................          {strcpy(Menus.Letra,"Velocidad Ventilador"); 
07D08:  MOVLW  06
07D0A:  MOVWF  FEA
07D0C:  MOVLW  28
07D0E:  MOVWF  FE9
07D10:  MOVFF  FF2,63E
07D14:  BCF    FF2.7
07D16:  MOVLW  00
07D18:  MOVLB  0
07D1A:  CALL   1226
07D1E:  TBLRD*-
07D20:  TBLRD*+
07D22:  MOVF   FF5,W
07D24:  MOVWF  FEE
07D26:  IORLW  00
07D28:  BNZ   7D20
07D2A:  MOVLB  6
07D2C:  BTFSC  x3E.7
07D2E:  BSF    FF2.7
....................          displayMenu(Menus.Letra,0,40,1,1);} 
07D30:  MOVLW  06
07D32:  MOVWF  x47
07D34:  MOVLW  28
07D36:  MOVWF  x46
07D38:  CLRF   x48
07D3A:  MOVWF  x49
07D3C:  MOVLW  01
07D3E:  MOVWF  x4A
07D40:  MOVWF  x4B
07D42:  MOVLB  0
07D44:  CALL   3A7C
....................       else 
07D48:  BRA    7D8C
07D4A:  MOVLB  4
....................          {strcpy(Menus.Letra,"Velocidad Ventilador"); 
07D4C:  MOVLW  06
07D4E:  MOVWF  FEA
07D50:  MOVLW  28
07D52:  MOVWF  FE9
07D54:  MOVFF  FF2,63E
07D58:  BCF    FF2.7
07D5A:  MOVLW  00
07D5C:  MOVLB  0
07D5E:  CALL   1226
07D62:  TBLRD*-
07D64:  TBLRD*+
07D66:  MOVF   FF5,W
07D68:  MOVWF  FEE
07D6A:  IORLW  00
07D6C:  BNZ   7D64
07D6E:  MOVLB  6
07D70:  BTFSC  x3E.7
07D72:  BSF    FF2.7
....................          displayMenu(Menus.Letra,0,40,0,1);}  
07D74:  MOVLW  06
07D76:  MOVWF  x47
07D78:  MOVLW  28
07D7A:  MOVWF  x46
07D7C:  CLRF   x48
07D7E:  MOVWF  x49
07D80:  CLRF   x4A
07D82:  MOVLW  01
07D84:  MOVWF  x4B
07D86:  MOVLB  0
07D88:  CALL   3A7C
....................        
....................       if(Opcion==4)    
07D8C:  MOVLB  4
07D8E:  MOVF   xDA,W
07D90:  SUBLW  04
07D92:  BNZ   7DDA
....................          {strcpy(Menus.Letra,"Relacion D/I"); 
07D94:  MOVLW  06
07D96:  MOVWF  FEA
07D98:  MOVLW  28
07D9A:  MOVWF  FE9
07D9C:  MOVFF  FF2,63E
07DA0:  BCF    FF2.7
07DA2:  MOVLW  00
07DA4:  MOVLB  0
07DA6:  CALL   125A
07DAA:  TBLRD*-
07DAC:  TBLRD*+
07DAE:  MOVF   FF5,W
07DB0:  MOVWF  FEE
07DB2:  IORLW  00
07DB4:  BNZ   7DAC
07DB6:  MOVLB  6
07DB8:  BTFSC  x3E.7
07DBA:  BSF    FF2.7
....................          displayMenu(Menus.Letra,0,51,1,1);} 
07DBC:  MOVLW  06
07DBE:  MOVWF  x47
07DC0:  MOVLW  28
07DC2:  MOVWF  x46
07DC4:  CLRF   x48
07DC6:  MOVLW  33
07DC8:  MOVWF  x49
07DCA:  MOVLW  01
07DCC:  MOVWF  x4A
07DCE:  MOVWF  x4B
07DD0:  MOVLB  0
07DD2:  CALL   3A7C
....................       else 
07DD6:  BRA    7E1C
07DD8:  MOVLB  4
....................          {strcpy(Menus.Letra,"Relacion D/I"); 
07DDA:  MOVLW  06
07DDC:  MOVWF  FEA
07DDE:  MOVLW  28
07DE0:  MOVWF  FE9
07DE2:  MOVFF  FF2,63E
07DE6:  BCF    FF2.7
07DE8:  MOVLW  00
07DEA:  MOVLB  0
07DEC:  CALL   125A
07DF0:  TBLRD*-
07DF2:  TBLRD*+
07DF4:  MOVF   FF5,W
07DF6:  MOVWF  FEE
07DF8:  IORLW  00
07DFA:  BNZ   7DF2
07DFC:  MOVLB  6
07DFE:  BTFSC  x3E.7
07E00:  BSF    FF2.7
....................          displayMenu(Menus.Letra,0,51,0,1);} 
07E02:  MOVLW  06
07E04:  MOVWF  x47
07E06:  MOVLW  28
07E08:  MOVWF  x46
07E0A:  CLRF   x48
07E0C:  MOVLW  33
07E0E:  MOVWF  x49
07E10:  CLRF   x4A
07E12:  MOVLW  01
07E14:  MOVWF  x4B
07E16:  MOVLB  0
07E18:  CALL   3A7C
....................          
....................       if(UP)//Si oprime hacia arriba 
07E1C:  BSF    F92.4
07E1E:  BTFSC  F80.4
07E20:  BRA    7E3C
....................       {  if(Flanco == 0)  
07E22:  MOVLB  4
07E24:  BTFSC  x1A.0
07E26:  BRA    7E3A
....................             {Flanco = 1;delay_ms(30);Opcion--; 
07E28:  BSF    x1A.0
07E2A:  MOVLW  1E
07E2C:  MOVLB  6
07E2E:  MOVWF  x47
07E30:  MOVLB  0
07E32:  CALL   1512
07E36:  MOVLB  4
07E38:  DECF   xDA,F
....................             } 
....................       } 
....................          else 
07E3A:  BRA    7E40
....................             {Flanco = 0;} 
07E3C:  MOVLB  4
07E3E:  BCF    x1A.0
....................              
....................       if(DOWN)//Si oprime hacia abajo 
07E40:  BSF    F92.5
07E42:  BTFSC  F80.5
07E44:  BRA    7E5E
....................       {  if(Flanco2 == 0)  
07E46:  BTFSC  x1A.2
07E48:  BRA    7E5C
....................             {Flanco2 = 1;delay_ms(30);Opcion++; 
07E4A:  BSF    x1A.2
07E4C:  MOVLW  1E
07E4E:  MOVLB  6
07E50:  MOVWF  x47
07E52:  MOVLB  0
07E54:  CALL   1512
07E58:  MOVLB  4
07E5A:  INCF   xDA,F
....................             }      
....................       } 
....................          else 
07E5C:  BRA    7E60
....................             {Flanco2 = 0;}   
07E5E:  BCF    x1A.2
....................              
....................       if(RIGHT)//Si oprime SET 
07E60:  BSF    F96.0
07E62:  BTFSC  F84.0
07E64:  BRA    7EF6
....................       {   
....................          delay_ms(20); 
07E66:  MOVLW  14
07E68:  MOVLB  6
07E6A:  MOVWF  x47
07E6C:  MOVLB  0
07E6E:  CALL   1512
....................          if(RIGHT){ 
07E72:  BSF    F96.0
07E74:  BTFSC  F84.0
07E76:  BRA    7EF8
....................             delay_ms(100); 
07E78:  MOVLW  64
07E7A:  MOVLB  6
07E7C:  MOVWF  x47
07E7E:  MOVLB  0
07E80:  CALL   1512
....................             glcd_fillScreen(OFF); 
07E84:  MOVLB  6
07E86:  CLRF   x46
07E88:  MOVLB  0
07E8A:  CALL   3B48
....................             while(!PidePassword(6,32,Opcion+40,4,4,4,4)){ 
07E8E:  MOVLW  28
07E90:  MOVLB  4
07E92:  ADDWF  xDA,W
07E94:  MOVLB  6
07E96:  MOVWF  x3E
07E98:  MOVLW  06
07E9A:  MOVWF  x3F
07E9C:  MOVLW  20
07E9E:  MOVWF  x40
07EA0:  MOVFF  63E,641
07EA4:  MOVLW  04
07EA6:  MOVWF  x42
07EA8:  MOVWF  x43
07EAA:  MOVWF  x44
07EAC:  MOVWF  x45
07EAE:  MOVLB  0
07EB0:  CALL   3BA2
07EB4:  MOVF   01,F
07EB6:  BNZ   7EE4
....................                PidePassword(6,32,Opcion+40,4,4,4,4);glcd_update(); 
07EB8:  MOVLW  28
07EBA:  MOVLB  4
07EBC:  ADDWF  xDA,W
07EBE:  MOVLB  6
07EC0:  MOVWF  x3E
07EC2:  MOVLW  06
07EC4:  MOVWF  x3F
07EC6:  MOVLW  20
07EC8:  MOVWF  x40
07ECA:  MOVFF  63E,641
07ECE:  MOVLW  04
07ED0:  MOVWF  x42
07ED2:  MOVWF  x43
07ED4:  MOVWF  x44
07ED6:  MOVWF  x45
07ED8:  MOVLB  0
07EDA:  CALL   3BA2
07EDE:  CALL   2C60
....................             }             
07EE2:  BRA    7E8E
....................             glcd_fillScreen(OFF);Opcion=1;unidad=1; 
07EE4:  MOVLB  6
07EE6:  CLRF   x46
07EE8:  MOVLB  0
07EEA:  CALL   3B48
07EEE:  MOVLW  01
07EF0:  MOVLB  4
07EF2:  MOVWF  xDA
07EF4:  MOVWF  xD9
07EF6:  MOVLB  0
....................          } 
....................       } 
....................              
....................       if(LEFT)//Si oprime boton de Toma. 
07EF8:  BSF    F96.1
07EFA:  BTFSC  F84.1
07EFC:  BRA    7F2C
....................         {delay_ms(700);Menu=6;glcd_fillscreen(OFF);Opcion=1;unidad=1;} 
07EFE:  MOVLW  04
07F00:  MOVLB  6
07F02:  MOVWF  x3E
07F04:  MOVLW  AF
07F06:  MOVWF  x47
07F08:  MOVLB  0
07F0A:  CALL   1512
07F0E:  MOVLB  6
07F10:  DECFSZ x3E,F
07F12:  BRA    7F04
07F14:  MOVLW  06
07F16:  MOVLB  4
07F18:  MOVWF  xD8
07F1A:  MOVLB  6
07F1C:  CLRF   x46
07F1E:  MOVLB  0
07F20:  CALL   3B48
07F24:  MOVLW  01
07F26:  MOVLB  4
07F28:  MOVWF  xDA
07F2A:  MOVWF  xD9
....................          
....................       if(Opcion>4) 
07F2C:  MOVLB  4
07F2E:  MOVF   xDA,W
07F30:  SUBLW  04
07F32:  BC    7F38
....................       {Opcion=1;} 
07F34:  MOVLW  01
07F36:  MOVWF  xDA
....................       if(Opcion<1) 
07F38:  MOVF   xDA,F
07F3A:  BNZ   7F40
....................       {Opcion=4;} 
07F3C:  MOVLW  04
07F3E:  MOVWF  xDA
....................     } 
.................... //_--------------------------------------------------------------------------------------------------------------------------------------------------------        
....................  
.................... //_-------------------------------------------------------------------------------------------------------------------------------------------------------- 
....................       if(Menu==33){ //Menu de Apagado de Cabina. 
07F40:  MOVF   xD8,W
07F42:  SUBLW  21
07F44:  BTFSS  FD8.2
07F46:  BRA    83C0
....................        
....................       strcpy(Menus.Letra,"  Apagar?"); 
07F48:  MOVLW  06
07F4A:  MOVWF  FEA
07F4C:  MOVLW  28
07F4E:  MOVWF  FE9
07F50:  MOVFF  FF2,63E
07F54:  BCF    FF2.7
07F56:  MOVLW  00
07F58:  MOVLB  0
07F5A:  CALL   1286
07F5E:  TBLRD*-
07F60:  TBLRD*+
07F62:  MOVF   FF5,W
07F64:  MOVWF  FEE
07F66:  IORLW  00
07F68:  BNZ   7F60
07F6A:  MOVLB  6
07F6C:  BTFSC  x3E.7
07F6E:  BSF    FF2.7
....................       displayMenu(Menus.Letra,10,0,1,2); 
07F70:  MOVLW  06
07F72:  MOVWF  x47
07F74:  MOVLW  28
07F76:  MOVWF  x46
07F78:  MOVLW  0A
07F7A:  MOVWF  x48
07F7C:  CLRF   x49
07F7E:  MOVLW  01
07F80:  MOVWF  x4A
07F82:  MOVLW  02
07F84:  MOVWF  x4B
07F86:  MOVLB  0
07F88:  CALL   3A7C
....................        
....................       if(unidad==1) 
07F8C:  MOVLB  4
07F8E:  DECFSZ xD9,W
07F90:  BRA    801E
....................       {strcpy(Menus.Letra,"SI"); 
07F92:  MOVLW  06
07F94:  MOVWF  FEA
07F96:  MOVLW  28
07F98:  MOVWF  FE9
07F9A:  MOVFF  FF2,63E
07F9E:  BCF    FF2.7
07FA0:  MOVLW  00
07FA2:  MOVLB  0
07FA4:  CALL   12AE
07FA8:  TBLRD*-
07FAA:  TBLRD*+
07FAC:  MOVF   FF5,W
07FAE:  MOVWF  FEE
07FB0:  IORLW  00
07FB2:  BNZ   7FAA
07FB4:  MOVLB  6
07FB6:  BTFSC  x3E.7
07FB8:  BSF    FF2.7
....................       displayMenu(Menus.Letra,50,25,1,2); 
07FBA:  MOVLW  06
07FBC:  MOVWF  x47
07FBE:  MOVLW  28
07FC0:  MOVWF  x46
07FC2:  MOVLW  32
07FC4:  MOVWF  x48
07FC6:  MOVLW  19
07FC8:  MOVWF  x49
07FCA:  MOVLW  01
07FCC:  MOVWF  x4A
07FCE:  MOVLW  02
07FD0:  MOVWF  x4B
07FD2:  MOVLB  0
07FD4:  CALL   3A7C
....................       strcpy(Menus.Letra,"NO"); 
07FD8:  MOVLW  06
07FDA:  MOVWF  FEA
07FDC:  MOVLW  28
07FDE:  MOVWF  FE9
07FE0:  MOVFF  FF2,63E
07FE4:  BCF    FF2.7
07FE6:  MOVLW  00
07FE8:  CALL   12D0
07FEC:  TBLRD*-
07FEE:  TBLRD*+
07FF0:  MOVF   FF5,W
07FF2:  MOVWF  FEE
07FF4:  IORLW  00
07FF6:  BNZ   7FEE
07FF8:  MOVLB  6
07FFA:  BTFSC  x3E.7
07FFC:  BSF    FF2.7
....................       displayMenu(Menus.Letra,50,45,0,2);} 
07FFE:  MOVLW  06
08000:  MOVWF  x47
08002:  MOVLW  28
08004:  MOVWF  x46
08006:  MOVLW  32
08008:  MOVWF  x48
0800A:  MOVLW  2D
0800C:  MOVWF  x49
0800E:  CLRF   x4A
08010:  MOVLW  02
08012:  MOVWF  x4B
08014:  MOVLB  0
08016:  CALL   3A7C
....................       else 
0801A:  BRA    80A6
0801C:  MOVLB  4
....................       {strcpy(Menus.Letra,"SI"); 
0801E:  MOVLW  06
08020:  MOVWF  FEA
08022:  MOVLW  28
08024:  MOVWF  FE9
08026:  MOVFF  FF2,63E
0802A:  BCF    FF2.7
0802C:  MOVLW  00
0802E:  MOVLB  0
08030:  CALL   12AE
08034:  TBLRD*-
08036:  TBLRD*+
08038:  MOVF   FF5,W
0803A:  MOVWF  FEE
0803C:  IORLW  00
0803E:  BNZ   8036
08040:  MOVLB  6
08042:  BTFSC  x3E.7
08044:  BSF    FF2.7
....................       displayMenu(Menus.Letra,50,25,0,2); 
08046:  MOVLW  06
08048:  MOVWF  x47
0804A:  MOVLW  28
0804C:  MOVWF  x46
0804E:  MOVLW  32
08050:  MOVWF  x48
08052:  MOVLW  19
08054:  MOVWF  x49
08056:  CLRF   x4A
08058:  MOVLW  02
0805A:  MOVWF  x4B
0805C:  MOVLB  0
0805E:  CALL   3A7C
....................       strcpy(Menus.Letra,"NO"); 
08062:  MOVLW  06
08064:  MOVWF  FEA
08066:  MOVLW  28
08068:  MOVWF  FE9
0806A:  MOVFF  FF2,63E
0806E:  BCF    FF2.7
08070:  MOVLW  00
08072:  CALL   12D0
08076:  TBLRD*-
08078:  TBLRD*+
0807A:  MOVF   FF5,W
0807C:  MOVWF  FEE
0807E:  IORLW  00
08080:  BNZ   8078
08082:  MOVLB  6
08084:  BTFSC  x3E.7
08086:  BSF    FF2.7
....................       displayMenu(Menus.Letra,50,45,1,2);} 
08088:  MOVLW  06
0808A:  MOVWF  x47
0808C:  MOVLW  28
0808E:  MOVWF  x46
08090:  MOVLW  32
08092:  MOVWF  x48
08094:  MOVLW  2D
08096:  MOVWF  x49
08098:  MOVLW  01
0809A:  MOVWF  x4A
0809C:  MOVLW  02
0809E:  MOVWF  x4B
080A0:  MOVLB  0
080A2:  CALL   3A7C
....................        
....................        
....................          
....................       if(UP)//Si oprime hacia arriba 
080A6:  BSF    F92.4
080A8:  BTFSC  F80.4
080AA:  BRA    80BE
....................       {   
....................          delay_ms(90);unidad++; 
080AC:  MOVLW  5A
080AE:  MOVLB  6
080B0:  MOVWF  x47
080B2:  MOVLB  0
080B4:  CALL   1512
080B8:  MOVLB  4
080BA:  INCF   xD9,F
080BC:  MOVLB  0
....................       } 
....................              
....................       if(DOWN)//Si oprime hacia abajo 
080BE:  BSF    F92.5
080C0:  BTFSC  F80.5
080C2:  BRA    80D6
....................       { 
....................          delay_ms(90);unidad--; 
080C4:  MOVLW  5A
080C6:  MOVLB  6
080C8:  MOVWF  x47
080CA:  MOVLB  0
080CC:  CALL   1512
080D0:  MOVLB  4
080D2:  DECF   xD9,F
080D4:  MOVLB  0
....................       } 
....................              
....................       if(RIGHT)//Si oprime SET 
080D6:  BSF    F96.0
080D8:  BTFSC  F84.0
080DA:  BRA    8382
....................       { 
....................          Flanco1 = 1;delay_ms(30); 
080DC:  MOVLB  4
080DE:  BSF    x1A.1
080E0:  MOVLW  1E
080E2:  MOVLB  6
080E4:  MOVWF  x47
080E6:  MOVLB  0
080E8:  CALL   1512
....................          if(unidad==1) 
080EC:  MOVLB  4
080EE:  DECFSZ xD9,W
080F0:  BRA    8374
....................          {Menu=120;glcd_fillscreen(OFF); 
080F2:  MOVLW  78
080F4:  MOVWF  xD8
080F6:  MOVLB  6
080F8:  CLRF   x46
080FA:  MOVLB  0
080FC:  CALL   3B48
....................             write_eeprom(33,make8(minutos_trabajo,0)); 
08100:  MOVFF  4F8,63E
08104:  CLRF   FAA
08106:  MOVLW  21
08108:  MOVWF  FA9
0810A:  MOVFF  63E,FA8
0810E:  BCF    FA6.6
08110:  BCF    FA6.7
08112:  BSF    FA6.2
08114:  MOVF   FF2,W
08116:  MOVWF  00
08118:  BCF    FF2.7
0811A:  MOVLB  F
0811C:  MOVLW  55
0811E:  MOVWF  FA7
08120:  MOVLW  AA
08122:  MOVWF  FA7
08124:  BSF    FA6.1
08126:  BTFSC  FA6.1
08128:  BRA    8126
0812A:  BCF    FA6.2
0812C:  MOVF   00,W
0812E:  IORWF  FF2,F
....................             delay_ms(20); 
08130:  MOVLW  14
08132:  MOVLB  6
08134:  MOVWF  x47
08136:  MOVLB  0
08138:  CALL   1512
....................             write_eeprom(34,make8(minutos_trabajo,1)); 
0813C:  MOVFF  4F9,63E
08140:  CLRF   FAA
08142:  MOVLW  22
08144:  MOVWF  FA9
08146:  MOVFF  63E,FA8
0814A:  BCF    FA6.6
0814C:  BCF    FA6.7
0814E:  BSF    FA6.2
08150:  MOVF   FF2,W
08152:  MOVWF  00
08154:  BCF    FF2.7
08156:  MOVLB  F
08158:  MOVLW  55
0815A:  MOVWF  FA7
0815C:  MOVLW  AA
0815E:  MOVWF  FA7
08160:  BSF    FA6.1
08162:  BTFSC  FA6.1
08164:  BRA    8162
08166:  BCF    FA6.2
08168:  MOVF   00,W
0816A:  IORWF  FF2,F
....................             delay_ms(20); 
0816C:  MOVLW  14
0816E:  MOVLB  6
08170:  MOVWF  x47
08172:  MOVLB  0
08174:  CALL   1512
....................             write_eeprom(16,Ttrabajo[0]); 
08178:  CLRF   FAA
0817A:  MOVLW  10
0817C:  MOVWF  FA9
0817E:  MOVFF  518,FA8
08182:  BCF    FA6.6
08184:  BCF    FA6.7
08186:  BSF    FA6.2
08188:  MOVF   FF2,W
0818A:  MOVWF  00
0818C:  BCF    FF2.7
0818E:  MOVLB  F
08190:  MOVLW  55
08192:  MOVWF  FA7
08194:  MOVLW  AA
08196:  MOVWF  FA7
08198:  BSF    FA6.1
0819A:  BTFSC  FA6.1
0819C:  BRA    819A
0819E:  BCF    FA6.2
081A0:  MOVF   00,W
081A2:  IORWF  FF2,F
....................             delay_ms(20); 
081A4:  MOVLW  14
081A6:  MOVLB  6
081A8:  MOVWF  x47
081AA:  MOVLB  0
081AC:  CALL   1512
....................             write_eeprom(17,Ttrabajo[1]); 
081B0:  CLRF   FAA
081B2:  MOVLW  11
081B4:  MOVWF  FA9
081B6:  MOVFF  519,FA8
081BA:  BCF    FA6.6
081BC:  BCF    FA6.7
081BE:  BSF    FA6.2
081C0:  MOVF   FF2,W
081C2:  MOVWF  00
081C4:  BCF    FF2.7
081C6:  MOVLB  F
081C8:  MOVLW  55
081CA:  MOVWF  FA7
081CC:  MOVLW  AA
081CE:  MOVWF  FA7
081D0:  BSF    FA6.1
081D2:  BTFSC  FA6.1
081D4:  BRA    81D2
081D6:  BCF    FA6.2
081D8:  MOVF   00,W
081DA:  IORWF  FF2,F
....................             delay_ms(20); 
081DC:  MOVLW  14
081DE:  MOVLB  6
081E0:  MOVWF  x47
081E2:  MOVLB  0
081E4:  CALL   1512
....................             write_eeprom(18,Ttrabajo[2]); 
081E8:  CLRF   FAA
081EA:  MOVLW  12
081EC:  MOVWF  FA9
081EE:  MOVFF  51A,FA8
081F2:  BCF    FA6.6
081F4:  BCF    FA6.7
081F6:  BSF    FA6.2
081F8:  MOVF   FF2,W
081FA:  MOVWF  00
081FC:  BCF    FF2.7
081FE:  MOVLB  F
08200:  MOVLW  55
08202:  MOVWF  FA7
08204:  MOVLW  AA
08206:  MOVWF  FA7
08208:  BSF    FA6.1
0820A:  BTFSC  FA6.1
0820C:  BRA    820A
0820E:  BCF    FA6.2
08210:  MOVF   00,W
08212:  IORWF  FF2,F
....................             delay_ms(20); 
08214:  MOVLW  14
08216:  MOVLB  6
08218:  MOVWF  x47
0821A:  MOVLB  0
0821C:  CALL   1512
....................             write_eeprom(19,Ttrabajo[3]); 
08220:  CLRF   FAA
08222:  MOVLW  13
08224:  MOVWF  FA9
08226:  MOVFF  51B,FA8
0822A:  BCF    FA6.6
0822C:  BCF    FA6.7
0822E:  BSF    FA6.2
08230:  MOVF   FF2,W
08232:  MOVWF  00
08234:  BCF    FF2.7
08236:  MOVLB  F
08238:  MOVLW  55
0823A:  MOVWF  FA7
0823C:  MOVLW  AA
0823E:  MOVWF  FA7
08240:  BSF    FA6.1
08242:  BTFSC  FA6.1
08244:  BRA    8242
08246:  BCF    FA6.2
08248:  MOVF   00,W
0824A:  IORWF  FF2,F
....................             delay_ms(20); 
0824C:  MOVLW  14
0824E:  MOVLB  6
08250:  MOVWF  x47
08252:  MOVLB  0
08254:  CALL   1512
....................             write_eeprom(31,minutos_uv); 
08258:  CLRF   FAA
0825A:  MOVLW  1F
0825C:  MOVWF  FA9
0825E:  MOVFF  4E0,FA8
08262:  BCF    FA6.6
08264:  BCF    FA6.7
08266:  BSF    FA6.2
08268:  MOVF   FF2,W
0826A:  MOVWF  00
0826C:  BCF    FF2.7
0826E:  MOVLB  F
08270:  MOVLW  55
08272:  MOVWF  FA7
08274:  MOVLW  AA
08276:  MOVWF  FA7
08278:  BSF    FA6.1
0827A:  BTFSC  FA6.1
0827C:  BRA    827A
0827E:  BCF    FA6.2
08280:  MOVF   00,W
08282:  IORWF  FF2,F
....................             delay_ms(20); 
08284:  MOVLW  14
08286:  MOVLB  6
08288:  MOVWF  x47
0828A:  MOVLB  0
0828C:  CALL   1512
....................             write_eeprom(12,Tuv[0]); 
08290:  CLRF   FAA
08292:  MOVLW  0C
08294:  MOVWF  FA9
08296:  MOVFF  50C,FA8
0829A:  BCF    FA6.6
0829C:  BCF    FA6.7
0829E:  BSF    FA6.2
082A0:  MOVF   FF2,W
082A2:  MOVWF  00
082A4:  BCF    FF2.7
082A6:  MOVLB  F
082A8:  MOVLW  55
082AA:  MOVWF  FA7
082AC:  MOVLW  AA
082AE:  MOVWF  FA7
082B0:  BSF    FA6.1
082B2:  BTFSC  FA6.1
082B4:  BRA    82B2
082B6:  BCF    FA6.2
082B8:  MOVF   00,W
082BA:  IORWF  FF2,F
....................             delay_ms(20); 
082BC:  MOVLW  14
082BE:  MOVLB  6
082C0:  MOVWF  x47
082C2:  MOVLB  0
082C4:  CALL   1512
....................             write_eeprom(13,Tuv[1]); 
082C8:  CLRF   FAA
082CA:  MOVLW  0D
082CC:  MOVWF  FA9
082CE:  MOVFF  50D,FA8
082D2:  BCF    FA6.6
082D4:  BCF    FA6.7
082D6:  BSF    FA6.2
082D8:  MOVF   FF2,W
082DA:  MOVWF  00
082DC:  BCF    FF2.7
082DE:  MOVLB  F
082E0:  MOVLW  55
082E2:  MOVWF  FA7
082E4:  MOVLW  AA
082E6:  MOVWF  FA7
082E8:  BSF    FA6.1
082EA:  BTFSC  FA6.1
082EC:  BRA    82EA
082EE:  BCF    FA6.2
082F0:  MOVF   00,W
082F2:  IORWF  FF2,F
....................             delay_ms(20); 
082F4:  MOVLW  14
082F6:  MOVLB  6
082F8:  MOVWF  x47
082FA:  MOVLB  0
082FC:  CALL   1512
....................             write_eeprom(14,Tuv[2]); 
08300:  CLRF   FAA
08302:  MOVLW  0E
08304:  MOVWF  FA9
08306:  MOVFF  50E,FA8
0830A:  BCF    FA6.6
0830C:  BCF    FA6.7
0830E:  BSF    FA6.2
08310:  MOVF   FF2,W
08312:  MOVWF  00
08314:  BCF    FF2.7
08316:  MOVLB  F
08318:  MOVLW  55
0831A:  MOVWF  FA7
0831C:  MOVLW  AA
0831E:  MOVWF  FA7
08320:  BSF    FA6.1
08322:  BTFSC  FA6.1
08324:  BRA    8322
08326:  BCF    FA6.2
08328:  MOVF   00,W
0832A:  IORWF  FF2,F
....................             delay_ms(20); 
0832C:  MOVLW  14
0832E:  MOVLB  6
08330:  MOVWF  x47
08332:  MOVLB  0
08334:  CALL   1512
....................             write_eeprom(15,Tuv[3]); 
08338:  CLRF   FAA
0833A:  MOVLW  0F
0833C:  MOVWF  FA9
0833E:  MOVFF  50F,FA8
08342:  BCF    FA6.6
08344:  BCF    FA6.7
08346:  BSF    FA6.2
08348:  MOVF   FF2,W
0834A:  MOVWF  00
0834C:  BCF    FF2.7
0834E:  MOVLB  F
08350:  MOVLW  55
08352:  MOVWF  FA7
08354:  MOVLW  AA
08356:  MOVWF  FA7
08358:  BSF    FA6.1
0835A:  BTFSC  FA6.1
0835C:  BRA    835A
0835E:  BCF    FA6.2
08360:  MOVF   00,W
08362:  IORWF  FF2,F
....................             delay_ms(20); 
08364:  MOVLW  14
08366:  MOVLB  6
08368:  MOVWF  x47
0836A:  MOVLB  0
0836C:  CALL   1512
....................          } 
....................          else 
08370:  BRA    8382
08372:  MOVLB  4
....................          {Menu=2;glcd_fillscreen(OFF);}  
08374:  MOVLW  02
08376:  MOVWF  xD8
08378:  MOVLB  6
0837A:  CLRF   x46
0837C:  MOVLB  0
0837E:  CALL   3B48
....................           
....................       } 
....................              
....................       if(LEFT)//Si oprime boton de Toma. 
08382:  BSF    F96.1
08384:  BTFSC  F84.1
08386:  BRA    83AC
....................       { 
....................          delay_ms(30);Menu=6;glcd_fillscreen(OFF);Opcion=1;unidad=1; 
08388:  MOVLW  1E
0838A:  MOVLB  6
0838C:  MOVWF  x47
0838E:  MOVLB  0
08390:  CALL   1512
08394:  MOVLW  06
08396:  MOVLB  4
08398:  MOVWF  xD8
0839A:  MOVLB  6
0839C:  CLRF   x46
0839E:  MOVLB  0
083A0:  CALL   3B48
083A4:  MOVLW  01
083A6:  MOVLB  4
083A8:  MOVWF  xDA
083AA:  MOVWF  xD9
....................       } 
....................        
....................       if(unidad>2) 
083AC:  MOVLB  4
083AE:  MOVF   xD9,W
083B0:  SUBLW  02
083B2:  BC    83B8
....................       {unidad=1;} 
083B4:  MOVLW  01
083B6:  MOVWF  xD9
....................       if(unidad<1) 
083B8:  MOVF   xD9,F
083BA:  BNZ   83C0
....................       {unidad=2;} 
083BC:  MOVLW  02
083BE:  MOVWF  xD9
....................      
....................     } 
.................... //_--------------------------------------------------------------------------------------------------------------------------------------------------------        
....................  
.................... //_-------------------------------------------------------------------------------------------------------------------------------------------------------- 
....................       if(Menu==41){ //Menu de Sensor de Flujo. 
083C0:  MOVF   xD8,W
083C2:  SUBLW  29
083C4:  BTFSS  FD8.2
083C6:  BRA    898A
....................        
....................       if(Ajuste1>10.0) 
083C8:  MOVLB  6
083CA:  CLRF   x46
083CC:  CLRF   x45
083CE:  MOVLW  20
083D0:  MOVWF  x44
083D2:  MOVLW  82
083D4:  MOVWF  x43
083D6:  MOVFF  557,64A
083DA:  MOVFF  556,649
083DE:  MOVFF  555,648
083E2:  MOVFF  554,647
083E6:  MOVLB  0
083E8:  CALL   219C
083EC:  BNC   83FA
....................          Ajuste1=0.0; 
083EE:  MOVLB  5
083F0:  CLRF   x57
083F2:  CLRF   x56
083F4:  CLRF   x55
083F6:  CLRF   x54
083F8:  MOVLB  0
....................        
....................       strcpy(Menus.Letra,"Sensor de Flujo"); 
083FA:  MOVLW  06
083FC:  MOVWF  FEA
083FE:  MOVLW  28
08400:  MOVWF  FE9
08402:  MOVFF  FF2,63E
08406:  BCF    FF2.7
08408:  MOVLW  00
0840A:  CALL   11C8
0840E:  TBLRD*-
08410:  TBLRD*+
08412:  MOVF   FF5,W
08414:  MOVWF  FEE
08416:  IORLW  00
08418:  BNZ   8410
0841A:  MOVLB  6
0841C:  BTFSC  x3E.7
0841E:  BSF    FF2.7
....................       displayMenu(Menus.Letra,10,0,1,1); 
08420:  MOVLW  06
08422:  MOVWF  x47
08424:  MOVLW  28
08426:  MOVWF  x46
08428:  MOVLW  0A
0842A:  MOVWF  x48
0842C:  CLRF   x49
0842E:  MOVLW  01
08430:  MOVWF  x4A
08432:  MOVWF  x4B
08434:  MOVLB  0
08436:  CALL   3A7C
....................        
....................       glcd_text57(0, 12, ZF, 1, ON); 
0843A:  MOVLB  6
0843C:  CLRF   x57
0843E:  MOVLW  0C
08440:  MOVWF  x58
08442:  MOVLW  04
08444:  MOVWF  x5A
08446:  MOVLW  8C
08448:  MOVWF  x59
0844A:  MOVLW  01
0844C:  MOVWF  x5B
0844E:  MOVWF  x5C
08450:  MOVLB  0
08452:  CALL   380E
....................        
....................       glcd_text57(0, 20, ZA, 1, ON); 
08456:  MOVLB  6
08458:  CLRF   x57
0845A:  MOVLW  14
0845C:  MOVWF  x58
0845E:  MOVLW  04
08460:  MOVWF  x5A
08462:  MOVLW  9A
08464:  MOVWF  x59
08466:  MOVLW  01
08468:  MOVWF  x5B
0846A:  MOVWF  x5C
0846C:  MOVLB  0
0846E:  CALL   380E
....................        
....................       glcd_text57(0, 30, AJ, 1, ON);            
08472:  MOVLB  6
08474:  CLRF   x57
08476:  MOVLW  1E
08478:  MOVWF  x58
0847A:  MOVLW  04
0847C:  MOVWF  x5A
0847E:  MOVLW  A2
08480:  MOVWF  x59
08482:  MOVLW  01
08484:  MOVWF  x5B
08486:  MOVWF  x5C
08488:  MOVLB  0
0848A:  CALL   380E
....................        
....................       displayfloat(zero_actual,44,20,0,1); 
0848E:  MOVFF  5C3,645
08492:  MOVFF  5C2,644
08496:  MOVFF  5C1,643
0849A:  MOVFF  5C0,642
0849E:  MOVLW  2C
084A0:  MOVLB  6
084A2:  MOVWF  x46
084A4:  MOVLW  14
084A6:  MOVWF  x47
084A8:  CLRF   x48
084AA:  MOVLW  01
084AC:  MOVWF  x49
084AE:  MOVLB  0
084B0:  CALL   477A
....................       displayfloat(Ajuste1,44,30,0,1); 
084B4:  MOVFF  557,645
084B8:  MOVFF  556,644
084BC:  MOVFF  555,643
084C0:  MOVFF  554,642
084C4:  MOVLW  2C
084C6:  MOVLB  6
084C8:  MOVWF  x46
084CA:  MOVLW  1E
084CC:  MOVWF  x47
084CE:  CLRF   x48
084D0:  MOVLW  01
084D2:  MOVWF  x49
084D4:  MOVLB  0
084D6:  CALL   477A
....................       displayfloat(Inflow_adc,0,40,0,1); 
084DA:  MOVFF  4EF,644
084DE:  MOVFF  4EE,643
084E2:  CALL   153A
084E6:  MOVFF  00,63E
084EA:  MOVFF  01,63F
084EE:  MOVFF  02,640
084F2:  MOVFF  03,641
084F6:  MOVFF  03,645
084FA:  MOVFF  02,644
084FE:  MOVFF  01,643
08502:  MOVFF  00,642
08506:  MOVLB  6
08508:  CLRF   x46
0850A:  MOVLW  28
0850C:  MOVWF  x47
0850E:  CLRF   x48
08510:  MOVLW  01
08512:  MOVWF  x49
08514:  MOVLB  0
08516:  CALL   477A
.................... //      displayfloat(Diferencia,0,50,0,1); 
....................        
....................       if(UP)//Si oprime hacia arriba 
0851A:  BSF    F92.4
0851C:  BTFSC  F80.4
0851E:  BRA    8566
....................       {   
....................          delay_ms(30);Ajuste1+=0.01; 
08520:  MOVLW  1E
08522:  MOVLB  6
08524:  MOVWF  x47
08526:  MOVLB  0
08528:  CALL   1512
0852C:  BCF    FD8.1
0852E:  MOVFF  557,64A
08532:  MOVFF  556,649
08536:  MOVFF  555,648
0853A:  MOVFF  554,647
0853E:  MOVLW  0A
08540:  MOVLB  6
08542:  MOVWF  x4E
08544:  MOVLW  D7
08546:  MOVWF  x4D
08548:  MOVLW  23
0854A:  MOVWF  x4C
0854C:  MOVLW  78
0854E:  MOVWF  x4B
08550:  MOVLB  0
08552:  CALL   16CE
08556:  MOVFF  03,557
0855A:  MOVFF  02,556
0855E:  MOVFF  01,555
08562:  MOVFF  00,554
....................       } 
....................              
....................       if(DOWN)//Si oprime hacia abajo 
08566:  BSF    F92.5
08568:  BTFSC  F80.5
0856A:  BRA    85B2
....................       {    
....................          delay_ms(30);Ajuste1-=0.01; 
0856C:  MOVLW  1E
0856E:  MOVLB  6
08570:  MOVWF  x47
08572:  MOVLB  0
08574:  CALL   1512
08578:  BSF    FD8.1
0857A:  MOVFF  557,64A
0857E:  MOVFF  556,649
08582:  MOVFF  555,648
08586:  MOVFF  554,647
0858A:  MOVLW  0A
0858C:  MOVLB  6
0858E:  MOVWF  x4E
08590:  MOVLW  D7
08592:  MOVWF  x4D
08594:  MOVLW  23
08596:  MOVWF  x4C
08598:  MOVLW  78
0859A:  MOVWF  x4B
0859C:  MOVLB  0
0859E:  CALL   16CE
085A2:  MOVFF  03,557
085A6:  MOVFF  02,556
085AA:  MOVFF  01,555
085AE:  MOVFF  00,554
....................       } 
....................              
....................       if(RIGHT)//Si oprime SET 
085B2:  BSF    F96.0
085B4:  BTFSC  F84.0
085B6:  BRA    8824
....................       {   
....................          zero_actual=Inflow_adc; 
085B8:  MOVFF  4EF,644
085BC:  MOVFF  4EE,643
085C0:  CALL   153A
085C4:  MOVFF  03,5C3
085C8:  MOVFF  02,5C2
085CC:  MOVFF  01,5C1
085D0:  MOVFF  00,5C0
....................          Diferencia=zero_fabrica-Inflow_adc; 
085D4:  MOVFF  4EF,644
085D8:  MOVFF  4EE,643
085DC:  CALL   153A
085E0:  BSF    FD8.1
085E2:  MOVFF  5BF,64A
085E6:  MOVFF  5BE,649
085EA:  MOVFF  5BD,648
085EE:  MOVFF  5BC,647
085F2:  MOVFF  03,64E
085F6:  MOVFF  02,64D
085FA:  MOVFF  01,64C
085FE:  MOVFF  00,64B
08602:  CALL   16CE
08606:  MOVFF  03,533
0860A:  MOVFF  02,532
0860E:  MOVFF  01,531
08612:  MOVFF  00,530
....................              
....................          if(Diferencia>=0) 
08616:  MOVLB  6
08618:  CLRF   x46
0861A:  CLRF   x45
0861C:  CLRF   x44
0861E:  CLRF   x43
08620:  MOVFF  533,64A
08624:  MOVFF  532,649
08628:  MOVFF  531,648
0862C:  MOVFF  530,647
08630:  MOVLB  0
08632:  CALL   219C
08636:  BC    863A
08638:  BNZ   8678
....................          { 
....................             negativo=10;write_eeprom(50,negativo);delay_ms(20); 
0863A:  MOVLW  0A
0863C:  MOVLB  4
0863E:  MOVWF  xDC
08640:  CLRF   FAA
08642:  MOVLW  32
08644:  MOVWF  FA9
08646:  MOVFF  4DC,FA8
0864A:  BCF    FA6.6
0864C:  BCF    FA6.7
0864E:  BSF    FA6.2
08650:  MOVF   FF2,W
08652:  MOVWF  00
08654:  BCF    FF2.7
08656:  MOVLB  F
08658:  MOVLW  55
0865A:  MOVWF  FA7
0865C:  MOVLW  AA
0865E:  MOVWF  FA7
08660:  BSF    FA6.1
08662:  BTFSC  FA6.1
08664:  BRA    8662
08666:  BCF    FA6.2
08668:  MOVF   00,W
0866A:  IORWF  FF2,F
0866C:  MOVLW  14
0866E:  MOVLB  6
08670:  MOVWF  x47
08672:  MOVLB  0
08674:  CALL   1512
....................          } 
....................          if(Diferencia<0) 
08678:  MOVFF  533,646
0867C:  MOVFF  532,645
08680:  MOVFF  531,644
08684:  MOVFF  530,643
08688:  MOVLB  6
0868A:  CLRF   x4A
0868C:  CLRF   x49
0868E:  CLRF   x48
08690:  CLRF   x47
08692:  MOVLB  0
08694:  CALL   219C
08698:  BNC   86D8
....................          { 
....................             negativo=20;write_eeprom(50,negativo);delay_ms(20); 
0869A:  MOVLW  14
0869C:  MOVLB  4
0869E:  MOVWF  xDC
086A0:  CLRF   FAA
086A2:  MOVLW  32
086A4:  MOVWF  FA9
086A6:  MOVFF  4DC,FA8
086AA:  BCF    FA6.6
086AC:  BCF    FA6.7
086AE:  BSF    FA6.2
086B0:  MOVF   FF2,W
086B2:  MOVWF  00
086B4:  BCF    FF2.7
086B6:  MOVLB  F
086B8:  MOVLW  55
086BA:  MOVWF  FA7
086BC:  MOVLW  AA
086BE:  MOVWF  FA7
086C0:  BSF    FA6.1
086C2:  BTFSC  FA6.1
086C4:  BRA    86C2
086C6:  BCF    FA6.2
086C8:  MOVF   00,W
086CA:  IORWF  FF2,F
086CC:  MOVLW  14
086CE:  MOVLB  6
086D0:  MOVWF  x47
086D2:  MOVLB  0
086D4:  CALL   1512
....................          } 
....................          Diferencia=abs(Diferencia); 
086D8:  MOVFF  530,00
086DC:  MOVFF  531,01
086E0:  MOVFF  532,02
086E4:  MOVFF  533,03
086E8:  BCF    01.7
086EA:  MOVFF  533,533
086EE:  MOVFF  532,532
086F2:  MOVFF  01,531
086F6:  MOVFF  530,530
....................          Temporal1=(int16)Diferencia; 
086FA:  MOVFF  533,641
086FE:  MOVFF  532,640
08702:  MOVFF  531,63F
08706:  MOVFF  530,63E
0870A:  CALL   4A80
0870E:  MOVFF  02,4F3
08712:  MOVFF  01,4F2
....................          write_eeprom(60,make8(Temporal1,0)); 
08716:  MOVFF  4F2,63E
0871A:  CLRF   FAA
0871C:  MOVLW  3C
0871E:  MOVWF  FA9
08720:  MOVFF  63E,FA8
08724:  BCF    FA6.6
08726:  BCF    FA6.7
08728:  BSF    FA6.2
0872A:  MOVF   FF2,W
0872C:  MOVWF  00
0872E:  BCF    FF2.7
08730:  MOVLB  F
08732:  MOVLW  55
08734:  MOVWF  FA7
08736:  MOVLW  AA
08738:  MOVWF  FA7
0873A:  BSF    FA6.1
0873C:  BTFSC  FA6.1
0873E:  BRA    873C
08740:  BCF    FA6.2
08742:  MOVF   00,W
08744:  IORWF  FF2,F
....................          delay_ms(20); 
08746:  MOVLW  14
08748:  MOVLB  6
0874A:  MOVWF  x47
0874C:  MOVLB  0
0874E:  CALL   1512
....................          write_eeprom(61,make8(Temporal1,1));//Guardar valor de Setpoint en eeprom 
08752:  MOVFF  4F3,63E
08756:  CLRF   FAA
08758:  MOVLW  3D
0875A:  MOVWF  FA9
0875C:  MOVFF  63E,FA8
08760:  BCF    FA6.6
08762:  BCF    FA6.7
08764:  BSF    FA6.2
08766:  MOVF   FF2,W
08768:  MOVWF  00
0876A:  BCF    FF2.7
0876C:  MOVLB  F
0876E:  MOVLW  55
08770:  MOVWF  FA7
08772:  MOVLW  AA
08774:  MOVWF  FA7
08776:  BSF    FA6.1
08778:  BTFSC  FA6.1
0877A:  BRA    8778
0877C:  BCF    FA6.2
0877E:  MOVF   00,W
08780:  IORWF  FF2,F
....................          delay_ms(20); 
08782:  MOVLW  14
08784:  MOVLB  6
08786:  MOVWF  x47
08788:  MOVLB  0
0878A:  CALL   1512
....................  
....................          Temporal1=(int16)zero_actual; 
0878E:  MOVFF  5C3,641
08792:  MOVFF  5C2,640
08796:  MOVFF  5C1,63F
0879A:  MOVFF  5C0,63E
0879E:  CALL   4A80
087A2:  MOVFF  02,4F3
087A6:  MOVFF  01,4F2
....................          write_eeprom(29,make8(Temporal1,0)); 
087AA:  MOVFF  4F2,63E
087AE:  CLRF   FAA
087B0:  MOVLW  1D
087B2:  MOVWF  FA9
087B4:  MOVFF  63E,FA8
087B8:  BCF    FA6.6
087BA:  BCF    FA6.7
087BC:  BSF    FA6.2
087BE:  MOVF   FF2,W
087C0:  MOVWF  00
087C2:  BCF    FF2.7
087C4:  MOVLB  F
087C6:  MOVLW  55
087C8:  MOVWF  FA7
087CA:  MOVLW  AA
087CC:  MOVWF  FA7
087CE:  BSF    FA6.1
087D0:  BTFSC  FA6.1
087D2:  BRA    87D0
087D4:  BCF    FA6.2
087D6:  MOVF   00,W
087D8:  IORWF  FF2,F
....................          delay_ms(20); 
087DA:  MOVLW  14
087DC:  MOVLB  6
087DE:  MOVWF  x47
087E0:  MOVLB  0
087E2:  CALL   1512
....................          write_eeprom(30,make8(Temporal1,1));//Guardar valor de Setpoint en eeprom 
087E6:  MOVFF  4F3,63E
087EA:  CLRF   FAA
087EC:  MOVLW  1E
087EE:  MOVWF  FA9
087F0:  MOVFF  63E,FA8
087F4:  BCF    FA6.6
087F6:  BCF    FA6.7
087F8:  BSF    FA6.2
087FA:  MOVF   FF2,W
087FC:  MOVWF  00
087FE:  BCF    FF2.7
08800:  MOVLB  F
08802:  MOVLW  55
08804:  MOVWF  FA7
08806:  MOVLW  AA
08808:  MOVWF  FA7
0880A:  BSF    FA6.1
0880C:  BTFSC  FA6.1
0880E:  BRA    880C
08810:  BCF    FA6.2
08812:  MOVF   00,W
08814:  IORWF  FF2,F
....................          delay_ms(20); 
08816:  MOVLW  14
08818:  MOVLB  6
0881A:  MOVWF  x47
0881C:  MOVLB  0
0881E:  CALL   1512
....................       } 
....................          else 
08822:  BRA    882A
....................             {Flanco1 = 0;}   
08824:  MOVLB  4
08826:  BCF    x1A.1
08828:  MOVLB  0
....................              
....................       if(LEFT)//Si oprime boton de Toma. 
0882A:  BSF    F96.1
0882C:  BTFSC  F84.1
0882E:  BRA    8988
....................       { 
....................          delay_ms(700);Menu=32;glcd_fillscreen(OFF);Opcion=1;unidad=1; 
08830:  MOVLW  04
08832:  MOVLB  6
08834:  MOVWF  x3E
08836:  MOVLW  AF
08838:  MOVWF  x47
0883A:  MOVLB  0
0883C:  CALL   1512
08840:  MOVLB  6
08842:  DECFSZ x3E,F
08844:  BRA    8836
08846:  MOVLW  20
08848:  MOVLB  4
0884A:  MOVWF  xD8
0884C:  MOVLB  6
0884E:  CLRF   x46
08850:  MOVLB  0
08852:  CALL   3B48
08856:  MOVLW  01
08858:  MOVLB  4
0885A:  MOVWF  xDA
0885C:  MOVWF  xD9
....................          Temporal=Ajuste1; 
0885E:  MOVFF  557,563
08862:  MOVFF  556,562
08866:  MOVFF  555,561
0886A:  MOVFF  554,560
....................          Entero=(int)Ajuste1; 
0886E:  MOVFF  557,641
08872:  MOVFF  556,640
08876:  MOVFF  555,63F
0887A:  MOVFF  554,63E
0887E:  MOVLB  0
08880:  CALL   4A80
08884:  MOVFF  01,4E5
....................          Temporal=Temporal-Entero; 
08888:  MOVLB  6
0888A:  CLRF   x44
0888C:  MOVFF  4E5,643
08890:  MOVLB  0
08892:  CALL   153A
08896:  BSF    FD8.1
08898:  MOVFF  563,64A
0889C:  MOVFF  562,649
088A0:  MOVFF  561,648
088A4:  MOVFF  560,647
088A8:  MOVFF  03,64E
088AC:  MOVFF  02,64D
088B0:  MOVFF  01,64C
088B4:  MOVFF  00,64B
088B8:  CALL   16CE
088BC:  MOVFF  03,563
088C0:  MOVFF  02,562
088C4:  MOVFF  01,561
088C8:  MOVFF  00,560
....................          Temporal2=Temporal*10.0; 
088CC:  MOVFF  563,663
088D0:  MOVFF  562,662
088D4:  MOVFF  561,661
088D8:  MOVFF  560,660
088DC:  MOVLB  6
088DE:  CLRF   x67
088E0:  CLRF   x66
088E2:  MOVLW  20
088E4:  MOVWF  x65
088E6:  MOVLW  82
088E8:  MOVWF  x64
088EA:  MOVLB  0
088EC:  CALL   2D56
088F0:  MOVFF  03,567
088F4:  MOVFF  02,566
088F8:  MOVFF  01,565
088FC:  MOVFF  00,564
....................          Decimal1=(int8)Temporal2; 
08900:  MOVFF  567,641
08904:  MOVFF  566,640
08908:  MOVFF  565,63F
0890C:  MOVFF  564,63E
08910:  CALL   4A80
08914:  MOVFF  01,4E6
....................          write_eeprom(25,Entero); 
08918:  CLRF   FAA
0891A:  MOVLW  19
0891C:  MOVWF  FA9
0891E:  MOVFF  4E5,FA8
08922:  BCF    FA6.6
08924:  BCF    FA6.7
08926:  BSF    FA6.2
08928:  MOVF   FF2,W
0892A:  MOVWF  00
0892C:  BCF    FF2.7
0892E:  MOVLB  F
08930:  MOVLW  55
08932:  MOVWF  FA7
08934:  MOVLW  AA
08936:  MOVWF  FA7
08938:  BSF    FA6.1
0893A:  BTFSC  FA6.1
0893C:  BRA    893A
0893E:  BCF    FA6.2
08940:  MOVF   00,W
08942:  IORWF  FF2,F
....................          delay_ms(20); 
08944:  MOVLW  14
08946:  MOVLB  6
08948:  MOVWF  x47
0894A:  MOVLB  0
0894C:  CALL   1512
....................          write_eeprom(26,Decimal1); 
08950:  CLRF   FAA
08952:  MOVLW  1A
08954:  MOVWF  FA9
08956:  MOVFF  4E6,FA8
0895A:  BCF    FA6.6
0895C:  BCF    FA6.7
0895E:  BSF    FA6.2
08960:  MOVF   FF2,W
08962:  MOVWF  00
08964:  BCF    FF2.7
08966:  MOVLB  F
08968:  MOVLW  55
0896A:  MOVWF  FA7
0896C:  MOVLW  AA
0896E:  MOVWF  FA7
08970:  BSF    FA6.1
08972:  BTFSC  FA6.1
08974:  BRA    8972
08976:  BCF    FA6.2
08978:  MOVF   00,W
0897A:  IORWF  FF2,F
....................          delay_ms(20); 
0897C:  MOVLW  14
0897E:  MOVLB  6
08980:  MOVWF  x47
08982:  MOVLB  0
08984:  CALL   1512
08988:  MOVLB  4
....................       } 
....................     } 
.................... //_--------------------------------------------------------------------------------------------------------------------------------------------------------        
....................  
.................... //_-------------------------------------------------------------------------------------------------------------------------------------------------------- 
....................       if(Menu==42){ //Menu de Sensor de Presin. 
0898A:  MOVF   xD8,W
0898C:  SUBLW  2A
0898E:  BTFSS  FD8.2
08990:  BRA    8DBE
....................        
....................       if(Ajuste2>10.0) 
08992:  MOVLB  6
08994:  CLRF   x46
08996:  CLRF   x45
08998:  MOVLW  20
0899A:  MOVWF  x44
0899C:  MOVLW  82
0899E:  MOVWF  x43
089A0:  MOVFF  55B,64A
089A4:  MOVFF  55A,649
089A8:  MOVFF  559,648
089AC:  MOVFF  558,647
089B0:  MOVLB  0
089B2:  CALL   219C
089B6:  BNC   89C4
....................          Ajuste2=0.0; 
089B8:  MOVLB  5
089BA:  CLRF   x5B
089BC:  CLRF   x5A
089BE:  CLRF   x59
089C0:  CLRF   x58
089C2:  MOVLB  0
....................        
....................       strcpy(Menus.Letra,"Sensor de Presion"); 
089C4:  MOVLW  06
089C6:  MOVWF  FEA
089C8:  MOVLW  28
089CA:  MOVWF  FE9
089CC:  MOVFF  FF2,63E
089D0:  BCF    FF2.7
089D2:  MOVLW  00
089D4:  CALL   11F6
089D8:  TBLRD*-
089DA:  TBLRD*+
089DC:  MOVF   FF5,W
089DE:  MOVWF  FEE
089E0:  IORLW  00
089E2:  BNZ   89DA
089E4:  MOVLB  6
089E6:  BTFSC  x3E.7
089E8:  BSF    FF2.7
....................       displayMenu(Menus.Letra,10,0,1,1); 
089EA:  MOVLW  06
089EC:  MOVWF  x47
089EE:  MOVLW  28
089F0:  MOVWF  x46
089F2:  MOVLW  0A
089F4:  MOVWF  x48
089F6:  CLRF   x49
089F8:  MOVLW  01
089FA:  MOVWF  x4A
089FC:  MOVWF  x4B
089FE:  MOVLB  0
08A00:  CALL   3A7C
....................        
....................       glcd_text57(0, 12, ZFP, 1, ON); 
08A04:  MOVLB  6
08A06:  CLRF   x57
08A08:  MOVLW  0C
08A0A:  MOVWF  x58
08A0C:  MOVLW  04
08A0E:  MOVWF  x5A
08A10:  MOVLW  BA
08A12:  MOVWF  x59
08A14:  MOVLW  01
08A16:  MOVWF  x5B
08A18:  MOVWF  x5C
08A1A:  MOVLB  0
08A1C:  CALL   380E
....................        
....................       glcd_text57(0, 20, ZA, 1, ON); 
08A20:  MOVLB  6
08A22:  CLRF   x57
08A24:  MOVLW  14
08A26:  MOVWF  x58
08A28:  MOVLW  04
08A2A:  MOVWF  x5A
08A2C:  MOVLW  9A
08A2E:  MOVWF  x59
08A30:  MOVLW  01
08A32:  MOVWF  x5B
08A34:  MOVWF  x5C
08A36:  MOVLB  0
08A38:  CALL   380E
....................        
....................       glcd_text57(0, 30, AJ, 1, ON);            
08A3C:  MOVLB  6
08A3E:  CLRF   x57
08A40:  MOVLW  1E
08A42:  MOVWF  x58
08A44:  MOVLW  04
08A46:  MOVWF  x5A
08A48:  MOVLW  A2
08A4A:  MOVWF  x59
08A4C:  MOVLW  01
08A4E:  MOVWF  x5B
08A50:  MOVWF  x5C
08A52:  MOVLB  0
08A54:  CALL   380E
....................        
....................       displayfloat(G,44,20,0,1); 
08A58:  MOVFF  5CF,645
08A5C:  MOVFF  5CE,644
08A60:  MOVFF  5CD,643
08A64:  MOVFF  5CC,642
08A68:  MOVLW  2C
08A6A:  MOVLB  6
08A6C:  MOVWF  x46
08A6E:  MOVLW  14
08A70:  MOVWF  x47
08A72:  CLRF   x48
08A74:  MOVLW  01
08A76:  MOVWF  x49
08A78:  MOVLB  0
08A7A:  CALL   477A
....................       displayfloat(Ajuste2,44,30,0,1); 
08A7E:  MOVFF  55B,645
08A82:  MOVFF  55A,644
08A86:  MOVFF  559,643
08A8A:  MOVFF  558,642
08A8E:  MOVLW  2C
08A90:  MOVLB  6
08A92:  MOVWF  x46
08A94:  MOVLW  1E
08A96:  MOVWF  x47
08A98:  CLRF   x48
08A9A:  MOVLW  01
08A9C:  MOVWF  x49
08A9E:  MOVLB  0
08AA0:  CALL   477A
....................       displayfloat(Filtro_DownFlow_adc,0,40,0,1); 
08AA4:  MOVFF  4F1,644
08AA8:  MOVFF  4F0,643
08AAC:  CALL   153A
08AB0:  MOVFF  00,63E
08AB4:  MOVFF  01,63F
08AB8:  MOVFF  02,640
08ABC:  MOVFF  03,641
08AC0:  MOVFF  03,645
08AC4:  MOVFF  02,644
08AC8:  MOVFF  01,643
08ACC:  MOVFF  00,642
08AD0:  MOVLB  6
08AD2:  CLRF   x46
08AD4:  MOVLW  28
08AD6:  MOVWF  x47
08AD8:  CLRF   x48
08ADA:  MOVLW  01
08ADC:  MOVWF  x49
08ADE:  MOVLB  0
08AE0:  CALL   477A
....................       displayfloat(Filtro_DownFlow,0,50,0,1); 
08AE4:  MOVFF  52F,645
08AE8:  MOVFF  52E,644
08AEC:  MOVFF  52D,643
08AF0:  MOVFF  52C,642
08AF4:  MOVLB  6
08AF6:  CLRF   x46
08AF8:  MOVLW  32
08AFA:  MOVWF  x47
08AFC:  CLRF   x48
08AFE:  MOVLW  01
08B00:  MOVWF  x49
08B02:  MOVLB  0
08B04:  CALL   477A
....................        
....................       if(UP)//Si oprime hacia arriba 
08B08:  BSF    F92.4
08B0A:  BTFSC  F80.4
08B0C:  BRA    8B54
....................       {   
....................          delay_ms(30);Ajuste2+=0.01; 
08B0E:  MOVLW  1E
08B10:  MOVLB  6
08B12:  MOVWF  x47
08B14:  MOVLB  0
08B16:  CALL   1512
08B1A:  BCF    FD8.1
08B1C:  MOVFF  55B,64A
08B20:  MOVFF  55A,649
08B24:  MOVFF  559,648
08B28:  MOVFF  558,647
08B2C:  MOVLW  0A
08B2E:  MOVLB  6
08B30:  MOVWF  x4E
08B32:  MOVLW  D7
08B34:  MOVWF  x4D
08B36:  MOVLW  23
08B38:  MOVWF  x4C
08B3A:  MOVLW  78
08B3C:  MOVWF  x4B
08B3E:  MOVLB  0
08B40:  CALL   16CE
08B44:  MOVFF  03,55B
08B48:  MOVFF  02,55A
08B4C:  MOVFF  01,559
08B50:  MOVFF  00,558
....................       } 
....................              
....................       if(DOWN)//Si oprime hacia abajo 
08B54:  BSF    F92.5
08B56:  BTFSC  F80.5
08B58:  BRA    8BA0
....................       {   
....................          delay_ms(30);Ajuste2-=0.01; 
08B5A:  MOVLW  1E
08B5C:  MOVLB  6
08B5E:  MOVWF  x47
08B60:  MOVLB  0
08B62:  CALL   1512
08B66:  BSF    FD8.1
08B68:  MOVFF  55B,64A
08B6C:  MOVFF  55A,649
08B70:  MOVFF  559,648
08B74:  MOVFF  558,647
08B78:  MOVLW  0A
08B7A:  MOVLB  6
08B7C:  MOVWF  x4E
08B7E:  MOVLW  D7
08B80:  MOVWF  x4D
08B82:  MOVLW  23
08B84:  MOVWF  x4C
08B86:  MOVLW  78
08B88:  MOVWF  x4B
08B8A:  MOVLB  0
08B8C:  CALL   16CE
08B90:  MOVFF  03,55B
08B94:  MOVFF  02,55A
08B98:  MOVFF  01,559
08B9C:  MOVFF  00,558
....................       } 
....................              
....................       if(RIGHT)//Si oprime SET 
08BA0:  BSF    F96.0
08BA2:  BTFSC  F84.0
08BA4:  BRA    8C58
....................       {            
....................          G=Filtro_Downflow_adc; 
08BA6:  MOVFF  4F1,644
08BAA:  MOVFF  4F0,643
08BAE:  CALL   153A
08BB2:  MOVFF  03,5CF
08BB6:  MOVFF  02,5CE
08BBA:  MOVFF  01,5CD
08BBE:  MOVFF  00,5CC
....................          G16=(int16)G; 
08BC2:  MOVFF  5CF,641
08BC6:  MOVFF  5CE,640
08BCA:  MOVFF  5CD,63F
08BCE:  MOVFF  5CC,63E
08BD2:  CALL   4A80
08BD6:  MOVFF  02,4FB
08BDA:  MOVFF  01,4FA
....................          G_l=G16; G_h=(G16>>8); 
08BDE:  MOVFF  4FA,4DD
08BE2:  MOVFF  4FB,4DE
....................              
....................          write_eeprom(62,G_l); 
08BE6:  CLRF   FAA
08BE8:  MOVLW  3E
08BEA:  MOVWF  FA9
08BEC:  MOVFF  4DD,FA8
08BF0:  BCF    FA6.6
08BF2:  BCF    FA6.7
08BF4:  BSF    FA6.2
08BF6:  MOVF   FF2,W
08BF8:  MOVWF  00
08BFA:  BCF    FF2.7
08BFC:  MOVLB  F
08BFE:  MOVLW  55
08C00:  MOVWF  FA7
08C02:  MOVLW  AA
08C04:  MOVWF  FA7
08C06:  BSF    FA6.1
08C08:  BTFSC  FA6.1
08C0A:  BRA    8C08
08C0C:  BCF    FA6.2
08C0E:  MOVF   00,W
08C10:  IORWF  FF2,F
....................          delay_ms(20); 
08C12:  MOVLW  14
08C14:  MOVLB  6
08C16:  MOVWF  x47
08C18:  MOVLB  0
08C1A:  CALL   1512
....................          write_eeprom(63,G_h);//Guardar valor de Setpoint en eeprom 
08C1E:  CLRF   FAA
08C20:  MOVLW  3F
08C22:  MOVWF  FA9
08C24:  MOVFF  4DE,FA8
08C28:  BCF    FA6.6
08C2A:  BCF    FA6.7
08C2C:  BSF    FA6.2
08C2E:  MOVF   FF2,W
08C30:  MOVWF  00
08C32:  BCF    FF2.7
08C34:  MOVLB  F
08C36:  MOVLW  55
08C38:  MOVWF  FA7
08C3A:  MOVLW  AA
08C3C:  MOVWF  FA7
08C3E:  BSF    FA6.1
08C40:  BTFSC  FA6.1
08C42:  BRA    8C40
08C44:  BCF    FA6.2
08C46:  MOVF   00,W
08C48:  IORWF  FF2,F
....................          delay_ms(20); 
08C4A:  MOVLW  14
08C4C:  MOVLB  6
08C4E:  MOVWF  x47
08C50:  MOVLB  0
08C52:  CALL   1512
....................       } 
....................          else 
08C56:  BRA    8C5E
....................             {Flanco1 = 0;}   
08C58:  MOVLB  4
08C5A:  BCF    x1A.1
08C5C:  MOVLB  0
....................              
....................       if(LEFT)//Si oprime boton de Toma. 
08C5E:  BSF    F96.1
08C60:  BTFSC  F84.1
08C62:  BRA    8DBC
....................       {                   
....................          delay_ms(700);Menu=32;glcd_fillscreen(OFF);Opcion=1;unidad=1; 
08C64:  MOVLW  04
08C66:  MOVLB  6
08C68:  MOVWF  x3E
08C6A:  MOVLW  AF
08C6C:  MOVWF  x47
08C6E:  MOVLB  0
08C70:  CALL   1512
08C74:  MOVLB  6
08C76:  DECFSZ x3E,F
08C78:  BRA    8C6A
08C7A:  MOVLW  20
08C7C:  MOVLB  4
08C7E:  MOVWF  xD8
08C80:  MOVLB  6
08C82:  CLRF   x46
08C84:  MOVLB  0
08C86:  CALL   3B48
08C8A:  MOVLW  01
08C8C:  MOVLB  4
08C8E:  MOVWF  xDA
08C90:  MOVWF  xD9
....................          Temporal=Ajuste2; 
08C92:  MOVFF  55B,563
08C96:  MOVFF  55A,562
08C9A:  MOVFF  559,561
08C9E:  MOVFF  558,560
....................          Entero=(int)Ajuste2; 
08CA2:  MOVFF  55B,641
08CA6:  MOVFF  55A,640
08CAA:  MOVFF  559,63F
08CAE:  MOVFF  558,63E
08CB2:  MOVLB  0
08CB4:  CALL   4A80
08CB8:  MOVFF  01,4E5
....................          Temporal=Temporal-Entero; 
08CBC:  MOVLB  6
08CBE:  CLRF   x44
08CC0:  MOVFF  4E5,643
08CC4:  MOVLB  0
08CC6:  CALL   153A
08CCA:  BSF    FD8.1
08CCC:  MOVFF  563,64A
08CD0:  MOVFF  562,649
08CD4:  MOVFF  561,648
08CD8:  MOVFF  560,647
08CDC:  MOVFF  03,64E
08CE0:  MOVFF  02,64D
08CE4:  MOVFF  01,64C
08CE8:  MOVFF  00,64B
08CEC:  CALL   16CE
08CF0:  MOVFF  03,563
08CF4:  MOVFF  02,562
08CF8:  MOVFF  01,561
08CFC:  MOVFF  00,560
....................          Temporal2=Temporal*10.0; 
08D00:  MOVFF  563,663
08D04:  MOVFF  562,662
08D08:  MOVFF  561,661
08D0C:  MOVFF  560,660
08D10:  MOVLB  6
08D12:  CLRF   x67
08D14:  CLRF   x66
08D16:  MOVLW  20
08D18:  MOVWF  x65
08D1A:  MOVLW  82
08D1C:  MOVWF  x64
08D1E:  MOVLB  0
08D20:  CALL   2D56
08D24:  MOVFF  03,567
08D28:  MOVFF  02,566
08D2C:  MOVFF  01,565
08D30:  MOVFF  00,564
....................          Decimal1=(int8)Temporal2; 
08D34:  MOVFF  567,641
08D38:  MOVFF  566,640
08D3C:  MOVFF  565,63F
08D40:  MOVFF  564,63E
08D44:  CALL   4A80
08D48:  MOVFF  01,4E6
....................          write_eeprom(27,Entero); 
08D4C:  CLRF   FAA
08D4E:  MOVLW  1B
08D50:  MOVWF  FA9
08D52:  MOVFF  4E5,FA8
08D56:  BCF    FA6.6
08D58:  BCF    FA6.7
08D5A:  BSF    FA6.2
08D5C:  MOVF   FF2,W
08D5E:  MOVWF  00
08D60:  BCF    FF2.7
08D62:  MOVLB  F
08D64:  MOVLW  55
08D66:  MOVWF  FA7
08D68:  MOVLW  AA
08D6A:  MOVWF  FA7
08D6C:  BSF    FA6.1
08D6E:  BTFSC  FA6.1
08D70:  BRA    8D6E
08D72:  BCF    FA6.2
08D74:  MOVF   00,W
08D76:  IORWF  FF2,F
....................          delay_ms(20); 
08D78:  MOVLW  14
08D7A:  MOVLB  6
08D7C:  MOVWF  x47
08D7E:  MOVLB  0
08D80:  CALL   1512
....................          write_eeprom(28,Decimal1); 
08D84:  CLRF   FAA
08D86:  MOVLW  1C
08D88:  MOVWF  FA9
08D8A:  MOVFF  4E6,FA8
08D8E:  BCF    FA6.6
08D90:  BCF    FA6.7
08D92:  BSF    FA6.2
08D94:  MOVF   FF2,W
08D96:  MOVWF  00
08D98:  BCF    FF2.7
08D9A:  MOVLB  F
08D9C:  MOVLW  55
08D9E:  MOVWF  FA7
08DA0:  MOVLW  AA
08DA2:  MOVWF  FA7
08DA4:  BSF    FA6.1
08DA6:  BTFSC  FA6.1
08DA8:  BRA    8DA6
08DAA:  BCF    FA6.2
08DAC:  MOVF   00,W
08DAE:  IORWF  FF2,F
....................          delay_ms(20); 
08DB0:  MOVLW  14
08DB2:  MOVLB  6
08DB4:  MOVWF  x47
08DB6:  MOVLB  0
08DB8:  CALL   1512
08DBC:  MOVLB  4
....................       } 
....................     } 
.................... //_--------------------------------------------------------------------------------------------------------------------------------------------------------        
....................  
.................... //_-------------------------------------------------------------------------------------------------------------------------------------------------------- 
....................       if(Menu==43){ //Menu de Velocidad de Motor 
08DBE:  MOVF   xD8,W
08DC0:  SUBLW  2B
08DC2:  BTFSS  FD8.2
08DC4:  BRA    8F92
....................        
....................       if(VelMotor>6)VelMotor=6; 
08DC6:  MOVF   xED,W
08DC8:  SUBLW  06
08DCA:  BC    8DD0
08DCC:  MOVLW  06
08DCE:  MOVWF  xED
....................        
....................       strcpy(Menus.Letra,"Seleccion Vel"); 
08DD0:  MOVLW  06
08DD2:  MOVWF  FEA
08DD4:  MOVLW  28
08DD6:  MOVWF  FE9
08DD8:  MOVFF  FF2,63E
08DDC:  BCF    FF2.7
08DDE:  MOVLW  00
08DE0:  MOVLB  0
08DE2:  CALL   12F2
08DE6:  TBLRD*-
08DE8:  TBLRD*+
08DEA:  MOVF   FF5,W
08DEC:  MOVWF  FEE
08DEE:  IORLW  00
08DF0:  BNZ   8DE8
08DF2:  MOVLB  6
08DF4:  BTFSC  x3E.7
08DF6:  BSF    FF2.7
....................       displayMenu(Menus.Letra,10,0,1,1); 
08DF8:  MOVLW  06
08DFA:  MOVWF  x47
08DFC:  MOVLW  28
08DFE:  MOVWF  x46
08E00:  MOVLW  0A
08E02:  MOVWF  x48
08E04:  CLRF   x49
08E06:  MOVLW  01
08E08:  MOVWF  x4A
08E0A:  MOVWF  x4B
08E0C:  MOVLB  0
08E0E:  CALL   3A7C
....................        
....................       displayTiempo(VelMotor,50,40,1,2); 
08E12:  MOVFF  4ED,63E
08E16:  MOVLW  32
08E18:  MOVLB  6
08E1A:  MOVWF  x3F
08E1C:  MOVLW  28
08E1E:  MOVWF  x40
08E20:  MOVLW  01
08E22:  MOVWF  x41
08E24:  MOVLW  02
08E26:  MOVWF  x42
08E28:  MOVLB  0
08E2A:  CALL   4332
....................        
....................       if(UP && VelMotor<6)//Si oprime hacia arriba 
08E2E:  BSF    F92.4
08E30:  BTFSC  F80.4
08E32:  BRA    8E54
08E34:  MOVLB  4
08E36:  MOVF   xED,W
08E38:  SUBLW  05
08E3A:  BTFSC  FD8.0
08E3C:  BRA    8E42
08E3E:  MOVLB  0
08E40:  BRA    8E54
....................       {   
....................          delay_ms(200);VelMotor++; 
08E42:  MOVLW  C8
08E44:  MOVLB  6
08E46:  MOVWF  x47
08E48:  MOVLB  0
08E4A:  CALL   1512
08E4E:  MOVLB  4
08E50:  INCF   xED,F
08E52:  MOVLB  0
....................       } 
....................              
....................       if(DOWN && VelMotor>0)//Si oprime hacia abajo 
08E54:  BSF    F92.5
08E56:  BTFSC  F80.5
08E58:  BRA    8E78
08E5A:  MOVLB  4
08E5C:  MOVF   xED,F
08E5E:  BTFSS  FD8.2
08E60:  BRA    8E66
08E62:  MOVLB  0
08E64:  BRA    8E78
....................       {   
....................          delay_ms(200);VelMotor--; 
08E66:  MOVLW  C8
08E68:  MOVLB  6
08E6A:  MOVWF  x47
08E6C:  MOVLB  0
08E6E:  CALL   1512
08E72:  MOVLB  4
08E74:  DECF   xED,F
08E76:  MOVLB  0
....................       } 
....................              
....................       if(RIGHT)//Si oprime SET 
08E78:  BSF    F96.0
08E7A:  BTFSC  F84.0
08E7C:  BRA    8E86
....................       {            
....................          VelocidadMotor(VelMotor); 
08E7E:  MOVFF  4ED,63E
08E82:  CALL   428A
....................       }  
....................              
....................       if(LEFT)//Si oprime boton de Toma. 
08E86:  BSF    F96.1
08E88:  BTFSC  F84.1
08E8A:  BRA    8F94
....................       {                   
....................          delay_ms(100);glcd_fillscreen(OFF);Opcion=1;unidad=1; 
08E8C:  MOVLW  64
08E8E:  MOVLB  6
08E90:  MOVWF  x47
08E92:  MOVLB  0
08E94:  CALL   1512
08E98:  MOVLB  6
08E9A:  CLRF   x46
08E9C:  MOVLB  0
08E9E:  CALL   3B48
08EA2:  MOVLW  01
08EA4:  MOVLB  4
08EA6:  MOVWF  xDA
08EA8:  MOVWF  xD9
....................          write_eeprom(32,VelMotor);//Guardar valor de Setpoint en eeprom 
08EAA:  CLRF   FAA
08EAC:  MOVLW  20
08EAE:  MOVWF  FA9
08EB0:  MOVFF  4ED,FA8
08EB4:  BCF    FA6.6
08EB6:  BCF    FA6.7
08EB8:  BSF    FA6.2
08EBA:  MOVF   FF2,W
08EBC:  MOVWF  00
08EBE:  BCF    FF2.7
08EC0:  MOVLB  F
08EC2:  MOVLW  55
08EC4:  MOVWF  FA7
08EC6:  MOVLW  AA
08EC8:  MOVWF  FA7
08ECA:  BSF    FA6.1
08ECC:  BTFSC  FA6.1
08ECE:  BRA    8ECC
08ED0:  BCF    FA6.2
08ED2:  MOVF   00,W
08ED4:  IORWF  FF2,F
....................          delay_ms(20); 
08ED6:  MOVLW  14
08ED8:  MOVLB  6
08EDA:  MOVWF  x47
08EDC:  MOVLB  0
08EDE:  CALL   1512
....................          glcd_fillScreen(OFF); 
08EE2:  MOVLB  6
08EE4:  CLRF   x46
08EE6:  MOVLB  0
08EE8:  CALL   3B48
....................          strcpy(Menus.Letra,"Velocidad"); 
08EEC:  MOVLW  06
08EEE:  MOVWF  FEA
08EF0:  MOVLW  28
08EF2:  MOVWF  FE9
08EF4:  MOVFF  FF2,63E
08EF8:  BCF    FF2.7
08EFA:  MOVLW  00
08EFC:  CALL   131E
08F00:  TBLRD*-
08F02:  TBLRD*+
08F04:  MOVF   FF5,W
08F06:  MOVWF  FEE
08F08:  IORLW  00
08F0A:  BNZ   8F02
08F0C:  MOVLB  6
08F0E:  BTFSC  x3E.7
08F10:  BSF    FF2.7
....................          displayMenu(Menus.Letra,0,0,0,2); 
08F12:  MOVLW  06
08F14:  MOVWF  x47
08F16:  MOVLW  28
08F18:  MOVWF  x46
08F1A:  CLRF   x48
08F1C:  CLRF   x49
08F1E:  CLRF   x4A
08F20:  MOVLW  02
08F22:  MOVWF  x4B
08F24:  MOVLB  0
08F26:  CALL   3A7C
....................          strcpy(Menus.Letra,"Guardada"); 
08F2A:  MOVLW  06
08F2C:  MOVWF  FEA
08F2E:  MOVLW  28
08F30:  MOVWF  FE9
08F32:  MOVFF  FF2,63E
08F36:  BCF    FF2.7
08F38:  MOVLW  00
08F3A:  CALL   1346
08F3E:  TBLRD*-
08F40:  TBLRD*+
08F42:  MOVF   FF5,W
08F44:  MOVWF  FEE
08F46:  IORLW  00
08F48:  BNZ   8F40
08F4A:  MOVLB  6
08F4C:  BTFSC  x3E.7
08F4E:  BSF    FF2.7
....................          displayMenu(Menus.Letra,0,30,0,2); 
08F50:  MOVLW  06
08F52:  MOVWF  x47
08F54:  MOVLW  28
08F56:  MOVWF  x46
08F58:  CLRF   x48
08F5A:  MOVLW  1E
08F5C:  MOVWF  x49
08F5E:  CLRF   x4A
08F60:  MOVLW  02
08F62:  MOVWF  x4B
08F64:  MOVLB  0
08F66:  CALL   3A7C
....................          glcd_update(); 
08F6A:  CALL   2C60
....................          delay_ms(1000); 
08F6E:  MOVLW  04
08F70:  MOVLB  6
08F72:  MOVWF  x3E
08F74:  MOVLW  FA
08F76:  MOVWF  x47
08F78:  MOVLB  0
08F7A:  CALL   1512
08F7E:  MOVLB  6
08F80:  DECFSZ x3E,F
08F82:  BRA    8F74
....................          glcd_fillScreen(OFF); 
08F84:  CLRF   x46
08F86:  MOVLB  0
08F88:  CALL   3B48
....................          Menu=32; 
08F8C:  MOVLW  20
08F8E:  MOVLB  4
08F90:  MOVWF  xD8
08F92:  MOVLB  0
....................       } 
....................     } 
.................... //_--------------------------------------------------------------------------------------------------------------------------------------------------------        
....................  
.................... //_-------------------------------------------------------------------------------------------------------------------------------------------------------- 
....................       if(Menu==44){ //Menu de Relacion 
08F94:  MOVLB  4
08F96:  MOVF   xD8,W
08F98:  SUBLW  2C
08F9A:  BTFSS  FD8.2
08F9C:  BRA    92D2
....................        
....................       if(Relacion>2.0)Relacion=2.0; 
08F9E:  MOVLB  6
08FA0:  CLRF   x46
08FA2:  CLRF   x45
08FA4:  CLRF   x44
08FA6:  MOVLW  80
08FA8:  MOVWF  x43
08FAA:  MOVFF  5D7,64A
08FAE:  MOVFF  5D6,649
08FB2:  MOVFF  5D5,648
08FB6:  MOVFF  5D4,647
08FBA:  MOVLB  0
08FBC:  CALL   219C
08FC0:  BNC   8FD0
08FC2:  MOVLB  5
08FC4:  CLRF   xD7
08FC6:  CLRF   xD6
08FC8:  CLRF   xD5
08FCA:  MOVLW  80
08FCC:  MOVWF  xD4
08FCE:  MOVLB  0
....................        
....................       strcpy(Menus.Letra,"Relacion"); 
08FD0:  MOVLW  06
08FD2:  MOVWF  FEA
08FD4:  MOVLW  28
08FD6:  MOVWF  FE9
08FD8:  MOVFF  FF2,63E
08FDC:  BCF    FF2.7
08FDE:  MOVLW  00
08FE0:  CALL   136E
08FE4:  TBLRD*-
08FE6:  TBLRD*+
08FE8:  MOVF   FF5,W
08FEA:  MOVWF  FEE
08FEC:  IORLW  00
08FEE:  BNZ   8FE6
08FF0:  MOVLB  6
08FF2:  BTFSC  x3E.7
08FF4:  BSF    FF2.7
....................       displayMenu(Menus.Letra,10,0,1,1); 
08FF6:  MOVLW  06
08FF8:  MOVWF  x47
08FFA:  MOVLW  28
08FFC:  MOVWF  x46
08FFE:  MOVLW  0A
09000:  MOVWF  x48
09002:  CLRF   x49
09004:  MOVLW  01
09006:  MOVWF  x4A
09008:  MOVWF  x4B
0900A:  MOVLB  0
0900C:  CALL   3A7C
....................        
....................       displayfloat(Relacion,44,30,0,2); 
09010:  MOVFF  5D7,645
09014:  MOVFF  5D6,644
09018:  MOVFF  5D5,643
0901C:  MOVFF  5D4,642
09020:  MOVLW  2C
09022:  MOVLB  6
09024:  MOVWF  x46
09026:  MOVLW  1E
09028:  MOVWF  x47
0902A:  CLRF   x48
0902C:  MOVLW  02
0902E:  MOVWF  x49
09030:  MOVLB  0
09032:  CALL   477A
....................        
....................       if(UP)//Si oprime hacia arriba 
09036:  BSF    F92.4
09038:  BTFSC  F80.4
0903A:  BRA    9082
....................       {   
....................          delay_ms(100);Relacion+=0.01; 
0903C:  MOVLW  64
0903E:  MOVLB  6
09040:  MOVWF  x47
09042:  MOVLB  0
09044:  CALL   1512
09048:  BCF    FD8.1
0904A:  MOVFF  5D7,64A
0904E:  MOVFF  5D6,649
09052:  MOVFF  5D5,648
09056:  MOVFF  5D4,647
0905A:  MOVLW  0A
0905C:  MOVLB  6
0905E:  MOVWF  x4E
09060:  MOVLW  D7
09062:  MOVWF  x4D
09064:  MOVLW  23
09066:  MOVWF  x4C
09068:  MOVLW  78
0906A:  MOVWF  x4B
0906C:  MOVLB  0
0906E:  CALL   16CE
09072:  MOVFF  03,5D7
09076:  MOVFF  02,5D6
0907A:  MOVFF  01,5D5
0907E:  MOVFF  00,5D4
....................       } 
....................              
....................       if(DOWN)//Si oprime hacia abajo 
09082:  BSF    F92.5
09084:  BTFSC  F80.5
09086:  BRA    90CE
....................       {   
....................          delay_ms(100);Relacion-=0.01; 
09088:  MOVLW  64
0908A:  MOVLB  6
0908C:  MOVWF  x47
0908E:  MOVLB  0
09090:  CALL   1512
09094:  BSF    FD8.1
09096:  MOVFF  5D7,64A
0909A:  MOVFF  5D6,649
0909E:  MOVFF  5D5,648
090A2:  MOVFF  5D4,647
090A6:  MOVLW  0A
090A8:  MOVLB  6
090AA:  MOVWF  x4E
090AC:  MOVLW  D7
090AE:  MOVWF  x4D
090B0:  MOVLW  23
090B2:  MOVWF  x4C
090B4:  MOVLW  78
090B6:  MOVWF  x4B
090B8:  MOVLB  0
090BA:  CALL   16CE
090BE:  MOVFF  03,5D7
090C2:  MOVFF  02,5D6
090C6:  MOVFF  01,5D5
090CA:  MOVFF  00,5D4
....................       } 
....................              
....................       if(LEFT)//Si oprime boton de Toma. 
090CE:  BSF    F96.1
090D0:  BTFSC  F84.1
090D2:  BRA    92D4
....................       {                   
....................          delay_ms(100);Menu=32;glcd_fillscreen(OFF);Opcion=1;unidad=1; 
090D4:  MOVLW  64
090D6:  MOVLB  6
090D8:  MOVWF  x47
090DA:  MOVLB  0
090DC:  CALL   1512
090E0:  MOVLW  20
090E2:  MOVLB  4
090E4:  MOVWF  xD8
090E6:  MOVLB  6
090E8:  CLRF   x46
090EA:  MOVLB  0
090EC:  CALL   3B48
090F0:  MOVLW  01
090F2:  MOVLB  4
090F4:  MOVWF  xDA
090F6:  MOVWF  xD9
....................          Temporal=Relacion; 
090F8:  MOVFF  5D7,563
090FC:  MOVFF  5D6,562
09100:  MOVFF  5D5,561
09104:  MOVFF  5D4,560
....................          Entero=(int)Relacion; 
09108:  MOVFF  5D7,641
0910C:  MOVFF  5D6,640
09110:  MOVFF  5D5,63F
09114:  MOVFF  5D4,63E
09118:  MOVLB  0
0911A:  CALL   4A80
0911E:  MOVFF  01,4E5
....................          Temporal=Temporal-Entero; 
09122:  MOVLB  6
09124:  CLRF   x44
09126:  MOVFF  4E5,643
0912A:  MOVLB  0
0912C:  CALL   153A
09130:  BSF    FD8.1
09132:  MOVFF  563,64A
09136:  MOVFF  562,649
0913A:  MOVFF  561,648
0913E:  MOVFF  560,647
09142:  MOVFF  03,64E
09146:  MOVFF  02,64D
0914A:  MOVFF  01,64C
0914E:  MOVFF  00,64B
09152:  CALL   16CE
09156:  MOVFF  03,563
0915A:  MOVFF  02,562
0915E:  MOVFF  01,561
09162:  MOVFF  00,560
....................          Temporal2=Temporal*100.0; 
09166:  MOVFF  563,663
0916A:  MOVFF  562,662
0916E:  MOVFF  561,661
09172:  MOVFF  560,660
09176:  MOVLB  6
09178:  CLRF   x67
0917A:  CLRF   x66
0917C:  MOVLW  48
0917E:  MOVWF  x65
09180:  MOVLW  85
09182:  MOVWF  x64
09184:  MOVLB  0
09186:  CALL   2D56
0918A:  MOVFF  03,567
0918E:  MOVFF  02,566
09192:  MOVFF  01,565
09196:  MOVFF  00,564
....................          Decimal1=(int8)Temporal2; 
0919A:  MOVFF  567,641
0919E:  MOVFF  566,640
091A2:  MOVFF  565,63F
091A6:  MOVFF  564,63E
091AA:  CALL   4A80
091AE:  MOVFF  01,4E6
....................          write_eeprom(35,Entero); 
091B2:  CLRF   FAA
091B4:  MOVLW  23
091B6:  MOVWF  FA9
091B8:  MOVFF  4E5,FA8
091BC:  BCF    FA6.6
091BE:  BCF    FA6.7
091C0:  BSF    FA6.2
091C2:  MOVF   FF2,W
091C4:  MOVWF  00
091C6:  BCF    FF2.7
091C8:  MOVLB  F
091CA:  MOVLW  55
091CC:  MOVWF  FA7
091CE:  MOVLW  AA
091D0:  MOVWF  FA7
091D2:  BSF    FA6.1
091D4:  BTFSC  FA6.1
091D6:  BRA    91D4
091D8:  BCF    FA6.2
091DA:  MOVF   00,W
091DC:  IORWF  FF2,F
....................          delay_ms(20); 
091DE:  MOVLW  14
091E0:  MOVLB  6
091E2:  MOVWF  x47
091E4:  MOVLB  0
091E6:  CALL   1512
....................          write_eeprom(36,Decimal1); 
091EA:  CLRF   FAA
091EC:  MOVLW  24
091EE:  MOVWF  FA9
091F0:  MOVFF  4E6,FA8
091F4:  BCF    FA6.6
091F6:  BCF    FA6.7
091F8:  BSF    FA6.2
091FA:  MOVF   FF2,W
091FC:  MOVWF  00
091FE:  BCF    FF2.7
09200:  MOVLB  F
09202:  MOVLW  55
09204:  MOVWF  FA7
09206:  MOVLW  AA
09208:  MOVWF  FA7
0920A:  BSF    FA6.1
0920C:  BTFSC  FA6.1
0920E:  BRA    920C
09210:  BCF    FA6.2
09212:  MOVF   00,W
09214:  IORWF  FF2,F
....................          delay_ms(20); 
09216:  MOVLW  14
09218:  MOVLB  6
0921A:  MOVWF  x47
0921C:  MOVLB  0
0921E:  CALL   1512
....................          glcd_fillScreen(OFF); 
09222:  MOVLB  6
09224:  CLRF   x46
09226:  MOVLB  0
09228:  CALL   3B48
....................          strcpy(Menus.Letra,"Valor"); 
0922C:  MOVLW  06
0922E:  MOVWF  FEA
09230:  MOVLW  28
09232:  MOVWF  FE9
09234:  MOVFF  FF2,63E
09238:  BCF    FF2.7
0923A:  MOVLW  00
0923C:  CALL   1396
09240:  TBLRD*-
09242:  TBLRD*+
09244:  MOVF   FF5,W
09246:  MOVWF  FEE
09248:  IORLW  00
0924A:  BNZ   9242
0924C:  MOVLB  6
0924E:  BTFSC  x3E.7
09250:  BSF    FF2.7
....................          displayMenu(Menus.Letra,0,0,0,2); 
09252:  MOVLW  06
09254:  MOVWF  x47
09256:  MOVLW  28
09258:  MOVWF  x46
0925A:  CLRF   x48
0925C:  CLRF   x49
0925E:  CLRF   x4A
09260:  MOVLW  02
09262:  MOVWF  x4B
09264:  MOVLB  0
09266:  CALL   3A7C
....................          strcpy(Menus.Letra,"Guardado"); 
0926A:  MOVLW  06
0926C:  MOVWF  FEA
0926E:  MOVLW  28
09270:  MOVWF  FE9
09272:  MOVFF  FF2,63E
09276:  BCF    FF2.7
09278:  MOVLW  00
0927A:  CALL   13BA
0927E:  TBLRD*-
09280:  TBLRD*+
09282:  MOVF   FF5,W
09284:  MOVWF  FEE
09286:  IORLW  00
09288:  BNZ   9280
0928A:  MOVLB  6
0928C:  BTFSC  x3E.7
0928E:  BSF    FF2.7
....................          displayMenu(Menus.Letra,0,30,0,2); 
09290:  MOVLW  06
09292:  MOVWF  x47
09294:  MOVLW  28
09296:  MOVWF  x46
09298:  CLRF   x48
0929A:  MOVLW  1E
0929C:  MOVWF  x49
0929E:  CLRF   x4A
092A0:  MOVLW  02
092A2:  MOVWF  x4B
092A4:  MOVLB  0
092A6:  CALL   3A7C
....................          glcd_update(); 
092AA:  CALL   2C60
....................          delay_ms(1000); 
092AE:  MOVLW  04
092B0:  MOVLB  6
092B2:  MOVWF  x3E
092B4:  MOVLW  FA
092B6:  MOVWF  x47
092B8:  MOVLB  0
092BA:  CALL   1512
092BE:  MOVLB  6
092C0:  DECFSZ x3E,F
092C2:  BRA    92B4
....................          glcd_fillScreen(OFF); 
092C4:  CLRF   x46
092C6:  MOVLB  0
092C8:  CALL   3B48
....................          Menu=32; 
092CC:  MOVLW  20
092CE:  MOVLB  4
092D0:  MOVWF  xD8
092D2:  MOVLB  0
....................       } 
....................     } 
.................... //_--------------------------------------------------------------------------------------------------------------------------------------------------------        
....................  
.................... //_-------------------------------------------------------------------------------------------------------------------------------------------------------- 
....................     if(Menu==200){ //Menu de Inicio. 
092D4:  MOVLB  4
092D6:  MOVF   xD8,W
092D8:  SUBLW  C8
092DA:  BTFSS  FD8.2
092DC:  BRA    942E
....................           
....................          Display_on; 
092DE:  BSF    F8A.1
092E0:  BCF    F93.1
....................          glcd_init(ON);             //Inicializa la glcd 
092E2:  MOVLW  01
092E4:  MOVLB  6
092E6:  MOVWF  x3E
092E8:  MOVLB  0
092EA:  CALL   4ABC
....................          glcd_fillScreen(OFF);      //Limpia la pantalla 
092EE:  MOVLB  6
092F0:  CLRF   x46
092F2:  MOVLB  0
092F4:  CALL   3B48
....................          glcd_text57(0, 0, JP, 2, ON);glcd_text57(5, 20, Cabina, 1, ON);glcd_text57(10, 40, Clase, 2, ON);              
092F8:  MOVLB  6
092FA:  CLRF   x57
092FC:  CLRF   x58
092FE:  MOVLW  04
09300:  MOVWF  x5A
09302:  MOVLW  1E
09304:  MOVWF  x59
09306:  MOVLW  02
09308:  MOVWF  x5B
0930A:  MOVLW  01
0930C:  MOVWF  x5C
0930E:  MOVLB  0
09310:  CALL   380E
09314:  MOVLW  05
09316:  MOVLB  6
09318:  MOVWF  x57
0931A:  MOVLW  14
0931C:  MOVWF  x58
0931E:  MOVLW  04
09320:  MOVWF  x5A
09322:  MOVLW  2A
09324:  MOVWF  x59
09326:  MOVLW  01
09328:  MOVWF  x5B
0932A:  MOVWF  x5C
0932C:  MOVLB  0
0932E:  CALL   380E
09332:  MOVLW  0A
09334:  MOVLB  6
09336:  MOVWF  x57
09338:  MOVLW  28
0933A:  MOVWF  x58
0933C:  MOVLW  04
0933E:  MOVWF  x5A
09340:  MOVLW  48
09342:  MOVWF  x59
09344:  MOVLW  02
09346:  MOVWF  x5B
09348:  MOVLW  01
0934A:  MOVWF  x5C
0934C:  MOVLB  0
0934E:  CALL   380E
....................          glcd_update();    
09352:  CALL   2C60
....................          delay_ms(3000); 
09356:  MOVLW  0C
09358:  MOVLB  6
0935A:  MOVWF  x3E
0935C:  MOVLW  FA
0935E:  MOVWF  x47
09360:  MOVLB  0
09362:  CALL   1512
09366:  MOVLB  6
09368:  DECFSZ x3E,F
0936A:  BRA    935C
....................                         
....................          glcd_fillScreen(OFF);      //Limpia la pantalla 
0936C:  CLRF   x46
0936E:  MOVLB  0
09370:  CALL   3B48
....................          displayContrasena(Contrasena[0],20,30,1);displayContrasena(Contrasena[1],40,30,0); 
09374:  MOVFF  51C,648
09378:  MOVLW  14
0937A:  MOVLB  6
0937C:  MOVWF  x49
0937E:  MOVLW  1E
09380:  MOVWF  x4A
09382:  MOVLW  01
09384:  MOVWF  x4B
09386:  MOVLB  0
09388:  CALL   39C6
0938C:  MOVFF  51D,648
09390:  MOVLW  28
09392:  MOVLB  6
09394:  MOVWF  x49
09396:  MOVLW  1E
09398:  MOVWF  x4A
0939A:  CLRF   x4B
0939C:  MOVLB  0
0939E:  CALL   39C6
....................          displayContrasena(Contrasena[2],60,30,0);displayContrasena(Contrasena[0],80,30,0); 
093A2:  MOVFF  51E,648
093A6:  MOVLW  3C
093A8:  MOVLB  6
093AA:  MOVWF  x49
093AC:  MOVLW  1E
093AE:  MOVWF  x4A
093B0:  CLRF   x4B
093B2:  MOVLB  0
093B4:  CALL   39C6
093B8:  MOVFF  51C,648
093BC:  MOVLW  50
093BE:  MOVLB  6
093C0:  MOVWF  x49
093C2:  MOVLW  1E
093C4:  MOVWF  x4A
093C6:  CLRF   x4B
093C8:  MOVLB  0
093CA:  CALL   39C6
....................          glcd_rect(0, 0, 127, 25, YES, ON);strcpy(Menus.Letra,"Clave");glcd_text57(25, 1, Menus.Letra, 3, OFF);    
093CE:  MOVLB  6
093D0:  CLRF   x57
093D2:  CLRF   x58
093D4:  MOVLW  7F
093D6:  MOVWF  x59
093D8:  MOVLW  19
093DA:  MOVWF  x5A
093DC:  MOVLW  01
093DE:  MOVWF  x5B
093E0:  MOVWF  x5C
093E2:  MOVLB  0
093E4:  CALL   374C
093E8:  MOVLW  06
093EA:  MOVWF  FEA
093EC:  MOVLW  28
093EE:  MOVWF  FE9
093F0:  MOVFF  FF2,63E
093F4:  BCF    FF2.7
093F6:  MOVLW  00
093F8:  CALL   0F0A
093FC:  TBLRD*-
093FE:  TBLRD*+
09400:  MOVF   FF5,W
09402:  MOVWF  FEE
09404:  IORLW  00
09406:  BNZ   93FE
09408:  MOVLB  6
0940A:  BTFSC  x3E.7
0940C:  BSF    FF2.7
0940E:  MOVLW  19
09410:  MOVWF  x57
09412:  MOVLW  01
09414:  MOVWF  x58
09416:  MOVLW  06
09418:  MOVWF  x5A
0941A:  MOVLW  28
0941C:  MOVWF  x59
0941E:  MOVLW  03
09420:  MOVWF  x5B
09422:  CLRF   x5C
09424:  MOVLB  0
09426:  CALL   380E
....................          Menu=0; 
0942A:  MOVLB  4
0942C:  CLRF   xD8
....................     } 
.................... //_--------------------------------------------------------------------------------------------------------------------------------------------------------        
....................  
....................    if(tiemporeset>=60 && Menu!=0 && Menu!=5 && Menu!=211) 
0942E:  MOVF   xDF,W
09430:  SUBLW  3B
09432:  BC    9454
09434:  MOVF   xD8,F
09436:  BZ    9454
09438:  MOVF   xD8,W
0943A:  SUBLW  05
0943C:  BZ    9454
0943E:  MOVF   xD8,W
09440:  SUBLW  D3
09442:  BZ    9454
....................    { 
....................       glcd_init(ON); 
09444:  MOVLW  01
09446:  MOVLB  6
09448:  MOVWF  x3E
0944A:  MOVLB  0
0944C:  CALL   4ABC
....................       tiemporeset=0; 
09450:  MOVLB  4
09452:  CLRF   xDF
....................    }  
.................... } 
09454:  MOVLB  0
09456:  GOTO   50F8
....................  
.................... } 
....................    
0945A:  SLEEP 

Configuration Fuses:
   Word  1: 0200   HS NOIESO NOFCMEN
   Word  2: 1E1F   BROWNOUT NOWDT BORV20 NOPUT WDT32768
   Word  3: 0000   NOPBADEN NOLPT1OSC NOMCLR
   Word  4: 00B0   NOSTVREN NODEBUG NOLVP NOXINST BBSIZ4K
   Word  5: C03F   NOPROTECT NOCPD NOCPB
   Word  6: E03F   NOWRT NOWRTD NOWRTC NOWRTB
   Word  7: 403F   NOEBTR NOEBTRB
